
STM32F103C8T6_LibV3.5.elf:     file format elf32-littlearm

Sections:
Idx Name          Size      VMA       LMA       File off  Algn
  0 .isr_vector   0000010c  08000000  08000000  00008000  2**0
                  CONTENTS, ALLOC, LOAD, READONLY, DATA
  1 .text         0000844c  08000110  08000110  00008110  2**3
                  CONTENTS, ALLOC, LOAD, READONLY, CODE
  2 .ARM          00000008  0800855c  0800855c  0001055c  2**2
                  CONTENTS, ALLOC, LOAD, READONLY, DATA
  3 .init_array   00000004  08008564  08008564  00010564  2**2
                  CONTENTS, ALLOC, LOAD, DATA
  4 .fini_array   00000004  08008568  08008568  00010568  2**2
                  CONTENTS, ALLOC, LOAD, DATA
  5 .data         00000598  20000000  0800856c  00018000  2**2
                  CONTENTS, ALLOC, LOAD, DATA
  6 .bss          0000005c  20000598  08008b04  00018598  2**2
                  ALLOC
  7 ._user_heap_stack 00000100  200005f4  08008b60  00018598  2**0
                  ALLOC
  8 .ARM.attributes 00000027  00000000  00000000  00018598  2**0
                  CONTENTS, READONLY
  9 .debug_info   00003b1c  00000000  00000000  000185bf  2**0
                  CONTENTS, READONLY, DEBUGGING
 10 .debug_abbrev 00000be6  00000000  00000000  0001c0db  2**0
                  CONTENTS, READONLY, DEBUGGING
 11 .debug_loc    00001ba4  00000000  00000000  0001ccc1  2**0
                  CONTENTS, READONLY, DEBUGGING
 12 .debug_aranges 00000518  00000000  00000000  0001e868  2**3
                  CONTENTS, READONLY, DEBUGGING
 13 .debug_ranges 00000490  00000000  00000000  0001ed80  2**3
                  CONTENTS, READONLY, DEBUGGING
 14 .debug_macro  0000e394  00000000  00000000  0001f210  2**0
                  CONTENTS, READONLY, DEBUGGING
 15 .debug_line   000034d9  00000000  00000000  0002d5a4  2**0
                  CONTENTS, READONLY, DEBUGGING
 16 .debug_str    00052151  00000000  00000000  00030a7d  2**0
                  CONTENTS, READONLY, DEBUGGING
 17 .comment      00000030  00000000  00000000  00082bce  2**0
                  CONTENTS, READONLY
 18 .debug_frame  00001d58  00000000  00000000  00082c00  2**2
                  CONTENTS, READONLY, DEBUGGING

Disassembly of section .text:

08000110 <deregister_tm_clones>:
 8000110:	b508      	push	{r3, lr}
 8000112:	f240 5098 	movw	r0, #1432	; 0x598
 8000116:	4b07      	ldr	r3, [pc, #28]	; (8000134 <deregister_tm_clones+0x24>)
 8000118:	f2c2 0000 	movt	r0, #8192	; 0x2000
 800011c:	1a1b      	subs	r3, r3, r0
 800011e:	2b06      	cmp	r3, #6
 8000120:	d800      	bhi.n	8000124 <deregister_tm_clones+0x14>
 8000122:	bd08      	pop	{r3, pc}
 8000124:	f240 0300 	movw	r3, #0
 8000128:	f2c0 0300 	movt	r3, #0
 800012c:	2b00      	cmp	r3, #0
 800012e:	d0f8      	beq.n	8000122 <deregister_tm_clones+0x12>
 8000130:	4798      	blx	r3
 8000132:	e7f6      	b.n	8000122 <deregister_tm_clones+0x12>
 8000134:	2000059b 	.word	0x2000059b

08000138 <register_tm_clones>:
 8000138:	b508      	push	{r3, lr}
 800013a:	f240 5098 	movw	r0, #1432	; 0x598
 800013e:	f240 5398 	movw	r3, #1432	; 0x598
 8000142:	f2c2 0000 	movt	r0, #8192	; 0x2000
 8000146:	f2c2 0300 	movt	r3, #8192	; 0x2000
 800014a:	1a1b      	subs	r3, r3, r0
 800014c:	109b      	asrs	r3, r3, #2
 800014e:	eb03 73d3 	add.w	r3, r3, r3, lsr #31
 8000152:	1059      	asrs	r1, r3, #1
 8000154:	d100      	bne.n	8000158 <register_tm_clones+0x20>
 8000156:	bd08      	pop	{r3, pc}
 8000158:	f240 0200 	movw	r2, #0
 800015c:	f2c0 0200 	movt	r2, #0
 8000160:	2a00      	cmp	r2, #0
 8000162:	d0f8      	beq.n	8000156 <register_tm_clones+0x1e>
 8000164:	4790      	blx	r2
 8000166:	e7f6      	b.n	8000156 <register_tm_clones+0x1e>

08000168 <__do_global_dtors_aux>:
 8000168:	b510      	push	{r4, lr}
 800016a:	f240 5498 	movw	r4, #1432	; 0x598
 800016e:	f2c2 0400 	movt	r4, #8192	; 0x2000
 8000172:	7823      	ldrb	r3, [r4, #0]
 8000174:	b973      	cbnz	r3, 8000194 <__do_global_dtors_aux+0x2c>
 8000176:	f7ff ffcb 	bl	8000110 <deregister_tm_clones>
 800017a:	f240 0300 	movw	r3, #0
 800017e:	f2c0 0300 	movt	r3, #0
 8000182:	b12b      	cbz	r3, 8000190 <__do_global_dtors_aux+0x28>
 8000184:	f248 5044 	movw	r0, #34116	; 0x8544
 8000188:	f6c0 0000 	movt	r0, #2048	; 0x800
 800018c:	f3af 8000 	nop.w
 8000190:	2301      	movs	r3, #1
 8000192:	7023      	strb	r3, [r4, #0]
 8000194:	bd10      	pop	{r4, pc}
 8000196:	bf00      	nop

08000198 <frame_dummy>:
 8000198:	b508      	push	{r3, lr}
 800019a:	f240 0300 	movw	r3, #0
 800019e:	f2c0 0300 	movt	r3, #0
 80001a2:	b14b      	cbz	r3, 80001b8 <frame_dummy+0x20>
 80001a4:	f248 5044 	movw	r0, #34116	; 0x8544
 80001a8:	f240 519c 	movw	r1, #1436	; 0x59c
 80001ac:	f6c0 0000 	movt	r0, #2048	; 0x800
 80001b0:	f2c2 0100 	movt	r1, #8192	; 0x2000
 80001b4:	f3af 8000 	nop.w
 80001b8:	f240 5098 	movw	r0, #1432	; 0x598
 80001bc:	f2c2 0000 	movt	r0, #8192	; 0x2000
 80001c0:	6803      	ldr	r3, [r0, #0]
 80001c2:	b12b      	cbz	r3, 80001d0 <frame_dummy+0x38>
 80001c4:	f240 0300 	movw	r3, #0
 80001c8:	f2c0 0300 	movt	r3, #0
 80001cc:	b103      	cbz	r3, 80001d0 <frame_dummy+0x38>
 80001ce:	4798      	blx	r3
 80001d0:	e8bd 4008 	ldmia.w	sp!, {r3, lr}
 80001d4:	f7ff bfb0 	b.w	8000138 <register_tm_clones>

080001d8 <__libc_init_array>:
 80001d8:	b570      	push	{r4, r5, r6, lr}
 80001da:	f248 5664 	movw	r6, #34148	; 0x8564
 80001de:	f248 5564 	movw	r5, #34148	; 0x8564
 80001e2:	f6c0 0600 	movt	r6, #2048	; 0x800
 80001e6:	f6c0 0500 	movt	r5, #2048	; 0x800
 80001ea:	1b76      	subs	r6, r6, r5
 80001ec:	10b6      	asrs	r6, r6, #2
 80001ee:	d007      	beq.n	8000200 <__libc_init_array+0x28>
 80001f0:	3d04      	subs	r5, #4
 80001f2:	2400      	movs	r4, #0
 80001f4:	f855 3f04 	ldr.w	r3, [r5, #4]!
 80001f8:	3401      	adds	r4, #1
 80001fa:	4798      	blx	r3
 80001fc:	42a6      	cmp	r6, r4
 80001fe:	d1f9      	bne.n	80001f4 <__libc_init_array+0x1c>
 8000200:	f248 5668 	movw	r6, #34152	; 0x8568
 8000204:	f248 5564 	movw	r5, #34148	; 0x8564
 8000208:	f6c0 0600 	movt	r6, #2048	; 0x800
 800020c:	f6c0 0500 	movt	r5, #2048	; 0x800
 8000210:	1b76      	subs	r6, r6, r5
 8000212:	f008 f997 	bl	8008544 <_init>
 8000216:	10b6      	asrs	r6, r6, #2
 8000218:	d008      	beq.n	800022c <__libc_init_array+0x54>
 800021a:	3d04      	subs	r5, #4
 800021c:	2400      	movs	r4, #0
 800021e:	f855 3f04 	ldr.w	r3, [r5, #4]!
 8000222:	3401      	adds	r4, #1
 8000224:	4798      	blx	r3
 8000226:	42a6      	cmp	r6, r4
 8000228:	d1f9      	bne.n	800021e <__libc_init_array+0x46>
 800022a:	bd70      	pop	{r4, r5, r6, pc}
 800022c:	bd70      	pop	{r4, r5, r6, pc}
 800022e:	bf00      	nop

08000230 <_printf_r>:
 8000230:	b40e      	push	{r1, r2, r3}
 8000232:	b510      	push	{r4, lr}
 8000234:	4604      	mov	r4, r0
 8000236:	b083      	sub	sp, #12
 8000238:	b118      	cbz	r0, 8000242 <_printf_r+0x12>
 800023a:	6983      	ldr	r3, [r0, #24]
 800023c:	b90b      	cbnz	r3, 8000242 <_printf_r+0x12>
 800023e:	f002 fe55 	bl	8002eec <__sinit>
 8000242:	4620      	mov	r0, r4
 8000244:	ac06      	add	r4, sp, #24
 8000246:	9a05      	ldr	r2, [sp, #20]
 8000248:	4623      	mov	r3, r4
 800024a:	6881      	ldr	r1, [r0, #8]
 800024c:	9401      	str	r4, [sp, #4]
 800024e:	f000 f8c9 	bl	80003e4 <_vfprintf_r>
 8000252:	b003      	add	sp, #12
 8000254:	e8bd 4010 	ldmia.w	sp!, {r4, lr}
 8000258:	b003      	add	sp, #12
 800025a:	4770      	bx	lr

0800025c <printf>:
 800025c:	b40f      	push	{r0, r1, r2, r3}
 800025e:	f240 0300 	movw	r3, #0
 8000262:	f2c2 0300 	movt	r3, #8192	; 0x2000
 8000266:	b510      	push	{r4, lr}
 8000268:	b082      	sub	sp, #8
 800026a:	681c      	ldr	r4, [r3, #0]
 800026c:	b124      	cbz	r4, 8000278 <printf+0x1c>
 800026e:	69a3      	ldr	r3, [r4, #24]
 8000270:	b913      	cbnz	r3, 8000278 <printf+0x1c>
 8000272:	4620      	mov	r0, r4
 8000274:	f002 fe3a 	bl	8002eec <__sinit>
 8000278:	4620      	mov	r0, r4
 800027a:	ac05      	add	r4, sp, #20
 800027c:	9a04      	ldr	r2, [sp, #16]
 800027e:	4623      	mov	r3, r4
 8000280:	6881      	ldr	r1, [r0, #8]
 8000282:	9401      	str	r4, [sp, #4]
 8000284:	f000 f8ae 	bl	80003e4 <_vfprintf_r>
 8000288:	b002      	add	sp, #8
 800028a:	e8bd 4010 	ldmia.w	sp!, {r4, lr}
 800028e:	b004      	add	sp, #16
 8000290:	4770      	bx	lr
 8000292:	bf00      	nop

08000294 <setvbuf>:
 8000294:	e92d 43f8 	stmdb	sp!, {r3, r4, r5, r6, r7, r8, r9, lr}
 8000298:	f240 0500 	movw	r5, #0
 800029c:	f2c2 0500 	movt	r5, #8192	; 0x2000
 80002a0:	4604      	mov	r4, r0
 80002a2:	4689      	mov	r9, r1
 80002a4:	4690      	mov	r8, r2
 80002a6:	6828      	ldr	r0, [r5, #0]
 80002a8:	461f      	mov	r7, r3
 80002aa:	b110      	cbz	r0, 80002b2 <setvbuf+0x1e>
 80002ac:	6983      	ldr	r3, [r0, #24]
 80002ae:	2b00      	cmp	r3, #0
 80002b0:	d05a      	beq.n	8000368 <setvbuf+0xd4>
 80002b2:	f248 3378 	movw	r3, #33656	; 0x8378
 80002b6:	f6c0 0300 	movt	r3, #2048	; 0x800
 80002ba:	429c      	cmp	r4, r3
 80002bc:	d05c      	beq.n	8000378 <setvbuf+0xe4>
 80002be:	f248 3358 	movw	r3, #33624	; 0x8358
 80002c2:	f6c0 0300 	movt	r3, #2048	; 0x800
 80002c6:	429c      	cmp	r4, r3
 80002c8:	d06d      	beq.n	80003a6 <setvbuf+0x112>
 80002ca:	f248 3338 	movw	r3, #33592	; 0x8338
 80002ce:	f6c0 0300 	movt	r3, #2048	; 0x800
 80002d2:	429c      	cmp	r4, r3
 80002d4:	bf04      	itt	eq
 80002d6:	682b      	ldreq	r3, [r5, #0]
 80002d8:	68dc      	ldreq	r4, [r3, #12]
 80002da:	f1b8 0f02 	cmp.w	r8, #2
 80002de:	bf94      	ite	ls
 80002e0:	2300      	movls	r3, #0
 80002e2:	2301      	movhi	r3, #1
 80002e4:	ea53 76d7 	orrs.w	r6, r3, r7, lsr #31
 80002e8:	d134      	bne.n	8000354 <setvbuf+0xc0>
 80002ea:	4621      	mov	r1, r4
 80002ec:	6828      	ldr	r0, [r5, #0]
 80002ee:	f002 fccb 	bl	8002c88 <_fflush_r>
 80002f2:	89a2      	ldrh	r2, [r4, #12]
 80002f4:	f240 0100 	movw	r1, #0
 80002f8:	6066      	str	r6, [r4, #4]
 80002fa:	f002 0380 	and.w	r3, r2, #128	; 0x80
 80002fe:	f2c2 0100 	movt	r1, #8192	; 0x2000
 8000302:	61a6      	str	r6, [r4, #24]
 8000304:	b21b      	sxth	r3, r3
 8000306:	bb4b      	cbnz	r3, 800035c <setvbuf+0xc8>
 8000308:	f1b8 0f02 	cmp.w	r8, #2
 800030c:	f64f 767c 	movw	r6, #65404	; 0xff7c
 8000310:	ea02 0606 	and.w	r6, r2, r6
 8000314:	81a6      	strh	r6, [r4, #12]
 8000316:	d038      	beq.n	800038a <setvbuf+0xf6>
 8000318:	f1b9 0f00 	cmp.w	r9, #0
 800031c:	d046      	beq.n	80003ac <setvbuf+0x118>
 800031e:	f1b8 0f01 	cmp.w	r8, #1
 8000322:	d02c      	beq.n	800037e <setvbuf+0xea>
 8000324:	682a      	ldr	r2, [r5, #0]
 8000326:	f006 0008 	and.w	r0, r6, #8
 800032a:	f642 6351 	movw	r3, #11857	; 0x2e51
 800032e:	b200      	sxth	r0, r0
 8000330:	f6c0 0300 	movt	r3, #2048	; 0x800
 8000334:	6293      	str	r3, [r2, #40]	; 0x28
 8000336:	f8c4 9000 	str.w	r9, [r4]
 800033a:	f8c4 9010 	str.w	r9, [r4, #16]
 800033e:	6167      	str	r7, [r4, #20]
 8000340:	b150      	cbz	r0, 8000358 <setvbuf+0xc4>
 8000342:	f016 0f03 	tst.w	r6, #3
 8000346:	f04f 0000 	mov.w	r0, #0
 800034a:	bf18      	it	ne
 800034c:	4607      	movne	r7, r0
 800034e:	60a7      	str	r7, [r4, #8]
 8000350:	e8bd 83f8 	ldmia.w	sp!, {r3, r4, r5, r6, r7, r8, r9, pc}
 8000354:	f04f 30ff 	mov.w	r0, #4294967295
 8000358:	e8bd 83f8 	ldmia.w	sp!, {r3, r4, r5, r6, r7, r8, r9, pc}
 800035c:	6808      	ldr	r0, [r1, #0]
 800035e:	6921      	ldr	r1, [r4, #16]
 8000360:	f002 fea8 	bl	80030b4 <_free_r>
 8000364:	89a2      	ldrh	r2, [r4, #12]
 8000366:	e7cf      	b.n	8000308 <setvbuf+0x74>
 8000368:	f002 fdc0 	bl	8002eec <__sinit>
 800036c:	f248 3378 	movw	r3, #33656	; 0x8378
 8000370:	f6c0 0300 	movt	r3, #2048	; 0x800
 8000374:	429c      	cmp	r4, r3
 8000376:	d1a2      	bne.n	80002be <setvbuf+0x2a>
 8000378:	682b      	ldr	r3, [r5, #0]
 800037a:	685c      	ldr	r4, [r3, #4]
 800037c:	e7ad      	b.n	80002da <setvbuf+0x46>
 800037e:	f046 0601 	orr.w	r6, r6, #1
 8000382:	427b      	negs	r3, r7
 8000384:	81a6      	strh	r6, [r4, #12]
 8000386:	61a3      	str	r3, [r4, #24]
 8000388:	e7cc      	b.n	8000324 <setvbuf+0x90>
 800038a:	2000      	movs	r0, #0
 800038c:	f104 0347 	add.w	r3, r4, #71	; 0x47
 8000390:	f046 0602 	orr.w	r6, r6, #2
 8000394:	2200      	movs	r2, #0
 8000396:	6023      	str	r3, [r4, #0]
 8000398:	6123      	str	r3, [r4, #16]
 800039a:	2301      	movs	r3, #1
 800039c:	81a6      	strh	r6, [r4, #12]
 800039e:	60a2      	str	r2, [r4, #8]
 80003a0:	6163      	str	r3, [r4, #20]
 80003a2:	e8bd 83f8 	ldmia.w	sp!, {r3, r4, r5, r6, r7, r8, r9, pc}
 80003a6:	682b      	ldr	r3, [r5, #0]
 80003a8:	689c      	ldr	r4, [r3, #8]
 80003aa:	e796      	b.n	80002da <setvbuf+0x46>
 80003ac:	2f00      	cmp	r7, #0
 80003ae:	bf08      	it	eq
 80003b0:	f44f 6780 	moveq.w	r7, #1024	; 0x400
 80003b4:	4638      	mov	r0, r7
 80003b6:	f003 f85d 	bl	8003474 <malloc>
 80003ba:	4681      	mov	r9, r0
 80003bc:	b128      	cbz	r0, 80003ca <setvbuf+0x136>
 80003be:	89a6      	ldrh	r6, [r4, #12]
 80003c0:	f046 0680 	orr.w	r6, r6, #128	; 0x80
 80003c4:	b2b6      	uxth	r6, r6
 80003c6:	81a6      	strh	r6, [r4, #12]
 80003c8:	e7a9      	b.n	800031e <setvbuf+0x8a>
 80003ca:	f44f 6080 	mov.w	r0, #1024	; 0x400
 80003ce:	f003 f851 	bl	8003474 <malloc>
 80003d2:	4681      	mov	r9, r0
 80003d4:	b918      	cbnz	r0, 80003de <setvbuf+0x14a>
 80003d6:	89a6      	ldrh	r6, [r4, #12]
 80003d8:	f04f 30ff 	mov.w	r0, #4294967295
 80003dc:	e7d6      	b.n	800038c <setvbuf+0xf8>
 80003de:	f44f 6780 	mov.w	r7, #1024	; 0x400
 80003e2:	e7ec      	b.n	80003be <setvbuf+0x12a>

080003e4 <_vfprintf_r>:
 80003e4:	e92d 4ff0 	stmdb	sp!, {r4, r5, r6, r7, r8, r9, sl, fp, lr}
 80003e8:	f2ad 5d4c 	subw	sp, sp, #1356	; 0x54c
 80003ec:	468a      	mov	sl, r1
 80003ee:	4614      	mov	r4, r2
 80003f0:	9313      	str	r3, [sp, #76]	; 0x4c
 80003f2:	900e      	str	r0, [sp, #56]	; 0x38
 80003f4:	f002 ffb4 	bl	8003360 <_localeconv_r>
 80003f8:	2200      	movs	r2, #0
 80003fa:	2300      	movs	r3, #0
 80003fc:	e9cd 231c 	strd	r2, r3, [sp, #112]	; 0x70
 8000400:	6800      	ldr	r0, [r0, #0]
 8000402:	9019      	str	r0, [sp, #100]	; 0x64
 8000404:	f004 fa78 	bl	80048f8 <strlen>
 8000408:	9d0e      	ldr	r5, [sp, #56]	; 0x38
 800040a:	901e      	str	r0, [sp, #120]	; 0x78
 800040c:	b11d      	cbz	r5, 8000416 <_vfprintf_r+0x32>
 800040e:	69ab      	ldr	r3, [r5, #24]
 8000410:	2b00      	cmp	r3, #0
 8000412:	f000 81b2 	beq.w	800077a <_vfprintf_r+0x396>
 8000416:	f248 3378 	movw	r3, #33656	; 0x8378
 800041a:	f6c0 0300 	movt	r3, #2048	; 0x800
 800041e:	459a      	cmp	sl, r3
 8000420:	f000 81b5 	beq.w	800078e <_vfprintf_r+0x3aa>
 8000424:	f248 3358 	movw	r3, #33624	; 0x8358
 8000428:	f6c0 0300 	movt	r3, #2048	; 0x800
 800042c:	459a      	cmp	sl, r3
 800042e:	f000 8712 	beq.w	8001256 <_vfprintf_r+0xe72>
 8000432:	f248 3338 	movw	r3, #33592	; 0x8338
 8000436:	f6c0 0300 	movt	r3, #2048	; 0x800
 800043a:	459a      	cmp	sl, r3
 800043c:	bf04      	itt	eq
 800043e:	9d0e      	ldreq	r5, [sp, #56]	; 0x38
 8000440:	f8d5 a00c 	ldreq.w	sl, [r5, #12]
 8000444:	f8ba 500c 	ldrh.w	r5, [sl, #12]
 8000448:	f405 5300 	and.w	r3, r5, #8192	; 0x2000
 800044c:	b21b      	sxth	r3, r3
 800044e:	b94b      	cbnz	r3, 8000464 <_vfprintf_r+0x80>
 8000450:	f8da 3064 	ldr.w	r3, [sl, #100]	; 0x64
 8000454:	f445 5500 	orr.w	r5, r5, #8192	; 0x2000
 8000458:	f8aa 500c 	strh.w	r5, [sl, #12]
 800045c:	f423 5300 	bic.w	r3, r3, #8192	; 0x2000
 8000460:	f8ca 3064 	str.w	r3, [sl, #100]	; 0x64
 8000464:	f005 0308 	and.w	r3, r5, #8
 8000468:	b21b      	sxth	r3, r3
 800046a:	2b00      	cmp	r3, #0
 800046c:	f000 80cd 	beq.w	800060a <_vfprintf_r+0x226>
 8000470:	f8da 3010 	ldr.w	r3, [sl, #16]
 8000474:	2b00      	cmp	r3, #0
 8000476:	f000 80c8 	beq.w	800060a <_vfprintf_r+0x226>
 800047a:	f005 031a 	and.w	r3, r5, #26
 800047e:	2b0a      	cmp	r3, #10
 8000480:	f000 80d1 	beq.w	8000626 <_vfprintf_r+0x242>
 8000484:	ad38      	add	r5, sp, #224	; 0xe0
 8000486:	940c      	str	r4, [sp, #48]	; 0x30
 8000488:	950a      	str	r5, [sp, #40]	; 0x28
 800048a:	f248 44f0 	movw	r4, #34032	; 0x84f0
 800048e:	f10d 08ac 	add.w	r8, sp, #172	; 0xac
 8000492:	f6c0 0400 	movt	r4, #2048	; 0x800
 8000496:	46d1      	mov	r9, sl
 8000498:	9417      	str	r4, [sp, #92]	; 0x5c
 800049a:	9c0a      	ldr	r4, [sp, #40]	; 0x28
 800049c:	f10d 07df 	add.w	r7, sp, #223	; 0xdf
 80004a0:	f248 45ec 	movw	r5, #34028	; 0x84ec
 80004a4:	2300      	movs	r3, #0
 80004a6:	9709      	str	r7, [sp, #36]	; 0x24
 80004a8:	ae52      	add	r6, sp, #328	; 0x148
 80004aa:	f6c0 0500 	movt	r5, #2048	; 0x800
 80004ae:	1be7      	subs	r7, r4, r7
 80004b0:	9314      	str	r3, [sp, #80]	; 0x50
 80004b2:	931a      	str	r3, [sp, #104]	; 0x68
 80004b4:	931f      	str	r3, [sp, #124]	; 0x7c
 80004b6:	9310      	str	r3, [sp, #64]	; 0x40
 80004b8:	9518      	str	r5, [sp, #96]	; 0x60
 80004ba:	9721      	str	r7, [sp, #132]	; 0x84
 80004bc:	f8c8 6000 	str.w	r6, [r8]
 80004c0:	f8c8 3008 	str.w	r3, [r8, #8]
 80004c4:	f8c8 3004 	str.w	r3, [r8, #4]
 80004c8:	9d0c      	ldr	r5, [sp, #48]	; 0x30
 80004ca:	782b      	ldrb	r3, [r5, #0]
 80004cc:	2b25      	cmp	r3, #37	; 0x25
 80004ce:	bf18      	it	ne
 80004d0:	2b00      	cmpne	r3, #0
 80004d2:	f000 8160 	beq.w	8000796 <_vfprintf_r+0x3b2>
 80004d6:	1c6a      	adds	r2, r5, #1
 80004d8:	4614      	mov	r4, r2
 80004da:	3201      	adds	r2, #1
 80004dc:	7823      	ldrb	r3, [r4, #0]
 80004de:	2b25      	cmp	r3, #37	; 0x25
 80004e0:	bf18      	it	ne
 80004e2:	2b00      	cmpne	r3, #0
 80004e4:	d1f8      	bne.n	80004d8 <_vfprintf_r+0xf4>
 80004e6:	9f0c      	ldr	r7, [sp, #48]	; 0x30
 80004e8:	1be5      	subs	r5, r4, r7
 80004ea:	d012      	beq.n	8000512 <_vfprintf_r+0x12e>
 80004ec:	f8d8 3004 	ldr.w	r3, [r8, #4]
 80004f0:	f8d8 2008 	ldr.w	r2, [r8, #8]
 80004f4:	3301      	adds	r3, #1
 80004f6:	6037      	str	r7, [r6, #0]
 80004f8:	2b07      	cmp	r3, #7
 80004fa:	6075      	str	r5, [r6, #4]
 80004fc:	442a      	add	r2, r5
 80004fe:	f8c8 3004 	str.w	r3, [r8, #4]
 8000502:	f8c8 2008 	str.w	r2, [r8, #8]
 8000506:	f300 812f 	bgt.w	8000768 <_vfprintf_r+0x384>
 800050a:	3608      	adds	r6, #8
 800050c:	9f10      	ldr	r7, [sp, #64]	; 0x40
 800050e:	197f      	adds	r7, r7, r5
 8000510:	9710      	str	r7, [sp, #64]	; 0x40
 8000512:	7823      	ldrb	r3, [r4, #0]
 8000514:	2b00      	cmp	r3, #0
 8000516:	f001 80c3 	beq.w	80016a0 <_vfprintf_r+0x12bc>
 800051a:	1c65      	adds	r5, r4, #1
 800051c:	950c      	str	r5, [sp, #48]	; 0x30
 800051e:	2300      	movs	r3, #0
 8000520:	7865      	ldrb	r5, [r4, #1]
 8000522:	930f      	str	r3, [sp, #60]	; 0x3c
 8000524:	f04f 3cff 	mov.w	ip, #4294967295
 8000528:	f88d 308b 	strb.w	r3, [sp, #139]	; 0x8b
 800052c:	2020      	movs	r0, #32
 800052e:	930b      	str	r3, [sp, #44]	; 0x2c
 8000530:	212b      	movs	r1, #43	; 0x2b
 8000532:	9b0c      	ldr	r3, [sp, #48]	; 0x30
 8000534:	3301      	adds	r3, #1
 8000536:	f1a5 0220 	sub.w	r2, r5, #32
 800053a:	2a58      	cmp	r2, #88	; 0x58
 800053c:	f200 83f6 	bhi.w	8000d2c <_vfprintf_r+0x948>
 8000540:	e8df f012 	tbh	[pc, r2, lsl #1]
 8000544:	03f40402 	.word	0x03f40402
 8000548:	040c03f4 	.word	0x040c03f4
 800054c:	03f403f4 	.word	0x03f403f4
 8000550:	03f403f4 	.word	0x03f403f4
 8000554:	03f403f4 	.word	0x03f403f4
 8000558:	012b0413 	.word	0x012b0413
 800055c:	005d03f4 	.word	0x005d03f4
 8000560:	03f4012f 	.word	0x03f4012f
 8000564:	0154014e 	.word	0x0154014e
 8000568:	01540154 	.word	0x01540154
 800056c:	01540154 	.word	0x01540154
 8000570:	01540154 	.word	0x01540154
 8000574:	01540154 	.word	0x01540154
 8000578:	03f403f4 	.word	0x03f403f4
 800057c:	03f403f4 	.word	0x03f403f4
 8000580:	03f403f4 	.word	0x03f403f4
 8000584:	03f403f4 	.word	0x03f403f4
 8000588:	03f403f4 	.word	0x03f403f4
 800058c:	041f0165 	.word	0x041f0165
 8000590:	041f03f4 	.word	0x041f03f4
 8000594:	03f403f4 	.word	0x03f403f4
 8000598:	03f403f4 	.word	0x03f403f4
 800059c:	03f40460 	.word	0x03f40460
 80005a0:	046703f4 	.word	0x046703f4
 80005a4:	03f403f4 	.word	0x03f403f4
 80005a8:	03f403f4 	.word	0x03f403f4
 80005ac:	048203f4 	.word	0x048203f4
 80005b0:	03f403f4 	.word	0x03f403f4
 80005b4:	03f40303 	.word	0x03f40303
 80005b8:	03f403f4 	.word	0x03f403f4
 80005bc:	03f403f4 	.word	0x03f403f4
 80005c0:	03f403f4 	.word	0x03f403f4
 80005c4:	03f403f4 	.word	0x03f403f4
 80005c8:	032503f4 	.word	0x032503f4
 80005cc:	041f0338 	.word	0x041f0338
 80005d0:	041f041f 	.word	0x041f041f
 80005d4:	0338034c 	.word	0x0338034c
 80005d8:	03f403f4 	.word	0x03f403f4
 80005dc:	03f40352 	.word	0x03f40352
 80005e0:	036b035c 	.word	0x036b035c
 80005e4:	039e0381 	.word	0x039e0381
 80005e8:	03a403f4 	.word	0x03a403f4
 80005ec:	03d403f4 	.word	0x03d403f4
 80005f0:	03f403f4 	.word	0x03f403f4
 80005f4:	03dd      	.short	0x03dd
 80005f6:	9c0f      	ldr	r4, [sp, #60]	; 0x3c
 80005f8:	9213      	str	r2, [sp, #76]	; 0x4c
 80005fa:	4264      	negs	r4, r4
 80005fc:	940f      	str	r4, [sp, #60]	; 0x3c
 80005fe:	9d0b      	ldr	r5, [sp, #44]	; 0x2c
 8000600:	f045 0504 	orr.w	r5, r5, #4
 8000604:	950b      	str	r5, [sp, #44]	; 0x2c
 8000606:	781d      	ldrb	r5, [r3, #0]
 8000608:	e794      	b.n	8000534 <_vfprintf_r+0x150>
 800060a:	980e      	ldr	r0, [sp, #56]	; 0x38
 800060c:	4651      	mov	r1, sl
 800060e:	f001 fa83 	bl	8001b18 <__swsetup_r>
 8000612:	2800      	cmp	r0, #0
 8000614:	f040 809f 	bne.w	8000756 <_vfprintf_r+0x372>
 8000618:	f8ba 500c 	ldrh.w	r5, [sl, #12]
 800061c:	f005 031a 	and.w	r3, r5, #26
 8000620:	2b0a      	cmp	r3, #10
 8000622:	f47f af2f 	bne.w	8000484 <_vfprintf_r+0xa0>
 8000626:	f8ba 600e 	ldrh.w	r6, [sl, #14]
 800062a:	0433      	lsls	r3, r6, #16
 800062c:	f53f af2a 	bmi.w	8000484 <_vfprintf_r+0xa0>
 8000630:	f025 0502 	bic.w	r5, r5, #2
 8000634:	f8ad 50ec 	strh.w	r5, [sp, #236]	; 0xec
 8000638:	f8da 5064 	ldr.w	r5, [sl, #100]	; 0x64
 800063c:	4622      	mov	r2, r4
 800063e:	980e      	ldr	r0, [sp, #56]	; 0x38
 8000640:	a938      	add	r1, sp, #224	; 0xe0
 8000642:	9b13      	ldr	r3, [sp, #76]	; 0x4c
 8000644:	ac52      	add	r4, sp, #328	; 0x148
 8000646:	9551      	str	r5, [sp, #324]	; 0x144
 8000648:	f44f 6780 	mov.w	r7, #1024	; 0x400
 800064c:	f8da 5020 	ldr.w	r5, [sl, #32]
 8000650:	9438      	str	r4, [sp, #224]	; 0xe0
 8000652:	943c      	str	r4, [sp, #240]	; 0xf0
 8000654:	2400      	movs	r4, #0
 8000656:	9540      	str	r5, [sp, #256]	; 0x100
 8000658:	f8da 5028 	ldr.w	r5, [sl, #40]	; 0x28
 800065c:	f8ad 60ee 	strh.w	r6, [sp, #238]	; 0xee
 8000660:	973a      	str	r7, [sp, #232]	; 0xe8
 8000662:	9542      	str	r5, [sp, #264]	; 0x108
 8000664:	973d      	str	r7, [sp, #244]	; 0xf4
 8000666:	943e      	str	r4, [sp, #248]	; 0xf8
 8000668:	f7ff febc 	bl	80003e4 <_vfprintf_r>
 800066c:	2800      	cmp	r0, #0
 800066e:	9010      	str	r0, [sp, #64]	; 0x40
 8000670:	db09      	blt.n	8000686 <_vfprintf_r+0x2a2>
 8000672:	980e      	ldr	r0, [sp, #56]	; 0x38
 8000674:	a938      	add	r1, sp, #224	; 0xe0
 8000676:	f002 fb07 	bl	8002c88 <_fflush_r>
 800067a:	9f10      	ldr	r7, [sp, #64]	; 0x40
 800067c:	42a0      	cmp	r0, r4
 800067e:	bf18      	it	ne
 8000680:	f04f 37ff 	movne.w	r7, #4294967295
 8000684:	9710      	str	r7, [sp, #64]	; 0x40
 8000686:	f8bd 30ec 	ldrh.w	r3, [sp, #236]	; 0xec
 800068a:	f003 0340 	and.w	r3, r3, #64	; 0x40
 800068e:	b21b      	sxth	r3, r3
 8000690:	2b00      	cmp	r3, #0
 8000692:	d063      	beq.n	800075c <_vfprintf_r+0x378>
 8000694:	f8ba 300c 	ldrh.w	r3, [sl, #12]
 8000698:	f043 0340 	orr.w	r3, r3, #64	; 0x40
 800069c:	f8aa 300c 	strh.w	r3, [sl, #12]
 80006a0:	e05c      	b.n	800075c <_vfprintf_r+0x378>
 80006a2:	980e      	ldr	r0, [sp, #56]	; 0x38
 80006a4:	4649      	mov	r1, r9
 80006a6:	4642      	mov	r2, r8
 80006a8:	f004 f956 	bl	8004958 <__sprint_r>
 80006ac:	2800      	cmp	r0, #0
 80006ae:	d14b      	bne.n	8000748 <_vfprintf_r+0x364>
 80006b0:	ae52      	add	r6, sp, #328	; 0x148
 80006b2:	9c0b      	ldr	r4, [sp, #44]	; 0x2c
 80006b4:	05e3      	lsls	r3, r4, #23
 80006b6:	f100 81e4 	bmi.w	8000a82 <_vfprintf_r+0x69e>
 80006ba:	f8d8 3004 	ldr.w	r3, [r8, #4]
 80006be:	9d11      	ldr	r5, [sp, #68]	; 0x44
 80006c0:	3301      	adds	r3, #1
 80006c2:	f8d8 2008 	ldr.w	r2, [r8, #8]
 80006c6:	6037      	str	r7, [r6, #0]
 80006c8:	2b07      	cmp	r3, #7
 80006ca:	6075      	str	r5, [r6, #4]
 80006cc:	442a      	add	r2, r5
 80006ce:	f8c8 3004 	str.w	r3, [r8, #4]
 80006d2:	f8c8 2008 	str.w	r2, [r8, #8]
 80006d6:	f300 8425 	bgt.w	8000f24 <_vfprintf_r+0xb40>
 80006da:	3608      	adds	r6, #8
 80006dc:	9d0b      	ldr	r5, [sp, #44]	; 0x2c
 80006de:	076b      	lsls	r3, r5, #29
 80006e0:	f140 842d 	bpl.w	8000f3e <_vfprintf_r+0xb5a>
 80006e4:	9f0f      	ldr	r7, [sp, #60]	; 0x3c
 80006e6:	9d0d      	ldr	r5, [sp, #52]	; 0x34
 80006e8:	1b7c      	subs	r4, r7, r5
 80006ea:	2c00      	cmp	r4, #0
 80006ec:	f340 8427 	ble.w	8000f3e <_vfprintf_r+0xb5a>
 80006f0:	2c10      	cmp	r4, #16
 80006f2:	f248 3b18 	movw	fp, #33560	; 0x8318
 80006f6:	bfd8      	it	le
 80006f8:	f6c0 0b00 	movtle	fp, #2048	; 0x800
 80006fc:	f340 848c 	ble.w	8001018 <_vfprintf_r+0xc34>
 8000700:	f6c0 0b00 	movt	fp, #2048	; 0x800
 8000704:	2510      	movs	r5, #16
 8000706:	f8dd a038 	ldr.w	sl, [sp, #56]	; 0x38
 800070a:	465f      	mov	r7, fp
 800070c:	e003      	b.n	8000716 <_vfprintf_r+0x332>
 800070e:	3c10      	subs	r4, #16
 8000710:	2c10      	cmp	r4, #16
 8000712:	f340 8480 	ble.w	8001016 <_vfprintf_r+0xc32>
 8000716:	f8d8 3004 	ldr.w	r3, [r8, #4]
 800071a:	3608      	adds	r6, #8
 800071c:	f8d8 2008 	ldr.w	r2, [r8, #8]
 8000720:	3301      	adds	r3, #1
 8000722:	f846 7c08 	str.w	r7, [r6, #-8]
 8000726:	3210      	adds	r2, #16
 8000728:	2b07      	cmp	r3, #7
 800072a:	f846 5c04 	str.w	r5, [r6, #-4]
 800072e:	f8c8 3004 	str.w	r3, [r8, #4]
 8000732:	f8c8 2008 	str.w	r2, [r8, #8]
 8000736:	ddea      	ble.n	800070e <_vfprintf_r+0x32a>
 8000738:	4650      	mov	r0, sl
 800073a:	4649      	mov	r1, r9
 800073c:	4642      	mov	r2, r8
 800073e:	ae52      	add	r6, sp, #328	; 0x148
 8000740:	f004 f90a 	bl	8004958 <__sprint_r>
 8000744:	2800      	cmp	r0, #0
 8000746:	d0e2      	beq.n	800070e <_vfprintf_r+0x32a>
 8000748:	46ca      	mov	sl, r9
 800074a:	f8ba 300c 	ldrh.w	r3, [sl, #12]
 800074e:	f003 0340 	and.w	r3, r3, #64	; 0x40
 8000752:	b21b      	sxth	r3, r3
 8000754:	b113      	cbz	r3, 800075c <_vfprintf_r+0x378>
 8000756:	f04f 37ff 	mov.w	r7, #4294967295
 800075a:	9710      	str	r7, [sp, #64]	; 0x40
 800075c:	9810      	ldr	r0, [sp, #64]	; 0x40
 800075e:	b053      	add	sp, #332	; 0x14c
 8000760:	f50d 6d80 	add.w	sp, sp, #1024	; 0x400
 8000764:	e8bd 8ff0 	ldmia.w	sp!, {r4, r5, r6, r7, r8, r9, sl, fp, pc}
 8000768:	980e      	ldr	r0, [sp, #56]	; 0x38
 800076a:	4649      	mov	r1, r9
 800076c:	4642      	mov	r2, r8
 800076e:	f004 f8f3 	bl	8004958 <__sprint_r>
 8000772:	2800      	cmp	r0, #0
 8000774:	d1e8      	bne.n	8000748 <_vfprintf_r+0x364>
 8000776:	ae52      	add	r6, sp, #328	; 0x148
 8000778:	e6c8      	b.n	800050c <_vfprintf_r+0x128>
 800077a:	4628      	mov	r0, r5
 800077c:	f002 fbb6 	bl	8002eec <__sinit>
 8000780:	f248 3378 	movw	r3, #33656	; 0x8378
 8000784:	f6c0 0300 	movt	r3, #2048	; 0x800
 8000788:	459a      	cmp	sl, r3
 800078a:	f47f ae4b 	bne.w	8000424 <_vfprintf_r+0x40>
 800078e:	9d0e      	ldr	r5, [sp, #56]	; 0x38
 8000790:	f8d5 a004 	ldr.w	sl, [r5, #4]
 8000794:	e656      	b.n	8000444 <_vfprintf_r+0x60>
 8000796:	9c0c      	ldr	r4, [sp, #48]	; 0x30
 8000798:	e6bb      	b.n	8000512 <_vfprintf_r+0x12e>
 800079a:	f88d 108b 	strb.w	r1, [sp, #139]	; 0x8b
 800079e:	781d      	ldrb	r5, [r3, #0]
 80007a0:	e6c8      	b.n	8000534 <_vfprintf_r+0x150>
 80007a2:	461c      	mov	r4, r3
 80007a4:	f814 5b01 	ldrb.w	r5, [r4], #1
 80007a8:	2d2a      	cmp	r5, #42	; 0x2a
 80007aa:	f001 8189 	beq.w	8001ac0 <_vfprintf_r+0x16dc>
 80007ae:	f1a5 0230 	sub.w	r2, r5, #48	; 0x30
 80007b2:	2a09      	cmp	r2, #9
 80007b4:	bf84      	itt	hi
 80007b6:	4623      	movhi	r3, r4
 80007b8:	f04f 0c00 	movhi.w	ip, #0
 80007bc:	f63f aebb 	bhi.w	8000536 <_vfprintf_r+0x152>
 80007c0:	f04f 0c00 	mov.w	ip, #0
 80007c4:	f814 5b01 	ldrb.w	r5, [r4], #1
 80007c8:	eb0c 0c8c 	add.w	ip, ip, ip, lsl #2
 80007cc:	eb02 0c4c 	add.w	ip, r2, ip, lsl #1
 80007d0:	f1a5 0230 	sub.w	r2, r5, #48	; 0x30
 80007d4:	2a09      	cmp	r2, #9
 80007d6:	4623      	mov	r3, r4
 80007d8:	d9f4      	bls.n	80007c4 <_vfprintf_r+0x3e0>
 80007da:	ea4c 7cec 	orr.w	ip, ip, ip, asr #31
 80007de:	e6aa      	b.n	8000536 <_vfprintf_r+0x152>
 80007e0:	9c0b      	ldr	r4, [sp, #44]	; 0x2c
 80007e2:	f044 0480 	orr.w	r4, r4, #128	; 0x80
 80007e6:	940b      	str	r4, [sp, #44]	; 0x2c
 80007e8:	781d      	ldrb	r5, [r3, #0]
 80007ea:	e6a3      	b.n	8000534 <_vfprintf_r+0x150>
 80007ec:	461c      	mov	r4, r3
 80007ee:	2200      	movs	r2, #0
 80007f0:	f1a5 0a30 	sub.w	sl, r5, #48	; 0x30
 80007f4:	f814 5b01 	ldrb.w	r5, [r4], #1
 80007f8:	eb02 0282 	add.w	r2, r2, r2, lsl #2
 80007fc:	f1a5 0730 	sub.w	r7, r5, #48	; 0x30
 8000800:	4623      	mov	r3, r4
 8000802:	2f09      	cmp	r7, #9
 8000804:	eb0a 0242 	add.w	r2, sl, r2, lsl #1
 8000808:	d9f2      	bls.n	80007f0 <_vfprintf_r+0x40c>
 800080a:	920f      	str	r2, [sp, #60]	; 0x3c
 800080c:	e693      	b.n	8000536 <_vfprintf_r+0x152>
 800080e:	9f0b      	ldr	r7, [sp, #44]	; 0x2c
 8000810:	930c      	str	r3, [sp, #48]	; 0x30
 8000812:	f047 0710 	orr.w	r7, r7, #16
 8000816:	970b      	str	r7, [sp, #44]	; 0x2c
 8000818:	9c0b      	ldr	r4, [sp, #44]	; 0x2c
 800081a:	06a7      	lsls	r7, r4, #26
 800081c:	f140 81cf 	bpl.w	8000bbe <_vfprintf_r+0x7da>
 8000820:	9f13      	ldr	r7, [sp, #76]	; 0x4c
 8000822:	1dfb      	adds	r3, r7, #7
 8000824:	f023 0307 	bic.w	r3, r3, #7
 8000828:	f103 0408 	add.w	r4, r3, #8
 800082c:	9413      	str	r4, [sp, #76]	; 0x4c
 800082e:	e9d3 2300 	ldrd	r2, r3, [r3]
 8000832:	4692      	mov	sl, r2
 8000834:	469b      	mov	fp, r3
 8000836:	2a00      	cmp	r2, #0
 8000838:	f173 0000 	sbcs.w	r0, r3, #0
 800083c:	f2c0 85c4 	blt.w	80013c8 <_vfprintf_r+0xfe4>
 8000840:	ea5a 010b 	orrs.w	r1, sl, fp
 8000844:	f04f 0301 	mov.w	r3, #1
 8000848:	bf0c      	ite	eq
 800084a:	2200      	moveq	r2, #0
 800084c:	2201      	movne	r2, #1
 800084e:	f1bc 0f00 	cmp.w	ip, #0
 8000852:	bfa2      	ittt	ge
 8000854:	9f0b      	ldrge	r7, [sp, #44]	; 0x2c
 8000856:	f027 0780 	bicge.w	r7, r7, #128	; 0x80
 800085a:	970b      	strge	r7, [sp, #44]	; 0x2c
 800085c:	f1bc 0f00 	cmp.w	ip, #0
 8000860:	bf18      	it	ne
 8000862:	f042 0201 	orrne.w	r2, r2, #1
 8000866:	2a00      	cmp	r2, #0
 8000868:	f000 837c 	beq.w	8000f64 <_vfprintf_r+0xb80>
 800086c:	2b01      	cmp	r3, #1
 800086e:	f000 8492 	beq.w	8001196 <_vfprintf_r+0xdb2>
 8000872:	2b02      	cmp	r3, #2
 8000874:	f000 8423 	beq.w	80010be <_vfprintf_r+0xcda>
 8000878:	f10d 00df 	add.w	r0, sp, #223	; 0xdf
 800087c:	950d      	str	r5, [sp, #52]	; 0x34
 800087e:	ea4f 01da 	mov.w	r1, sl, lsr #3
 8000882:	2407      	movs	r4, #7
 8000884:	ea41 714b 	orr.w	r1, r1, fp, lsl #29
 8000888:	ea4f 03db 	mov.w	r3, fp, lsr #3
 800088c:	ea0a 0204 	and.w	r2, sl, r4
 8000890:	469b      	mov	fp, r3
 8000892:	468a      	mov	sl, r1
 8000894:	4607      	mov	r7, r0
 8000896:	3230      	adds	r2, #48	; 0x30
 8000898:	3801      	subs	r0, #1
 800089a:	ea5a 050b 	orrs.w	r5, sl, fp
 800089e:	b2d2      	uxtb	r2, r2
 80008a0:	703a      	strb	r2, [r7, #0]
 80008a2:	d1ec      	bne.n	800087e <_vfprintf_r+0x49a>
 80008a4:	9c0b      	ldr	r4, [sp, #44]	; 0x2c
 80008a6:	463b      	mov	r3, r7
 80008a8:	9d0d      	ldr	r5, [sp, #52]	; 0x34
 80008aa:	07e1      	lsls	r1, r4, #31
 80008ac:	f140 841f 	bpl.w	80010ee <_vfprintf_r+0xd0a>
 80008b0:	2a30      	cmp	r2, #48	; 0x30
 80008b2:	f000 87b8 	beq.w	8001826 <_vfprintf_r+0x1442>
 80008b6:	9c0a      	ldr	r4, [sp, #40]	; 0x28
 80008b8:	4607      	mov	r7, r0
 80008ba:	2230      	movs	r2, #48	; 0x30
 80008bc:	f803 2c01 	strb.w	r2, [r3, #-1]
 80008c0:	1a24      	subs	r4, r4, r0
 80008c2:	9411      	str	r4, [sp, #68]	; 0x44
 80008c4:	f89d 308b 	ldrb.w	r3, [sp, #139]	; 0x8b
 80008c8:	9c11      	ldr	r4, [sp, #68]	; 0x44
 80008ca:	f8cd c048 	str.w	ip, [sp, #72]	; 0x48
 80008ce:	4564      	cmp	r4, ip
 80008d0:	bfb8      	it	lt
 80008d2:	4664      	movlt	r4, ip
 80008d4:	940d      	str	r4, [sp, #52]	; 0x34
 80008d6:	2400      	movs	r4, #0
 80008d8:	941b      	str	r4, [sp, #108]	; 0x6c
 80008da:	b113      	cbz	r3, 80008e2 <_vfprintf_r+0x4fe>
 80008dc:	9c0d      	ldr	r4, [sp, #52]	; 0x34
 80008de:	3401      	adds	r4, #1
 80008e0:	940d      	str	r4, [sp, #52]	; 0x34
 80008e2:	9b0b      	ldr	r3, [sp, #44]	; 0x2c
 80008e4:	f013 0302 	ands.w	r3, r3, #2
 80008e8:	9315      	str	r3, [sp, #84]	; 0x54
 80008ea:	d002      	beq.n	80008f2 <_vfprintf_r+0x50e>
 80008ec:	9c0d      	ldr	r4, [sp, #52]	; 0x34
 80008ee:	3402      	adds	r4, #2
 80008f0:	940d      	str	r4, [sp, #52]	; 0x34
 80008f2:	9b0b      	ldr	r3, [sp, #44]	; 0x2c
 80008f4:	f013 0384 	ands.w	r3, r3, #132	; 0x84
 80008f8:	9316      	str	r3, [sp, #88]	; 0x58
 80008fa:	d14a      	bne.n	8000992 <_vfprintf_r+0x5ae>
 80008fc:	980f      	ldr	r0, [sp, #60]	; 0x3c
 80008fe:	990d      	ldr	r1, [sp, #52]	; 0x34
 8000900:	1a44      	subs	r4, r0, r1
 8000902:	2c00      	cmp	r4, #0
 8000904:	dd45      	ble.n	8000992 <_vfprintf_r+0x5ae>
 8000906:	2c10      	cmp	r4, #16
 8000908:	f248 3b18 	movw	fp, #33560	; 0x8318
 800090c:	bfd8      	it	le
 800090e:	f6c0 0b00 	movtle	fp, #2048	; 0x800
 8000912:	dd2d      	ble.n	8000970 <_vfprintf_r+0x58c>
 8000914:	f6c0 0b00 	movt	fp, #2048	; 0x800
 8000918:	9520      	str	r5, [sp, #128]	; 0x80
 800091a:	f04f 0a10 	mov.w	sl, #16
 800091e:	465d      	mov	r5, fp
 8000920:	46a3      	mov	fp, r4
 8000922:	9c0e      	ldr	r4, [sp, #56]	; 0x38
 8000924:	e004      	b.n	8000930 <_vfprintf_r+0x54c>
 8000926:	f1ab 0b10 	sub.w	fp, fp, #16
 800092a:	f1bb 0f10 	cmp.w	fp, #16
 800092e:	dd1c      	ble.n	800096a <_vfprintf_r+0x586>
 8000930:	f8d8 3004 	ldr.w	r3, [r8, #4]
 8000934:	3608      	adds	r6, #8
 8000936:	f8d8 2008 	ldr.w	r2, [r8, #8]
 800093a:	3301      	adds	r3, #1
 800093c:	e906 0420 	stmdb	r6, {r5, sl}
 8000940:	3210      	adds	r2, #16
 8000942:	2b07      	cmp	r3, #7
 8000944:	f8c8 3004 	str.w	r3, [r8, #4]
 8000948:	f8c8 2008 	str.w	r2, [r8, #8]
 800094c:	ddeb      	ble.n	8000926 <_vfprintf_r+0x542>
 800094e:	4620      	mov	r0, r4
 8000950:	4649      	mov	r1, r9
 8000952:	4642      	mov	r2, r8
 8000954:	ae52      	add	r6, sp, #328	; 0x148
 8000956:	f003 ffff 	bl	8004958 <__sprint_r>
 800095a:	2800      	cmp	r0, #0
 800095c:	f47f aef4 	bne.w	8000748 <_vfprintf_r+0x364>
 8000960:	f1ab 0b10 	sub.w	fp, fp, #16
 8000964:	f1bb 0f10 	cmp.w	fp, #16
 8000968:	dce2      	bgt.n	8000930 <_vfprintf_r+0x54c>
 800096a:	465c      	mov	r4, fp
 800096c:	46ab      	mov	fp, r5
 800096e:	9d20      	ldr	r5, [sp, #128]	; 0x80
 8000970:	f8d8 2004 	ldr.w	r2, [r8, #4]
 8000974:	f8d8 1008 	ldr.w	r1, [r8, #8]
 8000978:	3201      	adds	r2, #1
 800097a:	f8c6 b000 	str.w	fp, [r6]
 800097e:	2a07      	cmp	r2, #7
 8000980:	6074      	str	r4, [r6, #4]
 8000982:	4421      	add	r1, r4
 8000984:	f8c8 2004 	str.w	r2, [r8, #4]
 8000988:	f8c8 1008 	str.w	r1, [r8, #8]
 800098c:	f300 8414 	bgt.w	80011b8 <_vfprintf_r+0xdd4>
 8000990:	3608      	adds	r6, #8
 8000992:	f89d 308b 	ldrb.w	r3, [sp, #139]	; 0x8b
 8000996:	b193      	cbz	r3, 80009be <_vfprintf_r+0x5da>
 8000998:	f8d8 3004 	ldr.w	r3, [r8, #4]
 800099c:	2101      	movs	r1, #1
 800099e:	f8d8 2008 	ldr.w	r2, [r8, #8]
 80009a2:	f10d 048b 	add.w	r4, sp, #139	; 0x8b
 80009a6:	3301      	adds	r3, #1
 80009a8:	6034      	str	r4, [r6, #0]
 80009aa:	2b07      	cmp	r3, #7
 80009ac:	6071      	str	r1, [r6, #4]
 80009ae:	440a      	add	r2, r1
 80009b0:	f8c8 3004 	str.w	r3, [r8, #4]
 80009b4:	f8c8 2008 	str.w	r2, [r8, #8]
 80009b8:	f300 836d 	bgt.w	8001096 <_vfprintf_r+0xcb2>
 80009bc:	3608      	adds	r6, #8
 80009be:	9b15      	ldr	r3, [sp, #84]	; 0x54
 80009c0:	b18b      	cbz	r3, 80009e6 <_vfprintf_r+0x602>
 80009c2:	f8d8 3004 	ldr.w	r3, [r8, #4]
 80009c6:	a923      	add	r1, sp, #140	; 0x8c
 80009c8:	f8d8 2008 	ldr.w	r2, [r8, #8]
 80009cc:	3301      	adds	r3, #1
 80009ce:	6031      	str	r1, [r6, #0]
 80009d0:	2102      	movs	r1, #2
 80009d2:	2b07      	cmp	r3, #7
 80009d4:	6071      	str	r1, [r6, #4]
 80009d6:	440a      	add	r2, r1
 80009d8:	f8c8 3004 	str.w	r3, [r8, #4]
 80009dc:	f8c8 2008 	str.w	r2, [r8, #8]
 80009e0:	f300 8363 	bgt.w	80010aa <_vfprintf_r+0xcc6>
 80009e4:	3608      	adds	r6, #8
 80009e6:	9c16      	ldr	r4, [sp, #88]	; 0x58
 80009e8:	2c80      	cmp	r4, #128	; 0x80
 80009ea:	f000 82cd 	beq.w	8000f88 <_vfprintf_r+0xba4>
 80009ee:	9c12      	ldr	r4, [sp, #72]	; 0x48
 80009f0:	9b11      	ldr	r3, [sp, #68]	; 0x44
 80009f2:	ebc3 0a04 	rsb	sl, r3, r4
 80009f6:	f1ba 0f00 	cmp.w	sl, #0
 80009fa:	f77f ae5a 	ble.w	80006b2 <_vfprintf_r+0x2ce>
 80009fe:	f1ba 0f10 	cmp.w	sl, #16
 8000a02:	4cb9      	ldr	r4, [pc, #740]	; (8000ce8 <_vfprintf_r+0x904>)
 8000a04:	dd29      	ble.n	8000a5a <_vfprintf_r+0x676>
 8000a06:	9512      	str	r5, [sp, #72]	; 0x48
 8000a08:	f04f 0b10 	mov.w	fp, #16
 8000a0c:	4625      	mov	r5, r4
 8000a0e:	9c0e      	ldr	r4, [sp, #56]	; 0x38
 8000a10:	e004      	b.n	8000a1c <_vfprintf_r+0x638>
 8000a12:	f1aa 0a10 	sub.w	sl, sl, #16
 8000a16:	f1ba 0f10 	cmp.w	sl, #16
 8000a1a:	dd1c      	ble.n	8000a56 <_vfprintf_r+0x672>
 8000a1c:	f8d8 3004 	ldr.w	r3, [r8, #4]
 8000a20:	3608      	adds	r6, #8
 8000a22:	f8d8 2008 	ldr.w	r2, [r8, #8]
 8000a26:	3301      	adds	r3, #1
 8000a28:	e906 0820 	stmdb	r6, {r5, fp}
 8000a2c:	3210      	adds	r2, #16
 8000a2e:	2b07      	cmp	r3, #7
 8000a30:	f8c8 3004 	str.w	r3, [r8, #4]
 8000a34:	f8c8 2008 	str.w	r2, [r8, #8]
 8000a38:	ddeb      	ble.n	8000a12 <_vfprintf_r+0x62e>
 8000a3a:	4620      	mov	r0, r4
 8000a3c:	4649      	mov	r1, r9
 8000a3e:	4642      	mov	r2, r8
 8000a40:	ae52      	add	r6, sp, #328	; 0x148
 8000a42:	f003 ff89 	bl	8004958 <__sprint_r>
 8000a46:	2800      	cmp	r0, #0
 8000a48:	f47f ae7e 	bne.w	8000748 <_vfprintf_r+0x364>
 8000a4c:	f1aa 0a10 	sub.w	sl, sl, #16
 8000a50:	f1ba 0f10 	cmp.w	sl, #16
 8000a54:	dce2      	bgt.n	8000a1c <_vfprintf_r+0x638>
 8000a56:	462c      	mov	r4, r5
 8000a58:	9d12      	ldr	r5, [sp, #72]	; 0x48
 8000a5a:	f8d8 3004 	ldr.w	r3, [r8, #4]
 8000a5e:	f8d8 2008 	ldr.w	r2, [r8, #8]
 8000a62:	3301      	adds	r3, #1
 8000a64:	e886 0410 	stmia.w	r6, {r4, sl}
 8000a68:	2b07      	cmp	r3, #7
 8000a6a:	4452      	add	r2, sl
 8000a6c:	f8c8 3004 	str.w	r3, [r8, #4]
 8000a70:	f8c8 2008 	str.w	r2, [r8, #8]
 8000a74:	f73f ae15 	bgt.w	80006a2 <_vfprintf_r+0x2be>
 8000a78:	9c0b      	ldr	r4, [sp, #44]	; 0x2c
 8000a7a:	3608      	adds	r6, #8
 8000a7c:	05e3      	lsls	r3, r4, #23
 8000a7e:	f57f ae1c 	bpl.w	80006ba <_vfprintf_r+0x2d6>
 8000a82:	2d65      	cmp	r5, #101	; 0x65
 8000a84:	f340 81fa 	ble.w	8000e7c <_vfprintf_r+0xa98>
 8000a88:	e9dd 011c 	ldrd	r0, r1, [sp, #112]	; 0x70
 8000a8c:	2200      	movs	r2, #0
 8000a8e:	2300      	movs	r3, #0
 8000a90:	f006 f9cc 	bl	8006e2c <__aeabi_dcmpeq>
 8000a94:	2800      	cmp	r0, #0
 8000a96:	f000 832f 	beq.w	80010f8 <_vfprintf_r+0xd14>
 8000a9a:	f8d8 2004 	ldr.w	r2, [r8, #4]
 8000a9e:	f248 5324 	movw	r3, #34084	; 0x8524
 8000aa2:	f8d8 1008 	ldr.w	r1, [r8, #8]
 8000aa6:	f6c0 0300 	movt	r3, #2048	; 0x800
 8000aaa:	3201      	adds	r2, #1
 8000aac:	6033      	str	r3, [r6, #0]
 8000aae:	3101      	adds	r1, #1
 8000ab0:	2301      	movs	r3, #1
 8000ab2:	2a07      	cmp	r2, #7
 8000ab4:	6073      	str	r3, [r6, #4]
 8000ab6:	f8c8 1008 	str.w	r1, [r8, #8]
 8000aba:	f8c8 2004 	str.w	r2, [r8, #4]
 8000abe:	f300 858b 	bgt.w	80015d8 <_vfprintf_r+0x11f4>
 8000ac2:	3608      	adds	r6, #8
 8000ac4:	9b24      	ldr	r3, [sp, #144]	; 0x90
 8000ac6:	9f14      	ldr	r7, [sp, #80]	; 0x50
 8000ac8:	42bb      	cmp	r3, r7
 8000aca:	db03      	blt.n	8000ad4 <_vfprintf_r+0x6f0>
 8000acc:	9c0b      	ldr	r4, [sp, #44]	; 0x2c
 8000ace:	07e5      	lsls	r5, r4, #31
 8000ad0:	f57f ae04 	bpl.w	80006dc <_vfprintf_r+0x2f8>
 8000ad4:	f8d8 3004 	ldr.w	r3, [r8, #4]
 8000ad8:	9f1e      	ldr	r7, [sp, #120]	; 0x78
 8000ada:	3301      	adds	r3, #1
 8000adc:	9d19      	ldr	r5, [sp, #100]	; 0x64
 8000ade:	f8d8 2008 	ldr.w	r2, [r8, #8]
 8000ae2:	2b07      	cmp	r3, #7
 8000ae4:	e886 00a0 	stmia.w	r6, {r5, r7}
 8000ae8:	443a      	add	r2, r7
 8000aea:	f8c8 3004 	str.w	r3, [r8, #4]
 8000aee:	f8c8 2008 	str.w	r2, [r8, #8]
 8000af2:	f300 8647 	bgt.w	8001784 <_vfprintf_r+0x13a0>
 8000af6:	3608      	adds	r6, #8
 8000af8:	9c14      	ldr	r4, [sp, #80]	; 0x50
 8000afa:	1e65      	subs	r5, r4, #1
 8000afc:	2d00      	cmp	r5, #0
 8000afe:	f77f aded 	ble.w	80006dc <_vfprintf_r+0x2f8>
 8000b02:	2d10      	cmp	r5, #16
 8000b04:	4c78      	ldr	r4, [pc, #480]	; (8000ce8 <_vfprintf_r+0x904>)
 8000b06:	f340 839e 	ble.w	8001246 <_vfprintf_r+0xe62>
 8000b0a:	2710      	movs	r7, #16
 8000b0c:	f8dd a038 	ldr.w	sl, [sp, #56]	; 0x38
 8000b10:	e003      	b.n	8000b1a <_vfprintf_r+0x736>
 8000b12:	3d10      	subs	r5, #16
 8000b14:	2d10      	cmp	r5, #16
 8000b16:	f340 8396 	ble.w	8001246 <_vfprintf_r+0xe62>
 8000b1a:	f8d8 3004 	ldr.w	r3, [r8, #4]
 8000b1e:	3608      	adds	r6, #8
 8000b20:	f8d8 2008 	ldr.w	r2, [r8, #8]
 8000b24:	3301      	adds	r3, #1
 8000b26:	e906 0090 	stmdb	r6, {r4, r7}
 8000b2a:	3210      	adds	r2, #16
 8000b2c:	2b07      	cmp	r3, #7
 8000b2e:	f8c8 3004 	str.w	r3, [r8, #4]
 8000b32:	f8c8 2008 	str.w	r2, [r8, #8]
 8000b36:	ddec      	ble.n	8000b12 <_vfprintf_r+0x72e>
 8000b38:	4650      	mov	r0, sl
 8000b3a:	4649      	mov	r1, r9
 8000b3c:	4642      	mov	r2, r8
 8000b3e:	ae52      	add	r6, sp, #328	; 0x148
 8000b40:	f003 ff0a 	bl	8004958 <__sprint_r>
 8000b44:	2800      	cmp	r0, #0
 8000b46:	d0e4      	beq.n	8000b12 <_vfprintf_r+0x72e>
 8000b48:	e5fe      	b.n	8000748 <_vfprintf_r+0x364>
 8000b4a:	9f0b      	ldr	r7, [sp, #44]	; 0x2c
 8000b4c:	f248 44f4 	movw	r4, #34036	; 0x84f4
 8000b50:	930c      	str	r3, [sp, #48]	; 0x30
 8000b52:	f6c0 0400 	movt	r4, #2048	; 0x800
 8000b56:	06bb      	lsls	r3, r7, #26
 8000b58:	941a      	str	r4, [sp, #104]	; 0x68
 8000b5a:	f140 80da 	bpl.w	8000d12 <_vfprintf_r+0x92e>
 8000b5e:	9c13      	ldr	r4, [sp, #76]	; 0x4c
 8000b60:	1de3      	adds	r3, r4, #7
 8000b62:	f023 0307 	bic.w	r3, r3, #7
 8000b66:	f103 0708 	add.w	r7, r3, #8
 8000b6a:	9713      	str	r7, [sp, #76]	; 0x4c
 8000b6c:	e9d3 ab00 	ldrd	sl, fp, [r3]
 8000b70:	9f0b      	ldr	r7, [sp, #44]	; 0x2c
 8000b72:	07f8      	lsls	r0, r7, #31
 8000b74:	f100 8355 	bmi.w	8001222 <_vfprintf_r+0xe3e>
 8000b78:	ea5a 000b 	orrs.w	r0, sl, fp
 8000b7c:	f04f 0302 	mov.w	r3, #2
 8000b80:	bf0c      	ite	eq
 8000b82:	2200      	moveq	r2, #0
 8000b84:	2201      	movne	r2, #1
 8000b86:	2100      	movs	r1, #0
 8000b88:	f88d 108b 	strb.w	r1, [sp, #139]	; 0x8b
 8000b8c:	e65f      	b.n	800084e <_vfprintf_r+0x46a>
 8000b8e:	930c      	str	r3, [sp, #48]	; 0x30
 8000b90:	2701      	movs	r7, #1
 8000b92:	9b13      	ldr	r3, [sp, #76]	; 0x4c
 8000b94:	2200      	movs	r2, #0
 8000b96:	9c13      	ldr	r4, [sp, #76]	; 0x4c
 8000b98:	970d      	str	r7, [sp, #52]	; 0x34
 8000b9a:	681b      	ldr	r3, [r3, #0]
 8000b9c:	3404      	adds	r4, #4
 8000b9e:	9711      	str	r7, [sp, #68]	; 0x44
 8000ba0:	af2e      	add	r7, sp, #184	; 0xb8
 8000ba2:	9413      	str	r4, [sp, #76]	; 0x4c
 8000ba4:	f88d 208b 	strb.w	r2, [sp, #139]	; 0x8b
 8000ba8:	f88d 30b8 	strb.w	r3, [sp, #184]	; 0xb8
 8000bac:	2300      	movs	r3, #0
 8000bae:	9312      	str	r3, [sp, #72]	; 0x48
 8000bb0:	931b      	str	r3, [sp, #108]	; 0x6c
 8000bb2:	e696      	b.n	80008e2 <_vfprintf_r+0x4fe>
 8000bb4:	9c0b      	ldr	r4, [sp, #44]	; 0x2c
 8000bb6:	930c      	str	r3, [sp, #48]	; 0x30
 8000bb8:	06a7      	lsls	r7, r4, #26
 8000bba:	f53f ae31 	bmi.w	8000820 <_vfprintf_r+0x43c>
 8000bbe:	9f0b      	ldr	r7, [sp, #44]	; 0x2c
 8000bc0:	06fc      	lsls	r4, r7, #27
 8000bc2:	f140 84a2 	bpl.w	800150a <_vfprintf_r+0x1126>
 8000bc6:	9c13      	ldr	r4, [sp, #76]	; 0x4c
 8000bc8:	3404      	adds	r4, #4
 8000bca:	f854 3c04 	ldr.w	r3, [r4, #-4]
 8000bce:	9413      	str	r4, [sp, #76]	; 0x4c
 8000bd0:	469a      	mov	sl, r3
 8000bd2:	461a      	mov	r2, r3
 8000bd4:	ea4f 7be3 	mov.w	fp, r3, asr #31
 8000bd8:	465b      	mov	r3, fp
 8000bda:	e62c      	b.n	8000836 <_vfprintf_r+0x452>
 8000bdc:	9f0b      	ldr	r7, [sp, #44]	; 0x2c
 8000bde:	f047 0740 	orr.w	r7, r7, #64	; 0x40
 8000be2:	970b      	str	r7, [sp, #44]	; 0x2c
 8000be4:	781d      	ldrb	r5, [r3, #0]
 8000be6:	e4a5      	b.n	8000534 <_vfprintf_r+0x150>
 8000be8:	781d      	ldrb	r5, [r3, #0]
 8000bea:	461a      	mov	r2, r3
 8000bec:	2d6c      	cmp	r5, #108	; 0x6c
 8000bee:	f000 85c1 	beq.w	8001774 <_vfprintf_r+0x1390>
 8000bf2:	9f0b      	ldr	r7, [sp, #44]	; 0x2c
 8000bf4:	f047 0710 	orr.w	r7, r7, #16
 8000bf8:	970b      	str	r7, [sp, #44]	; 0x2c
 8000bfa:	e49b      	b.n	8000534 <_vfprintf_r+0x150>
 8000bfc:	9c0b      	ldr	r4, [sp, #44]	; 0x2c
 8000bfe:	930c      	str	r3, [sp, #48]	; 0x30
 8000c00:	06a3      	lsls	r3, r4, #26
 8000c02:	f140 8491 	bpl.w	8001528 <_vfprintf_r+0x1144>
 8000c06:	9d13      	ldr	r5, [sp, #76]	; 0x4c
 8000c08:	9a10      	ldr	r2, [sp, #64]	; 0x40
 8000c0a:	3504      	adds	r5, #4
 8000c0c:	f855 3c04 	ldr.w	r3, [r5, #-4]
 8000c10:	17d1      	asrs	r1, r2, #31
 8000c12:	9513      	str	r5, [sp, #76]	; 0x4c
 8000c14:	601a      	str	r2, [r3, #0]
 8000c16:	6059      	str	r1, [r3, #4]
 8000c18:	e456      	b.n	80004c8 <_vfprintf_r+0xe4>
 8000c1a:	9c0b      	ldr	r4, [sp, #44]	; 0x2c
 8000c1c:	930c      	str	r3, [sp, #48]	; 0x30
 8000c1e:	f014 0320 	ands.w	r3, r4, #32
 8000c22:	f000 8100 	beq.w	8000e26 <_vfprintf_r+0xa42>
 8000c26:	9f13      	ldr	r7, [sp, #76]	; 0x4c
 8000c28:	2300      	movs	r3, #0
 8000c2a:	1dfa      	adds	r2, r7, #7
 8000c2c:	f022 0207 	bic.w	r2, r2, #7
 8000c30:	f102 0408 	add.w	r4, r2, #8
 8000c34:	9413      	str	r4, [sp, #76]	; 0x4c
 8000c36:	e9d2 ab00 	ldrd	sl, fp, [r2]
 8000c3a:	ea5a 070b 	orrs.w	r7, sl, fp
 8000c3e:	bf0c      	ite	eq
 8000c40:	2200      	moveq	r2, #0
 8000c42:	2201      	movne	r2, #1
 8000c44:	e79f      	b.n	8000b86 <_vfprintf_r+0x7a2>
 8000c46:	930c      	str	r3, [sp, #48]	; 0x30
 8000c48:	f04f 0b00 	mov.w	fp, #0
 8000c4c:	9b13      	ldr	r3, [sp, #76]	; 0x4c
 8000c4e:	2578      	movs	r5, #120	; 0x78
 8000c50:	9c0b      	ldr	r4, [sp, #44]	; 0x2c
 8000c52:	1d1f      	adds	r7, r3, #4
 8000c54:	9713      	str	r7, [sp, #76]	; 0x4c
 8000c56:	681a      	ldr	r2, [r3, #0]
 8000c58:	f044 0402 	orr.w	r4, r4, #2
 8000c5c:	2330      	movs	r3, #48	; 0x30
 8000c5e:	940b      	str	r4, [sp, #44]	; 0x2c
 8000c60:	4692      	mov	sl, r2
 8000c62:	f248 5408 	movw	r4, #34056	; 0x8508
 8000c66:	ebb2 020b 	subs.w	r2, r2, fp
 8000c6a:	f88d 308c 	strb.w	r3, [sp, #140]	; 0x8c
 8000c6e:	bf18      	it	ne
 8000c70:	2201      	movne	r2, #1
 8000c72:	f6c0 0400 	movt	r4, #2048	; 0x800
 8000c76:	f88d 508d 	strb.w	r5, [sp, #141]	; 0x8d
 8000c7a:	2302      	movs	r3, #2
 8000c7c:	941a      	str	r4, [sp, #104]	; 0x68
 8000c7e:	e782      	b.n	8000b86 <_vfprintf_r+0x7a2>
 8000c80:	9c0b      	ldr	r4, [sp, #44]	; 0x2c
 8000c82:	f044 0420 	orr.w	r4, r4, #32
 8000c86:	940b      	str	r4, [sp, #44]	; 0x2c
 8000c88:	781d      	ldrb	r5, [r3, #0]
 8000c8a:	e453      	b.n	8000534 <_vfprintf_r+0x150>
 8000c8c:	9813      	ldr	r0, [sp, #76]	; 0x4c
 8000c8e:	2400      	movs	r4, #0
 8000c90:	f88d 408b 	strb.w	r4, [sp, #139]	; 0x8b
 8000c94:	930c      	str	r3, [sp, #48]	; 0x30
 8000c96:	f100 0a04 	add.w	sl, r0, #4
 8000c9a:	6807      	ldr	r7, [r0, #0]
 8000c9c:	2f00      	cmp	r7, #0
 8000c9e:	f000 85e1 	beq.w	8001864 <_vfprintf_r+0x1480>
 8000ca2:	f1bc 0f00 	cmp.w	ip, #0
 8000ca6:	4638      	mov	r0, r7
 8000ca8:	f2c0 85a4 	blt.w	80017f4 <_vfprintf_r+0x1410>
 8000cac:	4662      	mov	r2, ip
 8000cae:	4621      	mov	r1, r4
 8000cb0:	f8cd c01c 	str.w	ip, [sp, #28]
 8000cb4:	f002 feba 	bl	8003a2c <memchr>
 8000cb8:	f8dd c01c 	ldr.w	ip, [sp, #28]
 8000cbc:	2800      	cmp	r0, #0
 8000cbe:	f000 865e 	beq.w	800197e <_vfprintf_r+0x159a>
 8000cc2:	1bc0      	subs	r0, r0, r7
 8000cc4:	9412      	str	r4, [sp, #72]	; 0x48
 8000cc6:	4560      	cmp	r0, ip
 8000cc8:	9011      	str	r0, [sp, #68]	; 0x44
 8000cca:	f340 84f6 	ble.w	80016ba <_vfprintf_r+0x12d6>
 8000cce:	ea2c 74ec 	bic.w	r4, ip, ip, asr #31
 8000cd2:	940d      	str	r4, [sp, #52]	; 0x34
 8000cd4:	9c12      	ldr	r4, [sp, #72]	; 0x48
 8000cd6:	f89d 308b 	ldrb.w	r3, [sp, #139]	; 0x8b
 8000cda:	f8cd a04c 	str.w	sl, [sp, #76]	; 0x4c
 8000cde:	f8cd c044 	str.w	ip, [sp, #68]	; 0x44
 8000ce2:	941b      	str	r4, [sp, #108]	; 0x6c
 8000ce4:	e5f9      	b.n	80008da <_vfprintf_r+0x4f6>
 8000ce6:	bf00      	nop
 8000ce8:	08008328 	.word	0x08008328
 8000cec:	9c0b      	ldr	r4, [sp, #44]	; 0x2c
 8000cee:	930c      	str	r3, [sp, #48]	; 0x30
 8000cf0:	06a0      	lsls	r0, r4, #26
 8000cf2:	f140 80b2 	bpl.w	8000e5a <_vfprintf_r+0xa76>
 8000cf6:	9f13      	ldr	r7, [sp, #76]	; 0x4c
 8000cf8:	2301      	movs	r3, #1
 8000cfa:	1dfa      	adds	r2, r7, #7
 8000cfc:	e796      	b.n	8000c2c <_vfprintf_r+0x848>
 8000cfe:	9f0b      	ldr	r7, [sp, #44]	; 0x2c
 8000d00:	f248 5408 	movw	r4, #34056	; 0x8508
 8000d04:	930c      	str	r3, [sp, #48]	; 0x30
 8000d06:	f6c0 0400 	movt	r4, #2048	; 0x800
 8000d0a:	06bb      	lsls	r3, r7, #26
 8000d0c:	941a      	str	r4, [sp, #104]	; 0x68
 8000d0e:	f53f af26 	bmi.w	8000b5e <_vfprintf_r+0x77a>
 8000d12:	9c0b      	ldr	r4, [sp, #44]	; 0x2c
 8000d14:	06e7      	lsls	r7, r4, #27
 8000d16:	f140 8452 	bpl.w	80015be <_vfprintf_r+0x11da>
 8000d1a:	9f13      	ldr	r7, [sp, #76]	; 0x4c
 8000d1c:	f04f 0b00 	mov.w	fp, #0
 8000d20:	3704      	adds	r7, #4
 8000d22:	f857 3c04 	ldr.w	r3, [r7, #-4]
 8000d26:	9713      	str	r7, [sp, #76]	; 0x4c
 8000d28:	469a      	mov	sl, r3
 8000d2a:	e721      	b.n	8000b70 <_vfprintf_r+0x78c>
 8000d2c:	930c      	str	r3, [sp, #48]	; 0x30
 8000d2e:	2d00      	cmp	r5, #0
 8000d30:	f000 84b6 	beq.w	80016a0 <_vfprintf_r+0x12bc>
 8000d34:	2701      	movs	r7, #1
 8000d36:	2300      	movs	r3, #0
 8000d38:	970d      	str	r7, [sp, #52]	; 0x34
 8000d3a:	9711      	str	r7, [sp, #68]	; 0x44
 8000d3c:	af2e      	add	r7, sp, #184	; 0xb8
 8000d3e:	f88d 50b8 	strb.w	r5, [sp, #184]	; 0xb8
 8000d42:	f88d 308b 	strb.w	r3, [sp, #139]	; 0x8b
 8000d46:	e731      	b.n	8000bac <_vfprintf_r+0x7c8>
 8000d48:	f89d 208b 	ldrb.w	r2, [sp, #139]	; 0x8b
 8000d4c:	2a00      	cmp	r2, #0
 8000d4e:	f040 83d9 	bne.w	8001504 <_vfprintf_r+0x1120>
 8000d52:	f88d 008b 	strb.w	r0, [sp, #139]	; 0x8b
 8000d56:	781d      	ldrb	r5, [r3, #0]
 8000d58:	f7ff bbec 	b.w	8000534 <_vfprintf_r+0x150>
 8000d5c:	9c0b      	ldr	r4, [sp, #44]	; 0x2c
 8000d5e:	f044 0401 	orr.w	r4, r4, #1
 8000d62:	940b      	str	r4, [sp, #44]	; 0x2c
 8000d64:	781d      	ldrb	r5, [r3, #0]
 8000d66:	f7ff bbe5 	b.w	8000534 <_vfprintf_r+0x150>
 8000d6a:	9d13      	ldr	r5, [sp, #76]	; 0x4c
 8000d6c:	9f13      	ldr	r7, [sp, #76]	; 0x4c
 8000d6e:	682d      	ldr	r5, [r5, #0]
 8000d70:	1d3a      	adds	r2, r7, #4
 8000d72:	2d00      	cmp	r5, #0
 8000d74:	950f      	str	r5, [sp, #60]	; 0x3c
 8000d76:	f6ff ac3e 	blt.w	80005f6 <_vfprintf_r+0x212>
 8000d7a:	781d      	ldrb	r5, [r3, #0]
 8000d7c:	9213      	str	r2, [sp, #76]	; 0x4c
 8000d7e:	f7ff bbd9 	b.w	8000534 <_vfprintf_r+0x150>
 8000d82:	9c0b      	ldr	r4, [sp, #44]	; 0x2c
 8000d84:	930c      	str	r3, [sp, #48]	; 0x30
 8000d86:	0721      	lsls	r1, r4, #28
 8000d88:	f140 83e8 	bpl.w	800155c <_vfprintf_r+0x1178>
 8000d8c:	9f13      	ldr	r7, [sp, #76]	; 0x4c
 8000d8e:	1df9      	adds	r1, r7, #7
 8000d90:	f021 0107 	bic.w	r1, r1, #7
 8000d94:	f101 0408 	add.w	r4, r1, #8
 8000d98:	9413      	str	r4, [sp, #76]	; 0x4c
 8000d9a:	f8d1 a000 	ldr.w	sl, [r1]
 8000d9e:	684c      	ldr	r4, [r1, #4]
 8000da0:	4650      	mov	r0, sl
 8000da2:	f8cd c01c 	str.w	ip, [sp, #28]
 8000da6:	4621      	mov	r1, r4
 8000da8:	e9cd 011c 	strd	r0, r1, [sp, #112]	; 0x70
 8000dac:	4650      	mov	r0, sl
 8000dae:	4621      	mov	r1, r4
 8000db0:	f003 fc32 	bl	8004618 <__fpclassifyd>
 8000db4:	f8dd c01c 	ldr.w	ip, [sp, #28]
 8000db8:	2801      	cmp	r0, #1
 8000dba:	4650      	mov	r0, sl
 8000dbc:	f040 8313 	bne.w	80013e6 <_vfprintf_r+0x1002>
 8000dc0:	2200      	movs	r2, #0
 8000dc2:	2300      	movs	r3, #0
 8000dc4:	4621      	mov	r1, r4
 8000dc6:	f006 f83b 	bl	8006e40 <__aeabi_dcmplt>
 8000dca:	2800      	cmp	r0, #0
 8000dcc:	f040 8564 	bne.w	8001898 <_vfprintf_r+0x14b4>
 8000dd0:	f89d 308b 	ldrb.w	r3, [sp, #139]	; 0x8b
 8000dd4:	2403      	movs	r4, #3
 8000dd6:	f248 47e8 	movw	r7, #34024	; 0x84e8
 8000dda:	f248 42e4 	movw	r2, #34020	; 0x84e4
 8000dde:	940d      	str	r4, [sp, #52]	; 0x34
 8000de0:	2400      	movs	r4, #0
 8000de2:	9412      	str	r4, [sp, #72]	; 0x48
 8000de4:	9c0b      	ldr	r4, [sp, #44]	; 0x2c
 8000de6:	f6c0 0700 	movt	r7, #2048	; 0x800
 8000dea:	f6c0 0200 	movt	r2, #2048	; 0x800
 8000dee:	f024 0480 	bic.w	r4, r4, #128	; 0x80
 8000df2:	2d47      	cmp	r5, #71	; 0x47
 8000df4:	bfd8      	it	le
 8000df6:	4617      	movle	r7, r2
 8000df8:	940b      	str	r4, [sp, #44]	; 0x2c
 8000dfa:	2403      	movs	r4, #3
 8000dfc:	9411      	str	r4, [sp, #68]	; 0x44
 8000dfe:	2400      	movs	r4, #0
 8000e00:	941b      	str	r4, [sp, #108]	; 0x6c
 8000e02:	e56a      	b.n	80008da <_vfprintf_r+0x4f6>
 8000e04:	9d0b      	ldr	r5, [sp, #44]	; 0x2c
 8000e06:	f045 0508 	orr.w	r5, r5, #8
 8000e0a:	950b      	str	r5, [sp, #44]	; 0x2c
 8000e0c:	781d      	ldrb	r5, [r3, #0]
 8000e0e:	f7ff bb91 	b.w	8000534 <_vfprintf_r+0x150>
 8000e12:	9f0b      	ldr	r7, [sp, #44]	; 0x2c
 8000e14:	930c      	str	r3, [sp, #48]	; 0x30
 8000e16:	f047 0710 	orr.w	r7, r7, #16
 8000e1a:	970b      	str	r7, [sp, #44]	; 0x2c
 8000e1c:	9c0b      	ldr	r4, [sp, #44]	; 0x2c
 8000e1e:	f014 0320 	ands.w	r3, r4, #32
 8000e22:	f47f af00 	bne.w	8000c26 <_vfprintf_r+0x842>
 8000e26:	9c0b      	ldr	r4, [sp, #44]	; 0x2c
 8000e28:	f014 0210 	ands.w	r2, r4, #16
 8000e2c:	f000 839e 	beq.w	800156c <_vfprintf_r+0x1188>
 8000e30:	9f13      	ldr	r7, [sp, #76]	; 0x4c
 8000e32:	f04f 0b00 	mov.w	fp, #0
 8000e36:	3704      	adds	r7, #4
 8000e38:	f857 2c04 	ldr.w	r2, [r7, #-4]
 8000e3c:	9713      	str	r7, [sp, #76]	; 0x4c
 8000e3e:	4692      	mov	sl, r2
 8000e40:	3200      	adds	r2, #0
 8000e42:	bf18      	it	ne
 8000e44:	2201      	movne	r2, #1
 8000e46:	e69e      	b.n	8000b86 <_vfprintf_r+0x7a2>
 8000e48:	9f0b      	ldr	r7, [sp, #44]	; 0x2c
 8000e4a:	930c      	str	r3, [sp, #48]	; 0x30
 8000e4c:	f047 0710 	orr.w	r7, r7, #16
 8000e50:	970b      	str	r7, [sp, #44]	; 0x2c
 8000e52:	9c0b      	ldr	r4, [sp, #44]	; 0x2c
 8000e54:	06a0      	lsls	r0, r4, #26
 8000e56:	f53f af4e 	bmi.w	8000cf6 <_vfprintf_r+0x912>
 8000e5a:	9c0b      	ldr	r4, [sp, #44]	; 0x2c
 8000e5c:	06e1      	lsls	r1, r4, #27
 8000e5e:	f140 8374 	bpl.w	800154a <_vfprintf_r+0x1166>
 8000e62:	9f13      	ldr	r7, [sp, #76]	; 0x4c
 8000e64:	3704      	adds	r7, #4
 8000e66:	f857 2c04 	ldr.w	r2, [r7, #-4]
 8000e6a:	9713      	str	r7, [sp, #76]	; 0x4c
 8000e6c:	2301      	movs	r3, #1
 8000e6e:	4692      	mov	sl, r2
 8000e70:	3200      	adds	r2, #0
 8000e72:	f04f 0b00 	mov.w	fp, #0
 8000e76:	bf18      	it	ne
 8000e78:	2201      	movne	r2, #1
 8000e7a:	e684      	b.n	8000b86 <_vfprintf_r+0x7a2>
 8000e7c:	9c14      	ldr	r4, [sp, #80]	; 0x50
 8000e7e:	f8d8 3004 	ldr.w	r3, [r8, #4]
 8000e82:	f8d8 2008 	ldr.w	r2, [r8, #8]
 8000e86:	3301      	adds	r3, #1
 8000e88:	2c01      	cmp	r4, #1
 8000e8a:	f340 8253 	ble.w	8001334 <_vfprintf_r+0xf50>
 8000e8e:	2101      	movs	r1, #1
 8000e90:	2b07      	cmp	r3, #7
 8000e92:	6037      	str	r7, [r6, #0]
 8000e94:	440a      	add	r2, r1
 8000e96:	6071      	str	r1, [r6, #4]
 8000e98:	f8c8 3004 	str.w	r3, [r8, #4]
 8000e9c:	f8c8 2008 	str.w	r2, [r8, #8]
 8000ea0:	f300 8250 	bgt.w	8001344 <_vfprintf_r+0xf60>
 8000ea4:	3608      	adds	r6, #8
 8000ea6:	f8d8 3004 	ldr.w	r3, [r8, #4]
 8000eaa:	9d1e      	ldr	r5, [sp, #120]	; 0x78
 8000eac:	3301      	adds	r3, #1
 8000eae:	9c19      	ldr	r4, [sp, #100]	; 0x64
 8000eb0:	f8d8 2008 	ldr.w	r2, [r8, #8]
 8000eb4:	2b07      	cmp	r3, #7
 8000eb6:	e886 0030 	stmia.w	r6, {r4, r5}
 8000eba:	442a      	add	r2, r5
 8000ebc:	f8c8 3004 	str.w	r3, [r8, #4]
 8000ec0:	f8c8 2008 	str.w	r2, [r8, #8]
 8000ec4:	f300 8248 	bgt.w	8001358 <_vfprintf_r+0xf74>
 8000ec8:	3608      	adds	r6, #8
 8000eca:	e9dd 011c 	ldrd	r0, r1, [sp, #112]	; 0x70
 8000ece:	2200      	movs	r2, #0
 8000ed0:	2300      	movs	r3, #0
 8000ed2:	f005 ffab 	bl	8006e2c <__aeabi_dcmpeq>
 8000ed6:	2800      	cmp	r0, #0
 8000ed8:	f040 8179 	bne.w	80011ce <_vfprintf_r+0xdea>
 8000edc:	f8d8 3004 	ldr.w	r3, [r8, #4]
 8000ee0:	3701      	adds	r7, #1
 8000ee2:	9c14      	ldr	r4, [sp, #80]	; 0x50
 8000ee4:	3301      	adds	r3, #1
 8000ee6:	f8d8 1008 	ldr.w	r1, [r8, #8]
 8000eea:	1e62      	subs	r2, r4, #1
 8000eec:	6037      	str	r7, [r6, #0]
 8000eee:	6072      	str	r2, [r6, #4]
 8000ef0:	2b07      	cmp	r3, #7
 8000ef2:	440a      	add	r2, r1
 8000ef4:	f8c8 3004 	str.w	r3, [r8, #4]
 8000ef8:	f8c8 2008 	str.w	r2, [r8, #8]
 8000efc:	f300 80b4 	bgt.w	8001068 <_vfprintf_r+0xc84>
 8000f00:	3608      	adds	r6, #8
 8000f02:	f8d8 3004 	ldr.w	r3, [r8, #4]
 8000f06:	a927      	add	r1, sp, #156	; 0x9c
 8000f08:	9c1f      	ldr	r4, [sp, #124]	; 0x7c
 8000f0a:	3301      	adds	r3, #1
 8000f0c:	f8d8 2008 	ldr.w	r2, [r8, #8]
 8000f10:	2b07      	cmp	r3, #7
 8000f12:	e886 0012 	stmia.w	r6, {r1, r4}
 8000f16:	4422      	add	r2, r4
 8000f18:	f8c8 3004 	str.w	r3, [r8, #4]
 8000f1c:	f8c8 2008 	str.w	r2, [r8, #8]
 8000f20:	f77f abdb 	ble.w	80006da <_vfprintf_r+0x2f6>
 8000f24:	980e      	ldr	r0, [sp, #56]	; 0x38
 8000f26:	4649      	mov	r1, r9
 8000f28:	4642      	mov	r2, r8
 8000f2a:	f003 fd15 	bl	8004958 <__sprint_r>
 8000f2e:	2800      	cmp	r0, #0
 8000f30:	f47f ac0a 	bne.w	8000748 <_vfprintf_r+0x364>
 8000f34:	9d0b      	ldr	r5, [sp, #44]	; 0x2c
 8000f36:	ae52      	add	r6, sp, #328	; 0x148
 8000f38:	076b      	lsls	r3, r5, #29
 8000f3a:	f53f abd3 	bmi.w	80006e4 <_vfprintf_r+0x300>
 8000f3e:	f8d8 4008 	ldr.w	r4, [r8, #8]
 8000f42:	9f10      	ldr	r7, [sp, #64]	; 0x40
 8000f44:	980d      	ldr	r0, [sp, #52]	; 0x34
 8000f46:	9d0f      	ldr	r5, [sp, #60]	; 0x3c
 8000f48:	42a8      	cmp	r0, r5
 8000f4a:	bfac      	ite	ge
 8000f4c:	183f      	addge	r7, r7, r0
 8000f4e:	197f      	addlt	r7, r7, r5
 8000f50:	9710      	str	r7, [sp, #64]	; 0x40
 8000f52:	2c00      	cmp	r4, #0
 8000f54:	f040 8092 	bne.w	800107c <_vfprintf_r+0xc98>
 8000f58:	2300      	movs	r3, #0
 8000f5a:	ae52      	add	r6, sp, #328	; 0x148
 8000f5c:	f8c8 3004 	str.w	r3, [r8, #4]
 8000f60:	f7ff bab2 	b.w	80004c8 <_vfprintf_r+0xe4>
 8000f64:	2b00      	cmp	r3, #0
 8000f66:	f040 8093 	bne.w	8001090 <_vfprintf_r+0xcac>
 8000f6a:	9c0b      	ldr	r4, [sp, #44]	; 0x2c
 8000f6c:	07e2      	lsls	r2, r4, #31
 8000f6e:	bf5c      	itt	pl
 8000f70:	9311      	strpl	r3, [sp, #68]	; 0x44
 8000f72:	af38      	addpl	r7, sp, #224	; 0xe0
 8000f74:	f57f aca6 	bpl.w	80008c4 <_vfprintf_r+0x4e0>
 8000f78:	9f21      	ldr	r7, [sp, #132]	; 0x84
 8000f7a:	2330      	movs	r3, #48	; 0x30
 8000f7c:	f88d 30df 	strb.w	r3, [sp, #223]	; 0xdf
 8000f80:	9711      	str	r7, [sp, #68]	; 0x44
 8000f82:	f10d 07df 	add.w	r7, sp, #223	; 0xdf
 8000f86:	e49d      	b.n	80008c4 <_vfprintf_r+0x4e0>
 8000f88:	9c0f      	ldr	r4, [sp, #60]	; 0x3c
 8000f8a:	980d      	ldr	r0, [sp, #52]	; 0x34
 8000f8c:	ebc0 0a04 	rsb	sl, r0, r4
 8000f90:	f1ba 0f00 	cmp.w	sl, #0
 8000f94:	f77f ad2b 	ble.w	80009ee <_vfprintf_r+0x60a>
 8000f98:	f1ba 0f10 	cmp.w	sl, #16
 8000f9c:	4cb0      	ldr	r4, [pc, #704]	; (8001260 <_vfprintf_r+0xe7c>)
 8000f9e:	dd29      	ble.n	8000ff4 <_vfprintf_r+0xc10>
 8000fa0:	9515      	str	r5, [sp, #84]	; 0x54
 8000fa2:	f04f 0b10 	mov.w	fp, #16
 8000fa6:	4625      	mov	r5, r4
 8000fa8:	9c0e      	ldr	r4, [sp, #56]	; 0x38
 8000faa:	e004      	b.n	8000fb6 <_vfprintf_r+0xbd2>
 8000fac:	f1aa 0a10 	sub.w	sl, sl, #16
 8000fb0:	f1ba 0f10 	cmp.w	sl, #16
 8000fb4:	dd1c      	ble.n	8000ff0 <_vfprintf_r+0xc0c>
 8000fb6:	f8d8 3004 	ldr.w	r3, [r8, #4]
 8000fba:	3608      	adds	r6, #8
 8000fbc:	f8d8 2008 	ldr.w	r2, [r8, #8]
 8000fc0:	3301      	adds	r3, #1
 8000fc2:	e906 0820 	stmdb	r6, {r5, fp}
 8000fc6:	3210      	adds	r2, #16
 8000fc8:	2b07      	cmp	r3, #7
 8000fca:	f8c8 3004 	str.w	r3, [r8, #4]
 8000fce:	f8c8 2008 	str.w	r2, [r8, #8]
 8000fd2:	ddeb      	ble.n	8000fac <_vfprintf_r+0xbc8>
 8000fd4:	4620      	mov	r0, r4
 8000fd6:	4649      	mov	r1, r9
 8000fd8:	4642      	mov	r2, r8
 8000fda:	ae52      	add	r6, sp, #328	; 0x148
 8000fdc:	f003 fcbc 	bl	8004958 <__sprint_r>
 8000fe0:	2800      	cmp	r0, #0
 8000fe2:	f47f abb1 	bne.w	8000748 <_vfprintf_r+0x364>
 8000fe6:	f1aa 0a10 	sub.w	sl, sl, #16
 8000fea:	f1ba 0f10 	cmp.w	sl, #16
 8000fee:	dce2      	bgt.n	8000fb6 <_vfprintf_r+0xbd2>
 8000ff0:	462c      	mov	r4, r5
 8000ff2:	9d15      	ldr	r5, [sp, #84]	; 0x54
 8000ff4:	f8d8 3004 	ldr.w	r3, [r8, #4]
 8000ff8:	f8d8 2008 	ldr.w	r2, [r8, #8]
 8000ffc:	3301      	adds	r3, #1
 8000ffe:	e886 0410 	stmia.w	r6, {r4, sl}
 8001002:	2b07      	cmp	r3, #7
 8001004:	4452      	add	r2, sl
 8001006:	f8c8 3004 	str.w	r3, [r8, #4]
 800100a:	f8c8 2008 	str.w	r2, [r8, #8]
 800100e:	f300 81d0 	bgt.w	80013b2 <_vfprintf_r+0xfce>
 8001012:	3608      	adds	r6, #8
 8001014:	e4eb      	b.n	80009ee <_vfprintf_r+0x60a>
 8001016:	46bb      	mov	fp, r7
 8001018:	f8d8 2004 	ldr.w	r2, [r8, #4]
 800101c:	f8d8 1008 	ldr.w	r1, [r8, #8]
 8001020:	3201      	adds	r2, #1
 8001022:	6074      	str	r4, [r6, #4]
 8001024:	2a07      	cmp	r2, #7
 8001026:	f8c6 b000 	str.w	fp, [r6]
 800102a:	440c      	add	r4, r1
 800102c:	f8c8 2004 	str.w	r2, [r8, #4]
 8001030:	f8c8 4008 	str.w	r4, [r8, #8]
 8001034:	dd85      	ble.n	8000f42 <_vfprintf_r+0xb5e>
 8001036:	980e      	ldr	r0, [sp, #56]	; 0x38
 8001038:	4649      	mov	r1, r9
 800103a:	4642      	mov	r2, r8
 800103c:	f003 fc8c 	bl	8004958 <__sprint_r>
 8001040:	2800      	cmp	r0, #0
 8001042:	f43f af7c 	beq.w	8000f3e <_vfprintf_r+0xb5a>
 8001046:	f7ff bb7f 	b.w	8000748 <_vfprintf_r+0x364>
 800104a:	f8d8 3004 	ldr.w	r3, [r8, #4]
 800104e:	f8d8 2008 	ldr.w	r2, [r8, #8]
 8001052:	3301      	adds	r3, #1
 8001054:	e886 0030 	stmia.w	r6, {r4, r5}
 8001058:	2b07      	cmp	r3, #7
 800105a:	442a      	add	r2, r5
 800105c:	f8c8 3004 	str.w	r3, [r8, #4]
 8001060:	f8c8 2008 	str.w	r2, [r8, #8]
 8001064:	f77f af4c 	ble.w	8000f00 <_vfprintf_r+0xb1c>
 8001068:	980e      	ldr	r0, [sp, #56]	; 0x38
 800106a:	4649      	mov	r1, r9
 800106c:	4642      	mov	r2, r8
 800106e:	f003 fc73 	bl	8004958 <__sprint_r>
 8001072:	2800      	cmp	r0, #0
 8001074:	f47f ab68 	bne.w	8000748 <_vfprintf_r+0x364>
 8001078:	ae52      	add	r6, sp, #328	; 0x148
 800107a:	e742      	b.n	8000f02 <_vfprintf_r+0xb1e>
 800107c:	980e      	ldr	r0, [sp, #56]	; 0x38
 800107e:	4649      	mov	r1, r9
 8001080:	4642      	mov	r2, r8
 8001082:	f003 fc69 	bl	8004958 <__sprint_r>
 8001086:	2800      	cmp	r0, #0
 8001088:	f43f af66 	beq.w	8000f58 <_vfprintf_r+0xb74>
 800108c:	f7ff bb5c 	b.w	8000748 <_vfprintf_r+0x364>
 8001090:	9211      	str	r2, [sp, #68]	; 0x44
 8001092:	af38      	add	r7, sp, #224	; 0xe0
 8001094:	e416      	b.n	80008c4 <_vfprintf_r+0x4e0>
 8001096:	980e      	ldr	r0, [sp, #56]	; 0x38
 8001098:	4649      	mov	r1, r9
 800109a:	4642      	mov	r2, r8
 800109c:	f003 fc5c 	bl	8004958 <__sprint_r>
 80010a0:	2800      	cmp	r0, #0
 80010a2:	f47f ab51 	bne.w	8000748 <_vfprintf_r+0x364>
 80010a6:	ae52      	add	r6, sp, #328	; 0x148
 80010a8:	e489      	b.n	80009be <_vfprintf_r+0x5da>
 80010aa:	980e      	ldr	r0, [sp, #56]	; 0x38
 80010ac:	4649      	mov	r1, r9
 80010ae:	4642      	mov	r2, r8
 80010b0:	f003 fc52 	bl	8004958 <__sprint_r>
 80010b4:	2800      	cmp	r0, #0
 80010b6:	f47f ab47 	bne.w	8000748 <_vfprintf_r+0x364>
 80010ba:	ae52      	add	r6, sp, #328	; 0x148
 80010bc:	e493      	b.n	80009e6 <_vfprintf_r+0x602>
 80010be:	981a      	ldr	r0, [sp, #104]	; 0x68
 80010c0:	f10d 01df 	add.w	r1, sp, #223	; 0xdf
 80010c4:	950d      	str	r5, [sp, #52]	; 0x34
 80010c6:	240f      	movs	r4, #15
 80010c8:	ea4f 131a 	mov.w	r3, sl, lsr #4
 80010cc:	ea0a 0204 	and.w	r2, sl, r4
 80010d0:	ea43 730b 	orr.w	r3, r3, fp, lsl #28
 80010d4:	1882      	adds	r2, r0, r2
 80010d6:	ea4f 141b 	mov.w	r4, fp, lsr #4
 80010da:	469a      	mov	sl, r3
 80010dc:	46a3      	mov	fp, r4
 80010de:	7812      	ldrb	r2, [r2, #0]
 80010e0:	460f      	mov	r7, r1
 80010e2:	3901      	subs	r1, #1
 80010e4:	ea5a 050b 	orrs.w	r5, sl, fp
 80010e8:	703a      	strb	r2, [r7, #0]
 80010ea:	d1ec      	bne.n	80010c6 <_vfprintf_r+0xce2>
 80010ec:	9d0d      	ldr	r5, [sp, #52]	; 0x34
 80010ee:	9b0a      	ldr	r3, [sp, #40]	; 0x28
 80010f0:	1bdb      	subs	r3, r3, r7
 80010f2:	9311      	str	r3, [sp, #68]	; 0x44
 80010f4:	f7ff bbe6 	b.w	80008c4 <_vfprintf_r+0x4e0>
 80010f8:	f10d 0b90 	add.w	fp, sp, #144	; 0x90
 80010fc:	f8db 5000 	ldr.w	r5, [fp]
 8001100:	2d00      	cmp	r5, #0
 8001102:	f340 8274 	ble.w	80015ee <_vfprintf_r+0x120a>
 8001106:	9d1b      	ldr	r5, [sp, #108]	; 0x6c
 8001108:	9c14      	ldr	r4, [sp, #80]	; 0x50
 800110a:	42ac      	cmp	r4, r5
 800110c:	bfa8      	it	ge
 800110e:	462c      	movge	r4, r5
 8001110:	9d14      	ldr	r5, [sp, #80]	; 0x50
 8001112:	2c00      	cmp	r4, #0
 8001114:	443d      	add	r5, r7
 8001116:	9511      	str	r5, [sp, #68]	; 0x44
 8001118:	dd0f      	ble.n	800113a <_vfprintf_r+0xd56>
 800111a:	f8d8 3004 	ldr.w	r3, [r8, #4]
 800111e:	f8d8 2008 	ldr.w	r2, [r8, #8]
 8001122:	3301      	adds	r3, #1
 8001124:	6037      	str	r7, [r6, #0]
 8001126:	2b07      	cmp	r3, #7
 8001128:	6074      	str	r4, [r6, #4]
 800112a:	4422      	add	r2, r4
 800112c:	f8c8 3004 	str.w	r3, [r8, #4]
 8001130:	f8c8 2008 	str.w	r2, [r8, #8]
 8001134:	f300 836d 	bgt.w	8001812 <_vfprintf_r+0x142e>
 8001138:	3608      	adds	r6, #8
 800113a:	981b      	ldr	r0, [sp, #108]	; 0x6c
 800113c:	ea24 74e4 	bic.w	r4, r4, r4, asr #31
 8001140:	1b05      	subs	r5, r0, r4
 8001142:	2d00      	cmp	r5, #0
 8001144:	f340 8097 	ble.w	8001276 <_vfprintf_r+0xe92>
 8001148:	2d10      	cmp	r5, #16
 800114a:	4c45      	ldr	r4, [pc, #276]	; (8001260 <_vfprintf_r+0xe7c>)
 800114c:	f340 8226 	ble.w	800159c <_vfprintf_r+0x11b8>
 8001150:	9712      	str	r7, [sp, #72]	; 0x48
 8001152:	f04f 0a10 	mov.w	sl, #16
 8001156:	4627      	mov	r7, r4
 8001158:	9c0e      	ldr	r4, [sp, #56]	; 0x38
 800115a:	e003      	b.n	8001164 <_vfprintf_r+0xd80>
 800115c:	3d10      	subs	r5, #16
 800115e:	2d10      	cmp	r5, #16
 8001160:	f340 821a 	ble.w	8001598 <_vfprintf_r+0x11b4>
 8001164:	f8d8 3004 	ldr.w	r3, [r8, #4]
 8001168:	3608      	adds	r6, #8
 800116a:	f8d8 2008 	ldr.w	r2, [r8, #8]
 800116e:	3301      	adds	r3, #1
 8001170:	e906 0480 	stmdb	r6, {r7, sl}
 8001174:	3210      	adds	r2, #16
 8001176:	2b07      	cmp	r3, #7
 8001178:	f8c8 3004 	str.w	r3, [r8, #4]
 800117c:	f8c8 2008 	str.w	r2, [r8, #8]
 8001180:	ddec      	ble.n	800115c <_vfprintf_r+0xd78>
 8001182:	4620      	mov	r0, r4
 8001184:	4649      	mov	r1, r9
 8001186:	4642      	mov	r2, r8
 8001188:	ae52      	add	r6, sp, #328	; 0x148
 800118a:	f003 fbe5 	bl	8004958 <__sprint_r>
 800118e:	2800      	cmp	r0, #0
 8001190:	d0e4      	beq.n	800115c <_vfprintf_r+0xd78>
 8001192:	f7ff bad9 	b.w	8000748 <_vfprintf_r+0x364>
 8001196:	f1bb 0f00 	cmp.w	fp, #0
 800119a:	bf08      	it	eq
 800119c:	f1ba 0f0a 	cmpeq.w	sl, #10
 80011a0:	f080 80e4 	bcs.w	800136c <_vfprintf_r+0xf88>
 80011a4:	9f21      	ldr	r7, [sp, #132]	; 0x84
 80011a6:	f10a 0a30 	add.w	sl, sl, #48	; 0x30
 80011aa:	f88d a0df 	strb.w	sl, [sp, #223]	; 0xdf
 80011ae:	9711      	str	r7, [sp, #68]	; 0x44
 80011b0:	f10d 07df 	add.w	r7, sp, #223	; 0xdf
 80011b4:	f7ff bb86 	b.w	80008c4 <_vfprintf_r+0x4e0>
 80011b8:	980e      	ldr	r0, [sp, #56]	; 0x38
 80011ba:	4649      	mov	r1, r9
 80011bc:	4642      	mov	r2, r8
 80011be:	f003 fbcb 	bl	8004958 <__sprint_r>
 80011c2:	2800      	cmp	r0, #0
 80011c4:	f47f aac0 	bne.w	8000748 <_vfprintf_r+0x364>
 80011c8:	ae52      	add	r6, sp, #328	; 0x148
 80011ca:	f7ff bbe2 	b.w	8000992 <_vfprintf_r+0x5ae>
 80011ce:	9f14      	ldr	r7, [sp, #80]	; 0x50
 80011d0:	1e7d      	subs	r5, r7, #1
 80011d2:	2d00      	cmp	r5, #0
 80011d4:	f77f ae95 	ble.w	8000f02 <_vfprintf_r+0xb1e>
 80011d8:	2d10      	cmp	r5, #16
 80011da:	4c21      	ldr	r4, [pc, #132]	; (8001260 <_vfprintf_r+0xe7c>)
 80011dc:	f77f af35 	ble.w	800104a <_vfprintf_r+0xc66>
 80011e0:	2710      	movs	r7, #16
 80011e2:	f8dd a038 	ldr.w	sl, [sp, #56]	; 0x38
 80011e6:	e003      	b.n	80011f0 <_vfprintf_r+0xe0c>
 80011e8:	3d10      	subs	r5, #16
 80011ea:	2d10      	cmp	r5, #16
 80011ec:	f77f af2d 	ble.w	800104a <_vfprintf_r+0xc66>
 80011f0:	f8d8 3004 	ldr.w	r3, [r8, #4]
 80011f4:	3608      	adds	r6, #8
 80011f6:	f8d8 2008 	ldr.w	r2, [r8, #8]
 80011fa:	3301      	adds	r3, #1
 80011fc:	e906 0090 	stmdb	r6, {r4, r7}
 8001200:	3210      	adds	r2, #16
 8001202:	2b07      	cmp	r3, #7
 8001204:	f8c8 3004 	str.w	r3, [r8, #4]
 8001208:	f8c8 2008 	str.w	r2, [r8, #8]
 800120c:	ddec      	ble.n	80011e8 <_vfprintf_r+0xe04>
 800120e:	4650      	mov	r0, sl
 8001210:	4649      	mov	r1, r9
 8001212:	4642      	mov	r2, r8
 8001214:	ae52      	add	r6, sp, #328	; 0x148
 8001216:	f003 fb9f 	bl	8004958 <__sprint_r>
 800121a:	2800      	cmp	r0, #0
 800121c:	d0e4      	beq.n	80011e8 <_vfprintf_r+0xe04>
 800121e:	f7ff ba93 	b.w	8000748 <_vfprintf_r+0x364>
 8001222:	2200      	movs	r2, #0
 8001224:	2302      	movs	r3, #2
 8001226:	ea5a 010b 	orrs.w	r1, sl, fp
 800122a:	f43f acac 	beq.w	8000b86 <_vfprintf_r+0x7a2>
 800122e:	9c0b      	ldr	r4, [sp, #44]	; 0x2c
 8001230:	2330      	movs	r3, #48	; 0x30
 8001232:	2201      	movs	r2, #1
 8001234:	f88d 308c 	strb.w	r3, [sp, #140]	; 0x8c
 8001238:	f044 0402 	orr.w	r4, r4, #2
 800123c:	2302      	movs	r3, #2
 800123e:	940b      	str	r4, [sp, #44]	; 0x2c
 8001240:	f88d 508d 	strb.w	r5, [sp, #141]	; 0x8d
 8001244:	e49f      	b.n	8000b86 <_vfprintf_r+0x7a2>
 8001246:	f8d8 3004 	ldr.w	r3, [r8, #4]
 800124a:	f8d8 2008 	ldr.w	r2, [r8, #8]
 800124e:	3301      	adds	r3, #1
 8001250:	6034      	str	r4, [r6, #0]
 8001252:	f7ff ba39 	b.w	80006c8 <_vfprintf_r+0x2e4>
 8001256:	9d0e      	ldr	r5, [sp, #56]	; 0x38
 8001258:	f8d5 a008 	ldr.w	sl, [r5, #8]
 800125c:	f7ff b8f2 	b.w	8000444 <_vfprintf_r+0x60>
 8001260:	08008328 	.word	0x08008328
 8001264:	980e      	ldr	r0, [sp, #56]	; 0x38
 8001266:	4649      	mov	r1, r9
 8001268:	4642      	mov	r2, r8
 800126a:	f003 fb75 	bl	8004958 <__sprint_r>
 800126e:	2800      	cmp	r0, #0
 8001270:	f47f aa6a 	bne.w	8000748 <_vfprintf_r+0x364>
 8001274:	ae52      	add	r6, sp, #328	; 0x148
 8001276:	f8db 3000 	ldr.w	r3, [fp]
 800127a:	9d14      	ldr	r5, [sp, #80]	; 0x50
 800127c:	9c1b      	ldr	r4, [sp, #108]	; 0x6c
 800127e:	42ab      	cmp	r3, r5
 8001280:	4427      	add	r7, r4
 8001282:	db44      	blt.n	800130e <_vfprintf_r+0xf2a>
 8001284:	9c0b      	ldr	r4, [sp, #44]	; 0x2c
 8001286:	07e0      	lsls	r0, r4, #31
 8001288:	d441      	bmi.n	800130e <_vfprintf_r+0xf2a>
 800128a:	9d11      	ldr	r5, [sp, #68]	; 0x44
 800128c:	1bec      	subs	r4, r5, r7
 800128e:	9d14      	ldr	r5, [sp, #80]	; 0x50
 8001290:	1aeb      	subs	r3, r5, r3
 8001292:	42a3      	cmp	r3, r4
 8001294:	bfb8      	it	lt
 8001296:	461c      	movlt	r4, r3
 8001298:	2c00      	cmp	r4, #0
 800129a:	dd0f      	ble.n	80012bc <_vfprintf_r+0xed8>
 800129c:	f8d8 2004 	ldr.w	r2, [r8, #4]
 80012a0:	f8d8 1008 	ldr.w	r1, [r8, #8]
 80012a4:	3201      	adds	r2, #1
 80012a6:	6037      	str	r7, [r6, #0]
 80012a8:	2a07      	cmp	r2, #7
 80012aa:	6074      	str	r4, [r6, #4]
 80012ac:	4421      	add	r1, r4
 80012ae:	f8c8 2004 	str.w	r2, [r8, #4]
 80012b2:	f8c8 1008 	str.w	r1, [r8, #8]
 80012b6:	f300 82c7 	bgt.w	8001848 <_vfprintf_r+0x1464>
 80012ba:	3608      	adds	r6, #8
 80012bc:	ea24 74e4 	bic.w	r4, r4, r4, asr #31
 80012c0:	1b1d      	subs	r5, r3, r4
 80012c2:	2d00      	cmp	r5, #0
 80012c4:	f77f aa0a 	ble.w	80006dc <_vfprintf_r+0x2f8>
 80012c8:	2d10      	cmp	r5, #16
 80012ca:	4cb2      	ldr	r4, [pc, #712]	; (8001594 <_vfprintf_r+0x11b0>)
 80012cc:	ddbb      	ble.n	8001246 <_vfprintf_r+0xe62>
 80012ce:	2710      	movs	r7, #16
 80012d0:	f8dd a038 	ldr.w	sl, [sp, #56]	; 0x38
 80012d4:	e002      	b.n	80012dc <_vfprintf_r+0xef8>
 80012d6:	3d10      	subs	r5, #16
 80012d8:	2d10      	cmp	r5, #16
 80012da:	ddb4      	ble.n	8001246 <_vfprintf_r+0xe62>
 80012dc:	f8d8 3004 	ldr.w	r3, [r8, #4]
 80012e0:	3608      	adds	r6, #8
 80012e2:	f8d8 2008 	ldr.w	r2, [r8, #8]
 80012e6:	3301      	adds	r3, #1
 80012e8:	e906 0090 	stmdb	r6, {r4, r7}
 80012ec:	3210      	adds	r2, #16
 80012ee:	2b07      	cmp	r3, #7
 80012f0:	f8c8 3004 	str.w	r3, [r8, #4]
 80012f4:	f8c8 2008 	str.w	r2, [r8, #8]
 80012f8:	dded      	ble.n	80012d6 <_vfprintf_r+0xef2>
 80012fa:	4650      	mov	r0, sl
 80012fc:	4649      	mov	r1, r9
 80012fe:	4642      	mov	r2, r8
 8001300:	ae52      	add	r6, sp, #328	; 0x148
 8001302:	f003 fb29 	bl	8004958 <__sprint_r>
 8001306:	2800      	cmp	r0, #0
 8001308:	d0e5      	beq.n	80012d6 <_vfprintf_r+0xef2>
 800130a:	f7ff ba1d 	b.w	8000748 <_vfprintf_r+0x364>
 800130e:	f8d8 2004 	ldr.w	r2, [r8, #4]
 8001312:	9c1e      	ldr	r4, [sp, #120]	; 0x78
 8001314:	3201      	adds	r2, #1
 8001316:	9d19      	ldr	r5, [sp, #100]	; 0x64
 8001318:	f8d8 1008 	ldr.w	r1, [r8, #8]
 800131c:	2a07      	cmp	r2, #7
 800131e:	6074      	str	r4, [r6, #4]
 8001320:	6035      	str	r5, [r6, #0]
 8001322:	4421      	add	r1, r4
 8001324:	f8c8 2004 	str.w	r2, [r8, #4]
 8001328:	f8c8 1008 	str.w	r1, [r8, #8]
 800132c:	f300 8280 	bgt.w	8001830 <_vfprintf_r+0x144c>
 8001330:	3608      	adds	r6, #8
 8001332:	e7aa      	b.n	800128a <_vfprintf_r+0xea6>
 8001334:	9d0b      	ldr	r5, [sp, #44]	; 0x2c
 8001336:	07e9      	lsls	r1, r5, #31
 8001338:	f53f ada9 	bmi.w	8000e8e <_vfprintf_r+0xaaa>
 800133c:	2101      	movs	r1, #1
 800133e:	6037      	str	r7, [r6, #0]
 8001340:	6071      	str	r1, [r6, #4]
 8001342:	e5d5      	b.n	8000ef0 <_vfprintf_r+0xb0c>
 8001344:	980e      	ldr	r0, [sp, #56]	; 0x38
 8001346:	4649      	mov	r1, r9
 8001348:	4642      	mov	r2, r8
 800134a:	f003 fb05 	bl	8004958 <__sprint_r>
 800134e:	2800      	cmp	r0, #0
 8001350:	f47f a9fa 	bne.w	8000748 <_vfprintf_r+0x364>
 8001354:	ae52      	add	r6, sp, #328	; 0x148
 8001356:	e5a6      	b.n	8000ea6 <_vfprintf_r+0xac2>
 8001358:	980e      	ldr	r0, [sp, #56]	; 0x38
 800135a:	4649      	mov	r1, r9
 800135c:	4642      	mov	r2, r8
 800135e:	f003 fafb 	bl	8004958 <__sprint_r>
 8001362:	2800      	cmp	r0, #0
 8001364:	f47f a9f0 	bne.w	8000748 <_vfprintf_r+0x364>
 8001368:	ae52      	add	r6, sp, #328	; 0x148
 800136a:	e5ae      	b.n	8000eca <_vfprintf_r+0xae6>
 800136c:	f10d 04df 	add.w	r4, sp, #223	; 0xdf
 8001370:	4667      	mov	r7, ip
 8001372:	950d      	str	r5, [sp, #52]	; 0x34
 8001374:	4650      	mov	r0, sl
 8001376:	4659      	mov	r1, fp
 8001378:	220a      	movs	r2, #10
 800137a:	2300      	movs	r3, #0
 800137c:	f005 fdb0 	bl	8006ee0 <__aeabi_uldivmod>
 8001380:	4625      	mov	r5, r4
 8001382:	4650      	mov	r0, sl
 8001384:	4659      	mov	r1, fp
 8001386:	2300      	movs	r3, #0
 8001388:	3c01      	subs	r4, #1
 800138a:	f102 0e30 	add.w	lr, r2, #48	; 0x30
 800138e:	220a      	movs	r2, #10
 8001390:	f885 e000 	strb.w	lr, [r5]
 8001394:	f005 fda4 	bl	8006ee0 <__aeabi_uldivmod>
 8001398:	4682      	mov	sl, r0
 800139a:	468b      	mov	fp, r1
 800139c:	ea5a 000b 	orrs.w	r0, sl, fp
 80013a0:	d1e8      	bne.n	8001374 <_vfprintf_r+0xf90>
 80013a2:	9b0a      	ldr	r3, [sp, #40]	; 0x28
 80013a4:	46bc      	mov	ip, r7
 80013a6:	462f      	mov	r7, r5
 80013a8:	9d0d      	ldr	r5, [sp, #52]	; 0x34
 80013aa:	1bdb      	subs	r3, r3, r7
 80013ac:	9311      	str	r3, [sp, #68]	; 0x44
 80013ae:	f7ff ba89 	b.w	80008c4 <_vfprintf_r+0x4e0>
 80013b2:	980e      	ldr	r0, [sp, #56]	; 0x38
 80013b4:	4649      	mov	r1, r9
 80013b6:	4642      	mov	r2, r8
 80013b8:	f003 face 	bl	8004958 <__sprint_r>
 80013bc:	2800      	cmp	r0, #0
 80013be:	f47f a9c3 	bne.w	8000748 <_vfprintf_r+0x364>
 80013c2:	ae52      	add	r6, sp, #328	; 0x148
 80013c4:	f7ff bb13 	b.w	80009ee <_vfprintf_r+0x60a>
 80013c8:	f1da 0a00 	rsbs	sl, sl, #0
 80013cc:	eb6b 0b4b 	sbc.w	fp, fp, fp, lsl #1
 80013d0:	232d      	movs	r3, #45	; 0x2d
 80013d2:	ea5a 020b 	orrs.w	r2, sl, fp
 80013d6:	f88d 308b 	strb.w	r3, [sp, #139]	; 0x8b
 80013da:	bf0c      	ite	eq
 80013dc:	2200      	moveq	r2, #0
 80013de:	2201      	movne	r2, #1
 80013e0:	2301      	movs	r3, #1
 80013e2:	f7ff ba34 	b.w	800084e <_vfprintf_r+0x46a>
 80013e6:	4621      	mov	r1, r4
 80013e8:	f8cd c01c 	str.w	ip, [sp, #28]
 80013ec:	f003 f914 	bl	8004618 <__fpclassifyd>
 80013f0:	f8dd c01c 	ldr.w	ip, [sp, #28]
 80013f4:	2800      	cmp	r0, #0
 80013f6:	f000 819e 	beq.w	8001736 <_vfprintf_r+0x1352>
 80013fa:	f1bc 3fff 	cmp.w	ip, #4294967295
 80013fe:	f025 0720 	bic.w	r7, r5, #32
 8001402:	bf08      	it	eq
 8001404:	f04f 0c06 	moveq.w	ip, #6
 8001408:	9711      	str	r7, [sp, #68]	; 0x44
 800140a:	d006      	beq.n	800141a <_vfprintf_r+0x1036>
 800140c:	2f47      	cmp	r7, #71	; 0x47
 800140e:	d104      	bne.n	800141a <_vfprintf_r+0x1036>
 8001410:	f1bc 0f00 	cmp.w	ip, #0
 8001414:	bf08      	it	eq
 8001416:	f04f 0c01 	moveq.w	ip, #1
 800141a:	9f0b      	ldr	r7, [sp, #44]	; 0x2c
 800141c:	2c00      	cmp	r4, #0
 800141e:	f447 7780 	orr.w	r7, r7, #256	; 0x100
 8001422:	9715      	str	r7, [sp, #84]	; 0x54
 8001424:	f2c0 82d3 	blt.w	80019ce <_vfprintf_r+0x15ea>
 8001428:	2700      	movs	r7, #0
 800142a:	9712      	str	r7, [sp, #72]	; 0x48
 800142c:	9f11      	ldr	r7, [sp, #68]	; 0x44
 800142e:	f1b7 0246 	subs.w	r2, r7, #70	; 0x46
 8001432:	4251      	negs	r1, r2
 8001434:	4151      	adcs	r1, r2
 8001436:	2900      	cmp	r1, #0
 8001438:	f040 8233 	bne.w	80018a2 <_vfprintf_r+0x14be>
 800143c:	2f45      	cmp	r7, #69	; 0x45
 800143e:	f040 82c4 	bne.w	80019ca <_vfprintf_r+0x15e6>
 8001442:	a826      	add	r0, sp, #152	; 0x98
 8001444:	9014      	str	r0, [sp, #80]	; 0x50
 8001446:	f10c 0101 	add.w	r1, ip, #1
 800144a:	910d      	str	r1, [sp, #52]	; 0x34
 800144c:	9101      	str	r1, [sp, #4]
 800144e:	2102      	movs	r1, #2
 8001450:	9100      	str	r1, [sp, #0]
 8001452:	a925      	add	r1, sp, #148	; 0x94
 8001454:	9103      	str	r1, [sp, #12]
 8001456:	4652      	mov	r2, sl
 8001458:	9914      	ldr	r1, [sp, #80]	; 0x50
 800145a:	4623      	mov	r3, r4
 800145c:	f10d 0b90 	add.w	fp, sp, #144	; 0x90
 8001460:	980e      	ldr	r0, [sp, #56]	; 0x38
 8001462:	f8cd b008 	str.w	fp, [sp, #8]
 8001466:	9104      	str	r1, [sp, #16]
 8001468:	f8cd c01c 	str.w	ip, [sp, #28]
 800146c:	f000 fc74 	bl	8001d58 <_dtoa_r>
 8001470:	f8dd c01c 	ldr.w	ip, [sp, #28]
 8001474:	990d      	ldr	r1, [sp, #52]	; 0x34
 8001476:	4607      	mov	r7, r0
 8001478:	1841      	adds	r1, r0, r1
 800147a:	910d      	str	r1, [sp, #52]	; 0x34
 800147c:	4650      	mov	r0, sl
 800147e:	2200      	movs	r2, #0
 8001480:	2300      	movs	r3, #0
 8001482:	4621      	mov	r1, r4
 8001484:	f8cd c01c 	str.w	ip, [sp, #28]
 8001488:	f005 fcd0 	bl	8006e2c <__aeabi_dcmpeq>
 800148c:	f8dd c01c 	ldr.w	ip, [sp, #28]
 8001490:	b970      	cbnz	r0, 80014b0 <_vfprintf_r+0x10cc>
 8001492:	9c14      	ldr	r4, [sp, #80]	; 0x50
 8001494:	6823      	ldr	r3, [r4, #0]
 8001496:	9c0d      	ldr	r4, [sp, #52]	; 0x34
 8001498:	429c      	cmp	r4, r3
 800149a:	bf98      	it	ls
 800149c:	930d      	strls	r3, [sp, #52]	; 0x34
 800149e:	d907      	bls.n	80014b0 <_vfprintf_r+0x10cc>
 80014a0:	9814      	ldr	r0, [sp, #80]	; 0x50
 80014a2:	2230      	movs	r2, #48	; 0x30
 80014a4:	4621      	mov	r1, r4
 80014a6:	f803 2b01 	strb.w	r2, [r3], #1
 80014aa:	428b      	cmp	r3, r1
 80014ac:	6003      	str	r3, [r0, #0]
 80014ae:	d1fa      	bne.n	80014a6 <_vfprintf_r+0x10c2>
 80014b0:	9c0d      	ldr	r4, [sp, #52]	; 0x34
 80014b2:	1be4      	subs	r4, r4, r7
 80014b4:	9414      	str	r4, [sp, #80]	; 0x50
 80014b6:	9c11      	ldr	r4, [sp, #68]	; 0x44
 80014b8:	2c47      	cmp	r4, #71	; 0x47
 80014ba:	f000 822d 	beq.w	8001918 <_vfprintf_r+0x1534>
 80014be:	2d65      	cmp	r5, #101	; 0x65
 80014c0:	f340 8232 	ble.w	8001928 <_vfprintf_r+0x1544>
 80014c4:	2d66      	cmp	r5, #102	; 0x66
 80014c6:	f8db 3000 	ldr.w	r3, [fp]
 80014ca:	f000 82b5 	beq.w	8001a38 <_vfprintf_r+0x1654>
 80014ce:	9d14      	ldr	r5, [sp, #80]	; 0x50
 80014d0:	42ab      	cmp	r3, r5
 80014d2:	f2c0 826d 	blt.w	80019b0 <_vfprintf_r+0x15cc>
 80014d6:	9c0b      	ldr	r4, [sp, #44]	; 0x2c
 80014d8:	07e2      	lsls	r2, r4, #31
 80014da:	f100 82ba 	bmi.w	8001a52 <_vfprintf_r+0x166e>
 80014de:	ea23 75e3 	bic.w	r5, r3, r3, asr #31
 80014e2:	950d      	str	r5, [sp, #52]	; 0x34
 80014e4:	2567      	movs	r5, #103	; 0x67
 80014e6:	9311      	str	r3, [sp, #68]	; 0x44
 80014e8:	931b      	str	r3, [sp, #108]	; 0x6c
 80014ea:	9c12      	ldr	r4, [sp, #72]	; 0x48
 80014ec:	2c00      	cmp	r4, #0
 80014ee:	f000 8206 	beq.w	80018fe <_vfprintf_r+0x151a>
 80014f2:	9c15      	ldr	r4, [sp, #84]	; 0x54
 80014f4:	232d      	movs	r3, #45	; 0x2d
 80014f6:	f88d 308b 	strb.w	r3, [sp, #139]	; 0x8b
 80014fa:	2300      	movs	r3, #0
 80014fc:	9312      	str	r3, [sp, #72]	; 0x48
 80014fe:	940b      	str	r4, [sp, #44]	; 0x2c
 8001500:	f7ff b9ec 	b.w	80008dc <_vfprintf_r+0x4f8>
 8001504:	781d      	ldrb	r5, [r3, #0]
 8001506:	f7ff b815 	b.w	8000534 <_vfprintf_r+0x150>
 800150a:	9f0b      	ldr	r7, [sp, #44]	; 0x2c
 800150c:	0678      	lsls	r0, r7, #25
 800150e:	f140 8106 	bpl.w	800171e <_vfprintf_r+0x133a>
 8001512:	9c13      	ldr	r4, [sp, #76]	; 0x4c
 8001514:	3404      	adds	r4, #4
 8001516:	f934 ac04 	ldrsh.w	sl, [r4, #-4]
 800151a:	9413      	str	r4, [sp, #76]	; 0x4c
 800151c:	4652      	mov	r2, sl
 800151e:	ea4f 7bea 	mov.w	fp, sl, asr #31
 8001522:	465b      	mov	r3, fp
 8001524:	f7ff b987 	b.w	8000836 <_vfprintf_r+0x452>
 8001528:	9f0b      	ldr	r7, [sp, #44]	; 0x2c
 800152a:	06fd      	lsls	r5, r7, #27
 800152c:	f100 80ee 	bmi.w	800170c <_vfprintf_r+0x1328>
 8001530:	9f0b      	ldr	r7, [sp, #44]	; 0x2c
 8001532:	067c      	lsls	r4, r7, #25
 8001534:	f140 81a7 	bpl.w	8001886 <_vfprintf_r+0x14a2>
 8001538:	9c13      	ldr	r4, [sp, #76]	; 0x4c
 800153a:	9d10      	ldr	r5, [sp, #64]	; 0x40
 800153c:	3404      	adds	r4, #4
 800153e:	f854 3c04 	ldr.w	r3, [r4, #-4]
 8001542:	9413      	str	r4, [sp, #76]	; 0x4c
 8001544:	801d      	strh	r5, [r3, #0]
 8001546:	f7fe bfbf 	b.w	80004c8 <_vfprintf_r+0xe4>
 800154a:	9c0b      	ldr	r4, [sp, #44]	; 0x2c
 800154c:	0662      	lsls	r2, r4, #25
 800154e:	f140 80d6 	bpl.w	80016fe <_vfprintf_r+0x131a>
 8001552:	9f13      	ldr	r7, [sp, #76]	; 0x4c
 8001554:	2301      	movs	r3, #1
 8001556:	f8b7 a000 	ldrh.w	sl, [r7]
 800155a:	e010      	b.n	800157e <_vfprintf_r+0x119a>
 800155c:	9c13      	ldr	r4, [sp, #76]	; 0x4c
 800155e:	1de1      	adds	r1, r4, #7
 8001560:	f021 0107 	bic.w	r1, r1, #7
 8001564:	f101 0708 	add.w	r7, r1, #8
 8001568:	9713      	str	r7, [sp, #76]	; 0x4c
 800156a:	e416      	b.n	8000d9a <_vfprintf_r+0x9b6>
 800156c:	9c0b      	ldr	r4, [sp, #44]	; 0x2c
 800156e:	f014 0340 	ands.w	r3, r4, #64	; 0x40
 8001572:	f000 80b7 	beq.w	80016e4 <_vfprintf_r+0x1300>
 8001576:	9f13      	ldr	r7, [sp, #76]	; 0x4c
 8001578:	4613      	mov	r3, r2
 800157a:	f8b7 a000 	ldrh.w	sl, [r7]
 800157e:	f04f 0b00 	mov.w	fp, #0
 8001582:	3704      	adds	r7, #4
 8001584:	ea5a 000b 	orrs.w	r0, sl, fp
 8001588:	9713      	str	r7, [sp, #76]	; 0x4c
 800158a:	bf0c      	ite	eq
 800158c:	2200      	moveq	r2, #0
 800158e:	2201      	movne	r2, #1
 8001590:	f7ff baf9 	b.w	8000b86 <_vfprintf_r+0x7a2>
 8001594:	08008328 	.word	0x08008328
 8001598:	463c      	mov	r4, r7
 800159a:	9f12      	ldr	r7, [sp, #72]	; 0x48
 800159c:	f8d8 3004 	ldr.w	r3, [r8, #4]
 80015a0:	f8d8 2008 	ldr.w	r2, [r8, #8]
 80015a4:	3301      	adds	r3, #1
 80015a6:	e886 0030 	stmia.w	r6, {r4, r5}
 80015aa:	2b07      	cmp	r3, #7
 80015ac:	442a      	add	r2, r5
 80015ae:	f8c8 3004 	str.w	r3, [r8, #4]
 80015b2:	f8c8 2008 	str.w	r2, [r8, #8]
 80015b6:	f73f ae55 	bgt.w	8001264 <_vfprintf_r+0xe80>
 80015ba:	3608      	adds	r6, #8
 80015bc:	e65b      	b.n	8001276 <_vfprintf_r+0xe92>
 80015be:	9c0b      	ldr	r4, [sp, #44]	; 0x2c
 80015c0:	0664      	lsls	r4, r4, #25
 80015c2:	f140 8085 	bpl.w	80016d0 <_vfprintf_r+0x12ec>
 80015c6:	9f13      	ldr	r7, [sp, #76]	; 0x4c
 80015c8:	f04f 0b00 	mov.w	fp, #0
 80015cc:	3704      	adds	r7, #4
 80015ce:	f837 ac04 	ldrh.w	sl, [r7, #-4]
 80015d2:	9713      	str	r7, [sp, #76]	; 0x4c
 80015d4:	f7ff bacc 	b.w	8000b70 <_vfprintf_r+0x78c>
 80015d8:	980e      	ldr	r0, [sp, #56]	; 0x38
 80015da:	4649      	mov	r1, r9
 80015dc:	4642      	mov	r2, r8
 80015de:	f003 f9bb 	bl	8004958 <__sprint_r>
 80015e2:	2800      	cmp	r0, #0
 80015e4:	f47f a8b0 	bne.w	8000748 <_vfprintf_r+0x364>
 80015e8:	ae52      	add	r6, sp, #328	; 0x148
 80015ea:	f7ff ba6b 	b.w	8000ac4 <_vfprintf_r+0x6e0>
 80015ee:	f8d8 2004 	ldr.w	r2, [r8, #4]
 80015f2:	f248 5324 	movw	r3, #34084	; 0x8524
 80015f6:	f8d8 1008 	ldr.w	r1, [r8, #8]
 80015fa:	f6c0 0300 	movt	r3, #2048	; 0x800
 80015fe:	3201      	adds	r2, #1
 8001600:	6033      	str	r3, [r6, #0]
 8001602:	3101      	adds	r1, #1
 8001604:	2301      	movs	r3, #1
 8001606:	2a07      	cmp	r2, #7
 8001608:	6073      	str	r3, [r6, #4]
 800160a:	f8c8 1008 	str.w	r1, [r8, #8]
 800160e:	f8c8 2004 	str.w	r2, [r8, #4]
 8001612:	f300 80a3 	bgt.w	800175c <_vfprintf_r+0x1378>
 8001616:	3608      	adds	r6, #8
 8001618:	b92d      	cbnz	r5, 8001626 <_vfprintf_r+0x1242>
 800161a:	9c14      	ldr	r4, [sp, #80]	; 0x50
 800161c:	b91c      	cbnz	r4, 8001626 <_vfprintf_r+0x1242>
 800161e:	9c0b      	ldr	r4, [sp, #44]	; 0x2c
 8001620:	07e4      	lsls	r4, r4, #31
 8001622:	f57f a85b 	bpl.w	80006dc <_vfprintf_r+0x2f8>
 8001626:	9c19      	ldr	r4, [sp, #100]	; 0x64
 8001628:	f8d8 3004 	ldr.w	r3, [r8, #4]
 800162c:	f8d8 2008 	ldr.w	r2, [r8, #8]
 8001630:	3301      	adds	r3, #1
 8001632:	6034      	str	r4, [r6, #0]
 8001634:	9c1e      	ldr	r4, [sp, #120]	; 0x78
 8001636:	2b07      	cmp	r3, #7
 8001638:	4422      	add	r2, r4
 800163a:	6074      	str	r4, [r6, #4]
 800163c:	f8c8 3004 	str.w	r3, [r8, #4]
 8001640:	bfd8      	it	le
 8001642:	f106 0308 	addle.w	r3, r6, #8
 8001646:	f8c8 2008 	str.w	r2, [r8, #8]
 800164a:	f300 81a5 	bgt.w	8001998 <_vfprintf_r+0x15b4>
 800164e:	426d      	negs	r5, r5
 8001650:	2d00      	cmp	r5, #0
 8001652:	f340 80ba 	ble.w	80017ca <_vfprintf_r+0x13e6>
 8001656:	2d10      	cmp	r5, #16
 8001658:	4cac      	ldr	r4, [pc, #688]	; (800190c <_vfprintf_r+0x1528>)
 800165a:	f340 809e 	ble.w	800179a <_vfprintf_r+0x13b6>
 800165e:	2610      	movs	r6, #16
 8001660:	f8dd a038 	ldr.w	sl, [sp, #56]	; 0x38
 8001664:	e003      	b.n	800166e <_vfprintf_r+0x128a>
 8001666:	3d10      	subs	r5, #16
 8001668:	2d10      	cmp	r5, #16
 800166a:	f340 8096 	ble.w	800179a <_vfprintf_r+0x13b6>
 800166e:	f8d8 2004 	ldr.w	r2, [r8, #4]
 8001672:	3308      	adds	r3, #8
 8001674:	f8d8 1008 	ldr.w	r1, [r8, #8]
 8001678:	3201      	adds	r2, #1
 800167a:	e903 0050 	stmdb	r3, {r4, r6}
 800167e:	3110      	adds	r1, #16
 8001680:	2a07      	cmp	r2, #7
 8001682:	f8c8 2004 	str.w	r2, [r8, #4]
 8001686:	f8c8 1008 	str.w	r1, [r8, #8]
 800168a:	ddec      	ble.n	8001666 <_vfprintf_r+0x1282>
 800168c:	4650      	mov	r0, sl
 800168e:	4649      	mov	r1, r9
 8001690:	4642      	mov	r2, r8
 8001692:	f003 f961 	bl	8004958 <__sprint_r>
 8001696:	ab52      	add	r3, sp, #328	; 0x148
 8001698:	2800      	cmp	r0, #0
 800169a:	d0e4      	beq.n	8001666 <_vfprintf_r+0x1282>
 800169c:	f7ff b854 	b.w	8000748 <_vfprintf_r+0x364>
 80016a0:	f8d8 3008 	ldr.w	r3, [r8, #8]
 80016a4:	46ca      	mov	sl, r9
 80016a6:	2b00      	cmp	r3, #0
 80016a8:	f43f a84f 	beq.w	800074a <_vfprintf_r+0x366>
 80016ac:	980e      	ldr	r0, [sp, #56]	; 0x38
 80016ae:	4649      	mov	r1, r9
 80016b0:	4642      	mov	r2, r8
 80016b2:	f003 f951 	bl	8004958 <__sprint_r>
 80016b6:	f7ff b848 	b.w	800074a <_vfprintf_r+0x366>
 80016ba:	9b11      	ldr	r3, [sp, #68]	; 0x44
 80016bc:	f8cd a04c 	str.w	sl, [sp, #76]	; 0x4c
 80016c0:	ea23 73e3 	bic.w	r3, r3, r3, asr #31
 80016c4:	941b      	str	r4, [sp, #108]	; 0x6c
 80016c6:	930d      	str	r3, [sp, #52]	; 0x34
 80016c8:	f89d 308b 	ldrb.w	r3, [sp, #139]	; 0x8b
 80016cc:	f7ff b905 	b.w	80008da <_vfprintf_r+0x4f6>
 80016d0:	9c13      	ldr	r4, [sp, #76]	; 0x4c
 80016d2:	f04f 0b00 	mov.w	fp, #0
 80016d6:	3404      	adds	r4, #4
 80016d8:	f854 3c04 	ldr.w	r3, [r4, #-4]
 80016dc:	9413      	str	r4, [sp, #76]	; 0x4c
 80016de:	469a      	mov	sl, r3
 80016e0:	f7ff ba46 	b.w	8000b70 <_vfprintf_r+0x78c>
 80016e4:	9c13      	ldr	r4, [sp, #76]	; 0x4c
 80016e6:	f04f 0b00 	mov.w	fp, #0
 80016ea:	3404      	adds	r4, #4
 80016ec:	f854 2c04 	ldr.w	r2, [r4, #-4]
 80016f0:	9413      	str	r4, [sp, #76]	; 0x4c
 80016f2:	4692      	mov	sl, r2
 80016f4:	3200      	adds	r2, #0
 80016f6:	bf18      	it	ne
 80016f8:	2201      	movne	r2, #1
 80016fa:	f7ff ba44 	b.w	8000b86 <_vfprintf_r+0x7a2>
 80016fe:	9c13      	ldr	r4, [sp, #76]	; 0x4c
 8001700:	3404      	adds	r4, #4
 8001702:	f854 2c04 	ldr.w	r2, [r4, #-4]
 8001706:	9413      	str	r4, [sp, #76]	; 0x4c
 8001708:	f7ff bbb0 	b.w	8000e6c <_vfprintf_r+0xa88>
 800170c:	9c13      	ldr	r4, [sp, #76]	; 0x4c
 800170e:	9d10      	ldr	r5, [sp, #64]	; 0x40
 8001710:	3404      	adds	r4, #4
 8001712:	f854 3c04 	ldr.w	r3, [r4, #-4]
 8001716:	9413      	str	r4, [sp, #76]	; 0x4c
 8001718:	601d      	str	r5, [r3, #0]
 800171a:	f7fe bed5 	b.w	80004c8 <_vfprintf_r+0xe4>
 800171e:	9f13      	ldr	r7, [sp, #76]	; 0x4c
 8001720:	3704      	adds	r7, #4
 8001722:	f857 3c04 	ldr.w	r3, [r7, #-4]
 8001726:	9713      	str	r7, [sp, #76]	; 0x4c
 8001728:	469a      	mov	sl, r3
 800172a:	461a      	mov	r2, r3
 800172c:	ea4f 7be3 	mov.w	fp, r3, asr #31
 8001730:	465b      	mov	r3, fp
 8001732:	f7ff b880 	b.w	8000836 <_vfprintf_r+0x452>
 8001736:	2703      	movs	r7, #3
 8001738:	9c18      	ldr	r4, [sp, #96]	; 0x60
 800173a:	970d      	str	r7, [sp, #52]	; 0x34
 800173c:	9f17      	ldr	r7, [sp, #92]	; 0x5c
 800173e:	9012      	str	r0, [sp, #72]	; 0x48
 8001740:	2d47      	cmp	r5, #71	; 0x47
 8001742:	bfd8      	it	le
 8001744:	4627      	movle	r7, r4
 8001746:	9c0b      	ldr	r4, [sp, #44]	; 0x2c
 8001748:	f89d 308b 	ldrb.w	r3, [sp, #139]	; 0x8b
 800174c:	f024 0480 	bic.w	r4, r4, #128	; 0x80
 8001750:	901b      	str	r0, [sp, #108]	; 0x6c
 8001752:	940b      	str	r4, [sp, #44]	; 0x2c
 8001754:	2403      	movs	r4, #3
 8001756:	9411      	str	r4, [sp, #68]	; 0x44
 8001758:	f7ff b8bf 	b.w	80008da <_vfprintf_r+0x4f6>
 800175c:	980e      	ldr	r0, [sp, #56]	; 0x38
 800175e:	4649      	mov	r1, r9
 8001760:	4642      	mov	r2, r8
 8001762:	f003 f8f9 	bl	8004958 <__sprint_r>
 8001766:	2800      	cmp	r0, #0
 8001768:	f47e afee 	bne.w	8000748 <_vfprintf_r+0x364>
 800176c:	f8db 5000 	ldr.w	r5, [fp]
 8001770:	ae52      	add	r6, sp, #328	; 0x148
 8001772:	e751      	b.n	8001618 <_vfprintf_r+0x1234>
 8001774:	9c0b      	ldr	r4, [sp, #44]	; 0x2c
 8001776:	3301      	adds	r3, #1
 8001778:	7855      	ldrb	r5, [r2, #1]
 800177a:	f044 0420 	orr.w	r4, r4, #32
 800177e:	940b      	str	r4, [sp, #44]	; 0x2c
 8001780:	f7fe bed8 	b.w	8000534 <_vfprintf_r+0x150>
 8001784:	980e      	ldr	r0, [sp, #56]	; 0x38
 8001786:	4649      	mov	r1, r9
 8001788:	4642      	mov	r2, r8
 800178a:	f003 f8e5 	bl	8004958 <__sprint_r>
 800178e:	2800      	cmp	r0, #0
 8001790:	f47e afda 	bne.w	8000748 <_vfprintf_r+0x364>
 8001794:	ae52      	add	r6, sp, #328	; 0x148
 8001796:	f7ff b9af 	b.w	8000af8 <_vfprintf_r+0x714>
 800179a:	f8d8 2004 	ldr.w	r2, [r8, #4]
 800179e:	f8d8 1008 	ldr.w	r1, [r8, #8]
 80017a2:	3201      	adds	r2, #1
 80017a4:	e883 0030 	stmia.w	r3, {r4, r5}
 80017a8:	3308      	adds	r3, #8
 80017aa:	2a07      	cmp	r2, #7
 80017ac:	4429      	add	r1, r5
 80017ae:	f8c8 2004 	str.w	r2, [r8, #4]
 80017b2:	f8c8 1008 	str.w	r1, [r8, #8]
 80017b6:	dd08      	ble.n	80017ca <_vfprintf_r+0x13e6>
 80017b8:	980e      	ldr	r0, [sp, #56]	; 0x38
 80017ba:	4649      	mov	r1, r9
 80017bc:	4642      	mov	r2, r8
 80017be:	f003 f8cb 	bl	8004958 <__sprint_r>
 80017c2:	2800      	cmp	r0, #0
 80017c4:	f47e afc0 	bne.w	8000748 <_vfprintf_r+0x364>
 80017c8:	ab52      	add	r3, sp, #328	; 0x148
 80017ca:	f8d8 2004 	ldr.w	r2, [r8, #4]
 80017ce:	9d14      	ldr	r5, [sp, #80]	; 0x50
 80017d0:	3201      	adds	r2, #1
 80017d2:	f8d8 1008 	ldr.w	r1, [r8, #8]
 80017d6:	2a07      	cmp	r2, #7
 80017d8:	601f      	str	r7, [r3, #0]
 80017da:	605d      	str	r5, [r3, #4]
 80017dc:	4429      	add	r1, r5
 80017de:	f8c8 2004 	str.w	r2, [r8, #4]
 80017e2:	bfd8      	it	le
 80017e4:	f103 0608 	addle.w	r6, r3, #8
 80017e8:	f8c8 1008 	str.w	r1, [r8, #8]
 80017ec:	f77e af76 	ble.w	80006dc <_vfprintf_r+0x2f8>
 80017f0:	f7ff bb98 	b.w	8000f24 <_vfprintf_r+0xb40>
 80017f4:	9412      	str	r4, [sp, #72]	; 0x48
 80017f6:	f003 f87f 	bl	80048f8 <strlen>
 80017fa:	f89d 308b 	ldrb.w	r3, [sp, #139]	; 0x8b
 80017fe:	f8cd a04c 	str.w	sl, [sp, #76]	; 0x4c
 8001802:	ea20 74e0 	bic.w	r4, r0, r0, asr #31
 8001806:	940d      	str	r4, [sp, #52]	; 0x34
 8001808:	9c12      	ldr	r4, [sp, #72]	; 0x48
 800180a:	9011      	str	r0, [sp, #68]	; 0x44
 800180c:	941b      	str	r4, [sp, #108]	; 0x6c
 800180e:	f7ff b864 	b.w	80008da <_vfprintf_r+0x4f6>
 8001812:	980e      	ldr	r0, [sp, #56]	; 0x38
 8001814:	4649      	mov	r1, r9
 8001816:	4642      	mov	r2, r8
 8001818:	f003 f89e 	bl	8004958 <__sprint_r>
 800181c:	2800      	cmp	r0, #0
 800181e:	f47e af93 	bne.w	8000748 <_vfprintf_r+0x364>
 8001822:	ae52      	add	r6, sp, #328	; 0x148
 8001824:	e489      	b.n	800113a <_vfprintf_r+0xd56>
 8001826:	9c0a      	ldr	r4, [sp, #40]	; 0x28
 8001828:	1be4      	subs	r4, r4, r7
 800182a:	9411      	str	r4, [sp, #68]	; 0x44
 800182c:	f7ff b84a 	b.w	80008c4 <_vfprintf_r+0x4e0>
 8001830:	980e      	ldr	r0, [sp, #56]	; 0x38
 8001832:	4649      	mov	r1, r9
 8001834:	4642      	mov	r2, r8
 8001836:	f003 f88f 	bl	8004958 <__sprint_r>
 800183a:	2800      	cmp	r0, #0
 800183c:	f47e af84 	bne.w	8000748 <_vfprintf_r+0x364>
 8001840:	f8db 3000 	ldr.w	r3, [fp]
 8001844:	ae52      	add	r6, sp, #328	; 0x148
 8001846:	e520      	b.n	800128a <_vfprintf_r+0xea6>
 8001848:	980e      	ldr	r0, [sp, #56]	; 0x38
 800184a:	4649      	mov	r1, r9
 800184c:	4642      	mov	r2, r8
 800184e:	f003 f883 	bl	8004958 <__sprint_r>
 8001852:	2800      	cmp	r0, #0
 8001854:	f47e af78 	bne.w	8000748 <_vfprintf_r+0x364>
 8001858:	f8db 3000 	ldr.w	r3, [fp]
 800185c:	ae52      	add	r6, sp, #328	; 0x148
 800185e:	9f14      	ldr	r7, [sp, #80]	; 0x50
 8001860:	1afb      	subs	r3, r7, r3
 8001862:	e52b      	b.n	80012bc <_vfprintf_r+0xed8>
 8001864:	f1bc 0f06 	cmp.w	ip, #6
 8001868:	bf34      	ite	cc
 800186a:	4663      	movcc	r3, ip
 800186c:	2306      	movcs	r3, #6
 800186e:	f248 571c 	movw	r7, #34076	; 0x851c
 8001872:	ea23 74e3 	bic.w	r4, r3, r3, asr #31
 8001876:	9311      	str	r3, [sp, #68]	; 0x44
 8001878:	940d      	str	r4, [sp, #52]	; 0x34
 800187a:	f6c0 0700 	movt	r7, #2048	; 0x800
 800187e:	f8cd a04c 	str.w	sl, [sp, #76]	; 0x4c
 8001882:	f7ff b993 	b.w	8000bac <_vfprintf_r+0x7c8>
 8001886:	9f13      	ldr	r7, [sp, #76]	; 0x4c
 8001888:	9c10      	ldr	r4, [sp, #64]	; 0x40
 800188a:	3704      	adds	r7, #4
 800188c:	f857 3c04 	ldr.w	r3, [r7, #-4]
 8001890:	9713      	str	r7, [sp, #76]	; 0x4c
 8001892:	601c      	str	r4, [r3, #0]
 8001894:	f7fe be18 	b.w	80004c8 <_vfprintf_r+0xe4>
 8001898:	232d      	movs	r3, #45	; 0x2d
 800189a:	f88d 308b 	strb.w	r3, [sp, #139]	; 0x8b
 800189e:	f7ff ba99 	b.w	8000dd4 <_vfprintf_r+0x9f0>
 80018a2:	2003      	movs	r0, #3
 80018a4:	af26      	add	r7, sp, #152	; 0x98
 80018a6:	e88d 1001 	stmia.w	sp, {r0, ip}
 80018aa:	a825      	add	r0, sp, #148	; 0x94
 80018ac:	9704      	str	r7, [sp, #16]
 80018ae:	4652      	mov	r2, sl
 80018b0:	9003      	str	r0, [sp, #12]
 80018b2:	4623      	mov	r3, r4
 80018b4:	f10d 0b90 	add.w	fp, sp, #144	; 0x90
 80018b8:	980e      	ldr	r0, [sp, #56]	; 0x38
 80018ba:	f8cd b008 	str.w	fp, [sp, #8]
 80018be:	9714      	str	r7, [sp, #80]	; 0x50
 80018c0:	9108      	str	r1, [sp, #32]
 80018c2:	f8cd c01c 	str.w	ip, [sp, #28]
 80018c6:	f000 fa47 	bl	8001d58 <_dtoa_r>
 80018ca:	9908      	ldr	r1, [sp, #32]
 80018cc:	f8dd c01c 	ldr.w	ip, [sp, #28]
 80018d0:	4607      	mov	r7, r0
 80018d2:	9811      	ldr	r0, [sp, #68]	; 0x44
 80018d4:	2847      	cmp	r0, #71	; 0x47
 80018d6:	d102      	bne.n	80018de <_vfprintf_r+0x14fa>
 80018d8:	9a0b      	ldr	r2, [sp, #44]	; 0x2c
 80018da:	07d3      	lsls	r3, r2, #31
 80018dc:	d518      	bpl.n	8001910 <_vfprintf_r+0x152c>
 80018de:	eb07 000c 	add.w	r0, r7, ip
 80018e2:	900d      	str	r0, [sp, #52]	; 0x34
 80018e4:	2900      	cmp	r1, #0
 80018e6:	f43f adc9 	beq.w	800147c <_vfprintf_r+0x1098>
 80018ea:	783b      	ldrb	r3, [r7, #0]
 80018ec:	2b30      	cmp	r3, #48	; 0x30
 80018ee:	f000 80b7 	beq.w	8001a60 <_vfprintf_r+0x167c>
 80018f2:	f8db 3000 	ldr.w	r3, [fp]
 80018f6:	990d      	ldr	r1, [sp, #52]	; 0x34
 80018f8:	18c9      	adds	r1, r1, r3
 80018fa:	910d      	str	r1, [sp, #52]	; 0x34
 80018fc:	e5be      	b.n	800147c <_vfprintf_r+0x1098>
 80018fe:	9c15      	ldr	r4, [sp, #84]	; 0x54
 8001900:	f89d 308b 	ldrb.w	r3, [sp, #139]	; 0x8b
 8001904:	940b      	str	r4, [sp, #44]	; 0x2c
 8001906:	f7fe bfe8 	b.w	80008da <_vfprintf_r+0x4f6>
 800190a:	bf00      	nop
 800190c:	08008328 	.word	0x08008328
 8001910:	9c14      	ldr	r4, [sp, #80]	; 0x50
 8001912:	6823      	ldr	r3, [r4, #0]
 8001914:	1bdb      	subs	r3, r3, r7
 8001916:	9314      	str	r3, [sp, #80]	; 0x50
 8001918:	f8db 3000 	ldr.w	r3, [fp]
 800191c:	1cdc      	adds	r4, r3, #3
 800191e:	db02      	blt.n	8001926 <_vfprintf_r+0x1542>
 8001920:	459c      	cmp	ip, r3
 8001922:	f6bf add4 	bge.w	80014ce <_vfprintf_r+0x10ea>
 8001926:	3d02      	subs	r5, #2
 8001928:	f8db 3000 	ldr.w	r3, [fp]
 800192c:	f10d 0a9c 	add.w	sl, sp, #156	; 0x9c
 8001930:	f88a 5000 	strb.w	r5, [sl]
 8001934:	3b01      	subs	r3, #1
 8001936:	f8cb 3000 	str.w	r3, [fp]
 800193a:	2b00      	cmp	r3, #0
 800193c:	f2c0 80ce 	blt.w	8001adc <_vfprintf_r+0x16f8>
 8001940:	222b      	movs	r2, #43	; 0x2b
 8001942:	f88a 2001 	strb.w	r2, [sl, #1]
 8001946:	2b09      	cmp	r3, #9
 8001948:	dc46      	bgt.n	80019d8 <_vfprintf_r+0x15f4>
 800194a:	2230      	movs	r2, #48	; 0x30
 800194c:	f88a 2002 	strb.w	r2, [sl, #2]
 8001950:	aa28      	add	r2, sp, #160	; 0xa0
 8001952:	3330      	adds	r3, #48	; 0x30
 8001954:	f88a 3003 	strb.w	r3, [sl, #3]
 8001958:	9c14      	ldr	r4, [sp, #80]	; 0x50
 800195a:	ebca 0202 	rsb	r2, sl, r2
 800195e:	921f      	str	r2, [sp, #124]	; 0x7c
 8001960:	18a4      	adds	r4, r4, r2
 8001962:	9411      	str	r4, [sp, #68]	; 0x44
 8001964:	9c14      	ldr	r4, [sp, #80]	; 0x50
 8001966:	2c01      	cmp	r4, #1
 8001968:	f340 809f 	ble.w	8001aaa <_vfprintf_r+0x16c6>
 800196c:	9b11      	ldr	r3, [sp, #68]	; 0x44
 800196e:	2400      	movs	r4, #0
 8001970:	941b      	str	r4, [sp, #108]	; 0x6c
 8001972:	3301      	adds	r3, #1
 8001974:	9311      	str	r3, [sp, #68]	; 0x44
 8001976:	ea23 74e3 	bic.w	r4, r3, r3, asr #31
 800197a:	940d      	str	r4, [sp, #52]	; 0x34
 800197c:	e5b5      	b.n	80014ea <_vfprintf_r+0x1106>
 800197e:	ea2c 74ec 	bic.w	r4, ip, ip, asr #31
 8001982:	9012      	str	r0, [sp, #72]	; 0x48
 8001984:	940d      	str	r4, [sp, #52]	; 0x34
 8001986:	f89d 308b 	ldrb.w	r3, [sp, #139]	; 0x8b
 800198a:	f8cd a04c 	str.w	sl, [sp, #76]	; 0x4c
 800198e:	f8cd c044 	str.w	ip, [sp, #68]	; 0x44
 8001992:	901b      	str	r0, [sp, #108]	; 0x6c
 8001994:	f7fe bfa1 	b.w	80008da <_vfprintf_r+0x4f6>
 8001998:	980e      	ldr	r0, [sp, #56]	; 0x38
 800199a:	4649      	mov	r1, r9
 800199c:	4642      	mov	r2, r8
 800199e:	f002 ffdb 	bl	8004958 <__sprint_r>
 80019a2:	2800      	cmp	r0, #0
 80019a4:	f47e aed0 	bne.w	8000748 <_vfprintf_r+0x364>
 80019a8:	f8db 5000 	ldr.w	r5, [fp]
 80019ac:	ab52      	add	r3, sp, #328	; 0x148
 80019ae:	e64e      	b.n	800164e <_vfprintf_r+0x126a>
 80019b0:	2b00      	cmp	r3, #0
 80019b2:	9d14      	ldr	r5, [sp, #80]	; 0x50
 80019b4:	bfd4      	ite	le
 80019b6:	f1c3 0202 	rsble	r2, r3, #2
 80019ba:	2201      	movgt	r2, #1
 80019bc:	1952      	adds	r2, r2, r5
 80019be:	2567      	movs	r5, #103	; 0x67
 80019c0:	ea22 74e2 	bic.w	r4, r2, r2, asr #31
 80019c4:	9211      	str	r2, [sp, #68]	; 0x44
 80019c6:	940d      	str	r4, [sp, #52]	; 0x34
 80019c8:	e58e      	b.n	80014e8 <_vfprintf_r+0x1104>
 80019ca:	2002      	movs	r0, #2
 80019cc:	e76a      	b.n	80018a4 <_vfprintf_r+0x14c0>
 80019ce:	272d      	movs	r7, #45	; 0x2d
 80019d0:	f104 4400 	add.w	r4, r4, #2147483648	; 0x80000000
 80019d4:	9712      	str	r7, [sp, #72]	; 0x48
 80019d6:	e529      	b.n	800142c <_vfprintf_r+0x1048>
 80019d8:	f246 6067 	movw	r0, #26215	; 0x6667
 80019dc:	f10d 0caa 	add.w	ip, sp, #170	; 0xaa
 80019e0:	f2c6 6066 	movt	r0, #26214	; 0x6666
 80019e4:	fb80 1403 	smull	r1, r4, r0, r3
 80019e8:	17d9      	asrs	r1, r3, #31
 80019ea:	4662      	mov	r2, ip
 80019ec:	f10c 3cff 	add.w	ip, ip, #4294967295
 80019f0:	ebc1 01a4 	rsb	r1, r1, r4, asr #2
 80019f4:	eb01 0481 	add.w	r4, r1, r1, lsl #2
 80019f8:	eba3 0444 	sub.w	r4, r3, r4, lsl #1
 80019fc:	460b      	mov	r3, r1
 80019fe:	2b09      	cmp	r3, #9
 8001a00:	f104 0130 	add.w	r1, r4, #48	; 0x30
 8001a04:	7011      	strb	r1, [r2, #0]
 8001a06:	dced      	bgt.n	80019e4 <_vfprintf_r+0x1600>
 8001a08:	f10d 00ab 	add.w	r0, sp, #171	; 0xab
 8001a0c:	3330      	adds	r3, #48	; 0x30
 8001a0e:	4560      	cmp	r0, ip
 8001a10:	4619      	mov	r1, r3
 8001a12:	f802 3c01 	strb.w	r3, [r2, #-1]
 8001a16:	d96d      	bls.n	8001af4 <_vfprintf_r+0x1710>
 8001a18:	f10d 049d 	add.w	r4, sp, #157	; 0x9d
 8001a1c:	4613      	mov	r3, r2
 8001a1e:	e001      	b.n	8001a24 <_vfprintf_r+0x1640>
 8001a20:	f813 1b01 	ldrb.w	r1, [r3], #1
 8001a24:	4283      	cmp	r3, r0
 8001a26:	f804 1f01 	strb.w	r1, [r4, #1]!
 8001a2a:	d1f9      	bne.n	8001a20 <_vfprintf_r+0x163c>
 8001a2c:	ebc2 0208 	rsb	r2, r2, r8
 8001a30:	f10d 039e 	add.w	r3, sp, #158	; 0x9e
 8001a34:	189a      	adds	r2, r3, r2
 8001a36:	e78f      	b.n	8001958 <_vfprintf_r+0x1574>
 8001a38:	2b00      	cmp	r3, #0
 8001a3a:	dd2c      	ble.n	8001a96 <_vfprintf_r+0x16b2>
 8001a3c:	f1bc 0f00 	cmp.w	ip, #0
 8001a40:	d120      	bne.n	8001a84 <_vfprintf_r+0x16a0>
 8001a42:	9c0b      	ldr	r4, [sp, #44]	; 0x2c
 8001a44:	07e0      	lsls	r0, r4, #31
 8001a46:	d41d      	bmi.n	8001a84 <_vfprintf_r+0x16a0>
 8001a48:	ea23 74e3 	bic.w	r4, r3, r3, asr #31
 8001a4c:	9311      	str	r3, [sp, #68]	; 0x44
 8001a4e:	940d      	str	r4, [sp, #52]	; 0x34
 8001a50:	e54a      	b.n	80014e8 <_vfprintf_r+0x1104>
 8001a52:	1c5c      	adds	r4, r3, #1
 8001a54:	2567      	movs	r5, #103	; 0x67
 8001a56:	9411      	str	r4, [sp, #68]	; 0x44
 8001a58:	ea24 74e4 	bic.w	r4, r4, r4, asr #31
 8001a5c:	940d      	str	r4, [sp, #52]	; 0x34
 8001a5e:	e543      	b.n	80014e8 <_vfprintf_r+0x1104>
 8001a60:	4650      	mov	r0, sl
 8001a62:	2200      	movs	r2, #0
 8001a64:	2300      	movs	r3, #0
 8001a66:	4621      	mov	r1, r4
 8001a68:	f8cd c01c 	str.w	ip, [sp, #28]
 8001a6c:	f005 f9de 	bl	8006e2c <__aeabi_dcmpeq>
 8001a70:	f8dd c01c 	ldr.w	ip, [sp, #28]
 8001a74:	2800      	cmp	r0, #0
 8001a76:	f47f af3c 	bne.w	80018f2 <_vfprintf_r+0x150e>
 8001a7a:	f1cc 0301 	rsb	r3, ip, #1
 8001a7e:	f8cb 3000 	str.w	r3, [fp]
 8001a82:	e738      	b.n	80018f6 <_vfprintf_r+0x1512>
 8001a84:	f10c 0c01 	add.w	ip, ip, #1
 8001a88:	eb03 040c 	add.w	r4, r3, ip
 8001a8c:	9411      	str	r4, [sp, #68]	; 0x44
 8001a8e:	ea24 74e4 	bic.w	r4, r4, r4, asr #31
 8001a92:	940d      	str	r4, [sp, #52]	; 0x34
 8001a94:	e528      	b.n	80014e8 <_vfprintf_r+0x1104>
 8001a96:	f1bc 0f00 	cmp.w	ip, #0
 8001a9a:	d124      	bne.n	8001ae6 <_vfprintf_r+0x1702>
 8001a9c:	9c0b      	ldr	r4, [sp, #44]	; 0x2c
 8001a9e:	07e1      	lsls	r1, r4, #31
 8001aa0:	d421      	bmi.n	8001ae6 <_vfprintf_r+0x1702>
 8001aa2:	2401      	movs	r4, #1
 8001aa4:	940d      	str	r4, [sp, #52]	; 0x34
 8001aa6:	9411      	str	r4, [sp, #68]	; 0x44
 8001aa8:	e51e      	b.n	80014e8 <_vfprintf_r+0x1104>
 8001aaa:	9c0b      	ldr	r4, [sp, #44]	; 0x2c
 8001aac:	f014 0301 	ands.w	r3, r4, #1
 8001ab0:	f47f af5c 	bne.w	800196c <_vfprintf_r+0x1588>
 8001ab4:	9c11      	ldr	r4, [sp, #68]	; 0x44
 8001ab6:	931b      	str	r3, [sp, #108]	; 0x6c
 8001ab8:	ea24 74e4 	bic.w	r4, r4, r4, asr #31
 8001abc:	940d      	str	r4, [sp, #52]	; 0x34
 8001abe:	e514      	b.n	80014ea <_vfprintf_r+0x1106>
 8001ac0:	9f13      	ldr	r7, [sp, #76]	; 0x4c
 8001ac2:	785d      	ldrb	r5, [r3, #1]
 8001ac4:	4623      	mov	r3, r4
 8001ac6:	1d3a      	adds	r2, r7, #4
 8001ac8:	9213      	str	r2, [sp, #76]	; 0x4c
 8001aca:	f8d7 c000 	ldr.w	ip, [r7]
 8001ace:	f1bc 0f00 	cmp.w	ip, #0
 8001ad2:	bfb8      	it	lt
 8001ad4:	f04f 3cff 	movlt.w	ip, #4294967295
 8001ad8:	f7fe bd2c 	b.w	8000534 <_vfprintf_r+0x150>
 8001adc:	222d      	movs	r2, #45	; 0x2d
 8001ade:	425b      	negs	r3, r3
 8001ae0:	f88a 2001 	strb.w	r2, [sl, #1]
 8001ae4:	e72f      	b.n	8001946 <_vfprintf_r+0x1562>
 8001ae6:	f10c 0402 	add.w	r4, ip, #2
 8001aea:	9411      	str	r4, [sp, #68]	; 0x44
 8001aec:	ea24 74e4 	bic.w	r4, r4, r4, asr #31
 8001af0:	940d      	str	r4, [sp, #52]	; 0x34
 8001af2:	e4f9      	b.n	80014e8 <_vfprintf_r+0x1104>
 8001af4:	f10d 029e 	add.w	r2, sp, #158	; 0x9e
 8001af8:	e72e      	b.n	8001958 <_vfprintf_r+0x1574>
 8001afa:	bf00      	nop

08001afc <vfprintf>:
 8001afc:	b430      	push	{r4, r5}
 8001afe:	f240 0400 	movw	r4, #0
 8001b02:	f2c2 0400 	movt	r4, #8192	; 0x2000
 8001b06:	460d      	mov	r5, r1
 8001b08:	4613      	mov	r3, r2
 8001b0a:	4601      	mov	r1, r0
 8001b0c:	462a      	mov	r2, r5
 8001b0e:	6820      	ldr	r0, [r4, #0]
 8001b10:	bc30      	pop	{r4, r5}
 8001b12:	f7fe bc67 	b.w	80003e4 <_vfprintf_r>
 8001b16:	bf00      	nop

08001b18 <__swsetup_r>:
 8001b18:	b570      	push	{r4, r5, r6, lr}
 8001b1a:	f240 0500 	movw	r5, #0
 8001b1e:	f2c2 0500 	movt	r5, #8192	; 0x2000
 8001b22:	4606      	mov	r6, r0
 8001b24:	460c      	mov	r4, r1
 8001b26:	6828      	ldr	r0, [r5, #0]
 8001b28:	b110      	cbz	r0, 8001b30 <__swsetup_r+0x18>
 8001b2a:	6982      	ldr	r2, [r0, #24]
 8001b2c:	2a00      	cmp	r2, #0
 8001b2e:	d052      	beq.n	8001bd6 <__swsetup_r+0xbe>
 8001b30:	f248 3378 	movw	r3, #33656	; 0x8378
 8001b34:	f6c0 0300 	movt	r3, #2048	; 0x800
 8001b38:	429c      	cmp	r4, r3
 8001b3a:	d054      	beq.n	8001be6 <__swsetup_r+0xce>
 8001b3c:	f248 3358 	movw	r3, #33624	; 0x8358
 8001b40:	f6c0 0300 	movt	r3, #2048	; 0x800
 8001b44:	429c      	cmp	r4, r3
 8001b46:	d066      	beq.n	8001c16 <__swsetup_r+0xfe>
 8001b48:	f248 3338 	movw	r3, #33592	; 0x8338
 8001b4c:	f6c0 0300 	movt	r3, #2048	; 0x800
 8001b50:	429c      	cmp	r4, r3
 8001b52:	bf04      	itt	eq
 8001b54:	682b      	ldreq	r3, [r5, #0]
 8001b56:	68dc      	ldreq	r4, [r3, #12]
 8001b58:	89a3      	ldrh	r3, [r4, #12]
 8001b5a:	f003 0208 	and.w	r2, r3, #8
 8001b5e:	4619      	mov	r1, r3
 8001b60:	b212      	sxth	r2, r2
 8001b62:	b16a      	cbz	r2, 8001b80 <__swsetup_r+0x68>
 8001b64:	6922      	ldr	r2, [r4, #16]
 8001b66:	b1d2      	cbz	r2, 8001b9e <__swsetup_r+0x86>
 8001b68:	f013 0101 	ands.w	r1, r3, #1
 8001b6c:	d123      	bne.n	8001bb6 <__swsetup_r+0x9e>
 8001b6e:	f003 0302 	and.w	r3, r3, #2
 8001b72:	b21b      	sxth	r3, r3
 8001b74:	b903      	cbnz	r3, 8001b78 <__swsetup_r+0x60>
 8001b76:	6961      	ldr	r1, [r4, #20]
 8001b78:	60a1      	str	r1, [r4, #8]
 8001b7a:	b31a      	cbz	r2, 8001bc4 <__swsetup_r+0xac>
 8001b7c:	2000      	movs	r0, #0
 8001b7e:	bd70      	pop	{r4, r5, r6, pc}
 8001b80:	f003 0210 	and.w	r2, r3, #16
 8001b84:	b212      	sxth	r2, r2
 8001b86:	b31a      	cbz	r2, 8001bd0 <__swsetup_r+0xb8>
 8001b88:	f001 0104 	and.w	r1, r1, #4
 8001b8c:	b209      	sxth	r1, r1
 8001b8e:	2900      	cmp	r1, #0
 8001b90:	d12c      	bne.n	8001bec <__swsetup_r+0xd4>
 8001b92:	6922      	ldr	r2, [r4, #16]
 8001b94:	f043 0308 	orr.w	r3, r3, #8
 8001b98:	81a3      	strh	r3, [r4, #12]
 8001b9a:	2a00      	cmp	r2, #0
 8001b9c:	d1e4      	bne.n	8001b68 <__swsetup_r+0x50>
 8001b9e:	f403 7120 	and.w	r1, r3, #640	; 0x280
 8001ba2:	f5b1 7f00 	cmp.w	r1, #512	; 0x200
 8001ba6:	d0df      	beq.n	8001b68 <__swsetup_r+0x50>
 8001ba8:	4630      	mov	r0, r6
 8001baa:	4621      	mov	r1, r4
 8001bac:	f001 fbea 	bl	8003384 <__smakebuf_r>
 8001bb0:	89a3      	ldrh	r3, [r4, #12]
 8001bb2:	6922      	ldr	r2, [r4, #16]
 8001bb4:	e7d8      	b.n	8001b68 <__swsetup_r+0x50>
 8001bb6:	6963      	ldr	r3, [r4, #20]
 8001bb8:	2100      	movs	r1, #0
 8001bba:	60a1      	str	r1, [r4, #8]
 8001bbc:	425b      	negs	r3, r3
 8001bbe:	61a3      	str	r3, [r4, #24]
 8001bc0:	2a00      	cmp	r2, #0
 8001bc2:	d1db      	bne.n	8001b7c <__swsetup_r+0x64>
 8001bc4:	89a3      	ldrh	r3, [r4, #12]
 8001bc6:	f003 0380 	and.w	r3, r3, #128	; 0x80
 8001bca:	b21b      	sxth	r3, r3
 8001bcc:	2b00      	cmp	r3, #0
 8001bce:	d0d5      	beq.n	8001b7c <__swsetup_r+0x64>
 8001bd0:	f04f 30ff 	mov.w	r0, #4294967295
 8001bd4:	bd70      	pop	{r4, r5, r6, pc}
 8001bd6:	f001 f989 	bl	8002eec <__sinit>
 8001bda:	f248 3378 	movw	r3, #33656	; 0x8378
 8001bde:	f6c0 0300 	movt	r3, #2048	; 0x800
 8001be2:	429c      	cmp	r4, r3
 8001be4:	d1aa      	bne.n	8001b3c <__swsetup_r+0x24>
 8001be6:	682b      	ldr	r3, [r5, #0]
 8001be8:	685c      	ldr	r4, [r3, #4]
 8001bea:	e7b5      	b.n	8001b58 <__swsetup_r+0x40>
 8001bec:	6b61      	ldr	r1, [r4, #52]	; 0x34
 8001bee:	b149      	cbz	r1, 8001c04 <__swsetup_r+0xec>
 8001bf0:	f104 0244 	add.w	r2, r4, #68	; 0x44
 8001bf4:	4291      	cmp	r1, r2
 8001bf6:	d003      	beq.n	8001c00 <__swsetup_r+0xe8>
 8001bf8:	4630      	mov	r0, r6
 8001bfa:	f001 fa5b 	bl	80030b4 <_free_r>
 8001bfe:	89a3      	ldrh	r3, [r4, #12]
 8001c00:	2200      	movs	r2, #0
 8001c02:	6362      	str	r2, [r4, #52]	; 0x34
 8001c04:	f023 0324 	bic.w	r3, r3, #36	; 0x24
 8001c08:	6922      	ldr	r2, [r4, #16]
 8001c0a:	2100      	movs	r1, #0
 8001c0c:	6061      	str	r1, [r4, #4]
 8001c0e:	041b      	lsls	r3, r3, #16
 8001c10:	6022      	str	r2, [r4, #0]
 8001c12:	0c1b      	lsrs	r3, r3, #16
 8001c14:	e7be      	b.n	8001b94 <__swsetup_r+0x7c>
 8001c16:	682b      	ldr	r3, [r5, #0]
 8001c18:	689c      	ldr	r4, [r3, #8]
 8001c1a:	e79d      	b.n	8001b58 <__swsetup_r+0x40>
 8001c1c:	0000      	movs	r0, r0
	...

08001c20 <quorem>:
 8001c20:	e92d 4ff0 	stmdb	sp!, {r4, r5, r6, r7, r8, r9, sl, fp, lr}
 8001c24:	4681      	mov	r9, r0
 8001c26:	6903      	ldr	r3, [r0, #16]
 8001c28:	b083      	sub	sp, #12
 8001c2a:	690d      	ldr	r5, [r1, #16]
 8001c2c:	2000      	movs	r0, #0
 8001c2e:	9101      	str	r1, [sp, #4]
 8001c30:	429d      	cmp	r5, r3
 8001c32:	f300 808e 	bgt.w	8001d52 <quorem+0x132>
 8001c36:	1cea      	adds	r2, r5, #3
 8001c38:	f101 0414 	add.w	r4, r1, #20
 8001c3c:	3d01      	subs	r5, #1
 8001c3e:	f109 0814 	add.w	r8, r9, #20
 8001c42:	0092      	lsls	r2, r2, #2
 8001c44:	188b      	adds	r3, r1, r2
 8001c46:	444a      	add	r2, r9
 8001c48:	1d1f      	adds	r7, r3, #4
 8001c4a:	6859      	ldr	r1, [r3, #4]
 8001c4c:	6850      	ldr	r0, [r2, #4]
 8001c4e:	3101      	adds	r1, #1
 8001c50:	f004 fb8e 	bl	8006370 <__aeabi_uidiv>
 8001c54:	4606      	mov	r6, r0
 8001c56:	2800      	cmp	r0, #0
 8001c58:	d041      	beq.n	8001cde <quorem+0xbe>
 8001c5a:	f04f 0e00 	mov.w	lr, #0
 8001c5e:	4642      	mov	r2, r8
 8001c60:	4623      	mov	r3, r4
 8001c62:	4670      	mov	r0, lr
 8001c64:	46a2      	mov	sl, r4
 8001c66:	f853 1b04 	ldr.w	r1, [r3], #4
 8001c6a:	6814      	ldr	r4, [r2, #0]
 8001c6c:	fa1f fc81 	uxth.w	ip, r1
 8001c70:	ea4f 4b11 	mov.w	fp, r1, lsr #16
 8001c74:	b2a1      	uxth	r1, r4
 8001c76:	fb06 ec0c 	mla	ip, r6, ip, lr
 8001c7a:	1809      	adds	r1, r1, r0
 8001c7c:	fb06 fe0b 	mul.w	lr, r6, fp
 8001c80:	eb0e 4e1c 	add.w	lr, lr, ip, lsr #16
 8001c84:	fa1f fc8c 	uxth.w	ip, ip
 8001c88:	ebcc 0101 	rsb	r1, ip, r1
 8001c8c:	fa1f f08e 	uxth.w	r0, lr
 8001c90:	ea4f 4e1e 	mov.w	lr, lr, lsr #16
 8001c94:	ebc0 4014 	rsb	r0, r0, r4, lsr #16
 8001c98:	fa1f fc81 	uxth.w	ip, r1
 8001c9c:	eb00 4021 	add.w	r0, r0, r1, asr #16
 8001ca0:	ea4c 4100 	orr.w	r1, ip, r0, lsl #16
 8001ca4:	1400      	asrs	r0, r0, #16
 8001ca6:	429f      	cmp	r7, r3
 8001ca8:	f842 1b04 	str.w	r1, [r2], #4
 8001cac:	d2db      	bcs.n	8001c66 <quorem+0x46>
 8001cae:	1d2b      	adds	r3, r5, #4
 8001cb0:	4654      	mov	r4, sl
 8001cb2:	eb09 0383 	add.w	r3, r9, r3, lsl #2
 8001cb6:	685a      	ldr	r2, [r3, #4]
 8001cb8:	b98a      	cbnz	r2, 8001cde <quorem+0xbe>
 8001cba:	1d1a      	adds	r2, r3, #4
 8001cbc:	4598      	cmp	r8, r3
 8001cbe:	d20c      	bcs.n	8001cda <quorem+0xba>
 8001cc0:	f852 2c04 	ldr.w	r2, [r2, #-4]
 8001cc4:	b94a      	cbnz	r2, 8001cda <quorem+0xba>
 8001cc6:	3b04      	subs	r3, #4
 8001cc8:	e001      	b.n	8001cce <quorem+0xae>
 8001cca:	6812      	ldr	r2, [r2, #0]
 8001ccc:	b92a      	cbnz	r2, 8001cda <quorem+0xba>
 8001cce:	3d01      	subs	r5, #1
 8001cd0:	4598      	cmp	r8, r3
 8001cd2:	461a      	mov	r2, r3
 8001cd4:	f1a3 0304 	sub.w	r3, r3, #4
 8001cd8:	d3f7      	bcc.n	8001cca <quorem+0xaa>
 8001cda:	f8c9 5010 	str.w	r5, [r9, #16]
 8001cde:	4648      	mov	r0, r9
 8001ce0:	9901      	ldr	r1, [sp, #4]
 8001ce2:	f002 fa93 	bl	800420c <__mcmp>
 8001ce6:	2800      	cmp	r0, #0
 8001ce8:	db32      	blt.n	8001d50 <quorem+0x130>
 8001cea:	3601      	adds	r6, #1
 8001cec:	4643      	mov	r3, r8
 8001cee:	f04f 0c00 	mov.w	ip, #0
 8001cf2:	f854 0b04 	ldr.w	r0, [r4], #4
 8001cf6:	6819      	ldr	r1, [r3, #0]
 8001cf8:	fa1f fa80 	uxth.w	sl, r0
 8001cfc:	0c00      	lsrs	r0, r0, #16
 8001cfe:	b28a      	uxth	r2, r1
 8001d00:	ebc0 4111 	rsb	r1, r0, r1, lsr #16
 8001d04:	ebca 0202 	rsb	r2, sl, r2
 8001d08:	42a7      	cmp	r7, r4
 8001d0a:	4494      	add	ip, r2
 8001d0c:	eb01 422c 	add.w	r2, r1, ip, asr #16
 8001d10:	fa1f fc8c 	uxth.w	ip, ip
 8001d14:	ea4c 4102 	orr.w	r1, ip, r2, lsl #16
 8001d18:	ea4f 4c22 	mov.w	ip, r2, asr #16
 8001d1c:	f843 1b04 	str.w	r1, [r3], #4
 8001d20:	d2e7      	bcs.n	8001cf2 <quorem+0xd2>
 8001d22:	1d2b      	adds	r3, r5, #4
 8001d24:	eb09 0383 	add.w	r3, r9, r3, lsl #2
 8001d28:	685a      	ldr	r2, [r3, #4]
 8001d2a:	b98a      	cbnz	r2, 8001d50 <quorem+0x130>
 8001d2c:	1d1a      	adds	r2, r3, #4
 8001d2e:	4598      	cmp	r8, r3
 8001d30:	d20c      	bcs.n	8001d4c <quorem+0x12c>
 8001d32:	f852 2c04 	ldr.w	r2, [r2, #-4]
 8001d36:	b94a      	cbnz	r2, 8001d4c <quorem+0x12c>
 8001d38:	3b04      	subs	r3, #4
 8001d3a:	e001      	b.n	8001d40 <quorem+0x120>
 8001d3c:	6812      	ldr	r2, [r2, #0]
 8001d3e:	b92a      	cbnz	r2, 8001d4c <quorem+0x12c>
 8001d40:	3d01      	subs	r5, #1
 8001d42:	4598      	cmp	r8, r3
 8001d44:	461a      	mov	r2, r3
 8001d46:	f1a3 0304 	sub.w	r3, r3, #4
 8001d4a:	d3f7      	bcc.n	8001d3c <quorem+0x11c>
 8001d4c:	f8c9 5010 	str.w	r5, [r9, #16]
 8001d50:	4630      	mov	r0, r6
 8001d52:	b003      	add	sp, #12
 8001d54:	e8bd 8ff0 	ldmia.w	sp!, {r4, r5, r6, r7, r8, r9, sl, fp, pc}

08001d58 <_dtoa_r>:
 8001d58:	e92d 4ff0 	stmdb	sp!, {r4, r5, r6, r7, r8, r9, sl, fp, lr}
 8001d5c:	b09f      	sub	sp, #124	; 0x7c
 8001d5e:	6a45      	ldr	r5, [r0, #36]	; 0x24
 8001d60:	4606      	mov	r6, r0
 8001d62:	e9cd 2304 	strd	r2, r3, [sp, #16]
 8001d66:	9c2b      	ldr	r4, [sp, #172]	; 0xac
 8001d68:	2d00      	cmp	r5, #0
 8001d6a:	f000 82ac 	beq.w	80022c6 <_dtoa_r+0x56e>
 8001d6e:	682b      	ldr	r3, [r5, #0]
 8001d70:	b15b      	cbz	r3, 8001d8a <_dtoa_r+0x32>
 8001d72:	686a      	ldr	r2, [r5, #4]
 8001d74:	2501      	movs	r5, #1
 8001d76:	4619      	mov	r1, r3
 8001d78:	fa05 f502 	lsl.w	r5, r5, r2
 8001d7c:	609d      	str	r5, [r3, #8]
 8001d7e:	605a      	str	r2, [r3, #4]
 8001d80:	f001 fff8 	bl	8003d74 <_Bfree>
 8001d84:	6a73      	ldr	r3, [r6, #36]	; 0x24
 8001d86:	2200      	movs	r2, #0
 8001d88:	601a      	str	r2, [r3, #0]
 8001d8a:	f8dd 9014 	ldr.w	r9, [sp, #20]
 8001d8e:	f1b9 0f00 	cmp.w	r9, #0
 8001d92:	db39      	blt.n	8001e08 <_dtoa_r+0xb0>
 8001d94:	2300      	movs	r3, #0
 8001d96:	6023      	str	r3, [r4, #0]
 8001d98:	2300      	movs	r3, #0
 8001d9a:	461a      	mov	r2, r3
 8001d9c:	f6c7 73f0 	movt	r3, #32752	; 0x7ff0
 8001da0:	f6c7 72f0 	movt	r2, #32752	; 0x7ff0
 8001da4:	ea09 0303 	and.w	r3, r9, r3
 8001da8:	4293      	cmp	r3, r2
 8001daa:	d017      	beq.n	8001ddc <_dtoa_r+0x84>
 8001dac:	e9dd 4504 	ldrd	r4, r5, [sp, #16]
 8001db0:	2200      	movs	r2, #0
 8001db2:	2300      	movs	r3, #0
 8001db4:	4620      	mov	r0, r4
 8001db6:	4629      	mov	r1, r5
 8001db8:	f005 f838 	bl	8006e2c <__aeabi_dcmpeq>
 8001dbc:	2800      	cmp	r0, #0
 8001dbe:	d02a      	beq.n	8001e16 <_dtoa_r+0xbe>
 8001dc0:	9a2a      	ldr	r2, [sp, #168]	; 0xa8
 8001dc2:	2301      	movs	r3, #1
 8001dc4:	6013      	str	r3, [r2, #0]
 8001dc6:	9b2c      	ldr	r3, [sp, #176]	; 0xb0
 8001dc8:	2b00      	cmp	r3, #0
 8001dca:	f000 80dc 	beq.w	8001f86 <_dtoa_r+0x22e>
 8001dce:	4bae      	ldr	r3, [pc, #696]	; (8002088 <_dtoa_r+0x330>)
 8001dd0:	1e58      	subs	r0, r3, #1
 8001dd2:	992c      	ldr	r1, [sp, #176]	; 0xb0
 8001dd4:	600b      	str	r3, [r1, #0]
 8001dd6:	b01f      	add	sp, #124	; 0x7c
 8001dd8:	e8bd 8ff0 	ldmia.w	sp!, {r4, r5, r6, r7, r8, r9, sl, fp, pc}
 8001ddc:	992a      	ldr	r1, [sp, #168]	; 0xa8
 8001dde:	f248 5034 	movw	r0, #34100	; 0x8534
 8001de2:	9a04      	ldr	r2, [sp, #16]
 8001de4:	f242 730f 	movw	r3, #9999	; 0x270f
 8001de8:	f6c0 0000 	movt	r0, #2048	; 0x800
 8001dec:	600b      	str	r3, [r1, #0]
 8001dee:	2a00      	cmp	r2, #0
 8001df0:	f000 80a8 	beq.w	8001f44 <_dtoa_r+0x1ec>
 8001df4:	9b2c      	ldr	r3, [sp, #176]	; 0xb0
 8001df6:	2b00      	cmp	r3, #0
 8001df8:	d0ed      	beq.n	8001dd6 <_dtoa_r+0x7e>
 8001dfa:	78c3      	ldrb	r3, [r0, #3]
 8001dfc:	2b00      	cmp	r3, #0
 8001dfe:	f000 80b0 	beq.w	8001f62 <_dtoa_r+0x20a>
 8001e02:	f100 0308 	add.w	r3, r0, #8
 8001e06:	e7e4      	b.n	8001dd2 <_dtoa_r+0x7a>
 8001e08:	f029 4900 	bic.w	r9, r9, #2147483648	; 0x80000000
 8001e0c:	2301      	movs	r3, #1
 8001e0e:	f8cd 9014 	str.w	r9, [sp, #20]
 8001e12:	6023      	str	r3, [r4, #0]
 8001e14:	e7c0      	b.n	8001d98 <_dtoa_r+0x40>
 8001e16:	ab1d      	add	r3, sp, #116	; 0x74
 8001e18:	4630      	mov	r0, r6
 8001e1a:	9300      	str	r3, [sp, #0]
 8001e1c:	4622      	mov	r2, r4
 8001e1e:	ab1c      	add	r3, sp, #112	; 0x70
 8001e20:	9301      	str	r3, [sp, #4]
 8001e22:	462b      	mov	r3, r5
 8001e24:	f3c9 570a 	ubfx	r7, r9, #20, #11
 8001e28:	f002 fafe 	bl	8004428 <__d2b>
 8001e2c:	4683      	mov	fp, r0
 8001e2e:	2f00      	cmp	r7, #0
 8001e30:	f040 8099 	bne.w	8001f66 <_dtoa_r+0x20e>
 8001e34:	f8dd 8070 	ldr.w	r8, [sp, #112]	; 0x70
 8001e38:	f46f 6382 	mvn.w	r3, #1040	; 0x410
 8001e3c:	9f1d      	ldr	r7, [sp, #116]	; 0x74
 8001e3e:	4447      	add	r7, r8
 8001e40:	429f      	cmp	r7, r3
 8001e42:	f2c0 8265 	blt.w	8002310 <_dtoa_r+0x5b8>
 8001e46:	9804      	ldr	r0, [sp, #16]
 8001e48:	f64f 430e 	movw	r3, #64526	; 0xfc0e
 8001e4c:	f6cf 73ff 	movt	r3, #65535	; 0xffff
 8001e50:	f207 4212 	addw	r2, r7, #1042	; 0x412
 8001e54:	1bdb      	subs	r3, r3, r7
 8001e56:	fa20 f202 	lsr.w	r2, r0, r2
 8001e5a:	fa09 f003 	lsl.w	r0, r9, r3
 8001e5e:	4310      	orrs	r0, r2
 8001e60:	f004 fd06 	bl	8006870 <__aeabi_ui2d>
 8001e64:	3f01      	subs	r7, #1
 8001e66:	2201      	movs	r2, #1
 8001e68:	921a      	str	r2, [sp, #104]	; 0x68
 8001e6a:	f1a1 71f8 	sub.w	r1, r1, #32505856	; 0x1f00000
 8001e6e:	2300      	movs	r3, #0
 8001e70:	2200      	movs	r2, #0
 8001e72:	f6c3 73f8 	movt	r3, #16376	; 0x3ff8
 8001e76:	f004 fbbd 	bl	80065f4 <__aeabi_dsub>
 8001e7a:	a37d      	add	r3, pc, #500	; (adr r3, 8002070 <_dtoa_r+0x318>)
 8001e7c:	e9d3 2300 	ldrd	r2, r3, [r3]
 8001e80:	f004 fd6c 	bl	800695c <__aeabi_dmul>
 8001e84:	a37c      	add	r3, pc, #496	; (adr r3, 8002078 <_dtoa_r+0x320>)
 8001e86:	e9d3 2300 	ldrd	r2, r3, [r3]
 8001e8a:	f004 fbb5 	bl	80065f8 <__adddf3>
 8001e8e:	4604      	mov	r4, r0
 8001e90:	4638      	mov	r0, r7
 8001e92:	460d      	mov	r5, r1
 8001e94:	f004 fcfc 	bl	8006890 <__aeabi_i2d>
 8001e98:	a379      	add	r3, pc, #484	; (adr r3, 8002080 <_dtoa_r+0x328>)
 8001e9a:	e9d3 2300 	ldrd	r2, r3, [r3]
 8001e9e:	f004 fd5d 	bl	800695c <__aeabi_dmul>
 8001ea2:	4602      	mov	r2, r0
 8001ea4:	460b      	mov	r3, r1
 8001ea6:	4620      	mov	r0, r4
 8001ea8:	4629      	mov	r1, r5
 8001eaa:	f004 fba5 	bl	80065f8 <__adddf3>
 8001eae:	4604      	mov	r4, r0
 8001eb0:	460d      	mov	r5, r1
 8001eb2:	f004 ffed 	bl	8006e90 <__aeabi_d2iz>
 8001eb6:	4629      	mov	r1, r5
 8001eb8:	2200      	movs	r2, #0
 8001eba:	2300      	movs	r3, #0
 8001ebc:	9009      	str	r0, [sp, #36]	; 0x24
 8001ebe:	4620      	mov	r0, r4
 8001ec0:	f004 ffbe 	bl	8006e40 <__aeabi_dcmplt>
 8001ec4:	2800      	cmp	r0, #0
 8001ec6:	f040 8210 	bne.w	80022ea <_dtoa_r+0x592>
 8001eca:	9809      	ldr	r0, [sp, #36]	; 0x24
 8001ecc:	2816      	cmp	r0, #22
 8001ece:	f200 81f7 	bhi.w	80022c0 <_dtoa_r+0x568>
 8001ed2:	f248 31a8 	movw	r1, #33704	; 0x83a8
 8001ed6:	e9dd 2304 	ldrd	r2, r3, [sp, #16]
 8001eda:	f6c0 0100 	movt	r1, #2048	; 0x800
 8001ede:	eb01 01c0 	add.w	r1, r1, r0, lsl #3
 8001ee2:	e9d1 0100 	ldrd	r0, r1, [r1]
 8001ee6:	f004 ffc9 	bl	8006e7c <__aeabi_dcmpgt>
 8001eea:	2800      	cmp	r0, #0
 8001eec:	f000 8219 	beq.w	8002322 <_dtoa_r+0x5ca>
 8001ef0:	9909      	ldr	r1, [sp, #36]	; 0x24
 8001ef2:	2200      	movs	r2, #0
 8001ef4:	9214      	str	r2, [sp, #80]	; 0x50
 8001ef6:	3901      	subs	r1, #1
 8001ef8:	9109      	str	r1, [sp, #36]	; 0x24
 8001efa:	ebc7 0708 	rsb	r7, r7, r8
 8001efe:	3f01      	subs	r7, #1
 8001f00:	f100 8201 	bmi.w	8002306 <_dtoa_r+0x5ae>
 8001f04:	2100      	movs	r1, #0
 8001f06:	970b      	str	r7, [sp, #44]	; 0x2c
 8001f08:	9110      	str	r1, [sp, #64]	; 0x40
 8001f0a:	9a09      	ldr	r2, [sp, #36]	; 0x24
 8001f0c:	2a00      	cmp	r2, #0
 8001f0e:	f2c0 81e3 	blt.w	80022d8 <_dtoa_r+0x580>
 8001f12:	9b0b      	ldr	r3, [sp, #44]	; 0x2c
 8001f14:	2000      	movs	r0, #0
 8001f16:	9213      	str	r2, [sp, #76]	; 0x4c
 8001f18:	189b      	adds	r3, r3, r2
 8001f1a:	9011      	str	r0, [sp, #68]	; 0x44
 8001f1c:	930b      	str	r3, [sp, #44]	; 0x2c
 8001f1e:	9928      	ldr	r1, [sp, #160]	; 0xa0
 8001f20:	2909      	cmp	r1, #9
 8001f22:	d835      	bhi.n	8001f90 <_dtoa_r+0x238>
 8001f24:	2401      	movs	r4, #1
 8001f26:	2905      	cmp	r1, #5
 8001f28:	dd02      	ble.n	8001f30 <_dtoa_r+0x1d8>
 8001f2a:	2400      	movs	r4, #0
 8001f2c:	3904      	subs	r1, #4
 8001f2e:	9128      	str	r1, [sp, #160]	; 0xa0
 8001f30:	9a28      	ldr	r2, [sp, #160]	; 0xa0
 8001f32:	1e93      	subs	r3, r2, #2
 8001f34:	2b03      	cmp	r3, #3
 8001f36:	d82d      	bhi.n	8001f94 <_dtoa_r+0x23c>
 8001f38:	e8df f013 	tbh	[pc, r3, lsl #1]
 8001f3c:	03720375 	.word	0x03720375
 8001f40:	035d0233 	.word	0x035d0233
 8001f44:	f248 5228 	movw	r2, #34088	; 0x8528
 8001f48:	f248 5334 	movw	r3, #34100	; 0x8534
 8001f4c:	f3c9 0013 	ubfx	r0, r9, #0, #20
 8001f50:	f6c0 0200 	movt	r2, #2048	; 0x800
 8001f54:	f6c0 0300 	movt	r3, #2048	; 0x800
 8001f58:	2800      	cmp	r0, #0
 8001f5a:	bf0c      	ite	eq
 8001f5c:	4610      	moveq	r0, r2
 8001f5e:	4618      	movne	r0, r3
 8001f60:	e748      	b.n	8001df4 <_dtoa_r+0x9c>
 8001f62:	1cc3      	adds	r3, r0, #3
 8001f64:	e735      	b.n	8001dd2 <_dtoa_r+0x7a>
 8001f66:	f025 437f 	bic.w	r3, r5, #4278190080	; 0xff000000
 8001f6a:	2200      	movs	r2, #0
 8001f6c:	f423 0370 	bic.w	r3, r3, #15728640	; 0xf00000
 8001f70:	4620      	mov	r0, r4
 8001f72:	f043 537f 	orr.w	r3, r3, #1069547520	; 0x3fc00000
 8001f76:	f2a7 37ff 	subw	r7, r7, #1023	; 0x3ff
 8001f7a:	f8dd 8070 	ldr.w	r8, [sp, #112]	; 0x70
 8001f7e:	f443 1140 	orr.w	r1, r3, #3145728	; 0x300000
 8001f82:	921a      	str	r2, [sp, #104]	; 0x68
 8001f84:	e773      	b.n	8001e6e <_dtoa_r+0x116>
 8001f86:	f248 5024 	movw	r0, #34084	; 0x8524
 8001f8a:	f6c0 0000 	movt	r0, #2048	; 0x800
 8001f8e:	e722      	b.n	8001dd6 <_dtoa_r+0x7e>
 8001f90:	2300      	movs	r3, #0
 8001f92:	9328      	str	r3, [sp, #160]	; 0xa0
 8001f94:	6a74      	ldr	r4, [r6, #36]	; 0x24
 8001f96:	2300      	movs	r3, #0
 8001f98:	4619      	mov	r1, r3
 8001f9a:	4630      	mov	r0, r6
 8001f9c:	f04f 32ff 	mov.w	r2, #4294967295
 8001fa0:	9329      	str	r3, [sp, #164]	; 0xa4
 8001fa2:	6063      	str	r3, [r4, #4]
 8001fa4:	2301      	movs	r3, #1
 8001fa6:	920c      	str	r2, [sp, #48]	; 0x30
 8001fa8:	9312      	str	r3, [sp, #72]	; 0x48
 8001faa:	f001 fead 	bl	8003d08 <_Balloc>
 8001fae:	6a73      	ldr	r3, [r6, #36]	; 0x24
 8001fb0:	990c      	ldr	r1, [sp, #48]	; 0x30
 8001fb2:	9115      	str	r1, [sp, #84]	; 0x54
 8001fb4:	6020      	str	r0, [r4, #0]
 8001fb6:	681b      	ldr	r3, [r3, #0]
 8001fb8:	930d      	str	r3, [sp, #52]	; 0x34
 8001fba:	9b1d      	ldr	r3, [sp, #116]	; 0x74
 8001fbc:	2b00      	cmp	r3, #0
 8001fbe:	f2c0 80c5 	blt.w	800214c <_dtoa_r+0x3f4>
 8001fc2:	9909      	ldr	r1, [sp, #36]	; 0x24
 8001fc4:	290e      	cmp	r1, #14
 8001fc6:	f300 80c1 	bgt.w	800214c <_dtoa_r+0x3f4>
 8001fca:	9829      	ldr	r0, [sp, #164]	; 0xa4
 8001fcc:	f248 33a8 	movw	r3, #33704	; 0x83a8
 8001fd0:	f6c0 0300 	movt	r3, #2048	; 0x800
 8001fd4:	990c      	ldr	r1, [sp, #48]	; 0x30
 8001fd6:	0fc2      	lsrs	r2, r0, #31
 8001fd8:	9809      	ldr	r0, [sp, #36]	; 0x24
 8001fda:	2900      	cmp	r1, #0
 8001fdc:	bfcc      	ite	gt
 8001fde:	2200      	movgt	r2, #0
 8001fe0:	f002 0201 	andle.w	r2, r2, #1
 8001fe4:	eb03 03c0 	add.w	r3, r3, r0, lsl #3
 8001fe8:	e9d3 0100 	ldrd	r0, r1, [r3]
 8001fec:	e9cd 0106 	strd	r0, r1, [sp, #24]
 8001ff0:	2a00      	cmp	r2, #0
 8001ff2:	f040 8465 	bne.w	80028c0 <_dtoa_r+0xb68>
 8001ff6:	e9dd 4504 	ldrd	r4, r5, [sp, #16]
 8001ffa:	4602      	mov	r2, r0
 8001ffc:	460b      	mov	r3, r1
 8001ffe:	9f0d      	ldr	r7, [sp, #52]	; 0x34
 8002000:	4620      	mov	r0, r4
 8002002:	4629      	mov	r1, r5
 8002004:	f004 fdd4 	bl	8006bb0 <__aeabi_ddiv>
 8002008:	f004 ff42 	bl	8006e90 <__aeabi_d2iz>
 800200c:	4680      	mov	r8, r0
 800200e:	f004 fc3f 	bl	8006890 <__aeabi_i2d>
 8002012:	e9dd 2306 	ldrd	r2, r3, [sp, #24]
 8002016:	f004 fca1 	bl	800695c <__aeabi_dmul>
 800201a:	4602      	mov	r2, r0
 800201c:	460b      	mov	r3, r1
 800201e:	4620      	mov	r0, r4
 8002020:	4629      	mov	r1, r5
 8002022:	f004 fae7 	bl	80065f4 <__aeabi_dsub>
 8002026:	9a0c      	ldr	r2, [sp, #48]	; 0x30
 8002028:	f108 0330 	add.w	r3, r8, #48	; 0x30
 800202c:	f807 3b01 	strb.w	r3, [r7], #1
 8002030:	2a01      	cmp	r2, #1
 8002032:	4604      	mov	r4, r0
 8002034:	460d      	mov	r5, r1
 8002036:	d05c      	beq.n	80020f2 <_dtoa_r+0x39a>
 8002038:	2300      	movs	r3, #0
 800203a:	2200      	movs	r2, #0
 800203c:	f2c4 0324 	movt	r3, #16420	; 0x4024
 8002040:	f004 fc8c 	bl	800695c <__aeabi_dmul>
 8002044:	2200      	movs	r2, #0
 8002046:	2300      	movs	r3, #0
 8002048:	4604      	mov	r4, r0
 800204a:	460d      	mov	r5, r1
 800204c:	f004 feee 	bl	8006e2c <__aeabi_dcmpeq>
 8002050:	2800      	cmp	r0, #0
 8002052:	f040 8124 	bne.w	800229e <_dtoa_r+0x546>
 8002056:	9a0d      	ldr	r2, [sp, #52]	; 0x34
 8002058:	9b0c      	ldr	r3, [sp, #48]	; 0x30
 800205a:	960a      	str	r6, [sp, #40]	; 0x28
 800205c:	f102 0902 	add.w	r9, r2, #2
 8002060:	eb02 0a03 	add.w	sl, r2, r3
 8002064:	f8cd b010 	str.w	fp, [sp, #16]
 8002068:	e9dd 6706 	ldrd	r6, r7, [sp, #24]
 800206c:	e019      	b.n	80020a2 <_dtoa_r+0x34a>
 800206e:	bf00      	nop
 8002070:	636f4361 	.word	0x636f4361
 8002074:	3fd287a7 	.word	0x3fd287a7
 8002078:	8b60c8b3 	.word	0x8b60c8b3
 800207c:	3fc68a28 	.word	0x3fc68a28
 8002080:	509f79fb 	.word	0x509f79fb
 8002084:	3fd34413 	.word	0x3fd34413
 8002088:	08008525 	.word	0x08008525
 800208c:	f004 fc66 	bl	800695c <__aeabi_dmul>
 8002090:	2200      	movs	r2, #0
 8002092:	2300      	movs	r3, #0
 8002094:	4604      	mov	r4, r0
 8002096:	460d      	mov	r5, r1
 8002098:	f004 fec8 	bl	8006e2c <__aeabi_dcmpeq>
 800209c:	2800      	cmp	r0, #0
 800209e:	f040 852c 	bne.w	8002afa <_dtoa_r+0xda2>
 80020a2:	4632      	mov	r2, r6
 80020a4:	463b      	mov	r3, r7
 80020a6:	4620      	mov	r0, r4
 80020a8:	4629      	mov	r1, r5
 80020aa:	f004 fd81 	bl	8006bb0 <__aeabi_ddiv>
 80020ae:	46cb      	mov	fp, r9
 80020b0:	f004 feee 	bl	8006e90 <__aeabi_d2iz>
 80020b4:	4680      	mov	r8, r0
 80020b6:	f004 fbeb 	bl	8006890 <__aeabi_i2d>
 80020ba:	4632      	mov	r2, r6
 80020bc:	463b      	mov	r3, r7
 80020be:	f004 fc4d 	bl	800695c <__aeabi_dmul>
 80020c2:	4602      	mov	r2, r0
 80020c4:	460b      	mov	r3, r1
 80020c6:	4620      	mov	r0, r4
 80020c8:	4629      	mov	r1, r5
 80020ca:	f004 fa93 	bl	80065f4 <__aeabi_dsub>
 80020ce:	2300      	movs	r3, #0
 80020d0:	2200      	movs	r2, #0
 80020d2:	45d1      	cmp	r9, sl
 80020d4:	f108 0e30 	add.w	lr, r8, #48	; 0x30
 80020d8:	f2c4 0324 	movt	r3, #16420	; 0x4024
 80020dc:	f809 ec01 	strb.w	lr, [r9, #-1]
 80020e0:	f109 0901 	add.w	r9, r9, #1
 80020e4:	4604      	mov	r4, r0
 80020e6:	460d      	mov	r5, r1
 80020e8:	d1d0      	bne.n	800208c <_dtoa_r+0x334>
 80020ea:	465f      	mov	r7, fp
 80020ec:	9e0a      	ldr	r6, [sp, #40]	; 0x28
 80020ee:	f8dd b010 	ldr.w	fp, [sp, #16]
 80020f2:	4622      	mov	r2, r4
 80020f4:	462b      	mov	r3, r5
 80020f6:	4620      	mov	r0, r4
 80020f8:	4629      	mov	r1, r5
 80020fa:	f004 fa7d 	bl	80065f8 <__adddf3>
 80020fe:	4604      	mov	r4, r0
 8002100:	460d      	mov	r5, r1
 8002102:	4622      	mov	r2, r4
 8002104:	e9dd 0106 	ldrd	r0, r1, [sp, #24]
 8002108:	462b      	mov	r3, r5
 800210a:	f004 fe99 	bl	8006e40 <__aeabi_dcmplt>
 800210e:	2800      	cmp	r0, #0
 8002110:	f000 8540 	beq.w	8002b94 <_dtoa_r+0xe3c>
 8002114:	9809      	ldr	r0, [sp, #36]	; 0x24
 8002116:	f817 ac01 	ldrb.w	sl, [r7, #-1]
 800211a:	9a0d      	ldr	r2, [sp, #52]	; 0x34
 800211c:	901b      	str	r0, [sp, #108]	; 0x6c
 800211e:	e002      	b.n	8002126 <_dtoa_r+0x3ce>
 8002120:	f813 ac01 	ldrb.w	sl, [r3, #-1]
 8002124:	461f      	mov	r7, r3
 8002126:	1e7b      	subs	r3, r7, #1
 8002128:	f1ba 0f39 	cmp.w	sl, #57	; 0x39
 800212c:	f040 851a 	bne.w	8002b64 <_dtoa_r+0xe0c>
 8002130:	4293      	cmp	r3, r2
 8002132:	d1f5      	bne.n	8002120 <_dtoa_r+0x3c8>
 8002134:	920d      	str	r2, [sp, #52]	; 0x34
 8002136:	f04f 0a31 	mov.w	sl, #49	; 0x31
 800213a:	980d      	ldr	r0, [sp, #52]	; 0x34
 800213c:	9a1b      	ldr	r2, [sp, #108]	; 0x6c
 800213e:	3201      	adds	r2, #1
 8002140:	9209      	str	r2, [sp, #36]	; 0x24
 8002142:	2230      	movs	r2, #48	; 0x30
 8002144:	7002      	strb	r2, [r0, #0]
 8002146:	f883 a000 	strb.w	sl, [r3]
 800214a:	e0a8      	b.n	800229e <_dtoa_r+0x546>
 800214c:	9812      	ldr	r0, [sp, #72]	; 0x48
 800214e:	2800      	cmp	r0, #0
 8002150:	f040 80e9 	bne.w	8002326 <_dtoa_r+0x5ce>
 8002154:	ac10      	add	r4, sp, #64	; 0x40
 8002156:	e894 0430 	ldmia.w	r4, {r4, r5, sl}
 800215a:	9b0b      	ldr	r3, [sp, #44]	; 0x2c
 800215c:	2b00      	cmp	r3, #0
 800215e:	bfc8      	it	gt
 8002160:	2c00      	cmpgt	r4, #0
 8002162:	dd09      	ble.n	8002178 <_dtoa_r+0x420>
 8002164:	42a3      	cmp	r3, r4
 8002166:	bfa8      	it	ge
 8002168:	4623      	movge	r3, r4
 800216a:	9810      	ldr	r0, [sp, #64]	; 0x40
 800216c:	990b      	ldr	r1, [sp, #44]	; 0x2c
 800216e:	1ae4      	subs	r4, r4, r3
 8002170:	1ac0      	subs	r0, r0, r3
 8002172:	9010      	str	r0, [sp, #64]	; 0x40
 8002174:	1ac9      	subs	r1, r1, r3
 8002176:	910b      	str	r1, [sp, #44]	; 0x2c
 8002178:	9a11      	ldr	r2, [sp, #68]	; 0x44
 800217a:	2a00      	cmp	r2, #0
 800217c:	dd1a      	ble.n	80021b4 <_dtoa_r+0x45c>
 800217e:	9b12      	ldr	r3, [sp, #72]	; 0x48
 8002180:	2b00      	cmp	r3, #0
 8002182:	f000 8457 	beq.w	8002a34 <_dtoa_r+0xcdc>
 8002186:	2d00      	cmp	r5, #0
 8002188:	dd10      	ble.n	80021ac <_dtoa_r+0x454>
 800218a:	4651      	mov	r1, sl
 800218c:	462a      	mov	r2, r5
 800218e:	4630      	mov	r0, r6
 8002190:	f001 ff90 	bl	80040b4 <__pow5mult>
 8002194:	465a      	mov	r2, fp
 8002196:	4682      	mov	sl, r0
 8002198:	4630      	mov	r0, r6
 800219a:	4651      	mov	r1, sl
 800219c:	f001 feec 	bl	8003f78 <__multiply>
 80021a0:	4659      	mov	r1, fp
 80021a2:	4607      	mov	r7, r0
 80021a4:	4630      	mov	r0, r6
 80021a6:	f001 fde5 	bl	8003d74 <_Bfree>
 80021aa:	46bb      	mov	fp, r7
 80021ac:	9811      	ldr	r0, [sp, #68]	; 0x44
 80021ae:	1b42      	subs	r2, r0, r5
 80021b0:	f040 847a 	bne.w	8002aa8 <_dtoa_r+0xd50>
 80021b4:	2101      	movs	r1, #1
 80021b6:	4630      	mov	r0, r6
 80021b8:	f001 fed4 	bl	8003f64 <__i2b>
 80021bc:	9913      	ldr	r1, [sp, #76]	; 0x4c
 80021be:	2900      	cmp	r1, #0
 80021c0:	4680      	mov	r8, r0
 80021c2:	dd05      	ble.n	80021d0 <_dtoa_r+0x478>
 80021c4:	4641      	mov	r1, r8
 80021c6:	4630      	mov	r0, r6
 80021c8:	9a13      	ldr	r2, [sp, #76]	; 0x4c
 80021ca:	f001 ff73 	bl	80040b4 <__pow5mult>
 80021ce:	4680      	mov	r8, r0
 80021d0:	9a28      	ldr	r2, [sp, #160]	; 0xa0
 80021d2:	2a01      	cmp	r2, #1
 80021d4:	f340 80cc 	ble.w	8002370 <_dtoa_r+0x618>
 80021d8:	2500      	movs	r5, #0
 80021da:	9a13      	ldr	r2, [sp, #76]	; 0x4c
 80021dc:	2001      	movs	r0, #1
 80021de:	2a00      	cmp	r2, #0
 80021e0:	f040 8364 	bne.w	80028ac <_dtoa_r+0xb54>
 80021e4:	990b      	ldr	r1, [sp, #44]	; 0x2c
 80021e6:	1843      	adds	r3, r0, r1
 80021e8:	f013 031f 	ands.w	r3, r3, #31
 80021ec:	f000 8296 	beq.w	800271c <_dtoa_r+0x9c4>
 80021f0:	f1c3 0220 	rsb	r2, r3, #32
 80021f4:	2a04      	cmp	r2, #4
 80021f6:	f340 853e 	ble.w	8002c76 <_dtoa_r+0xf1e>
 80021fa:	f1c3 031c 	rsb	r3, r3, #28
 80021fe:	9a10      	ldr	r2, [sp, #64]	; 0x40
 8002200:	18e4      	adds	r4, r4, r3
 8002202:	18c9      	adds	r1, r1, r3
 8002204:	18d2      	adds	r2, r2, r3
 8002206:	910b      	str	r1, [sp, #44]	; 0x2c
 8002208:	9210      	str	r2, [sp, #64]	; 0x40
 800220a:	9a10      	ldr	r2, [sp, #64]	; 0x40
 800220c:	2a00      	cmp	r2, #0
 800220e:	dd04      	ble.n	800221a <_dtoa_r+0x4c2>
 8002210:	4659      	mov	r1, fp
 8002212:	4630      	mov	r0, r6
 8002214:	f001 ffa0 	bl	8004158 <__lshift>
 8002218:	4683      	mov	fp, r0
 800221a:	9b0b      	ldr	r3, [sp, #44]	; 0x2c
 800221c:	2b00      	cmp	r3, #0
 800221e:	dd05      	ble.n	800222c <_dtoa_r+0x4d4>
 8002220:	4641      	mov	r1, r8
 8002222:	4630      	mov	r0, r6
 8002224:	461a      	mov	r2, r3
 8002226:	f001 ff97 	bl	8004158 <__lshift>
 800222a:	4680      	mov	r8, r0
 800222c:	9814      	ldr	r0, [sp, #80]	; 0x50
 800222e:	2800      	cmp	r0, #0
 8002230:	f040 831f 	bne.w	8002872 <_dtoa_r+0xb1a>
 8002234:	9a28      	ldr	r2, [sp, #160]	; 0xa0
 8002236:	980c      	ldr	r0, [sp, #48]	; 0x30
 8002238:	2a02      	cmp	r2, #2
 800223a:	bfd4      	ite	le
 800223c:	2300      	movle	r3, #0
 800223e:	2301      	movgt	r3, #1
 8002240:	2800      	cmp	r0, #0
 8002242:	bfc8      	it	gt
 8002244:	2300      	movgt	r3, #0
 8002246:	2b00      	cmp	r3, #0
 8002248:	f000 8223 	beq.w	8002692 <_dtoa_r+0x93a>
 800224c:	9b0c      	ldr	r3, [sp, #48]	; 0x30
 800224e:	2b00      	cmp	r3, #0
 8002250:	f040 8219 	bne.w	8002686 <_dtoa_r+0x92e>
 8002254:	4641      	mov	r1, r8
 8002256:	2205      	movs	r2, #5
 8002258:	4630      	mov	r0, r6
 800225a:	f001 fda7 	bl	8003dac <__multadd>
 800225e:	4680      	mov	r8, r0
 8002260:	4658      	mov	r0, fp
 8002262:	4641      	mov	r1, r8
 8002264:	f001 ffd2 	bl	800420c <__mcmp>
 8002268:	2800      	cmp	r0, #0
 800226a:	f340 820c 	ble.w	8002686 <_dtoa_r+0x92e>
 800226e:	9f0d      	ldr	r7, [sp, #52]	; 0x34
 8002270:	2500      	movs	r5, #0
 8002272:	9909      	ldr	r1, [sp, #36]	; 0x24
 8002274:	2331      	movs	r3, #49	; 0x31
 8002276:	3101      	adds	r1, #1
 8002278:	f807 3b01 	strb.w	r3, [r7], #1
 800227c:	9109      	str	r1, [sp, #36]	; 0x24
 800227e:	4630      	mov	r0, r6
 8002280:	4641      	mov	r1, r8
 8002282:	f001 fd77 	bl	8003d74 <_Bfree>
 8002286:	f1ba 0f00 	cmp.w	sl, #0
 800228a:	d008      	beq.n	800229e <_dtoa_r+0x546>
 800228c:	4555      	cmp	r5, sl
 800228e:	bf18      	it	ne
 8002290:	2d00      	cmpne	r5, #0
 8002292:	f040 8253 	bne.w	800273c <_dtoa_r+0x9e4>
 8002296:	4630      	mov	r0, r6
 8002298:	4651      	mov	r1, sl
 800229a:	f001 fd6b 	bl	8003d74 <_Bfree>
 800229e:	4659      	mov	r1, fp
 80022a0:	4630      	mov	r0, r6
 80022a2:	f001 fd67 	bl	8003d74 <_Bfree>
 80022a6:	2200      	movs	r2, #0
 80022a8:	703a      	strb	r2, [r7, #0]
 80022aa:	9a2a      	ldr	r2, [sp, #168]	; 0xa8
 80022ac:	9909      	ldr	r1, [sp, #36]	; 0x24
 80022ae:	1c4b      	adds	r3, r1, #1
 80022b0:	6013      	str	r3, [r2, #0]
 80022b2:	9b2c      	ldr	r3, [sp, #176]	; 0xb0
 80022b4:	2b00      	cmp	r3, #0
 80022b6:	f000 8246 	beq.w	8002746 <_dtoa_r+0x9ee>
 80022ba:	601f      	str	r7, [r3, #0]
 80022bc:	980d      	ldr	r0, [sp, #52]	; 0x34
 80022be:	e58a      	b.n	8001dd6 <_dtoa_r+0x7e>
 80022c0:	2301      	movs	r3, #1
 80022c2:	9314      	str	r3, [sp, #80]	; 0x50
 80022c4:	e619      	b.n	8001efa <_dtoa_r+0x1a2>
 80022c6:	2010      	movs	r0, #16
 80022c8:	f001 f8d4 	bl	8003474 <malloc>
 80022cc:	6270      	str	r0, [r6, #36]	; 0x24
 80022ce:	6045      	str	r5, [r0, #4]
 80022d0:	6085      	str	r5, [r0, #8]
 80022d2:	6005      	str	r5, [r0, #0]
 80022d4:	60c5      	str	r5, [r0, #12]
 80022d6:	e558      	b.n	8001d8a <_dtoa_r+0x32>
 80022d8:	9910      	ldr	r1, [sp, #64]	; 0x40
 80022da:	2000      	movs	r0, #0
 80022dc:	9a09      	ldr	r2, [sp, #36]	; 0x24
 80022de:	9013      	str	r0, [sp, #76]	; 0x4c
 80022e0:	1a89      	subs	r1, r1, r2
 80022e2:	4253      	negs	r3, r2
 80022e4:	9110      	str	r1, [sp, #64]	; 0x40
 80022e6:	9311      	str	r3, [sp, #68]	; 0x44
 80022e8:	e619      	b.n	8001f1e <_dtoa_r+0x1c6>
 80022ea:	9809      	ldr	r0, [sp, #36]	; 0x24
 80022ec:	f004 fad0 	bl	8006890 <__aeabi_i2d>
 80022f0:	4622      	mov	r2, r4
 80022f2:	462b      	mov	r3, r5
 80022f4:	f004 fd9a 	bl	8006e2c <__aeabi_dcmpeq>
 80022f8:	2800      	cmp	r0, #0
 80022fa:	f47f ade6 	bne.w	8001eca <_dtoa_r+0x172>
 80022fe:	9b09      	ldr	r3, [sp, #36]	; 0x24
 8002300:	3b01      	subs	r3, #1
 8002302:	9309      	str	r3, [sp, #36]	; 0x24
 8002304:	e5e1      	b.n	8001eca <_dtoa_r+0x172>
 8002306:	427f      	negs	r7, r7
 8002308:	2000      	movs	r0, #0
 800230a:	9710      	str	r7, [sp, #64]	; 0x40
 800230c:	900b      	str	r0, [sp, #44]	; 0x2c
 800230e:	e5fc      	b.n	8001f0a <_dtoa_r+0x1b2>
 8002310:	f64f 30ee 	movw	r0, #64494	; 0xfbee
 8002314:	9904      	ldr	r1, [sp, #16]
 8002316:	f6cf 70ff 	movt	r0, #65535	; 0xffff
 800231a:	1bc0      	subs	r0, r0, r7
 800231c:	fa01 f000 	lsl.w	r0, r1, r0
 8002320:	e59e      	b.n	8001e60 <_dtoa_r+0x108>
 8002322:	9014      	str	r0, [sp, #80]	; 0x50
 8002324:	e5e9      	b.n	8001efa <_dtoa_r+0x1a2>
 8002326:	9928      	ldr	r1, [sp, #160]	; 0xa0
 8002328:	2901      	cmp	r1, #1
 800232a:	f340 83de 	ble.w	8002aea <_dtoa_r+0xd92>
 800232e:	980c      	ldr	r0, [sp, #48]	; 0x30
 8002330:	9911      	ldr	r1, [sp, #68]	; 0x44
 8002332:	1e43      	subs	r3, r0, #1
 8002334:	4299      	cmp	r1, r3
 8002336:	bfa8      	it	ge
 8002338:	ebc3 0501 	rsbge	r5, r3, r1
 800233c:	da06      	bge.n	800234c <_dtoa_r+0x5f4>
 800233e:	9811      	ldr	r0, [sp, #68]	; 0x44
 8002340:	2500      	movs	r5, #0
 8002342:	9913      	ldr	r1, [sp, #76]	; 0x4c
 8002344:	1a1a      	subs	r2, r3, r0
 8002346:	9311      	str	r3, [sp, #68]	; 0x44
 8002348:	1889      	adds	r1, r1, r2
 800234a:	9113      	str	r1, [sp, #76]	; 0x4c
 800234c:	9a0c      	ldr	r2, [sp, #48]	; 0x30
 800234e:	2a00      	cmp	r2, #0
 8002350:	f2c0 83f8 	blt.w	8002b44 <_dtoa_r+0xdec>
 8002354:	9c10      	ldr	r4, [sp, #64]	; 0x40
 8002356:	9b0c      	ldr	r3, [sp, #48]	; 0x30
 8002358:	9a10      	ldr	r2, [sp, #64]	; 0x40
 800235a:	4630      	mov	r0, r6
 800235c:	2101      	movs	r1, #1
 800235e:	18d2      	adds	r2, r2, r3
 8002360:	9210      	str	r2, [sp, #64]	; 0x40
 8002362:	9a0b      	ldr	r2, [sp, #44]	; 0x2c
 8002364:	18d2      	adds	r2, r2, r3
 8002366:	920b      	str	r2, [sp, #44]	; 0x2c
 8002368:	f001 fdfc 	bl	8003f64 <__i2b>
 800236c:	4682      	mov	sl, r0
 800236e:	e6f4      	b.n	800215a <_dtoa_r+0x402>
 8002370:	9b04      	ldr	r3, [sp, #16]
 8002372:	2b00      	cmp	r3, #0
 8002374:	f47f af30 	bne.w	80021d8 <_dtoa_r+0x480>
 8002378:	9b05      	ldr	r3, [sp, #20]
 800237a:	f3c3 0213 	ubfx	r2, r3, #0, #20
 800237e:	2a00      	cmp	r2, #0
 8002380:	f040 843d 	bne.w	8002bfe <_dtoa_r+0xea6>
 8002384:	2500      	movs	r5, #0
 8002386:	f6c7 75f0 	movt	r5, #32752	; 0x7ff0
 800238a:	401d      	ands	r5, r3
 800238c:	2d00      	cmp	r5, #0
 800238e:	f43f af24 	beq.w	80021da <_dtoa_r+0x482>
 8002392:	9810      	ldr	r0, [sp, #64]	; 0x40
 8002394:	2501      	movs	r5, #1
 8002396:	990b      	ldr	r1, [sp, #44]	; 0x2c
 8002398:	3001      	adds	r0, #1
 800239a:	9010      	str	r0, [sp, #64]	; 0x40
 800239c:	3101      	adds	r1, #1
 800239e:	910b      	str	r1, [sp, #44]	; 0x2c
 80023a0:	e71b      	b.n	80021da <_dtoa_r+0x482>
 80023a2:	2101      	movs	r1, #1
 80023a4:	9112      	str	r1, [sp, #72]	; 0x48
 80023a6:	9829      	ldr	r0, [sp, #164]	; 0xa4
 80023a8:	2800      	cmp	r0, #0
 80023aa:	f340 833e 	ble.w	8002a2a <_dtoa_r+0xcd2>
 80023ae:	4682      	mov	sl, r0
 80023b0:	280e      	cmp	r0, #14
 80023b2:	bf8c      	ite	hi
 80023b4:	2400      	movhi	r4, #0
 80023b6:	f004 0401 	andls.w	r4, r4, #1
 80023ba:	9015      	str	r0, [sp, #84]	; 0x54
 80023bc:	900c      	str	r0, [sp, #48]	; 0x30
 80023be:	6a75      	ldr	r5, [r6, #36]	; 0x24
 80023c0:	2300      	movs	r3, #0
 80023c2:	f1ba 0f17 	cmp.w	sl, #23
 80023c6:	606b      	str	r3, [r5, #4]
 80023c8:	d909      	bls.n	80023de <_dtoa_r+0x686>
 80023ca:	2201      	movs	r2, #1
 80023cc:	2304      	movs	r3, #4
 80023ce:	005b      	lsls	r3, r3, #1
 80023d0:	4610      	mov	r0, r2
 80023d2:	f103 0114 	add.w	r1, r3, #20
 80023d6:	3201      	adds	r2, #1
 80023d8:	4551      	cmp	r1, sl
 80023da:	d9f8      	bls.n	80023ce <_dtoa_r+0x676>
 80023dc:	6068      	str	r0, [r5, #4]
 80023de:	4630      	mov	r0, r6
 80023e0:	6869      	ldr	r1, [r5, #4]
 80023e2:	f001 fc91 	bl	8003d08 <_Balloc>
 80023e6:	6a73      	ldr	r3, [r6, #36]	; 0x24
 80023e8:	6028      	str	r0, [r5, #0]
 80023ea:	681b      	ldr	r3, [r3, #0]
 80023ec:	930d      	str	r3, [sp, #52]	; 0x34
 80023ee:	2c00      	cmp	r4, #0
 80023f0:	f43f ade3 	beq.w	8001fba <_dtoa_r+0x262>
 80023f4:	9909      	ldr	r1, [sp, #36]	; 0x24
 80023f6:	2900      	cmp	r1, #0
 80023f8:	f340 81a8 	ble.w	800274c <_dtoa_r+0x9f4>
 80023fc:	f001 020f 	and.w	r2, r1, #15
 8002400:	f248 33a8 	movw	r3, #33704	; 0x83a8
 8002404:	f6c0 0300 	movt	r3, #2048	; 0x800
 8002408:	110f      	asrs	r7, r1, #4
 800240a:	eb03 03c2 	add.w	r3, r3, r2, lsl #3
 800240e:	06fa      	lsls	r2, r7, #27
 8002410:	e9d3 4500 	ldrd	r4, r5, [r3]
 8002414:	f140 818b 	bpl.w	800272e <_dtoa_r+0x9d6>
 8002418:	f248 4398 	movw	r3, #33944	; 0x8498
 800241c:	e9dd 0104 	ldrd	r0, r1, [sp, #16]
 8002420:	f6c0 0300 	movt	r3, #2048	; 0x800
 8002424:	f007 070f 	and.w	r7, r7, #15
 8002428:	f04f 0803 	mov.w	r8, #3
 800242c:	e9d3 2308 	ldrd	r2, r3, [r3, #32]
 8002430:	f004 fbbe 	bl	8006bb0 <__aeabi_ddiv>
 8002434:	e9cd 010e 	strd	r0, r1, [sp, #56]	; 0x38
 8002438:	b19f      	cbz	r7, 8002462 <_dtoa_r+0x70a>
 800243a:	f248 4998 	movw	r9, #33944	; 0x8498
 800243e:	f6c0 0900 	movt	r9, #2048	; 0x800
 8002442:	07fb      	lsls	r3, r7, #31
 8002444:	4620      	mov	r0, r4
 8002446:	4629      	mov	r1, r5
 8002448:	d507      	bpl.n	800245a <_dtoa_r+0x702>
 800244a:	e9d9 2300 	ldrd	r2, r3, [r9]
 800244e:	f108 0801 	add.w	r8, r8, #1
 8002452:	f004 fa83 	bl	800695c <__aeabi_dmul>
 8002456:	4604      	mov	r4, r0
 8002458:	460d      	mov	r5, r1
 800245a:	107f      	asrs	r7, r7, #1
 800245c:	f109 0908 	add.w	r9, r9, #8
 8002460:	d1ef      	bne.n	8002442 <_dtoa_r+0x6ea>
 8002462:	e9dd 010e 	ldrd	r0, r1, [sp, #56]	; 0x38
 8002466:	4622      	mov	r2, r4
 8002468:	462b      	mov	r3, r5
 800246a:	f004 fba1 	bl	8006bb0 <__aeabi_ddiv>
 800246e:	e9cd 010e 	strd	r0, r1, [sp, #56]	; 0x38
 8002472:	9914      	ldr	r1, [sp, #80]	; 0x50
 8002474:	b151      	cbz	r1, 800248c <_dtoa_r+0x734>
 8002476:	2300      	movs	r3, #0
 8002478:	e9dd 010e 	ldrd	r0, r1, [sp, #56]	; 0x38
 800247c:	2200      	movs	r2, #0
 800247e:	f6c3 73f0 	movt	r3, #16368	; 0x3ff0
 8002482:	f004 fcdd 	bl	8006e40 <__aeabi_dcmplt>
 8002486:	2800      	cmp	r0, #0
 8002488:	f040 82dc 	bne.w	8002a44 <_dtoa_r+0xcec>
 800248c:	4640      	mov	r0, r8
 800248e:	f004 f9ff 	bl	8006890 <__aeabi_i2d>
 8002492:	e9dd 230e 	ldrd	r2, r3, [sp, #56]	; 0x38
 8002496:	f004 fa61 	bl	800695c <__aeabi_dmul>
 800249a:	2300      	movs	r3, #0
 800249c:	2200      	movs	r2, #0
 800249e:	f2c4 031c 	movt	r3, #16412	; 0x401c
 80024a2:	f004 f8a9 	bl	80065f8 <__adddf3>
 80024a6:	9a0c      	ldr	r2, [sp, #48]	; 0x30
 80024a8:	4604      	mov	r4, r0
 80024aa:	f1a1 7550 	sub.w	r5, r1, #54525952	; 0x3400000
 80024ae:	2a00      	cmp	r2, #0
 80024b0:	f000 80cc 	beq.w	800264c <_dtoa_r+0x8f4>
 80024b4:	9b09      	ldr	r3, [sp, #36]	; 0x24
 80024b6:	f8dd 9030 	ldr.w	r9, [sp, #48]	; 0x30
 80024ba:	931b      	str	r3, [sp, #108]	; 0x6c
 80024bc:	9812      	ldr	r0, [sp, #72]	; 0x48
 80024be:	2800      	cmp	r0, #0
 80024c0:	f000 817a 	beq.w	80027b8 <_dtoa_r+0xa60>
 80024c4:	f248 33a8 	movw	r3, #33704	; 0x83a8
 80024c8:	2100      	movs	r1, #0
 80024ca:	f6c0 0300 	movt	r3, #2048	; 0x800
 80024ce:	2000      	movs	r0, #0
 80024d0:	eb03 03c9 	add.w	r3, r3, r9, lsl #3
 80024d4:	f6c3 71e0 	movt	r1, #16352	; 0x3fe0
 80024d8:	9f0d      	ldr	r7, [sp, #52]	; 0x34
 80024da:	e953 2302 	ldrd	r2, r3, [r3, #-8]
 80024de:	f004 fb67 	bl	8006bb0 <__aeabi_ddiv>
 80024e2:	4622      	mov	r2, r4
 80024e4:	462b      	mov	r3, r5
 80024e6:	f004 f885 	bl	80065f4 <__aeabi_dsub>
 80024ea:	e9cd 0116 	strd	r0, r1, [sp, #88]	; 0x58
 80024ee:	e9dd 010e 	ldrd	r0, r1, [sp, #56]	; 0x38
 80024f2:	f004 fccd 	bl	8006e90 <__aeabi_d2iz>
 80024f6:	4680      	mov	r8, r0
 80024f8:	f004 f9ca 	bl	8006890 <__aeabi_i2d>
 80024fc:	f108 0830 	add.w	r8, r8, #48	; 0x30
 8002500:	fa5f fa88 	uxtb.w	sl, r8
 8002504:	4602      	mov	r2, r0
 8002506:	460b      	mov	r3, r1
 8002508:	e9dd 010e 	ldrd	r0, r1, [sp, #56]	; 0x38
 800250c:	f004 f872 	bl	80065f4 <__aeabi_dsub>
 8002510:	f807 ab01 	strb.w	sl, [r7], #1
 8002514:	4604      	mov	r4, r0
 8002516:	460d      	mov	r5, r1
 8002518:	4622      	mov	r2, r4
 800251a:	e9dd 0116 	ldrd	r0, r1, [sp, #88]	; 0x58
 800251e:	462b      	mov	r3, r5
 8002520:	f004 fcac 	bl	8006e7c <__aeabi_dcmpgt>
 8002524:	2800      	cmp	r0, #0
 8002526:	f040 839e 	bne.w	8002c66 <_dtoa_r+0xf0e>
 800252a:	2100      	movs	r1, #0
 800252c:	4622      	mov	r2, r4
 800252e:	462b      	mov	r3, r5
 8002530:	2000      	movs	r0, #0
 8002532:	f6c3 71f0 	movt	r1, #16368	; 0x3ff0
 8002536:	f004 f85d 	bl	80065f4 <__aeabi_dsub>
 800253a:	4602      	mov	r2, r0
 800253c:	460b      	mov	r3, r1
 800253e:	e9dd 0116 	ldrd	r0, r1, [sp, #88]	; 0x58
 8002542:	f004 fc9b 	bl	8006e7c <__aeabi_dcmpgt>
 8002546:	2800      	cmp	r0, #0
 8002548:	f040 838a 	bne.w	8002c60 <_dtoa_r+0xf08>
 800254c:	f1b9 0f01 	cmp.w	r9, #1
 8002550:	f77f ad33 	ble.w	8001fba <_dtoa_r+0x262>
 8002554:	990d      	ldr	r1, [sp, #52]	; 0x34
 8002556:	46b8      	mov	r8, r7
 8002558:	f8cd b038 	str.w	fp, [sp, #56]	; 0x38
 800255c:	4489      	add	r9, r1
 800255e:	9618      	str	r6, [sp, #96]	; 0x60
 8002560:	46cb      	mov	fp, r9
 8002562:	e9dd 6716 	ldrd	r6, r7, [sp, #88]	; 0x58
 8002566:	e00f      	b.n	8002588 <_dtoa_r+0x830>
 8002568:	2100      	movs	r1, #0
 800256a:	2000      	movs	r0, #0
 800256c:	f6c3 71f0 	movt	r1, #16368	; 0x3ff0
 8002570:	f004 f840 	bl	80065f4 <__aeabi_dsub>
 8002574:	4632      	mov	r2, r6
 8002576:	463b      	mov	r3, r7
 8002578:	f004 fc62 	bl	8006e40 <__aeabi_dcmplt>
 800257c:	2800      	cmp	r0, #0
 800257e:	f040 82e5 	bne.w	8002b4c <_dtoa_r+0xdf4>
 8002582:	45d8      	cmp	r8, fp
 8002584:	f000 82e9 	beq.w	8002b5a <_dtoa_r+0xe02>
 8002588:	2300      	movs	r3, #0
 800258a:	2200      	movs	r2, #0
 800258c:	f2c4 0324 	movt	r3, #16420	; 0x4024
 8002590:	4630      	mov	r0, r6
 8002592:	4639      	mov	r1, r7
 8002594:	f004 f9e2 	bl	800695c <__aeabi_dmul>
 8002598:	2300      	movs	r3, #0
 800259a:	2200      	movs	r2, #0
 800259c:	f2c4 0324 	movt	r3, #16420	; 0x4024
 80025a0:	4606      	mov	r6, r0
 80025a2:	460f      	mov	r7, r1
 80025a4:	4620      	mov	r0, r4
 80025a6:	4629      	mov	r1, r5
 80025a8:	f004 f9d8 	bl	800695c <__aeabi_dmul>
 80025ac:	460d      	mov	r5, r1
 80025ae:	4604      	mov	r4, r0
 80025b0:	f004 fc6e 	bl	8006e90 <__aeabi_d2iz>
 80025b4:	4681      	mov	r9, r0
 80025b6:	f004 f96b 	bl	8006890 <__aeabi_i2d>
 80025ba:	f109 0930 	add.w	r9, r9, #48	; 0x30
 80025be:	fa5f fa89 	uxtb.w	sl, r9
 80025c2:	4602      	mov	r2, r0
 80025c4:	460b      	mov	r3, r1
 80025c6:	4620      	mov	r0, r4
 80025c8:	4629      	mov	r1, r5
 80025ca:	f004 f813 	bl	80065f4 <__aeabi_dsub>
 80025ce:	4632      	mov	r2, r6
 80025d0:	463b      	mov	r3, r7
 80025d2:	f808 ab01 	strb.w	sl, [r8], #1
 80025d6:	46c1      	mov	r9, r8
 80025d8:	4604      	mov	r4, r0
 80025da:	460d      	mov	r5, r1
 80025dc:	f004 fc30 	bl	8006e40 <__aeabi_dcmplt>
 80025e0:	4622      	mov	r2, r4
 80025e2:	462b      	mov	r3, r5
 80025e4:	2800      	cmp	r0, #0
 80025e6:	d0bf      	beq.n	8002568 <_dtoa_r+0x810>
 80025e8:	981b      	ldr	r0, [sp, #108]	; 0x6c
 80025ea:	4647      	mov	r7, r8
 80025ec:	f8dd b038 	ldr.w	fp, [sp, #56]	; 0x38
 80025f0:	9e18      	ldr	r6, [sp, #96]	; 0x60
 80025f2:	9009      	str	r0, [sp, #36]	; 0x24
 80025f4:	e653      	b.n	800229e <_dtoa_r+0x546>
 80025f6:	2201      	movs	r2, #1
 80025f8:	9212      	str	r2, [sp, #72]	; 0x48
 80025fa:	9b29      	ldr	r3, [sp, #164]	; 0xa4
 80025fc:	9a09      	ldr	r2, [sp, #36]	; 0x24
 80025fe:	189a      	adds	r2, r3, r2
 8002600:	9215      	str	r2, [sp, #84]	; 0x54
 8002602:	f102 0a01 	add.w	sl, r2, #1
 8002606:	f1ba 0f00 	cmp.w	sl, #0
 800260a:	f340 8202 	ble.w	8002a12 <_dtoa_r+0xcba>
 800260e:	f1ba 0f0e 	cmp.w	sl, #14
 8002612:	bf8c      	ite	hi
 8002614:	2400      	movhi	r4, #0
 8002616:	f004 0401 	andls.w	r4, r4, #1
 800261a:	f8cd a030 	str.w	sl, [sp, #48]	; 0x30
 800261e:	e6ce      	b.n	80023be <_dtoa_r+0x666>
 8002620:	2100      	movs	r1, #0
 8002622:	9112      	str	r1, [sp, #72]	; 0x48
 8002624:	e7e9      	b.n	80025fa <_dtoa_r+0x8a2>
 8002626:	2300      	movs	r3, #0
 8002628:	9312      	str	r3, [sp, #72]	; 0x48
 800262a:	e6bc      	b.n	80023a6 <_dtoa_r+0x64e>
 800262c:	4640      	mov	r0, r8
 800262e:	f004 f92f 	bl	8006890 <__aeabi_i2d>
 8002632:	e9dd 230e 	ldrd	r2, r3, [sp, #56]	; 0x38
 8002636:	f004 f991 	bl	800695c <__aeabi_dmul>
 800263a:	2300      	movs	r3, #0
 800263c:	2200      	movs	r2, #0
 800263e:	f2c4 031c 	movt	r3, #16412	; 0x401c
 8002642:	f003 ffd9 	bl	80065f8 <__adddf3>
 8002646:	4604      	mov	r4, r0
 8002648:	f1a1 7550 	sub.w	r5, r1, #54525952	; 0x3400000
 800264c:	2300      	movs	r3, #0
 800264e:	2200      	movs	r2, #0
 8002650:	f2c4 0314 	movt	r3, #16404	; 0x4014
 8002654:	e9dd 010e 	ldrd	r0, r1, [sp, #56]	; 0x38
 8002658:	f003 ffcc 	bl	80065f4 <__aeabi_dsub>
 800265c:	4622      	mov	r2, r4
 800265e:	462b      	mov	r3, r5
 8002660:	e9cd 010e 	strd	r0, r1, [sp, #56]	; 0x38
 8002664:	f004 fc0a 	bl	8006e7c <__aeabi_dcmpgt>
 8002668:	4680      	mov	r8, r0
 800266a:	2800      	cmp	r0, #0
 800266c:	f040 80a0 	bne.w	80027b0 <_dtoa_r+0xa58>
 8002670:	4622      	mov	r2, r4
 8002672:	e9dd 010e 	ldrd	r0, r1, [sp, #56]	; 0x38
 8002676:	f105 4300 	add.w	r3, r5, #2147483648	; 0x80000000
 800267a:	f004 fbe1 	bl	8006e40 <__aeabi_dcmplt>
 800267e:	2800      	cmp	r0, #0
 8002680:	f43f ac9b 	beq.w	8001fba <_dtoa_r+0x262>
 8002684:	46c2      	mov	sl, r8
 8002686:	9829      	ldr	r0, [sp, #164]	; 0xa4
 8002688:	2500      	movs	r5, #0
 800268a:	9f0d      	ldr	r7, [sp, #52]	; 0x34
 800268c:	43c0      	mvns	r0, r0
 800268e:	9009      	str	r0, [sp, #36]	; 0x24
 8002690:	e5f5      	b.n	800227e <_dtoa_r+0x526>
 8002692:	9a12      	ldr	r2, [sp, #72]	; 0x48
 8002694:	2a00      	cmp	r2, #0
 8002696:	f040 813e 	bne.w	8002916 <_dtoa_r+0xbbe>
 800269a:	2400      	movs	r4, #0
 800269c:	9d0c      	ldr	r5, [sp, #48]	; 0x30
 800269e:	9f0d      	ldr	r7, [sp, #52]	; 0x34
 80026a0:	e002      	b.n	80026a8 <_dtoa_r+0x950>
 80026a2:	f001 fb83 	bl	8003dac <__multadd>
 80026a6:	4683      	mov	fp, r0
 80026a8:	4641      	mov	r1, r8
 80026aa:	4658      	mov	r0, fp
 80026ac:	f7ff fab8 	bl	8001c20 <quorem>
 80026b0:	220a      	movs	r2, #10
 80026b2:	2300      	movs	r3, #0
 80026b4:	4659      	mov	r1, fp
 80026b6:	f100 0c30 	add.w	ip, r0, #48	; 0x30
 80026ba:	f807 c004 	strb.w	ip, [r7, r4]
 80026be:	3401      	adds	r4, #1
 80026c0:	4630      	mov	r0, r6
 80026c2:	42ac      	cmp	r4, r5
 80026c4:	dbed      	blt.n	80026a2 <_dtoa_r+0x94a>
 80026c6:	9f0d      	ldr	r7, [sp, #52]	; 0x34
 80026c8:	2500      	movs	r5, #0
 80026ca:	980c      	ldr	r0, [sp, #48]	; 0x30
 80026cc:	2801      	cmp	r0, #1
 80026ce:	bfac      	ite	ge
 80026d0:	183f      	addge	r7, r7, r0
 80026d2:	3701      	addlt	r7, #1
 80026d4:	4659      	mov	r1, fp
 80026d6:	2201      	movs	r2, #1
 80026d8:	4630      	mov	r0, r6
 80026da:	f8cd c00c 	str.w	ip, [sp, #12]
 80026de:	f001 fd3b 	bl	8004158 <__lshift>
 80026e2:	4641      	mov	r1, r8
 80026e4:	4683      	mov	fp, r0
 80026e6:	f001 fd91 	bl	800420c <__mcmp>
 80026ea:	f8dd c00c 	ldr.w	ip, [sp, #12]
 80026ee:	2800      	cmp	r0, #0
 80026f0:	f340 823f 	ble.w	8002b72 <_dtoa_r+0xe1a>
 80026f4:	f817 2c01 	ldrb.w	r2, [r7, #-1]
 80026f8:	990d      	ldr	r1, [sp, #52]	; 0x34
 80026fa:	e002      	b.n	8002702 <_dtoa_r+0x9aa>
 80026fc:	f813 2c01 	ldrb.w	r2, [r3, #-1]
 8002700:	461f      	mov	r7, r3
 8002702:	1e7b      	subs	r3, r7, #1
 8002704:	2a39      	cmp	r2, #57	; 0x39
 8002706:	f040 826f 	bne.w	8002be8 <_dtoa_r+0xe90>
 800270a:	428b      	cmp	r3, r1
 800270c:	d1f6      	bne.n	80026fc <_dtoa_r+0x9a4>
 800270e:	9a0d      	ldr	r2, [sp, #52]	; 0x34
 8002710:	2331      	movs	r3, #49	; 0x31
 8002712:	9909      	ldr	r1, [sp, #36]	; 0x24
 8002714:	7013      	strb	r3, [r2, #0]
 8002716:	3101      	adds	r1, #1
 8002718:	9109      	str	r1, [sp, #36]	; 0x24
 800271a:	e5b0      	b.n	800227e <_dtoa_r+0x526>
 800271c:	231c      	movs	r3, #28
 800271e:	9810      	ldr	r0, [sp, #64]	; 0x40
 8002720:	18e4      	adds	r4, r4, r3
 8002722:	990b      	ldr	r1, [sp, #44]	; 0x2c
 8002724:	18c0      	adds	r0, r0, r3
 8002726:	9010      	str	r0, [sp, #64]	; 0x40
 8002728:	18c9      	adds	r1, r1, r3
 800272a:	910b      	str	r1, [sp, #44]	; 0x2c
 800272c:	e56d      	b.n	800220a <_dtoa_r+0x4b2>
 800272e:	e9dd 2304 	ldrd	r2, r3, [sp, #16]
 8002732:	f04f 0802 	mov.w	r8, #2
 8002736:	e9cd 230e 	strd	r2, r3, [sp, #56]	; 0x38
 800273a:	e67d      	b.n	8002438 <_dtoa_r+0x6e0>
 800273c:	4630      	mov	r0, r6
 800273e:	4629      	mov	r1, r5
 8002740:	f001 fb18 	bl	8003d74 <_Bfree>
 8002744:	e5a7      	b.n	8002296 <_dtoa_r+0x53e>
 8002746:	980d      	ldr	r0, [sp, #52]	; 0x34
 8002748:	f7ff bb45 	b.w	8001dd6 <_dtoa_r+0x7e>
 800274c:	9b09      	ldr	r3, [sp, #36]	; 0x24
 800274e:	425c      	negs	r4, r3
 8002750:	2c00      	cmp	r4, #0
 8002752:	f000 81a2 	beq.w	8002a9a <_dtoa_r+0xd42>
 8002756:	f004 020f 	and.w	r2, r4, #15
 800275a:	f248 33a8 	movw	r3, #33704	; 0x83a8
 800275e:	f6c0 0300 	movt	r3, #2048	; 0x800
 8002762:	e9dd 0104 	ldrd	r0, r1, [sp, #16]
 8002766:	eb03 03c2 	add.w	r3, r3, r2, lsl #3
 800276a:	e9d3 2300 	ldrd	r2, r3, [r3]
 800276e:	f004 f8f5 	bl	800695c <__aeabi_dmul>
 8002772:	1124      	asrs	r4, r4, #4
 8002774:	e9cd 010e 	strd	r0, r1, [sp, #56]	; 0x38
 8002778:	f000 8268 	beq.w	8002c4c <_dtoa_r+0xef4>
 800277c:	f248 4598 	movw	r5, #33944	; 0x8498
 8002780:	f04f 0802 	mov.w	r8, #2
 8002784:	f6c0 0500 	movt	r5, #2048	; 0x800
 8002788:	4602      	mov	r2, r0
 800278a:	460b      	mov	r3, r1
 800278c:	07e7      	lsls	r7, r4, #31
 800278e:	4610      	mov	r0, r2
 8002790:	4619      	mov	r1, r3
 8002792:	d507      	bpl.n	80027a4 <_dtoa_r+0xa4c>
 8002794:	e9d5 2300 	ldrd	r2, r3, [r5]
 8002798:	f108 0801 	add.w	r8, r8, #1
 800279c:	f004 f8de 	bl	800695c <__aeabi_dmul>
 80027a0:	4602      	mov	r2, r0
 80027a2:	460b      	mov	r3, r1
 80027a4:	3508      	adds	r5, #8
 80027a6:	1064      	asrs	r4, r4, #1
 80027a8:	d1f0      	bne.n	800278c <_dtoa_r+0xa34>
 80027aa:	e9cd 230e 	strd	r2, r3, [sp, #56]	; 0x38
 80027ae:	e660      	b.n	8002472 <_dtoa_r+0x71a>
 80027b0:	f04f 0800 	mov.w	r8, #0
 80027b4:	46c2      	mov	sl, r8
 80027b6:	e55a      	b.n	800226e <_dtoa_r+0x516>
 80027b8:	f109 32ff 	add.w	r2, r9, #4294967295
 80027bc:	9216      	str	r2, [sp, #88]	; 0x58
 80027be:	9816      	ldr	r0, [sp, #88]	; 0x58
 80027c0:	f248 31a8 	movw	r1, #33704	; 0x83a8
 80027c4:	f6c0 0100 	movt	r1, #2048	; 0x800
 80027c8:	4622      	mov	r2, r4
 80027ca:	462b      	mov	r3, r5
 80027cc:	9f0d      	ldr	r7, [sp, #52]	; 0x34
 80027ce:	eb01 01c0 	add.w	r1, r1, r0, lsl #3
 80027d2:	e9d1 0100 	ldrd	r0, r1, [r1]
 80027d6:	f004 f8c1 	bl	800695c <__aeabi_dmul>
 80027da:	e9cd 0118 	strd	r0, r1, [sp, #96]	; 0x60
 80027de:	e9dd 010e 	ldrd	r0, r1, [sp, #56]	; 0x38
 80027e2:	f004 fb55 	bl	8006e90 <__aeabi_d2iz>
 80027e6:	4680      	mov	r8, r0
 80027e8:	f004 f852 	bl	8006890 <__aeabi_i2d>
 80027ec:	f108 0830 	add.w	r8, r8, #48	; 0x30
 80027f0:	4602      	mov	r2, r0
 80027f2:	460b      	mov	r3, r1
 80027f4:	e9dd 010e 	ldrd	r0, r1, [sp, #56]	; 0x38
 80027f8:	f003 fefc 	bl	80065f4 <__aeabi_dsub>
 80027fc:	f1b9 0f01 	cmp.w	r9, #1
 8002800:	f807 8b01 	strb.w	r8, [r7], #1
 8002804:	4604      	mov	r4, r0
 8002806:	460d      	mov	r5, r1
 8002808:	d020      	beq.n	800284c <_dtoa_r+0xaf4>
 800280a:	9a0d      	ldr	r2, [sp, #52]	; 0x34
 800280c:	1e53      	subs	r3, r2, #1
 800280e:	4690      	mov	r8, r2
 8002810:	4499      	add	r9, r3
 8002812:	2300      	movs	r3, #0
 8002814:	2200      	movs	r2, #0
 8002816:	f2c4 0324 	movt	r3, #16420	; 0x4024
 800281a:	f004 f89f 	bl	800695c <__aeabi_dmul>
 800281e:	460d      	mov	r5, r1
 8002820:	4604      	mov	r4, r0
 8002822:	f004 fb35 	bl	8006e90 <__aeabi_d2iz>
 8002826:	4682      	mov	sl, r0
 8002828:	f004 f832 	bl	8006890 <__aeabi_i2d>
 800282c:	f10a 0a30 	add.w	sl, sl, #48	; 0x30
 8002830:	4602      	mov	r2, r0
 8002832:	460b      	mov	r3, r1
 8002834:	4620      	mov	r0, r4
 8002836:	4629      	mov	r1, r5
 8002838:	f003 fedc 	bl	80065f4 <__aeabi_dsub>
 800283c:	f808 af01 	strb.w	sl, [r8, #1]!
 8002840:	45c8      	cmp	r8, r9
 8002842:	d1e6      	bne.n	8002812 <_dtoa_r+0xaba>
 8002844:	9b16      	ldr	r3, [sp, #88]	; 0x58
 8002846:	4604      	mov	r4, r0
 8002848:	460d      	mov	r5, r1
 800284a:	18ff      	adds	r7, r7, r3
 800284c:	2300      	movs	r3, #0
 800284e:	2200      	movs	r2, #0
 8002850:	f6c3 73e0 	movt	r3, #16352	; 0x3fe0
 8002854:	e9dd 0118 	ldrd	r0, r1, [sp, #96]	; 0x60
 8002858:	f003 fece 	bl	80065f8 <__adddf3>
 800285c:	4622      	mov	r2, r4
 800285e:	462b      	mov	r3, r5
 8002860:	f004 faee 	bl	8006e40 <__aeabi_dcmplt>
 8002864:	2800      	cmp	r0, #0
 8002866:	f000 8126 	beq.w	8002ab6 <_dtoa_r+0xd5e>
 800286a:	f817 ac01 	ldrb.w	sl, [r7, #-1]
 800286e:	9a0d      	ldr	r2, [sp, #52]	; 0x34
 8002870:	e459      	b.n	8002126 <_dtoa_r+0x3ce>
 8002872:	4658      	mov	r0, fp
 8002874:	4641      	mov	r1, r8
 8002876:	f001 fcc9 	bl	800420c <__mcmp>
 800287a:	2800      	cmp	r0, #0
 800287c:	f6bf acda 	bge.w	8002234 <_dtoa_r+0x4dc>
 8002880:	4659      	mov	r1, fp
 8002882:	220a      	movs	r2, #10
 8002884:	4630      	mov	r0, r6
 8002886:	2300      	movs	r3, #0
 8002888:	f001 fa90 	bl	8003dac <__multadd>
 800288c:	9909      	ldr	r1, [sp, #36]	; 0x24
 800288e:	9a12      	ldr	r2, [sp, #72]	; 0x48
 8002890:	3901      	subs	r1, #1
 8002892:	9109      	str	r1, [sp, #36]	; 0x24
 8002894:	4683      	mov	fp, r0
 8002896:	bb52      	cbnz	r2, 80028ee <_dtoa_r+0xb96>
 8002898:	9815      	ldr	r0, [sp, #84]	; 0x54
 800289a:	9a15      	ldr	r2, [sp, #84]	; 0x54
 800289c:	2800      	cmp	r0, #0
 800289e:	dc03      	bgt.n	80028a8 <_dtoa_r+0xb50>
 80028a0:	9928      	ldr	r1, [sp, #160]	; 0xa0
 80028a2:	2902      	cmp	r1, #2
 80028a4:	f300 81ec 	bgt.w	8002c80 <_dtoa_r+0xf28>
 80028a8:	920c      	str	r2, [sp, #48]	; 0x30
 80028aa:	e6f6      	b.n	800269a <_dtoa_r+0x942>
 80028ac:	f8d8 3010 	ldr.w	r3, [r8, #16]
 80028b0:	eb08 0383 	add.w	r3, r8, r3, lsl #2
 80028b4:	6918      	ldr	r0, [r3, #16]
 80028b6:	f001 fb09 	bl	8003ecc <__hi0bits>
 80028ba:	f1c0 0020 	rsb	r0, r0, #32
 80028be:	e491      	b.n	80021e4 <_dtoa_r+0x48c>
 80028c0:	9b0c      	ldr	r3, [sp, #48]	; 0x30
 80028c2:	2b00      	cmp	r3, #0
 80028c4:	f040 8163 	bne.w	8002b8e <_dtoa_r+0xe36>
 80028c8:	2300      	movs	r3, #0
 80028ca:	2200      	movs	r2, #0
 80028cc:	f2c4 0314 	movt	r3, #16404	; 0x4014
 80028d0:	e9dd 0106 	ldrd	r0, r1, [sp, #24]
 80028d4:	f004 f842 	bl	800695c <__aeabi_dmul>
 80028d8:	e9dd 2304 	ldrd	r2, r3, [sp, #16]
 80028dc:	f004 fac4 	bl	8006e68 <__aeabi_dcmpge>
 80028e0:	f8dd 8030 	ldr.w	r8, [sp, #48]	; 0x30
 80028e4:	46c2      	mov	sl, r8
 80028e6:	2800      	cmp	r0, #0
 80028e8:	f47f aecd 	bne.w	8002686 <_dtoa_r+0x92e>
 80028ec:	e4bf      	b.n	800226e <_dtoa_r+0x516>
 80028ee:	2300      	movs	r3, #0
 80028f0:	4651      	mov	r1, sl
 80028f2:	220a      	movs	r2, #10
 80028f4:	4630      	mov	r0, r6
 80028f6:	f001 fa59 	bl	8003dac <__multadd>
 80028fa:	9915      	ldr	r1, [sp, #84]	; 0x54
 80028fc:	2900      	cmp	r1, #0
 80028fe:	bfcc      	ite	gt
 8002900:	2300      	movgt	r3, #0
 8002902:	2301      	movle	r3, #1
 8002904:	4682      	mov	sl, r0
 8002906:	9828      	ldr	r0, [sp, #160]	; 0xa0
 8002908:	2802      	cmp	r0, #2
 800290a:	bfd8      	it	le
 800290c:	2300      	movle	r3, #0
 800290e:	2b00      	cmp	r3, #0
 8002910:	f040 81ad 	bne.w	8002c6e <_dtoa_r+0xf16>
 8002914:	910c      	str	r1, [sp, #48]	; 0x30
 8002916:	2c00      	cmp	r4, #0
 8002918:	dd05      	ble.n	8002926 <_dtoa_r+0xbce>
 800291a:	4651      	mov	r1, sl
 800291c:	4630      	mov	r0, r6
 800291e:	4622      	mov	r2, r4
 8002920:	f001 fc1a 	bl	8004158 <__lshift>
 8002924:	4682      	mov	sl, r0
 8002926:	46d1      	mov	r9, sl
 8002928:	2d00      	cmp	r5, #0
 800292a:	f040 8147 	bne.w	8002bbc <_dtoa_r+0xe64>
 800292e:	9b0d      	ldr	r3, [sp, #52]	; 0x34
 8002930:	4655      	mov	r5, sl
 8002932:	980c      	ldr	r0, [sp, #48]	; 0x30
 8002934:	9904      	ldr	r1, [sp, #16]
 8002936:	1c5c      	adds	r4, r3, #1
 8002938:	1818      	adds	r0, r3, r0
 800293a:	900c      	str	r0, [sp, #48]	; 0x30
 800293c:	f001 0101 	and.w	r1, r1, #1
 8002940:	910a      	str	r1, [sp, #40]	; 0x28
 8002942:	4641      	mov	r1, r8
 8002944:	4658      	mov	r0, fp
 8002946:	f7ff f96b 	bl	8001c20 <quorem>
 800294a:	4629      	mov	r1, r5
 800294c:	4607      	mov	r7, r0
 800294e:	4658      	mov	r0, fp
 8002950:	f001 fc5c 	bl	800420c <__mcmp>
 8002954:	464a      	mov	r2, r9
 8002956:	4641      	mov	r1, r8
 8002958:	4682      	mov	sl, r0
 800295a:	4630      	mov	r0, r6
 800295c:	f001 fc74 	bl	8004248 <__mdiff>
 8002960:	1e63      	subs	r3, r4, #1
 8002962:	930b      	str	r3, [sp, #44]	; 0x2c
 8002964:	f107 0330 	add.w	r3, r7, #48	; 0x30
 8002968:	9304      	str	r3, [sp, #16]
 800296a:	68c3      	ldr	r3, [r0, #12]
 800296c:	4602      	mov	r2, r0
 800296e:	2b00      	cmp	r3, #0
 8002970:	d03d      	beq.n	80029ee <_dtoa_r+0xc96>
 8002972:	2301      	movs	r3, #1
 8002974:	4630      	mov	r0, r6
 8002976:	4611      	mov	r1, r2
 8002978:	9303      	str	r3, [sp, #12]
 800297a:	f001 f9fb 	bl	8003d74 <_Bfree>
 800297e:	9b03      	ldr	r3, [sp, #12]
 8002980:	9828      	ldr	r0, [sp, #160]	; 0xa0
 8002982:	4318      	orrs	r0, r3
 8002984:	d103      	bne.n	800298e <_dtoa_r+0xc36>
 8002986:	990a      	ldr	r1, [sp, #40]	; 0x28
 8002988:	2900      	cmp	r1, #0
 800298a:	f000 8154 	beq.w	8002c36 <_dtoa_r+0xede>
 800298e:	f1ba 0f00 	cmp.w	sl, #0
 8002992:	f2c0 80b8 	blt.w	8002b06 <_dtoa_r+0xdae>
 8002996:	9a28      	ldr	r2, [sp, #160]	; 0xa0
 8002998:	ea5a 0202 	orrs.w	r2, sl, r2
 800299c:	d103      	bne.n	80029a6 <_dtoa_r+0xc4e>
 800299e:	980a      	ldr	r0, [sp, #40]	; 0x28
 80029a0:	2800      	cmp	r0, #0
 80029a2:	f000 80b0 	beq.w	8002b06 <_dtoa_r+0xdae>
 80029a6:	2b00      	cmp	r3, #0
 80029a8:	f300 812c 	bgt.w	8002c04 <_dtoa_r+0xeac>
 80029ac:	9b0c      	ldr	r3, [sp, #48]	; 0x30
 80029ae:	4627      	mov	r7, r4
 80029b0:	9a04      	ldr	r2, [sp, #16]
 80029b2:	429c      	cmp	r4, r3
 80029b4:	f804 2c01 	strb.w	r2, [r4, #-1]
 80029b8:	f000 8131 	beq.w	8002c1e <_dtoa_r+0xec6>
 80029bc:	4659      	mov	r1, fp
 80029be:	220a      	movs	r2, #10
 80029c0:	2300      	movs	r3, #0
 80029c2:	4630      	mov	r0, r6
 80029c4:	f001 f9f2 	bl	8003dac <__multadd>
 80029c8:	454d      	cmp	r5, r9
 80029ca:	4683      	mov	fp, r0
 80029cc:	d017      	beq.n	80029fe <_dtoa_r+0xca6>
 80029ce:	4629      	mov	r1, r5
 80029d0:	220a      	movs	r2, #10
 80029d2:	2300      	movs	r3, #0
 80029d4:	4630      	mov	r0, r6
 80029d6:	f001 f9e9 	bl	8003dac <__multadd>
 80029da:	4649      	mov	r1, r9
 80029dc:	220a      	movs	r2, #10
 80029de:	2300      	movs	r3, #0
 80029e0:	3401      	adds	r4, #1
 80029e2:	4605      	mov	r5, r0
 80029e4:	4630      	mov	r0, r6
 80029e6:	f001 f9e1 	bl	8003dac <__multadd>
 80029ea:	4681      	mov	r9, r0
 80029ec:	e7a9      	b.n	8002942 <_dtoa_r+0xbea>
 80029ee:	4611      	mov	r1, r2
 80029f0:	4658      	mov	r0, fp
 80029f2:	9203      	str	r2, [sp, #12]
 80029f4:	f001 fc0a 	bl	800420c <__mcmp>
 80029f8:	9a03      	ldr	r2, [sp, #12]
 80029fa:	4603      	mov	r3, r0
 80029fc:	e7ba      	b.n	8002974 <_dtoa_r+0xc1c>
 80029fe:	4629      	mov	r1, r5
 8002a00:	4630      	mov	r0, r6
 8002a02:	220a      	movs	r2, #10
 8002a04:	2300      	movs	r3, #0
 8002a06:	f001 f9d1 	bl	8003dac <__multadd>
 8002a0a:	3401      	adds	r4, #1
 8002a0c:	4605      	mov	r5, r0
 8002a0e:	4681      	mov	r9, r0
 8002a10:	e797      	b.n	8002942 <_dtoa_r+0xbea>
 8002a12:	f1ba 0f0e 	cmp.w	sl, #14
 8002a16:	f8cd a030 	str.w	sl, [sp, #48]	; 0x30
 8002a1a:	bf8c      	ite	hi
 8002a1c:	2300      	movhi	r3, #0
 8002a1e:	2301      	movls	r3, #1
 8002a20:	6a75      	ldr	r5, [r6, #36]	; 0x24
 8002a22:	401c      	ands	r4, r3
 8002a24:	2300      	movs	r3, #0
 8002a26:	606b      	str	r3, [r5, #4]
 8002a28:	e4d9      	b.n	80023de <_dtoa_r+0x686>
 8002a2a:	2301      	movs	r3, #1
 8002a2c:	9315      	str	r3, [sp, #84]	; 0x54
 8002a2e:	930c      	str	r3, [sp, #48]	; 0x30
 8002a30:	9329      	str	r3, [sp, #164]	; 0xa4
 8002a32:	e7f5      	b.n	8002a20 <_dtoa_r+0xcc8>
 8002a34:	4659      	mov	r1, fp
 8002a36:	4630      	mov	r0, r6
 8002a38:	9a11      	ldr	r2, [sp, #68]	; 0x44
 8002a3a:	f001 fb3b 	bl	80040b4 <__pow5mult>
 8002a3e:	4683      	mov	fp, r0
 8002a40:	f7ff bbb8 	b.w	80021b4 <_dtoa_r+0x45c>
 8002a44:	9a0c      	ldr	r2, [sp, #48]	; 0x30
 8002a46:	2a00      	cmp	r2, #0
 8002a48:	f43f adf0 	beq.w	800262c <_dtoa_r+0x8d4>
 8002a4c:	9b15      	ldr	r3, [sp, #84]	; 0x54
 8002a4e:	2b00      	cmp	r3, #0
 8002a50:	f77f aab3 	ble.w	8001fba <_dtoa_r+0x262>
 8002a54:	2300      	movs	r3, #0
 8002a56:	2200      	movs	r2, #0
 8002a58:	f2c4 0324 	movt	r3, #16420	; 0x4024
 8002a5c:	e9dd 010e 	ldrd	r0, r1, [sp, #56]	; 0x38
 8002a60:	f003 ff7c 	bl	800695c <__aeabi_dmul>
 8002a64:	e9cd 010e 	strd	r0, r1, [sp, #56]	; 0x38
 8002a68:	f108 0001 	add.w	r0, r8, #1
 8002a6c:	9909      	ldr	r1, [sp, #36]	; 0x24
 8002a6e:	3901      	subs	r1, #1
 8002a70:	911b      	str	r1, [sp, #108]	; 0x6c
 8002a72:	f003 ff0d 	bl	8006890 <__aeabi_i2d>
 8002a76:	4602      	mov	r2, r0
 8002a78:	460b      	mov	r3, r1
 8002a7a:	e9dd 010e 	ldrd	r0, r1, [sp, #56]	; 0x38
 8002a7e:	f003 ff6d 	bl	800695c <__aeabi_dmul>
 8002a82:	2300      	movs	r3, #0
 8002a84:	2200      	movs	r2, #0
 8002a86:	f2c4 031c 	movt	r3, #16412	; 0x401c
 8002a8a:	f003 fdb5 	bl	80065f8 <__adddf3>
 8002a8e:	f8dd 9054 	ldr.w	r9, [sp, #84]	; 0x54
 8002a92:	4604      	mov	r4, r0
 8002a94:	f1a1 7550 	sub.w	r5, r1, #54525952	; 0x3400000
 8002a98:	e510      	b.n	80024bc <_dtoa_r+0x764>
 8002a9a:	e9dd 0104 	ldrd	r0, r1, [sp, #16]
 8002a9e:	f04f 0802 	mov.w	r8, #2
 8002aa2:	e9cd 010e 	strd	r0, r1, [sp, #56]	; 0x38
 8002aa6:	e4e4      	b.n	8002472 <_dtoa_r+0x71a>
 8002aa8:	4659      	mov	r1, fp
 8002aaa:	4630      	mov	r0, r6
 8002aac:	f001 fb02 	bl	80040b4 <__pow5mult>
 8002ab0:	4683      	mov	fp, r0
 8002ab2:	f7ff bb7f 	b.w	80021b4 <_dtoa_r+0x45c>
 8002ab6:	2100      	movs	r1, #0
 8002ab8:	e9dd 2318 	ldrd	r2, r3, [sp, #96]	; 0x60
 8002abc:	2000      	movs	r0, #0
 8002abe:	f6c3 71e0 	movt	r1, #16352	; 0x3fe0
 8002ac2:	f003 fd97 	bl	80065f4 <__aeabi_dsub>
 8002ac6:	4622      	mov	r2, r4
 8002ac8:	462b      	mov	r3, r5
 8002aca:	f004 f9d7 	bl	8006e7c <__aeabi_dcmpgt>
 8002ace:	2800      	cmp	r0, #0
 8002ad0:	f43f aa73 	beq.w	8001fba <_dtoa_r+0x262>
 8002ad4:	463b      	mov	r3, r7
 8002ad6:	461f      	mov	r7, r3
 8002ad8:	3b01      	subs	r3, #1
 8002ada:	f817 2c01 	ldrb.w	r2, [r7, #-1]
 8002ade:	2a30      	cmp	r2, #48	; 0x30
 8002ae0:	d0f9      	beq.n	8002ad6 <_dtoa_r+0xd7e>
 8002ae2:	991b      	ldr	r1, [sp, #108]	; 0x6c
 8002ae4:	9109      	str	r1, [sp, #36]	; 0x24
 8002ae6:	f7ff bbda 	b.w	800229e <_dtoa_r+0x546>
 8002aea:	9a1a      	ldr	r2, [sp, #104]	; 0x68
 8002aec:	2a00      	cmp	r2, #0
 8002aee:	d07f      	beq.n	8002bf0 <_dtoa_r+0xe98>
 8002af0:	f203 4333 	addw	r3, r3, #1075	; 0x433
 8002af4:	9d11      	ldr	r5, [sp, #68]	; 0x44
 8002af6:	9c10      	ldr	r4, [sp, #64]	; 0x40
 8002af8:	e42e      	b.n	8002358 <_dtoa_r+0x600>
 8002afa:	465f      	mov	r7, fp
 8002afc:	9e0a      	ldr	r6, [sp, #40]	; 0x28
 8002afe:	f8dd b010 	ldr.w	fp, [sp, #16]
 8002b02:	f7ff bbcc 	b.w	800229e <_dtoa_r+0x546>
 8002b06:	f8dd c010 	ldr.w	ip, [sp, #16]
 8002b0a:	2b00      	cmp	r3, #0
 8002b0c:	4664      	mov	r4, ip
 8002b0e:	dd13      	ble.n	8002b38 <_dtoa_r+0xde0>
 8002b10:	4659      	mov	r1, fp
 8002b12:	2201      	movs	r2, #1
 8002b14:	4630      	mov	r0, r6
 8002b16:	f8cd c00c 	str.w	ip, [sp, #12]
 8002b1a:	f001 fb1d 	bl	8004158 <__lshift>
 8002b1e:	4641      	mov	r1, r8
 8002b20:	4683      	mov	fp, r0
 8002b22:	f001 fb73 	bl	800420c <__mcmp>
 8002b26:	f8dd c00c 	ldr.w	ip, [sp, #12]
 8002b2a:	2800      	cmp	r0, #0
 8002b2c:	f340 8091 	ble.w	8002c52 <_dtoa_r+0xefa>
 8002b30:	2c39      	cmp	r4, #57	; 0x39
 8002b32:	f107 0c31 	add.w	ip, r7, #49	; 0x31
 8002b36:	d076      	beq.n	8002c26 <_dtoa_r+0xece>
 8002b38:	9f0b      	ldr	r7, [sp, #44]	; 0x2c
 8002b3a:	46ca      	mov	sl, r9
 8002b3c:	f807 cb01 	strb.w	ip, [r7], #1
 8002b40:	f7ff bb9d 	b.w	800227e <_dtoa_r+0x526>
 8002b44:	9b10      	ldr	r3, [sp, #64]	; 0x40
 8002b46:	1a9c      	subs	r4, r3, r2
 8002b48:	2300      	movs	r3, #0
 8002b4a:	e405      	b.n	8002358 <_dtoa_r+0x600>
 8002b4c:	f8dd b038 	ldr.w	fp, [sp, #56]	; 0x38
 8002b50:	464f      	mov	r7, r9
 8002b52:	9a0d      	ldr	r2, [sp, #52]	; 0x34
 8002b54:	9e18      	ldr	r6, [sp, #96]	; 0x60
 8002b56:	f7ff bae6 	b.w	8002126 <_dtoa_r+0x3ce>
 8002b5a:	f8dd b038 	ldr.w	fp, [sp, #56]	; 0x38
 8002b5e:	9e18      	ldr	r6, [sp, #96]	; 0x60
 8002b60:	f7ff ba2b 	b.w	8001fba <_dtoa_r+0x262>
 8002b64:	991b      	ldr	r1, [sp, #108]	; 0x6c
 8002b66:	f10a 0a01 	add.w	sl, sl, #1
 8002b6a:	920d      	str	r2, [sp, #52]	; 0x34
 8002b6c:	9109      	str	r1, [sp, #36]	; 0x24
 8002b6e:	f7ff baea 	b.w	8002146 <_dtoa_r+0x3ee>
 8002b72:	d103      	bne.n	8002b7c <_dtoa_r+0xe24>
 8002b74:	f01c 0f01 	tst.w	ip, #1
 8002b78:	f47f adbc 	bne.w	80026f4 <_dtoa_r+0x99c>
 8002b7c:	463b      	mov	r3, r7
 8002b7e:	461f      	mov	r7, r3
 8002b80:	3b01      	subs	r3, #1
 8002b82:	f817 2c01 	ldrb.w	r2, [r7, #-1]
 8002b86:	2a30      	cmp	r2, #48	; 0x30
 8002b88:	d0f9      	beq.n	8002b7e <_dtoa_r+0xe26>
 8002b8a:	f7ff bb78 	b.w	800227e <_dtoa_r+0x526>
 8002b8e:	f04f 0800 	mov.w	r8, #0
 8002b92:	e577      	b.n	8002684 <_dtoa_r+0x92c>
 8002b94:	e9dd 0106 	ldrd	r0, r1, [sp, #24]
 8002b98:	4622      	mov	r2, r4
 8002b9a:	462b      	mov	r3, r5
 8002b9c:	f004 f946 	bl	8006e2c <__aeabi_dcmpeq>
 8002ba0:	2800      	cmp	r0, #0
 8002ba2:	f43f ab7c 	beq.w	800229e <_dtoa_r+0x546>
 8002ba6:	f018 0f01 	tst.w	r8, #1
 8002baa:	f43f ab78 	beq.w	800229e <_dtoa_r+0x546>
 8002bae:	9909      	ldr	r1, [sp, #36]	; 0x24
 8002bb0:	f817 ac01 	ldrb.w	sl, [r7, #-1]
 8002bb4:	9a0d      	ldr	r2, [sp, #52]	; 0x34
 8002bb6:	911b      	str	r1, [sp, #108]	; 0x6c
 8002bb8:	f7ff bab5 	b.w	8002126 <_dtoa_r+0x3ce>
 8002bbc:	f8da 1004 	ldr.w	r1, [sl, #4]
 8002bc0:	4630      	mov	r0, r6
 8002bc2:	f001 f8a1 	bl	8003d08 <_Balloc>
 8002bc6:	f8da 3010 	ldr.w	r3, [sl, #16]
 8002bca:	f10a 010c 	add.w	r1, sl, #12
 8002bce:	1c9a      	adds	r2, r3, #2
 8002bd0:	0092      	lsls	r2, r2, #2
 8002bd2:	4604      	mov	r4, r0
 8002bd4:	300c      	adds	r0, #12
 8002bd6:	f000 ff73 	bl	8003ac0 <memcpy>
 8002bda:	4630      	mov	r0, r6
 8002bdc:	4621      	mov	r1, r4
 8002bde:	2201      	movs	r2, #1
 8002be0:	f001 faba 	bl	8004158 <__lshift>
 8002be4:	4681      	mov	r9, r0
 8002be6:	e6a2      	b.n	800292e <_dtoa_r+0xbd6>
 8002be8:	3201      	adds	r2, #1
 8002bea:	701a      	strb	r2, [r3, #0]
 8002bec:	f7ff bb47 	b.w	800227e <_dtoa_r+0x526>
 8002bf0:	9b1c      	ldr	r3, [sp, #112]	; 0x70
 8002bf2:	9d11      	ldr	r5, [sp, #68]	; 0x44
 8002bf4:	9c10      	ldr	r4, [sp, #64]	; 0x40
 8002bf6:	f1c3 0336 	rsb	r3, r3, #54	; 0x36
 8002bfa:	f7ff bbad 	b.w	8002358 <_dtoa_r+0x600>
 8002bfe:	9d04      	ldr	r5, [sp, #16]
 8002c00:	f7ff baeb 	b.w	80021da <_dtoa_r+0x482>
 8002c04:	f8dd c010 	ldr.w	ip, [sp, #16]
 8002c08:	f1bc 0f39 	cmp.w	ip, #57	; 0x39
 8002c0c:	d00b      	beq.n	8002c26 <_dtoa_r+0xece>
 8002c0e:	9f0b      	ldr	r7, [sp, #44]	; 0x2c
 8002c10:	f10c 0c01 	add.w	ip, ip, #1
 8002c14:	46ca      	mov	sl, r9
 8002c16:	f807 cb01 	strb.w	ip, [r7], #1
 8002c1a:	f7ff bb30 	b.w	800227e <_dtoa_r+0x526>
 8002c1e:	f8dd c010 	ldr.w	ip, [sp, #16]
 8002c22:	46ca      	mov	sl, r9
 8002c24:	e556      	b.n	80026d4 <_dtoa_r+0x97c>
 8002c26:	9f0b      	ldr	r7, [sp, #44]	; 0x2c
 8002c28:	2339      	movs	r3, #57	; 0x39
 8002c2a:	46ca      	mov	sl, r9
 8002c2c:	461a      	mov	r2, r3
 8002c2e:	990d      	ldr	r1, [sp, #52]	; 0x34
 8002c30:	f807 3b01 	strb.w	r3, [r7], #1
 8002c34:	e565      	b.n	8002702 <_dtoa_r+0x9aa>
 8002c36:	f8dd c010 	ldr.w	ip, [sp, #16]
 8002c3a:	f1bc 0f39 	cmp.w	ip, #57	; 0x39
 8002c3e:	d0f2      	beq.n	8002c26 <_dtoa_r+0xece>
 8002c40:	f1ba 0f00 	cmp.w	sl, #0
 8002c44:	bfc8      	it	gt
 8002c46:	f107 0c31 	addgt.w	ip, r7, #49	; 0x31
 8002c4a:	e775      	b.n	8002b38 <_dtoa_r+0xde0>
 8002c4c:	f04f 0802 	mov.w	r8, #2
 8002c50:	e40f      	b.n	8002472 <_dtoa_r+0x71a>
 8002c52:	f47f af71 	bne.w	8002b38 <_dtoa_r+0xde0>
 8002c56:	f01c 0f01 	tst.w	ip, #1
 8002c5a:	f43f af6d 	beq.w	8002b38 <_dtoa_r+0xde0>
 8002c5e:	e767      	b.n	8002b30 <_dtoa_r+0xdd8>
 8002c60:	9a0d      	ldr	r2, [sp, #52]	; 0x34
 8002c62:	f7ff ba60 	b.w	8002126 <_dtoa_r+0x3ce>
 8002c66:	9b1b      	ldr	r3, [sp, #108]	; 0x6c
 8002c68:	9309      	str	r3, [sp, #36]	; 0x24
 8002c6a:	f7ff bb18 	b.w	800229e <_dtoa_r+0x546>
 8002c6e:	9915      	ldr	r1, [sp, #84]	; 0x54
 8002c70:	910c      	str	r1, [sp, #48]	; 0x30
 8002c72:	f7ff baeb 	b.w	800224c <_dtoa_r+0x4f4>
 8002c76:	f43f aac8 	beq.w	800220a <_dtoa_r+0x4b2>
 8002c7a:	f1c3 033c 	rsb	r3, r3, #60	; 0x3c
 8002c7e:	e54e      	b.n	800271e <_dtoa_r+0x9c6>
 8002c80:	920c      	str	r2, [sp, #48]	; 0x30
 8002c82:	f7ff bae3 	b.w	800224c <_dtoa_r+0x4f4>
 8002c86:	bf00      	nop

08002c88 <_fflush_r>:
 8002c88:	690b      	ldr	r3, [r1, #16]
 8002c8a:	e92d 41f0 	stmdb	sp!, {r4, r5, r6, r7, r8, lr}
 8002c8e:	460c      	mov	r4, r1
 8002c90:	4680      	mov	r8, r0
 8002c92:	2b00      	cmp	r3, #0
 8002c94:	d03d      	beq.n	8002d12 <_fflush_r+0x8a>
 8002c96:	b110      	cbz	r0, 8002c9e <_fflush_r+0x16>
 8002c98:	6983      	ldr	r3, [r0, #24]
 8002c9a:	2b00      	cmp	r3, #0
 8002c9c:	d07d      	beq.n	8002d9a <_fflush_r+0x112>
 8002c9e:	f248 3378 	movw	r3, #33656	; 0x8378
 8002ca2:	f6c0 0300 	movt	r3, #2048	; 0x800
 8002ca6:	429c      	cmp	r4, r3
 8002ca8:	bf08      	it	eq
 8002caa:	f8d8 4004 	ldreq.w	r4, [r8, #4]
 8002cae:	d010      	beq.n	8002cd2 <_fflush_r+0x4a>
 8002cb0:	f248 3358 	movw	r3, #33624	; 0x8358
 8002cb4:	f6c0 0300 	movt	r3, #2048	; 0x800
 8002cb8:	429c      	cmp	r4, r3
 8002cba:	bf08      	it	eq
 8002cbc:	f8d8 4008 	ldreq.w	r4, [r8, #8]
 8002cc0:	d007      	beq.n	8002cd2 <_fflush_r+0x4a>
 8002cc2:	f248 3338 	movw	r3, #33592	; 0x8338
 8002cc6:	f6c0 0300 	movt	r3, #2048	; 0x800
 8002cca:	429c      	cmp	r4, r3
 8002ccc:	bf08      	it	eq
 8002cce:	f8d8 400c 	ldreq.w	r4, [r8, #12]
 8002cd2:	89a3      	ldrh	r3, [r4, #12]
 8002cd4:	b1eb      	cbz	r3, 8002d12 <_fflush_r+0x8a>
 8002cd6:	f003 0208 	and.w	r2, r3, #8
 8002cda:	b212      	sxth	r2, r2
 8002cdc:	b1e2      	cbz	r2, 8002d18 <_fflush_r+0x90>
 8002cde:	6926      	ldr	r6, [r4, #16]
 8002ce0:	b1be      	cbz	r6, 8002d12 <_fflush_r+0x8a>
 8002ce2:	079b      	lsls	r3, r3, #30
 8002ce4:	6825      	ldr	r5, [r4, #0]
 8002ce6:	6026      	str	r6, [r4, #0]
 8002ce8:	bf08      	it	eq
 8002cea:	6963      	ldreq	r3, [r4, #20]
 8002cec:	ebc6 0505 	rsb	r5, r6, r5
 8002cf0:	bf18      	it	ne
 8002cf2:	2300      	movne	r3, #0
 8002cf4:	60a3      	str	r3, [r4, #8]
 8002cf6:	e00a      	b.n	8002d0e <_fflush_r+0x86>
 8002cf8:	4632      	mov	r2, r6
 8002cfa:	462b      	mov	r3, r5
 8002cfc:	6aa7      	ldr	r7, [r4, #40]	; 0x28
 8002cfe:	4640      	mov	r0, r8
 8002d00:	6a21      	ldr	r1, [r4, #32]
 8002d02:	47b8      	blx	r7
 8002d04:	2800      	cmp	r0, #0
 8002d06:	ebc0 0505 	rsb	r5, r0, r5
 8002d0a:	4406      	add	r6, r0
 8002d0c:	dd53      	ble.n	8002db6 <_fflush_r+0x12e>
 8002d0e:	2d00      	cmp	r5, #0
 8002d10:	dcf2      	bgt.n	8002cf8 <_fflush_r+0x70>
 8002d12:	2000      	movs	r0, #0
 8002d14:	e8bd 81f0 	ldmia.w	sp!, {r4, r5, r6, r7, r8, pc}
 8002d18:	6862      	ldr	r2, [r4, #4]
 8002d1a:	f443 6100 	orr.w	r1, r3, #2048	; 0x800
 8002d1e:	81a1      	strh	r1, [r4, #12]
 8002d20:	2a00      	cmp	r2, #0
 8002d22:	dd6b      	ble.n	8002dfc <_fflush_r+0x174>
 8002d24:	6ae5      	ldr	r5, [r4, #44]	; 0x2c
 8002d26:	2d00      	cmp	r5, #0
 8002d28:	d0f3      	beq.n	8002d12 <_fflush_r+0x8a>
 8002d2a:	f403 5380 	and.w	r3, r3, #4096	; 0x1000
 8002d2e:	f8d8 6000 	ldr.w	r6, [r8]
 8002d32:	2200      	movs	r2, #0
 8002d34:	f8c8 2000 	str.w	r2, [r8]
 8002d38:	b21f      	sxth	r7, r3
 8002d3a:	2f00      	cmp	r7, #0
 8002d3c:	d030      	beq.n	8002da0 <_fflush_r+0x118>
 8002d3e:	6d62      	ldr	r2, [r4, #84]	; 0x54
 8002d40:	f001 0104 	and.w	r1, r1, #4
 8002d44:	b209      	sxth	r1, r1
 8002d46:	b129      	cbz	r1, 8002d54 <_fflush_r+0xcc>
 8002d48:	6861      	ldr	r1, [r4, #4]
 8002d4a:	6b63      	ldr	r3, [r4, #52]	; 0x34
 8002d4c:	1a52      	subs	r2, r2, r1
 8002d4e:	b10b      	cbz	r3, 8002d54 <_fflush_r+0xcc>
 8002d50:	6c23      	ldr	r3, [r4, #64]	; 0x40
 8002d52:	1ad2      	subs	r2, r2, r3
 8002d54:	2300      	movs	r3, #0
 8002d56:	4640      	mov	r0, r8
 8002d58:	6a21      	ldr	r1, [r4, #32]
 8002d5a:	47a8      	blx	r5
 8002d5c:	1c42      	adds	r2, r0, #1
 8002d5e:	d032      	beq.n	8002dc6 <_fflush_r+0x13e>
 8002d60:	89a3      	ldrh	r3, [r4, #12]
 8002d62:	2500      	movs	r5, #0
 8002d64:	6922      	ldr	r2, [r4, #16]
 8002d66:	f403 5180 	and.w	r1, r3, #4096	; 0x1000
 8002d6a:	6065      	str	r5, [r4, #4]
 8002d6c:	f423 6300 	bic.w	r3, r3, #2048	; 0x800
 8002d70:	81a3      	strh	r3, [r4, #12]
 8002d72:	b209      	sxth	r1, r1
 8002d74:	6022      	str	r2, [r4, #0]
 8002d76:	2900      	cmp	r1, #0
 8002d78:	d13e      	bne.n	8002df8 <_fflush_r+0x170>
 8002d7a:	6b61      	ldr	r1, [r4, #52]	; 0x34
 8002d7c:	f8c8 6000 	str.w	r6, [r8]
 8002d80:	2900      	cmp	r1, #0
 8002d82:	d0c6      	beq.n	8002d12 <_fflush_r+0x8a>
 8002d84:	f104 0344 	add.w	r3, r4, #68	; 0x44
 8002d88:	4299      	cmp	r1, r3
 8002d8a:	d002      	beq.n	8002d92 <_fflush_r+0x10a>
 8002d8c:	4640      	mov	r0, r8
 8002d8e:	f000 f991 	bl	80030b4 <_free_r>
 8002d92:	2000      	movs	r0, #0
 8002d94:	6360      	str	r0, [r4, #52]	; 0x34
 8002d96:	e8bd 81f0 	ldmia.w	sp!, {r4, r5, r6, r7, r8, pc}
 8002d9a:	f000 f8a7 	bl	8002eec <__sinit>
 8002d9e:	e77e      	b.n	8002c9e <_fflush_r+0x16>
 8002da0:	6a21      	ldr	r1, [r4, #32]
 8002da2:	463a      	mov	r2, r7
 8002da4:	2301      	movs	r3, #1
 8002da6:	4640      	mov	r0, r8
 8002da8:	47a8      	blx	r5
 8002daa:	1c41      	adds	r1, r0, #1
 8002dac:	4602      	mov	r2, r0
 8002dae:	d029      	beq.n	8002e04 <_fflush_r+0x17c>
 8002db0:	89a1      	ldrh	r1, [r4, #12]
 8002db2:	6ae5      	ldr	r5, [r4, #44]	; 0x2c
 8002db4:	e7c4      	b.n	8002d40 <_fflush_r+0xb8>
 8002db6:	89a3      	ldrh	r3, [r4, #12]
 8002db8:	f04f 30ff 	mov.w	r0, #4294967295
 8002dbc:	f043 0340 	orr.w	r3, r3, #64	; 0x40
 8002dc0:	81a3      	strh	r3, [r4, #12]
 8002dc2:	e8bd 81f0 	ldmia.w	sp!, {r4, r5, r6, r7, r8, pc}
 8002dc6:	f8d8 7000 	ldr.w	r7, [r8]
 8002dca:	2f1d      	cmp	r7, #29
 8002dcc:	d8f3      	bhi.n	8002db6 <_fflush_r+0x12e>
 8002dce:	f44f 7301 	mov.w	r3, #516	; 0x204
 8002dd2:	f2c8 0300 	movt	r3, #32768	; 0x8000
 8002dd6:	40bb      	lsls	r3, r7
 8002dd8:	d5ed      	bpl.n	8002db6 <_fflush_r+0x12e>
 8002dda:	89a3      	ldrh	r3, [r4, #12]
 8002ddc:	2500      	movs	r5, #0
 8002dde:	6922      	ldr	r2, [r4, #16]
 8002de0:	f403 5180 	and.w	r1, r3, #4096	; 0x1000
 8002de4:	6065      	str	r5, [r4, #4]
 8002de6:	f423 6300 	bic.w	r3, r3, #2048	; 0x800
 8002dea:	81a3      	strh	r3, [r4, #12]
 8002dec:	b209      	sxth	r1, r1
 8002dee:	6022      	str	r2, [r4, #0]
 8002df0:	2900      	cmp	r1, #0
 8002df2:	d0c2      	beq.n	8002d7a <_fflush_r+0xf2>
 8002df4:	2f00      	cmp	r7, #0
 8002df6:	d1c0      	bne.n	8002d7a <_fflush_r+0xf2>
 8002df8:	6560      	str	r0, [r4, #84]	; 0x54
 8002dfa:	e7be      	b.n	8002d7a <_fflush_r+0xf2>
 8002dfc:	6c22      	ldr	r2, [r4, #64]	; 0x40
 8002dfe:	2a00      	cmp	r2, #0
 8002e00:	dc90      	bgt.n	8002d24 <_fflush_r+0x9c>
 8002e02:	e786      	b.n	8002d12 <_fflush_r+0x8a>
 8002e04:	f8d8 3000 	ldr.w	r3, [r8]
 8002e08:	2b00      	cmp	r3, #0
 8002e0a:	d0d1      	beq.n	8002db0 <_fflush_r+0x128>
 8002e0c:	2b1d      	cmp	r3, #29
 8002e0e:	bf18      	it	ne
 8002e10:	2b16      	cmpne	r3, #22
 8002e12:	d1d0      	bne.n	8002db6 <_fflush_r+0x12e>
 8002e14:	f8c8 6000 	str.w	r6, [r8]
 8002e18:	4638      	mov	r0, r7
 8002e1a:	e8bd 81f0 	ldmia.w	sp!, {r4, r5, r6, r7, r8, pc}
 8002e1e:	bf00      	nop

08002e20 <fflush>:
 8002e20:	b138      	cbz	r0, 8002e32 <fflush+0x12>
 8002e22:	f240 0300 	movw	r3, #0
 8002e26:	4601      	mov	r1, r0
 8002e28:	f2c2 0300 	movt	r3, #8192	; 0x2000
 8002e2c:	6818      	ldr	r0, [r3, #0]
 8002e2e:	f7ff bf2b 	b.w	8002c88 <_fflush_r>
 8002e32:	f248 3314 	movw	r3, #33556	; 0x8314
 8002e36:	f642 4189 	movw	r1, #11401	; 0x2c89
 8002e3a:	f6c0 0300 	movt	r3, #2048	; 0x800
 8002e3e:	f6c0 0100 	movt	r1, #2048	; 0x800
 8002e42:	6818      	ldr	r0, [r3, #0]
 8002e44:	f000 ba26 	b.w	8003294 <_fwalk_reent>

08002e48 <__fp_lock>:
 8002e48:	2000      	movs	r0, #0
 8002e4a:	4770      	bx	lr

08002e4c <__fp_unlock>:
 8002e4c:	2000      	movs	r0, #0
 8002e4e:	4770      	bx	lr

08002e50 <_cleanup_r>:
 8002e50:	f245 71d5 	movw	r1, #22485	; 0x57d5
 8002e54:	f6c0 0100 	movt	r1, #2048	; 0x800
 8002e58:	f000 b9f6 	b.w	8003248 <_fwalk>

08002e5c <std.isra.0>:
 8002e5c:	b510      	push	{r4, lr}
 8002e5e:	4604      	mov	r4, r0
 8002e60:	2300      	movs	r3, #0
 8002e62:	305c      	adds	r0, #92	; 0x5c
 8002e64:	81a1      	strh	r1, [r4, #12]
 8002e66:	4619      	mov	r1, r3
 8002e68:	81e2      	strh	r2, [r4, #14]
 8002e6a:	2208      	movs	r2, #8
 8002e6c:	6023      	str	r3, [r4, #0]
 8002e6e:	6063      	str	r3, [r4, #4]
 8002e70:	60a3      	str	r3, [r4, #8]
 8002e72:	6663      	str	r3, [r4, #100]	; 0x64
 8002e74:	6123      	str	r3, [r4, #16]
 8002e76:	6163      	str	r3, [r4, #20]
 8002e78:	61a3      	str	r3, [r4, #24]
 8002e7a:	f000 fedb 	bl	8003c34 <memset>
 8002e7e:	f244 6091 	movw	r0, #18065	; 0x4691
 8002e82:	f244 61b9 	movw	r1, #18105	; 0x46b9
 8002e86:	f244 62f5 	movw	r2, #18165	; 0x46f5
 8002e8a:	f244 7315 	movw	r3, #18197	; 0x4715
 8002e8e:	f6c0 0000 	movt	r0, #2048	; 0x800
 8002e92:	f6c0 0100 	movt	r1, #2048	; 0x800
 8002e96:	f6c0 0200 	movt	r2, #2048	; 0x800
 8002e9a:	f6c0 0300 	movt	r3, #2048	; 0x800
 8002e9e:	6224      	str	r4, [r4, #32]
 8002ea0:	6260      	str	r0, [r4, #36]	; 0x24
 8002ea2:	62a1      	str	r1, [r4, #40]	; 0x28
 8002ea4:	62e2      	str	r2, [r4, #44]	; 0x2c
 8002ea6:	6323      	str	r3, [r4, #48]	; 0x30
 8002ea8:	bd10      	pop	{r4, pc}
 8002eaa:	bf00      	nop

08002eac <__sfmoreglue>:
 8002eac:	b570      	push	{r4, r5, r6, lr}
 8002eae:	2568      	movs	r5, #104	; 0x68
 8002eb0:	460e      	mov	r6, r1
 8002eb2:	fb05 f501 	mul.w	r5, r5, r1
 8002eb6:	f105 010c 	add.w	r1, r5, #12
 8002eba:	f000 faeb 	bl	8003494 <_malloc_r>
 8002ebe:	4604      	mov	r4, r0
 8002ec0:	b148      	cbz	r0, 8002ed6 <__sfmoreglue+0x2a>
 8002ec2:	f100 030c 	add.w	r3, r0, #12
 8002ec6:	2100      	movs	r1, #0
 8002ec8:	6046      	str	r6, [r0, #4]
 8002eca:	462a      	mov	r2, r5
 8002ecc:	4618      	mov	r0, r3
 8002ece:	6021      	str	r1, [r4, #0]
 8002ed0:	60a3      	str	r3, [r4, #8]
 8002ed2:	f000 feaf 	bl	8003c34 <memset>
 8002ed6:	4620      	mov	r0, r4
 8002ed8:	bd70      	pop	{r4, r5, r6, pc}
 8002eda:	bf00      	nop

08002edc <_cleanup>:
 8002edc:	f248 3314 	movw	r3, #33556	; 0x8314
 8002ee0:	f6c0 0300 	movt	r3, #2048	; 0x800
 8002ee4:	6818      	ldr	r0, [r3, #0]
 8002ee6:	f7ff bfb3 	b.w	8002e50 <_cleanup_r>
 8002eea:	bf00      	nop

08002eec <__sinit>:
 8002eec:	b570      	push	{r4, r5, r6, lr}
 8002eee:	4604      	mov	r4, r0
 8002ef0:	6985      	ldr	r5, [r0, #24]
 8002ef2:	b105      	cbz	r5, 8002ef6 <__sinit+0xa>
 8002ef4:	bd70      	pop	{r4, r5, r6, pc}
 8002ef6:	f642 6351 	movw	r3, #11857	; 0x2e51
 8002efa:	2601      	movs	r6, #1
 8002efc:	f6c0 0300 	movt	r3, #2048	; 0x800
 8002f00:	6186      	str	r6, [r0, #24]
 8002f02:	6283      	str	r3, [r0, #40]	; 0x28
 8002f04:	f8c0 50d8 	str.w	r5, [r0, #216]	; 0xd8
 8002f08:	f8c0 50dc 	str.w	r5, [r0, #220]	; 0xdc
 8002f0c:	f8c0 50e0 	str.w	r5, [r0, #224]	; 0xe0
 8002f10:	f000 f81a 	bl	8002f48 <__sfp>
 8002f14:	6060      	str	r0, [r4, #4]
 8002f16:	4620      	mov	r0, r4
 8002f18:	f000 f816 	bl	8002f48 <__sfp>
 8002f1c:	60a0      	str	r0, [r4, #8]
 8002f1e:	4620      	mov	r0, r4
 8002f20:	f000 f812 	bl	8002f48 <__sfp>
 8002f24:	2104      	movs	r1, #4
 8002f26:	462a      	mov	r2, r5
 8002f28:	60e0      	str	r0, [r4, #12]
 8002f2a:	6860      	ldr	r0, [r4, #4]
 8002f2c:	f7ff ff96 	bl	8002e5c <std.isra.0>
 8002f30:	68a0      	ldr	r0, [r4, #8]
 8002f32:	2109      	movs	r1, #9
 8002f34:	4632      	mov	r2, r6
 8002f36:	f7ff ff91 	bl	8002e5c <std.isra.0>
 8002f3a:	68e0      	ldr	r0, [r4, #12]
 8002f3c:	2112      	movs	r1, #18
 8002f3e:	2202      	movs	r2, #2
 8002f40:	e8bd 4070 	ldmia.w	sp!, {r4, r5, r6, lr}
 8002f44:	f7ff bf8a 	b.w	8002e5c <std.isra.0>

08002f48 <__sfp>:
 8002f48:	f248 3314 	movw	r3, #33556	; 0x8314
 8002f4c:	f6c0 0300 	movt	r3, #2048	; 0x800
 8002f50:	b570      	push	{r4, r5, r6, lr}
 8002f52:	4606      	mov	r6, r0
 8002f54:	681d      	ldr	r5, [r3, #0]
 8002f56:	69ab      	ldr	r3, [r5, #24]
 8002f58:	2b00      	cmp	r3, #0
 8002f5a:	d02a      	beq.n	8002fb2 <__sfp+0x6a>
 8002f5c:	35d8      	adds	r5, #216	; 0xd8
 8002f5e:	686b      	ldr	r3, [r5, #4]
 8002f60:	68ac      	ldr	r4, [r5, #8]
 8002f62:	3b01      	subs	r3, #1
 8002f64:	d504      	bpl.n	8002f70 <__sfp+0x28>
 8002f66:	e020      	b.n	8002faa <__sfp+0x62>
 8002f68:	3b01      	subs	r3, #1
 8002f6a:	3468      	adds	r4, #104	; 0x68
 8002f6c:	1c5a      	adds	r2, r3, #1
 8002f6e:	d01c      	beq.n	8002faa <__sfp+0x62>
 8002f70:	f9b4 200c 	ldrsh.w	r2, [r4, #12]
 8002f74:	2a00      	cmp	r2, #0
 8002f76:	d1f7      	bne.n	8002f68 <__sfp+0x20>
 8002f78:	2500      	movs	r5, #0
 8002f7a:	f64f 73ff 	movw	r3, #65535	; 0xffff
 8002f7e:	f104 005c 	add.w	r0, r4, #92	; 0x5c
 8002f82:	81e3      	strh	r3, [r4, #14]
 8002f84:	6665      	str	r5, [r4, #100]	; 0x64
 8002f86:	2301      	movs	r3, #1
 8002f88:	4629      	mov	r1, r5
 8002f8a:	81a3      	strh	r3, [r4, #12]
 8002f8c:	6025      	str	r5, [r4, #0]
 8002f8e:	2208      	movs	r2, #8
 8002f90:	60a5      	str	r5, [r4, #8]
 8002f92:	6065      	str	r5, [r4, #4]
 8002f94:	6125      	str	r5, [r4, #16]
 8002f96:	6165      	str	r5, [r4, #20]
 8002f98:	61a5      	str	r5, [r4, #24]
 8002f9a:	f000 fe4b 	bl	8003c34 <memset>
 8002f9e:	6365      	str	r5, [r4, #52]	; 0x34
 8002fa0:	63a5      	str	r5, [r4, #56]	; 0x38
 8002fa2:	64a5      	str	r5, [r4, #72]	; 0x48
 8002fa4:	64e5      	str	r5, [r4, #76]	; 0x4c
 8002fa6:	4620      	mov	r0, r4
 8002fa8:	bd70      	pop	{r4, r5, r6, pc}
 8002faa:	6828      	ldr	r0, [r5, #0]
 8002fac:	b128      	cbz	r0, 8002fba <__sfp+0x72>
 8002fae:	4605      	mov	r5, r0
 8002fb0:	e7d5      	b.n	8002f5e <__sfp+0x16>
 8002fb2:	4628      	mov	r0, r5
 8002fb4:	f7ff ff9a 	bl	8002eec <__sinit>
 8002fb8:	e7d0      	b.n	8002f5c <__sfp+0x14>
 8002fba:	4630      	mov	r0, r6
 8002fbc:	2104      	movs	r1, #4
 8002fbe:	f7ff ff75 	bl	8002eac <__sfmoreglue>
 8002fc2:	6028      	str	r0, [r5, #0]
 8002fc4:	2800      	cmp	r0, #0
 8002fc6:	d1f2      	bne.n	8002fae <__sfp+0x66>
 8002fc8:	230c      	movs	r3, #12
 8002fca:	4604      	mov	r4, r0
 8002fcc:	6033      	str	r3, [r6, #0]
 8002fce:	e7ea      	b.n	8002fa6 <__sfp+0x5e>

08002fd0 <__sfp_lock_acquire>:
 8002fd0:	4770      	bx	lr
 8002fd2:	bf00      	nop

08002fd4 <__sfp_lock_release>:
 8002fd4:	4770      	bx	lr
 8002fd6:	bf00      	nop

08002fd8 <__sinit_lock_acquire>:
 8002fd8:	4770      	bx	lr
 8002fda:	bf00      	nop

08002fdc <__sinit_lock_release>:
 8002fdc:	4770      	bx	lr
 8002fde:	bf00      	nop

08002fe0 <__fp_lock_all>:
 8002fe0:	f240 0300 	movw	r3, #0
 8002fe4:	f642 6149 	movw	r1, #11849	; 0x2e49
 8002fe8:	f2c2 0300 	movt	r3, #8192	; 0x2000
 8002fec:	f6c0 0100 	movt	r1, #2048	; 0x800
 8002ff0:	6818      	ldr	r0, [r3, #0]
 8002ff2:	f000 b929 	b.w	8003248 <_fwalk>
 8002ff6:	bf00      	nop

08002ff8 <__fp_unlock_all>:
 8002ff8:	f240 0300 	movw	r3, #0
 8002ffc:	f642 614d 	movw	r1, #11853	; 0x2e4d
 8003000:	f2c2 0300 	movt	r3, #8192	; 0x2000
 8003004:	f6c0 0100 	movt	r1, #2048	; 0x800
 8003008:	6818      	ldr	r0, [r3, #0]
 800300a:	f000 b91d 	b.w	8003248 <_fwalk>
 800300e:	bf00      	nop

08003010 <_malloc_trim_r>:
 8003010:	b5f8      	push	{r3, r4, r5, r6, r7, lr}
 8003012:	f240 1470 	movw	r4, #368	; 0x170
 8003016:	f2c2 0400 	movt	r4, #8192	; 0x2000
 800301a:	460f      	mov	r7, r1
 800301c:	4605      	mov	r5, r0
 800301e:	f000 fe6f 	bl	8003d00 <__malloc_lock>
 8003022:	68a3      	ldr	r3, [r4, #8]
 8003024:	685e      	ldr	r6, [r3, #4]
 8003026:	f026 0603 	bic.w	r6, r6, #3
 800302a:	f606 73ef 	addw	r3, r6, #4079	; 0xfef
 800302e:	1bdf      	subs	r7, r3, r7
 8003030:	0b3f      	lsrs	r7, r7, #12
 8003032:	3f01      	subs	r7, #1
 8003034:	033f      	lsls	r7, r7, #12
 8003036:	f5b7 5f80 	cmp.w	r7, #4096	; 0x1000
 800303a:	db07      	blt.n	800304c <_malloc_trim_r+0x3c>
 800303c:	2100      	movs	r1, #0
 800303e:	4628      	mov	r0, r5
 8003040:	f001 fb12 	bl	8004668 <_sbrk_r>
 8003044:	68a3      	ldr	r3, [r4, #8]
 8003046:	199b      	adds	r3, r3, r6
 8003048:	4298      	cmp	r0, r3
 800304a:	d004      	beq.n	8003056 <_malloc_trim_r+0x46>
 800304c:	4628      	mov	r0, r5
 800304e:	f000 fe59 	bl	8003d04 <__malloc_unlock>
 8003052:	2000      	movs	r0, #0
 8003054:	bdf8      	pop	{r3, r4, r5, r6, r7, pc}
 8003056:	4279      	negs	r1, r7
 8003058:	4628      	mov	r0, r5
 800305a:	f001 fb05 	bl	8004668 <_sbrk_r>
 800305e:	3001      	adds	r0, #1
 8003060:	d010      	beq.n	8003084 <_malloc_trim_r+0x74>
 8003062:	f240 53b8 	movw	r3, #1464	; 0x5b8
 8003066:	68a1      	ldr	r1, [r4, #8]
 8003068:	f2c2 0300 	movt	r3, #8192	; 0x2000
 800306c:	1bf6      	subs	r6, r6, r7
 800306e:	4628      	mov	r0, r5
 8003070:	f046 0601 	orr.w	r6, r6, #1
 8003074:	681a      	ldr	r2, [r3, #0]
 8003076:	604e      	str	r6, [r1, #4]
 8003078:	1bd7      	subs	r7, r2, r7
 800307a:	601f      	str	r7, [r3, #0]
 800307c:	f000 fe42 	bl	8003d04 <__malloc_unlock>
 8003080:	2001      	movs	r0, #1
 8003082:	bdf8      	pop	{r3, r4, r5, r6, r7, pc}
 8003084:	2100      	movs	r1, #0
 8003086:	4628      	mov	r0, r5
 8003088:	f001 faee 	bl	8004668 <_sbrk_r>
 800308c:	68a3      	ldr	r3, [r4, #8]
 800308e:	1ac2      	subs	r2, r0, r3
 8003090:	2a0f      	cmp	r2, #15
 8003092:	dddb      	ble.n	800304c <_malloc_trim_r+0x3c>
 8003094:	f240 5478 	movw	r4, #1400	; 0x578
 8003098:	f240 51b8 	movw	r1, #1464	; 0x5b8
 800309c:	f2c2 0400 	movt	r4, #8192	; 0x2000
 80030a0:	f2c2 0100 	movt	r1, #8192	; 0x2000
 80030a4:	f042 0201 	orr.w	r2, r2, #1
 80030a8:	605a      	str	r2, [r3, #4]
 80030aa:	6823      	ldr	r3, [r4, #0]
 80030ac:	1ac0      	subs	r0, r0, r3
 80030ae:	6008      	str	r0, [r1, #0]
 80030b0:	e7cc      	b.n	800304c <_malloc_trim_r+0x3c>
 80030b2:	bf00      	nop

080030b4 <_free_r>:
 80030b4:	e92d 41f0 	stmdb	sp!, {r4, r5, r6, r7, r8, lr}
 80030b8:	460e      	mov	r6, r1
 80030ba:	4680      	mov	r8, r0
 80030bc:	2900      	cmp	r1, #0
 80030be:	d05c      	beq.n	800317a <_free_r+0xc6>
 80030c0:	f000 fe1e 	bl	8003d00 <__malloc_lock>
 80030c4:	f240 1570 	movw	r5, #368	; 0x170
 80030c8:	f856 1c04 	ldr.w	r1, [r6, #-4]
 80030cc:	f2c2 0500 	movt	r5, #8192	; 0x2000
 80030d0:	f1a6 0408 	sub.w	r4, r6, #8
 80030d4:	f021 0301 	bic.w	r3, r1, #1
 80030d8:	68af      	ldr	r7, [r5, #8]
 80030da:	18e2      	adds	r2, r4, r3
 80030dc:	4297      	cmp	r7, r2
 80030de:	6850      	ldr	r0, [r2, #4]
 80030e0:	f020 0003 	bic.w	r0, r0, #3
 80030e4:	d067      	beq.n	80031b6 <_free_r+0x102>
 80030e6:	f011 0101 	ands.w	r1, r1, #1
 80030ea:	6050      	str	r0, [r2, #4]
 80030ec:	d035      	beq.n	800315a <_free_r+0xa6>
 80030ee:	2100      	movs	r1, #0
 80030f0:	1816      	adds	r6, r2, r0
 80030f2:	6876      	ldr	r6, [r6, #4]
 80030f4:	f016 0f01 	tst.w	r6, #1
 80030f8:	d106      	bne.n	8003108 <_free_r+0x54>
 80030fa:	181b      	adds	r3, r3, r0
 80030fc:	6890      	ldr	r0, [r2, #8]
 80030fe:	2900      	cmp	r1, #0
 8003100:	d04d      	beq.n	800319e <_free_r+0xea>
 8003102:	68d2      	ldr	r2, [r2, #12]
 8003104:	60c2      	str	r2, [r0, #12]
 8003106:	6090      	str	r0, [r2, #8]
 8003108:	f043 0201 	orr.w	r2, r3, #1
 800310c:	50e3      	str	r3, [r4, r3]
 800310e:	6062      	str	r2, [r4, #4]
 8003110:	b9f1      	cbnz	r1, 8003150 <_free_r+0x9c>
 8003112:	f5b3 7f00 	cmp.w	r3, #512	; 0x200
 8003116:	d332      	bcc.n	800317e <_free_r+0xca>
 8003118:	0a5a      	lsrs	r2, r3, #9
 800311a:	2a04      	cmp	r2, #4
 800311c:	d86c      	bhi.n	80031f8 <_free_r+0x144>
 800311e:	0998      	lsrs	r0, r3, #6
 8003120:	3038      	adds	r0, #56	; 0x38
 8003122:	0041      	lsls	r1, r0, #1
 8003124:	eb05 0581 	add.w	r5, r5, r1, lsl #2
 8003128:	f240 1170 	movw	r1, #368	; 0x170
 800312c:	f2c2 0100 	movt	r1, #8192	; 0x2000
 8003130:	68aa      	ldr	r2, [r5, #8]
 8003132:	42aa      	cmp	r2, r5
 8003134:	d06b      	beq.n	800320e <_free_r+0x15a>
 8003136:	6851      	ldr	r1, [r2, #4]
 8003138:	f021 0103 	bic.w	r1, r1, #3
 800313c:	428b      	cmp	r3, r1
 800313e:	d202      	bcs.n	8003146 <_free_r+0x92>
 8003140:	6892      	ldr	r2, [r2, #8]
 8003142:	4295      	cmp	r5, r2
 8003144:	d1f7      	bne.n	8003136 <_free_r+0x82>
 8003146:	68d3      	ldr	r3, [r2, #12]
 8003148:	60e3      	str	r3, [r4, #12]
 800314a:	60a2      	str	r2, [r4, #8]
 800314c:	60d4      	str	r4, [r2, #12]
 800314e:	609c      	str	r4, [r3, #8]
 8003150:	4640      	mov	r0, r8
 8003152:	e8bd 41f0 	ldmia.w	sp!, {r4, r5, r6, r7, r8, lr}
 8003156:	f000 bdd5 	b.w	8003d04 <__malloc_unlock>
 800315a:	f856 6c08 	ldr.w	r6, [r6, #-8]
 800315e:	f105 0c08 	add.w	ip, r5, #8
 8003162:	1ba4      	subs	r4, r4, r6
 8003164:	199b      	adds	r3, r3, r6
 8003166:	68a6      	ldr	r6, [r4, #8]
 8003168:	4566      	cmp	r6, ip
 800316a:	d043      	beq.n	80031f4 <_free_r+0x140>
 800316c:	f8d4 c00c 	ldr.w	ip, [r4, #12]
 8003170:	f8c6 c00c 	str.w	ip, [r6, #12]
 8003174:	f8cc 6008 	str.w	r6, [ip, #8]
 8003178:	e7ba      	b.n	80030f0 <_free_r+0x3c>
 800317a:	e8bd 81f0 	ldmia.w	sp!, {r4, r5, r6, r7, r8, pc}
 800317e:	08db      	lsrs	r3, r3, #3
 8003180:	2101      	movs	r1, #1
 8003182:	6868      	ldr	r0, [r5, #4]
 8003184:	eb05 02c3 	add.w	r2, r5, r3, lsl #3
 8003188:	109b      	asrs	r3, r3, #2
 800318a:	fa01 f303 	lsl.w	r3, r1, r3
 800318e:	60e2      	str	r2, [r4, #12]
 8003190:	6891      	ldr	r1, [r2, #8]
 8003192:	4318      	orrs	r0, r3
 8003194:	6068      	str	r0, [r5, #4]
 8003196:	60a1      	str	r1, [r4, #8]
 8003198:	60cc      	str	r4, [r1, #12]
 800319a:	6094      	str	r4, [r2, #8]
 800319c:	e7d8      	b.n	8003150 <_free_r+0x9c>
 800319e:	4e29      	ldr	r6, [pc, #164]	; (8003244 <_free_r+0x190>)
 80031a0:	42b0      	cmp	r0, r6
 80031a2:	d1ae      	bne.n	8003102 <_free_r+0x4e>
 80031a4:	616c      	str	r4, [r5, #20]
 80031a6:	f043 0201 	orr.w	r2, r3, #1
 80031aa:	612c      	str	r4, [r5, #16]
 80031ac:	60e0      	str	r0, [r4, #12]
 80031ae:	60a0      	str	r0, [r4, #8]
 80031b0:	6062      	str	r2, [r4, #4]
 80031b2:	50e3      	str	r3, [r4, r3]
 80031b4:	e7cc      	b.n	8003150 <_free_r+0x9c>
 80031b6:	18c0      	adds	r0, r0, r3
 80031b8:	07cb      	lsls	r3, r1, #31
 80031ba:	d407      	bmi.n	80031cc <_free_r+0x118>
 80031bc:	f856 3c08 	ldr.w	r3, [r6, #-8]
 80031c0:	1ae4      	subs	r4, r4, r3
 80031c2:	18c0      	adds	r0, r0, r3
 80031c4:	68a2      	ldr	r2, [r4, #8]
 80031c6:	68e3      	ldr	r3, [r4, #12]
 80031c8:	60d3      	str	r3, [r2, #12]
 80031ca:	609a      	str	r2, [r3, #8]
 80031cc:	f240 527c 	movw	r2, #1404	; 0x57c
 80031d0:	f040 0301 	orr.w	r3, r0, #1
 80031d4:	f2c2 0200 	movt	r2, #8192	; 0x2000
 80031d8:	6063      	str	r3, [r4, #4]
 80031da:	60ac      	str	r4, [r5, #8]
 80031dc:	6813      	ldr	r3, [r2, #0]
 80031de:	4298      	cmp	r0, r3
 80031e0:	d3b6      	bcc.n	8003150 <_free_r+0x9c>
 80031e2:	f240 53b4 	movw	r3, #1460	; 0x5b4
 80031e6:	4640      	mov	r0, r8
 80031e8:	f2c2 0300 	movt	r3, #8192	; 0x2000
 80031ec:	6819      	ldr	r1, [r3, #0]
 80031ee:	f7ff ff0f 	bl	8003010 <_malloc_trim_r>
 80031f2:	e7ad      	b.n	8003150 <_free_r+0x9c>
 80031f4:	2101      	movs	r1, #1
 80031f6:	e77b      	b.n	80030f0 <_free_r+0x3c>
 80031f8:	f102 005b 	add.w	r0, r2, #91	; 0x5b
 80031fc:	0041      	lsls	r1, r0, #1
 80031fe:	2a14      	cmp	r2, #20
 8003200:	d990      	bls.n	8003124 <_free_r+0x70>
 8003202:	2a54      	cmp	r2, #84	; 0x54
 8003204:	d80c      	bhi.n	8003220 <_free_r+0x16c>
 8003206:	0b18      	lsrs	r0, r3, #12
 8003208:	306e      	adds	r0, #110	; 0x6e
 800320a:	0041      	lsls	r1, r0, #1
 800320c:	e78a      	b.n	8003124 <_free_r+0x70>
 800320e:	2601      	movs	r6, #1
 8003210:	684d      	ldr	r5, [r1, #4]
 8003212:	1080      	asrs	r0, r0, #2
 8003214:	4613      	mov	r3, r2
 8003216:	fa06 f000 	lsl.w	r0, r6, r0
 800321a:	4305      	orrs	r5, r0
 800321c:	604d      	str	r5, [r1, #4]
 800321e:	e793      	b.n	8003148 <_free_r+0x94>
 8003220:	f5b2 7faa 	cmp.w	r2, #340	; 0x154
 8003224:	d803      	bhi.n	800322e <_free_r+0x17a>
 8003226:	0bd8      	lsrs	r0, r3, #15
 8003228:	3077      	adds	r0, #119	; 0x77
 800322a:	0041      	lsls	r1, r0, #1
 800322c:	e77a      	b.n	8003124 <_free_r+0x70>
 800322e:	f240 5154 	movw	r1, #1364	; 0x554
 8003232:	428a      	cmp	r2, r1
 8003234:	d803      	bhi.n	800323e <_free_r+0x18a>
 8003236:	0c98      	lsrs	r0, r3, #18
 8003238:	307c      	adds	r0, #124	; 0x7c
 800323a:	0041      	lsls	r1, r0, #1
 800323c:	e772      	b.n	8003124 <_free_r+0x70>
 800323e:	21fc      	movs	r1, #252	; 0xfc
 8003240:	207e      	movs	r0, #126	; 0x7e
 8003242:	e76f      	b.n	8003124 <_free_r+0x70>
 8003244:	20000178 	.word	0x20000178

08003248 <_fwalk>:
 8003248:	e92d 41f0 	stmdb	sp!, {r4, r5, r6, r7, r8, lr}
 800324c:	4606      	mov	r6, r0
 800324e:	4688      	mov	r8, r1
 8003250:	f7ff febe 	bl	8002fd0 <__sfp_lock_acquire>
 8003254:	36d8      	adds	r6, #216	; 0xd8
 8003256:	d01a      	beq.n	800328e <_fwalk+0x46>
 8003258:	2700      	movs	r7, #0
 800325a:	6875      	ldr	r5, [r6, #4]
 800325c:	68b4      	ldr	r4, [r6, #8]
 800325e:	3d01      	subs	r5, #1
 8003260:	d40d      	bmi.n	800327e <_fwalk+0x36>
 8003262:	f9b4 300c 	ldrsh.w	r3, [r4, #12]
 8003266:	3d01      	subs	r5, #1
 8003268:	b133      	cbz	r3, 8003278 <_fwalk+0x30>
 800326a:	f9b4 300e 	ldrsh.w	r3, [r4, #14]
 800326e:	4620      	mov	r0, r4
 8003270:	3301      	adds	r3, #1
 8003272:	d001      	beq.n	8003278 <_fwalk+0x30>
 8003274:	47c0      	blx	r8
 8003276:	4307      	orrs	r7, r0
 8003278:	3468      	adds	r4, #104	; 0x68
 800327a:	1c6b      	adds	r3, r5, #1
 800327c:	d1f1      	bne.n	8003262 <_fwalk+0x1a>
 800327e:	6836      	ldr	r6, [r6, #0]
 8003280:	2e00      	cmp	r6, #0
 8003282:	d1ea      	bne.n	800325a <_fwalk+0x12>
 8003284:	f7ff fea6 	bl	8002fd4 <__sfp_lock_release>
 8003288:	4638      	mov	r0, r7
 800328a:	e8bd 81f0 	ldmia.w	sp!, {r4, r5, r6, r7, r8, pc}
 800328e:	4637      	mov	r7, r6
 8003290:	e7f8      	b.n	8003284 <_fwalk+0x3c>
 8003292:	bf00      	nop

08003294 <_fwalk_reent>:
 8003294:	e92d 43f8 	stmdb	sp!, {r3, r4, r5, r6, r7, r8, r9, lr}
 8003298:	4607      	mov	r7, r0
 800329a:	4688      	mov	r8, r1
 800329c:	f7ff fe98 	bl	8002fd0 <__sfp_lock_acquire>
 80032a0:	f117 06d8 	adds.w	r6, r7, #216	; 0xd8
 80032a4:	d01d      	beq.n	80032e2 <_fwalk_reent+0x4e>
 80032a6:	f04f 0900 	mov.w	r9, #0
 80032aa:	6875      	ldr	r5, [r6, #4]
 80032ac:	68b4      	ldr	r4, [r6, #8]
 80032ae:	3d01      	subs	r5, #1
 80032b0:	d40f      	bmi.n	80032d2 <_fwalk_reent+0x3e>
 80032b2:	f9b4 300c 	ldrsh.w	r3, [r4, #12]
 80032b6:	3d01      	subs	r5, #1
 80032b8:	b143      	cbz	r3, 80032cc <_fwalk_reent+0x38>
 80032ba:	f9b4 300e 	ldrsh.w	r3, [r4, #14]
 80032be:	4621      	mov	r1, r4
 80032c0:	4638      	mov	r0, r7
 80032c2:	3301      	adds	r3, #1
 80032c4:	d002      	beq.n	80032cc <_fwalk_reent+0x38>
 80032c6:	47c0      	blx	r8
 80032c8:	ea49 0900 	orr.w	r9, r9, r0
 80032cc:	3468      	adds	r4, #104	; 0x68
 80032ce:	1c6a      	adds	r2, r5, #1
 80032d0:	d1ef      	bne.n	80032b2 <_fwalk_reent+0x1e>
 80032d2:	6836      	ldr	r6, [r6, #0]
 80032d4:	2e00      	cmp	r6, #0
 80032d6:	d1e8      	bne.n	80032aa <_fwalk_reent+0x16>
 80032d8:	f7ff fe7c 	bl	8002fd4 <__sfp_lock_release>
 80032dc:	4648      	mov	r0, r9
 80032de:	e8bd 83f8 	ldmia.w	sp!, {r3, r4, r5, r6, r7, r8, r9, pc}
 80032e2:	46b1      	mov	r9, r6
 80032e4:	e7f8      	b.n	80032d8 <_fwalk_reent+0x44>
 80032e6:	bf00      	nop

080032e8 <_setlocale_r>:
 80032e8:	b510      	push	{r4, lr}
 80032ea:	4614      	mov	r4, r2
 80032ec:	b13a      	cbz	r2, 80032fe <_setlocale_r+0x16>
 80032ee:	f248 5138 	movw	r1, #34104	; 0x8538
 80032f2:	4610      	mov	r0, r2
 80032f4:	f6c0 0100 	movt	r1, #2048	; 0x800
 80032f8:	f001 fa10 	bl	800471c <strcmp>
 80032fc:	b920      	cbnz	r0, 8003308 <_setlocale_r+0x20>
 80032fe:	f248 40e0 	movw	r0, #34016	; 0x84e0
 8003302:	f6c0 0000 	movt	r0, #2048	; 0x800
 8003306:	bd10      	pop	{r4, pc}
 8003308:	f248 41e0 	movw	r1, #34016	; 0x84e0
 800330c:	4620      	mov	r0, r4
 800330e:	f6c0 0100 	movt	r1, #2048	; 0x800
 8003312:	f001 fa03 	bl	800471c <strcmp>
 8003316:	2800      	cmp	r0, #0
 8003318:	d0f1      	beq.n	80032fe <_setlocale_r+0x16>
 800331a:	f248 5104 	movw	r1, #34052	; 0x8504
 800331e:	4620      	mov	r0, r4
 8003320:	f6c0 0100 	movt	r1, #2048	; 0x800
 8003324:	f001 f9fa 	bl	800471c <strcmp>
 8003328:	f248 43e0 	movw	r3, #34016	; 0x84e0
 800332c:	f6c0 0300 	movt	r3, #2048	; 0x800
 8003330:	2800      	cmp	r0, #0
 8003332:	bf0c      	ite	eq
 8003334:	4618      	moveq	r0, r3
 8003336:	2000      	movne	r0, #0
 8003338:	bd10      	pop	{r4, pc}
 800333a:	bf00      	nop

0800333c <__locale_charset>:
 800333c:	f240 00f4 	movw	r0, #244	; 0xf4
 8003340:	f2c2 0000 	movt	r0, #8192	; 0x2000
 8003344:	4770      	bx	lr
 8003346:	bf00      	nop

08003348 <__locale_mb_cur_max>:
 8003348:	f240 03f4 	movw	r3, #244	; 0xf4
 800334c:	f2c2 0300 	movt	r3, #8192	; 0x2000
 8003350:	6a18      	ldr	r0, [r3, #32]
 8003352:	4770      	bx	lr

08003354 <__locale_msgcharset>:
 8003354:	4800      	ldr	r0, [pc, #0]	; (8003358 <__locale_msgcharset+0x4>)
 8003356:	4770      	bx	lr
 8003358:	20000118 	.word	0x20000118

0800335c <__locale_cjk_lang>:
 800335c:	2000      	movs	r0, #0
 800335e:	4770      	bx	lr

08003360 <_localeconv_r>:
 8003360:	4800      	ldr	r0, [pc, #0]	; (8003364 <_localeconv_r+0x4>)
 8003362:	4770      	bx	lr
 8003364:	20000138 	.word	0x20000138

08003368 <setlocale>:
 8003368:	f240 0300 	movw	r3, #0
 800336c:	460a      	mov	r2, r1
 800336e:	f2c2 0300 	movt	r3, #8192	; 0x2000
 8003372:	4601      	mov	r1, r0
 8003374:	6818      	ldr	r0, [r3, #0]
 8003376:	f7ff bfb7 	b.w	80032e8 <_setlocale_r>
 800337a:	bf00      	nop

0800337c <localeconv>:
 800337c:	4800      	ldr	r0, [pc, #0]	; (8003380 <localeconv+0x4>)
 800337e:	4770      	bx	lr
 8003380:	20000138 	.word	0x20000138

08003384 <__smakebuf_r>:
 8003384:	898b      	ldrh	r3, [r1, #12]
 8003386:	b5f0      	push	{r4, r5, r6, r7, lr}
 8003388:	f003 0202 	and.w	r2, r3, #2
 800338c:	b091      	sub	sp, #68	; 0x44
 800338e:	460c      	mov	r4, r1
 8003390:	b212      	sxth	r2, r2
 8003392:	4605      	mov	r5, r0
 8003394:	2a00      	cmp	r2, #0
 8003396:	d13b      	bne.n	8003410 <__smakebuf_r+0x8c>
 8003398:	f9b1 100e 	ldrsh.w	r1, [r1, #14]
 800339c:	2900      	cmp	r1, #0
 800339e:	db16      	blt.n	80033ce <__smakebuf_r+0x4a>
 80033a0:	aa01      	add	r2, sp, #4
 80033a2:	f002 fab5 	bl	8005910 <_fstat_r>
 80033a6:	2800      	cmp	r0, #0
 80033a8:	db10      	blt.n	80033cc <__smakebuf_r+0x48>
 80033aa:	9b02      	ldr	r3, [sp, #8]
 80033ac:	f403 4370 	and.w	r3, r3, #61440	; 0xf000
 80033b0:	f5b3 5200 	subs.w	r2, r3, #8192	; 0x2000
 80033b4:	4257      	negs	r7, r2
 80033b6:	4157      	adcs	r7, r2
 80033b8:	f5b3 4f00 	cmp.w	r3, #32768	; 0x8000
 80033bc:	d02f      	beq.n	800341e <__smakebuf_r+0x9a>
 80033be:	89a3      	ldrh	r3, [r4, #12]
 80033c0:	f44f 6680 	mov.w	r6, #1024	; 0x400
 80033c4:	f443 6300 	orr.w	r3, r3, #2048	; 0x800
 80033c8:	81a3      	strh	r3, [r4, #12]
 80033ca:	e00c      	b.n	80033e6 <__smakebuf_r+0x62>
 80033cc:	89a3      	ldrh	r3, [r4, #12]
 80033ce:	f003 0680 	and.w	r6, r3, #128	; 0x80
 80033d2:	2700      	movs	r7, #0
 80033d4:	f443 6300 	orr.w	r3, r3, #2048	; 0x800
 80033d8:	81a3      	strh	r3, [r4, #12]
 80033da:	b236      	sxth	r6, r6
 80033dc:	42be      	cmp	r6, r7
 80033de:	bf0c      	ite	eq
 80033e0:	f44f 6680 	moveq.w	r6, #1024	; 0x400
 80033e4:	2640      	movne	r6, #64	; 0x40
 80033e6:	4628      	mov	r0, r5
 80033e8:	4631      	mov	r1, r6
 80033ea:	f000 f853 	bl	8003494 <_malloc_r>
 80033ee:	2800      	cmp	r0, #0
 80033f0:	d030      	beq.n	8003454 <__smakebuf_r+0xd0>
 80033f2:	89a2      	ldrh	r2, [r4, #12]
 80033f4:	f642 6351 	movw	r3, #11857	; 0x2e51
 80033f8:	f6c0 0300 	movt	r3, #2048	; 0x800
 80033fc:	62ab      	str	r3, [r5, #40]	; 0x28
 80033fe:	f042 0380 	orr.w	r3, r2, #128	; 0x80
 8003402:	6020      	str	r0, [r4, #0]
 8003404:	81a3      	strh	r3, [r4, #12]
 8003406:	6120      	str	r0, [r4, #16]
 8003408:	6166      	str	r6, [r4, #20]
 800340a:	b9bf      	cbnz	r7, 800343c <__smakebuf_r+0xb8>
 800340c:	b011      	add	sp, #68	; 0x44
 800340e:	bdf0      	pop	{r4, r5, r6, r7, pc}
 8003410:	f101 0347 	add.w	r3, r1, #71	; 0x47
 8003414:	600b      	str	r3, [r1, #0]
 8003416:	610b      	str	r3, [r1, #16]
 8003418:	2301      	movs	r3, #1
 800341a:	614b      	str	r3, [r1, #20]
 800341c:	e7f6      	b.n	800340c <__smakebuf_r+0x88>
 800341e:	f244 63f5 	movw	r3, #18165	; 0x46f5
 8003422:	6ae2      	ldr	r2, [r4, #44]	; 0x2c
 8003424:	f6c0 0300 	movt	r3, #2048	; 0x800
 8003428:	429a      	cmp	r2, r3
 800342a:	d1c8      	bne.n	80033be <__smakebuf_r+0x3a>
 800342c:	89a2      	ldrh	r2, [r4, #12]
 800342e:	f44f 6380 	mov.w	r3, #1024	; 0x400
 8003432:	461e      	mov	r6, r3
 8003434:	6523      	str	r3, [r4, #80]	; 0x50
 8003436:	4313      	orrs	r3, r2
 8003438:	81a3      	strh	r3, [r4, #12]
 800343a:	e7d4      	b.n	80033e6 <__smakebuf_r+0x62>
 800343c:	4628      	mov	r0, r5
 800343e:	f9b4 100e 	ldrsh.w	r1, [r4, #14]
 8003442:	f002 fc07 	bl	8005c54 <_isatty_r>
 8003446:	2800      	cmp	r0, #0
 8003448:	d0e0      	beq.n	800340c <__smakebuf_r+0x88>
 800344a:	89a3      	ldrh	r3, [r4, #12]
 800344c:	f043 0301 	orr.w	r3, r3, #1
 8003450:	81a3      	strh	r3, [r4, #12]
 8003452:	e7db      	b.n	800340c <__smakebuf_r+0x88>
 8003454:	89a3      	ldrh	r3, [r4, #12]
 8003456:	f403 7200 	and.w	r2, r3, #512	; 0x200
 800345a:	b212      	sxth	r2, r2
 800345c:	2a00      	cmp	r2, #0
 800345e:	d1d5      	bne.n	800340c <__smakebuf_r+0x88>
 8003460:	f104 0247 	add.w	r2, r4, #71	; 0x47
 8003464:	f043 0302 	orr.w	r3, r3, #2
 8003468:	6022      	str	r2, [r4, #0]
 800346a:	81a3      	strh	r3, [r4, #12]
 800346c:	2301      	movs	r3, #1
 800346e:	6122      	str	r2, [r4, #16]
 8003470:	6163      	str	r3, [r4, #20]
 8003472:	e7cb      	b.n	800340c <__smakebuf_r+0x88>

08003474 <malloc>:
 8003474:	f240 0300 	movw	r3, #0
 8003478:	4601      	mov	r1, r0
 800347a:	f2c2 0300 	movt	r3, #8192	; 0x2000
 800347e:	6818      	ldr	r0, [r3, #0]
 8003480:	f000 b808 	b.w	8003494 <_malloc_r>

08003484 <free>:
 8003484:	f240 0300 	movw	r3, #0
 8003488:	4601      	mov	r1, r0
 800348a:	f2c2 0300 	movt	r3, #8192	; 0x2000
 800348e:	6818      	ldr	r0, [r3, #0]
 8003490:	f7ff be10 	b.w	80030b4 <_free_r>

08003494 <_malloc_r>:
 8003494:	e92d 4ff0 	stmdb	sp!, {r4, r5, r6, r7, r8, r9, sl, fp, lr}
 8003498:	f101 040b 	add.w	r4, r1, #11
 800349c:	2c16      	cmp	r4, #22
 800349e:	b083      	sub	sp, #12
 80034a0:	4607      	mov	r7, r0
 80034a2:	d930      	bls.n	8003506 <_malloc_r+0x72>
 80034a4:	f024 0407 	bic.w	r4, r4, #7
 80034a8:	0fe3      	lsrs	r3, r4, #31
 80034aa:	428c      	cmp	r4, r1
 80034ac:	bf2c      	ite	cs
 80034ae:	4619      	movcs	r1, r3
 80034b0:	f043 0101 	orrcc.w	r1, r3, #1
 80034b4:	2900      	cmp	r1, #0
 80034b6:	d12f      	bne.n	8003518 <_malloc_r+0x84>
 80034b8:	4638      	mov	r0, r7
 80034ba:	f000 fc21 	bl	8003d00 <__malloc_lock>
 80034be:	f5b4 7ffc 	cmp.w	r4, #504	; 0x1f8
 80034c2:	d22e      	bcs.n	8003522 <_malloc_r+0x8e>
 80034c4:	ea4f 0cd4 	mov.w	ip, r4, lsr #3
 80034c8:	f240 1670 	movw	r6, #368	; 0x170
 80034cc:	f2c2 0600 	movt	r6, #8192	; 0x2000
 80034d0:	eb06 02cc 	add.w	r2, r6, ip, lsl #3
 80034d4:	68d3      	ldr	r3, [r2, #12]
 80034d6:	4293      	cmp	r3, r2
 80034d8:	f000 8211 	beq.w	80038fe <_malloc_r+0x46a>
 80034dc:	6859      	ldr	r1, [r3, #4]
 80034de:	f103 0808 	add.w	r8, r3, #8
 80034e2:	68da      	ldr	r2, [r3, #12]
 80034e4:	4638      	mov	r0, r7
 80034e6:	f021 0403 	bic.w	r4, r1, #3
 80034ea:	6899      	ldr	r1, [r3, #8]
 80034ec:	191b      	adds	r3, r3, r4
 80034ee:	685c      	ldr	r4, [r3, #4]
 80034f0:	60ca      	str	r2, [r1, #12]
 80034f2:	f044 0401 	orr.w	r4, r4, #1
 80034f6:	6091      	str	r1, [r2, #8]
 80034f8:	605c      	str	r4, [r3, #4]
 80034fa:	f000 fc03 	bl	8003d04 <__malloc_unlock>
 80034fe:	4640      	mov	r0, r8
 8003500:	b003      	add	sp, #12
 8003502:	e8bd 8ff0 	ldmia.w	sp!, {r4, r5, r6, r7, r8, r9, sl, fp, pc}
 8003506:	2300      	movs	r3, #0
 8003508:	2410      	movs	r4, #16
 800350a:	428c      	cmp	r4, r1
 800350c:	bf2c      	ite	cs
 800350e:	4619      	movcs	r1, r3
 8003510:	f043 0101 	orrcc.w	r1, r3, #1
 8003514:	2900      	cmp	r1, #0
 8003516:	d0cf      	beq.n	80034b8 <_malloc_r+0x24>
 8003518:	230c      	movs	r3, #12
 800351a:	f04f 0800 	mov.w	r8, #0
 800351e:	603b      	str	r3, [r7, #0]
 8003520:	e7ed      	b.n	80034fe <_malloc_r+0x6a>
 8003522:	ea5f 2c54 	movs.w	ip, r4, lsr #9
 8003526:	bf04      	itt	eq
 8003528:	ea4f 0cd4 	moveq.w	ip, r4, lsr #3
 800352c:	ea4f 054c 	moveq.w	r5, ip, lsl #1
 8003530:	f040 808f 	bne.w	8003652 <_malloc_r+0x1be>
 8003534:	f240 1670 	movw	r6, #368	; 0x170
 8003538:	f2c2 0600 	movt	r6, #8192	; 0x2000
 800353c:	eb06 0585 	add.w	r5, r6, r5, lsl #2
 8003540:	68eb      	ldr	r3, [r5, #12]
 8003542:	429d      	cmp	r5, r3
 8003544:	d106      	bne.n	8003554 <_malloc_r+0xc0>
 8003546:	e00d      	b.n	8003564 <_malloc_r+0xd0>
 8003548:	2a00      	cmp	r2, #0
 800354a:	f280 8155 	bge.w	80037f8 <_malloc_r+0x364>
 800354e:	68db      	ldr	r3, [r3, #12]
 8003550:	429d      	cmp	r5, r3
 8003552:	d007      	beq.n	8003564 <_malloc_r+0xd0>
 8003554:	6859      	ldr	r1, [r3, #4]
 8003556:	f021 0103 	bic.w	r1, r1, #3
 800355a:	1b0a      	subs	r2, r1, r4
 800355c:	2a0f      	cmp	r2, #15
 800355e:	ddf3      	ble.n	8003548 <_malloc_r+0xb4>
 8003560:	f10c 3cff 	add.w	ip, ip, #4294967295
 8003564:	f10c 0c01 	add.w	ip, ip, #1
 8003568:	f240 1270 	movw	r2, #368	; 0x170
 800356c:	6933      	ldr	r3, [r6, #16]
 800356e:	f2c2 0200 	movt	r2, #8192	; 0x2000
 8003572:	f102 0e08 	add.w	lr, r2, #8
 8003576:	4573      	cmp	r3, lr
 8003578:	bf08      	it	eq
 800357a:	f8d2 9004 	ldreq.w	r9, [r2, #4]
 800357e:	d022      	beq.n	80035c6 <_malloc_r+0x132>
 8003580:	6858      	ldr	r0, [r3, #4]
 8003582:	f020 0003 	bic.w	r0, r0, #3
 8003586:	1b01      	subs	r1, r0, r4
 8003588:	290f      	cmp	r1, #15
 800358a:	f300 8184 	bgt.w	8003896 <_malloc_r+0x402>
 800358e:	2900      	cmp	r1, #0
 8003590:	f8c2 e014 	str.w	lr, [r2, #20]
 8003594:	f8c2 e010 	str.w	lr, [r2, #16]
 8003598:	da66      	bge.n	8003668 <_malloc_r+0x1d4>
 800359a:	f5b0 7f00 	cmp.w	r0, #512	; 0x200
 800359e:	f080 814e 	bcs.w	800383e <_malloc_r+0x3aa>
 80035a2:	08c1      	lsrs	r1, r0, #3
 80035a4:	f04f 0801 	mov.w	r8, #1
 80035a8:	eb02 00c1 	add.w	r0, r2, r1, lsl #3
 80035ac:	1089      	asrs	r1, r1, #2
 80035ae:	fa08 f801 	lsl.w	r8, r8, r1
 80035b2:	6851      	ldr	r1, [r2, #4]
 80035b4:	6885      	ldr	r5, [r0, #8]
 80035b6:	60d8      	str	r0, [r3, #12]
 80035b8:	ea48 0901 	orr.w	r9, r8, r1
 80035bc:	f8c2 9004 	str.w	r9, [r2, #4]
 80035c0:	609d      	str	r5, [r3, #8]
 80035c2:	60eb      	str	r3, [r5, #12]
 80035c4:	6083      	str	r3, [r0, #8]
 80035c6:	2201      	movs	r2, #1
 80035c8:	ea4f 03ac 	mov.w	r3, ip, asr #2
 80035cc:	fa02 f303 	lsl.w	r3, r2, r3
 80035d0:	454b      	cmp	r3, r9
 80035d2:	d854      	bhi.n	800367e <_malloc_r+0x1ea>
 80035d4:	ea19 0f03 	tst.w	r9, r3
 80035d8:	d10d      	bne.n	80035f6 <_malloc_r+0x162>
 80035da:	4093      	lsls	r3, r2
 80035dc:	f02c 0c03 	bic.w	ip, ip, #3
 80035e0:	ea19 0f03 	tst.w	r9, r3
 80035e4:	f10c 0c04 	add.w	ip, ip, #4
 80035e8:	d105      	bne.n	80035f6 <_malloc_r+0x162>
 80035ea:	005b      	lsls	r3, r3, #1
 80035ec:	f10c 0c04 	add.w	ip, ip, #4
 80035f0:	ea19 0f03 	tst.w	r9, r3
 80035f4:	d0f9      	beq.n	80035ea <_malloc_r+0x156>
 80035f6:	eb06 09cc 	add.w	r9, r6, ip, lsl #3
 80035fa:	46e0      	mov	r8, ip
 80035fc:	4648      	mov	r0, r9
 80035fe:	68c2      	ldr	r2, [r0, #12]
 8003600:	4290      	cmp	r0, r2
 8003602:	d107      	bne.n	8003614 <_malloc_r+0x180>
 8003604:	e15b      	b.n	80038be <_malloc_r+0x42a>
 8003606:	2900      	cmp	r1, #0
 8003608:	f280 8183 	bge.w	8003912 <_malloc_r+0x47e>
 800360c:	68d2      	ldr	r2, [r2, #12]
 800360e:	4290      	cmp	r0, r2
 8003610:	f000 8155 	beq.w	80038be <_malloc_r+0x42a>
 8003614:	6855      	ldr	r5, [r2, #4]
 8003616:	f025 0503 	bic.w	r5, r5, #3
 800361a:	1b29      	subs	r1, r5, r4
 800361c:	290f      	cmp	r1, #15
 800361e:	ddf2      	ble.n	8003606 <_malloc_r+0x172>
 8003620:	4690      	mov	r8, r2
 8003622:	1913      	adds	r3, r2, r4
 8003624:	68d5      	ldr	r5, [r2, #12]
 8003626:	f044 0001 	orr.w	r0, r4, #1
 800362a:	f858 4f08 	ldr.w	r4, [r8, #8]!
 800362e:	f041 0c01 	orr.w	ip, r1, #1
 8003632:	6050      	str	r0, [r2, #4]
 8003634:	4638      	mov	r0, r7
 8003636:	f8c3 c004 	str.w	ip, [r3, #4]
 800363a:	60e5      	str	r5, [r4, #12]
 800363c:	60ac      	str	r4, [r5, #8]
 800363e:	6173      	str	r3, [r6, #20]
 8003640:	6133      	str	r3, [r6, #16]
 8003642:	f8c3 e00c 	str.w	lr, [r3, #12]
 8003646:	f8c3 e008 	str.w	lr, [r3, #8]
 800364a:	5059      	str	r1, [r3, r1]
 800364c:	f000 fb5a 	bl	8003d04 <__malloc_unlock>
 8003650:	e755      	b.n	80034fe <_malloc_r+0x6a>
 8003652:	f1bc 0f04 	cmp.w	ip, #4
 8003656:	f200 80de 	bhi.w	8003816 <_malloc_r+0x382>
 800365a:	ea4f 1c94 	mov.w	ip, r4, lsr #6
 800365e:	f10c 0c38 	add.w	ip, ip, #56	; 0x38
 8003662:	ea4f 054c 	mov.w	r5, ip, lsl #1
 8003666:	e765      	b.n	8003534 <_malloc_r+0xa0>
 8003668:	181a      	adds	r2, r3, r0
 800366a:	f103 0808 	add.w	r8, r3, #8
 800366e:	4638      	mov	r0, r7
 8003670:	6853      	ldr	r3, [r2, #4]
 8003672:	f043 0301 	orr.w	r3, r3, #1
 8003676:	6053      	str	r3, [r2, #4]
 8003678:	f000 fb44 	bl	8003d04 <__malloc_unlock>
 800367c:	e73f      	b.n	80034fe <_malloc_r+0x6a>
 800367e:	68b5      	ldr	r5, [r6, #8]
 8003680:	686b      	ldr	r3, [r5, #4]
 8003682:	f023 0a03 	bic.w	sl, r3, #3
 8003686:	4554      	cmp	r4, sl
 8003688:	d804      	bhi.n	8003694 <_malloc_r+0x200>
 800368a:	ebc4 030a 	rsb	r3, r4, sl
 800368e:	2b0f      	cmp	r3, #15
 8003690:	f300 80a4 	bgt.w	80037dc <_malloc_r+0x348>
 8003694:	f240 59b4 	movw	r9, #1460	; 0x5b4
 8003698:	f8d6 1408 	ldr.w	r1, [r6, #1032]	; 0x408
 800369c:	f2c2 0900 	movt	r9, #8192	; 0x2000
 80036a0:	eb05 020a 	add.w	r2, r5, sl
 80036a4:	3101      	adds	r1, #1
 80036a6:	f8d9 3000 	ldr.w	r3, [r9]
 80036aa:	4423      	add	r3, r4
 80036ac:	bf08      	it	eq
 80036ae:	f103 0b10 	addeq.w	fp, r3, #16
 80036b2:	d006      	beq.n	80036c2 <_malloc_r+0x22e>
 80036b4:	f503 5380 	add.w	r3, r3, #4096	; 0x1000
 80036b8:	330f      	adds	r3, #15
 80036ba:	f423 637f 	bic.w	r3, r3, #4080	; 0xff0
 80036be:	f023 0b0f 	bic.w	fp, r3, #15
 80036c2:	4638      	mov	r0, r7
 80036c4:	4659      	mov	r1, fp
 80036c6:	9201      	str	r2, [sp, #4]
 80036c8:	f000 ffce 	bl	8004668 <_sbrk_r>
 80036cc:	9a01      	ldr	r2, [sp, #4]
 80036ce:	1c41      	adds	r1, r0, #1
 80036d0:	4680      	mov	r8, r0
 80036d2:	f000 8168 	beq.w	80039a6 <_malloc_r+0x512>
 80036d6:	4282      	cmp	r2, r0
 80036d8:	f200 8131 	bhi.w	800393e <_malloc_r+0x4aa>
 80036dc:	f8d9 3004 	ldr.w	r3, [r9, #4]
 80036e0:	4542      	cmp	r2, r8
 80036e2:	445b      	add	r3, fp
 80036e4:	f8c9 3004 	str.w	r3, [r9, #4]
 80036e8:	f000 8166 	beq.w	80039b8 <_malloc_r+0x524>
 80036ec:	f8d6 1408 	ldr.w	r1, [r6, #1032]	; 0x408
 80036f0:	f240 1070 	movw	r0, #368	; 0x170
 80036f4:	f2c2 0000 	movt	r0, #8192	; 0x2000
 80036f8:	3101      	adds	r1, #1
 80036fa:	bf17      	itett	ne
 80036fc:	ebc2 0208 	rsbne	r2, r2, r8
 8003700:	f8c0 8408 	streq.w	r8, [r0, #1032]	; 0x408
 8003704:	189b      	addne	r3, r3, r2
 8003706:	f8c9 3004 	strne.w	r3, [r9, #4]
 800370a:	f018 0307 	ands.w	r3, r8, #7
 800370e:	4638      	mov	r0, r7
 8003710:	bf1f      	itttt	ne
 8003712:	f1c3 0208 	rsbne	r2, r3, #8
 8003716:	f5c3 5380 	rsbne	r3, r3, #4096	; 0x1000
 800371a:	4490      	addne	r8, r2
 800371c:	f103 0208 	addne.w	r2, r3, #8
 8003720:	eb08 030b 	add.w	r3, r8, fp
 8003724:	bf08      	it	eq
 8003726:	f44f 5280 	moveq.w	r2, #4096	; 0x1000
 800372a:	051b      	lsls	r3, r3, #20
 800372c:	0d1b      	lsrs	r3, r3, #20
 800372e:	ebc3 0b02 	rsb	fp, r3, r2
 8003732:	4659      	mov	r1, fp
 8003734:	f000 ff98 	bl	8004668 <_sbrk_r>
 8003738:	1c43      	adds	r3, r0, #1
 800373a:	f000 8149 	beq.w	80039d0 <_malloc_r+0x53c>
 800373e:	ebc8 0100 	rsb	r1, r8, r0
 8003742:	4459      	add	r1, fp
 8003744:	f041 0101 	orr.w	r1, r1, #1
 8003748:	f8d9 3004 	ldr.w	r3, [r9, #4]
 800374c:	42b5      	cmp	r5, r6
 800374e:	f240 52b4 	movw	r2, #1460	; 0x5b4
 8003752:	f8c6 8008 	str.w	r8, [r6, #8]
 8003756:	445b      	add	r3, fp
 8003758:	f2c2 0200 	movt	r2, #8192	; 0x2000
 800375c:	f8c8 1004 	str.w	r1, [r8, #4]
 8003760:	f8c9 3004 	str.w	r3, [r9, #4]
 8003764:	d018      	beq.n	8003798 <_malloc_r+0x304>
 8003766:	f1ba 0f0f 	cmp.w	sl, #15
 800376a:	f240 810b 	bls.w	8003984 <_malloc_r+0x4f0>
 800376e:	f1aa 000c 	sub.w	r0, sl, #12
 8003772:	6869      	ldr	r1, [r5, #4]
 8003774:	f020 0007 	bic.w	r0, r0, #7
 8003778:	f04f 0c05 	mov.w	ip, #5
 800377c:	eb05 0e00 	add.w	lr, r5, r0
 8003780:	280f      	cmp	r0, #15
 8003782:	f001 0101 	and.w	r1, r1, #1
 8003786:	ea40 0101 	orr.w	r1, r0, r1
 800378a:	6069      	str	r1, [r5, #4]
 800378c:	f8ce c004 	str.w	ip, [lr, #4]
 8003790:	f8ce c008 	str.w	ip, [lr, #8]
 8003794:	f200 8120 	bhi.w	80039d8 <_malloc_r+0x544>
 8003798:	f240 52b4 	movw	r2, #1460	; 0x5b4
 800379c:	f8d9 102c 	ldr.w	r1, [r9, #44]	; 0x2c
 80037a0:	f2c2 0200 	movt	r2, #8192	; 0x2000
 80037a4:	68b5      	ldr	r5, [r6, #8]
 80037a6:	428b      	cmp	r3, r1
 80037a8:	f8d9 1030 	ldr.w	r1, [r9, #48]	; 0x30
 80037ac:	bf88      	it	hi
 80037ae:	62d3      	strhi	r3, [r2, #44]	; 0x2c
 80037b0:	f240 52b4 	movw	r2, #1460	; 0x5b4
 80037b4:	f2c2 0200 	movt	r2, #8192	; 0x2000
 80037b8:	428b      	cmp	r3, r1
 80037ba:	bf88      	it	hi
 80037bc:	6313      	strhi	r3, [r2, #48]	; 0x30
 80037be:	686a      	ldr	r2, [r5, #4]
 80037c0:	f022 0203 	bic.w	r2, r2, #3
 80037c4:	4294      	cmp	r4, r2
 80037c6:	ebc4 0302 	rsb	r3, r4, r2
 80037ca:	d801      	bhi.n	80037d0 <_malloc_r+0x33c>
 80037cc:	2b0f      	cmp	r3, #15
 80037ce:	dc05      	bgt.n	80037dc <_malloc_r+0x348>
 80037d0:	4638      	mov	r0, r7
 80037d2:	f04f 0800 	mov.w	r8, #0
 80037d6:	f000 fa95 	bl	8003d04 <__malloc_unlock>
 80037da:	e690      	b.n	80034fe <_malloc_r+0x6a>
 80037dc:	192a      	adds	r2, r5, r4
 80037de:	f043 0301 	orr.w	r3, r3, #1
 80037e2:	f044 0401 	orr.w	r4, r4, #1
 80037e6:	4638      	mov	r0, r7
 80037e8:	606c      	str	r4, [r5, #4]
 80037ea:	f105 0808 	add.w	r8, r5, #8
 80037ee:	6053      	str	r3, [r2, #4]
 80037f0:	60b2      	str	r2, [r6, #8]
 80037f2:	f000 fa87 	bl	8003d04 <__malloc_unlock>
 80037f6:	e682      	b.n	80034fe <_malloc_r+0x6a>
 80037f8:	1859      	adds	r1, r3, r1
 80037fa:	68da      	ldr	r2, [r3, #12]
 80037fc:	689c      	ldr	r4, [r3, #8]
 80037fe:	4638      	mov	r0, r7
 8003800:	684d      	ldr	r5, [r1, #4]
 8003802:	f103 0808 	add.w	r8, r3, #8
 8003806:	f045 0501 	orr.w	r5, r5, #1
 800380a:	60e2      	str	r2, [r4, #12]
 800380c:	6094      	str	r4, [r2, #8]
 800380e:	604d      	str	r5, [r1, #4]
 8003810:	f000 fa78 	bl	8003d04 <__malloc_unlock>
 8003814:	e673      	b.n	80034fe <_malloc_r+0x6a>
 8003816:	f1bc 0f14 	cmp.w	ip, #20
 800381a:	bf9c      	itt	ls
 800381c:	f10c 0c5b 	addls.w	ip, ip, #91	; 0x5b
 8003820:	ea4f 054c 	movls.w	r5, ip, lsl #1
 8003824:	f67f ae86 	bls.w	8003534 <_malloc_r+0xa0>
 8003828:	f1bc 0f54 	cmp.w	ip, #84	; 0x54
 800382c:	f200 8093 	bhi.w	8003956 <_malloc_r+0x4c2>
 8003830:	ea4f 3c14 	mov.w	ip, r4, lsr #12
 8003834:	f10c 0c6e 	add.w	ip, ip, #110	; 0x6e
 8003838:	ea4f 054c 	mov.w	r5, ip, lsl #1
 800383c:	e67a      	b.n	8003534 <_malloc_r+0xa0>
 800383e:	0a42      	lsrs	r2, r0, #9
 8003840:	2a04      	cmp	r2, #4
 8003842:	d975      	bls.n	8003930 <_malloc_r+0x49c>
 8003844:	2a14      	cmp	r2, #20
 8003846:	bf9c      	itt	ls
 8003848:	f102 095b 	addls.w	r9, r2, #91	; 0x5b
 800384c:	ea4f 0549 	movls.w	r5, r9, lsl #1
 8003850:	d908      	bls.n	8003864 <_malloc_r+0x3d0>
 8003852:	2a54      	cmp	r2, #84	; 0x54
 8003854:	f200 80c9 	bhi.w	80039ea <_malloc_r+0x556>
 8003858:	ea4f 3910 	mov.w	r9, r0, lsr #12
 800385c:	f109 096e 	add.w	r9, r9, #110	; 0x6e
 8003860:	ea4f 0549 	mov.w	r5, r9, lsl #1
 8003864:	eb06 0585 	add.w	r5, r6, r5, lsl #2
 8003868:	f240 1870 	movw	r8, #368	; 0x170
 800386c:	f2c2 0800 	movt	r8, #8192	; 0x2000
 8003870:	68aa      	ldr	r2, [r5, #8]
 8003872:	42aa      	cmp	r2, r5
 8003874:	d079      	beq.n	800396a <_malloc_r+0x4d6>
 8003876:	6851      	ldr	r1, [r2, #4]
 8003878:	f021 0103 	bic.w	r1, r1, #3
 800387c:	4288      	cmp	r0, r1
 800387e:	d202      	bcs.n	8003886 <_malloc_r+0x3f2>
 8003880:	6892      	ldr	r2, [r2, #8]
 8003882:	4295      	cmp	r5, r2
 8003884:	d1f7      	bne.n	8003876 <_malloc_r+0x3e2>
 8003886:	68d0      	ldr	r0, [r2, #12]
 8003888:	f8d6 9004 	ldr.w	r9, [r6, #4]
 800388c:	60d8      	str	r0, [r3, #12]
 800388e:	609a      	str	r2, [r3, #8]
 8003890:	60d3      	str	r3, [r2, #12]
 8003892:	6083      	str	r3, [r0, #8]
 8003894:	e697      	b.n	80035c6 <_malloc_r+0x132>
 8003896:	191d      	adds	r5, r3, r4
 8003898:	f041 0601 	orr.w	r6, r1, #1
 800389c:	6155      	str	r5, [r2, #20]
 800389e:	f044 0401 	orr.w	r4, r4, #1
 80038a2:	6115      	str	r5, [r2, #16]
 80038a4:	4638      	mov	r0, r7
 80038a6:	605c      	str	r4, [r3, #4]
 80038a8:	f103 0808 	add.w	r8, r3, #8
 80038ac:	f8c5 e00c 	str.w	lr, [r5, #12]
 80038b0:	f8c5 e008 	str.w	lr, [r5, #8]
 80038b4:	606e      	str	r6, [r5, #4]
 80038b6:	5069      	str	r1, [r5, r1]
 80038b8:	f000 fa24 	bl	8003d04 <__malloc_unlock>
 80038bc:	e61f      	b.n	80034fe <_malloc_r+0x6a>
 80038be:	f108 0801 	add.w	r8, r8, #1
 80038c2:	3008      	adds	r0, #8
 80038c4:	f018 0f03 	tst.w	r8, #3
 80038c8:	f47f ae99 	bne.w	80035fe <_malloc_r+0x16a>
 80038cc:	464a      	mov	r2, r9
 80038ce:	f01c 0f03 	tst.w	ip, #3
 80038d2:	f1a2 0108 	sub.w	r1, r2, #8
 80038d6:	f10c 3cff 	add.w	ip, ip, #4294967295
 80038da:	f000 809e 	beq.w	8003a1a <_malloc_r+0x586>
 80038de:	6812      	ldr	r2, [r2, #0]
 80038e0:	428a      	cmp	r2, r1
 80038e2:	d0f4      	beq.n	80038ce <_malloc_r+0x43a>
 80038e4:	6872      	ldr	r2, [r6, #4]
 80038e6:	005b      	lsls	r3, r3, #1
 80038e8:	4293      	cmp	r3, r2
 80038ea:	f63f aec8 	bhi.w	800367e <_malloc_r+0x1ea>
 80038ee:	2b00      	cmp	r3, #0
 80038f0:	f43f aec5 	beq.w	800367e <_malloc_r+0x1ea>
 80038f4:	421a      	tst	r2, r3
 80038f6:	f000 8095 	beq.w	8003a24 <_malloc_r+0x590>
 80038fa:	46c4      	mov	ip, r8
 80038fc:	e67b      	b.n	80035f6 <_malloc_r+0x162>
 80038fe:	f103 0208 	add.w	r2, r3, #8
 8003902:	695b      	ldr	r3, [r3, #20]
 8003904:	429a      	cmp	r2, r3
 8003906:	bf08      	it	eq
 8003908:	f10c 0c02 	addeq.w	ip, ip, #2
 800390c:	f43f ae2c 	beq.w	8003568 <_malloc_r+0xd4>
 8003910:	e5e4      	b.n	80034dc <_malloc_r+0x48>
 8003912:	4690      	mov	r8, r2
 8003914:	1955      	adds	r5, r2, r5
 8003916:	68d3      	ldr	r3, [r2, #12]
 8003918:	4638      	mov	r0, r7
 800391a:	f858 2f08 	ldr.w	r2, [r8, #8]!
 800391e:	6869      	ldr	r1, [r5, #4]
 8003920:	60d3      	str	r3, [r2, #12]
 8003922:	f041 0101 	orr.w	r1, r1, #1
 8003926:	609a      	str	r2, [r3, #8]
 8003928:	6069      	str	r1, [r5, #4]
 800392a:	f000 f9eb 	bl	8003d04 <__malloc_unlock>
 800392e:	e5e6      	b.n	80034fe <_malloc_r+0x6a>
 8003930:	ea4f 1990 	mov.w	r9, r0, lsr #6
 8003934:	f109 0938 	add.w	r9, r9, #56	; 0x38
 8003938:	ea4f 0549 	mov.w	r5, r9, lsl #1
 800393c:	e792      	b.n	8003864 <_malloc_r+0x3d0>
 800393e:	42b5      	cmp	r5, r6
 8003940:	f240 1370 	movw	r3, #368	; 0x170
 8003944:	f2c2 0300 	movt	r3, #8192	; 0x2000
 8003948:	f43f aec8 	beq.w	80036dc <_malloc_r+0x248>
 800394c:	689d      	ldr	r5, [r3, #8]
 800394e:	686a      	ldr	r2, [r5, #4]
 8003950:	f022 0203 	bic.w	r2, r2, #3
 8003954:	e736      	b.n	80037c4 <_malloc_r+0x330>
 8003956:	f5bc 7faa 	cmp.w	ip, #340	; 0x154
 800395a:	d819      	bhi.n	8003990 <_malloc_r+0x4fc>
 800395c:	ea4f 3cd4 	mov.w	ip, r4, lsr #15
 8003960:	f10c 0c77 	add.w	ip, ip, #119	; 0x77
 8003964:	ea4f 054c 	mov.w	r5, ip, lsl #1
 8003968:	e5e4      	b.n	8003534 <_malloc_r+0xa0>
 800396a:	2501      	movs	r5, #1
 800396c:	f8d8 1004 	ldr.w	r1, [r8, #4]
 8003970:	ea4f 09a9 	mov.w	r9, r9, asr #2
 8003974:	4610      	mov	r0, r2
 8003976:	fa05 f509 	lsl.w	r5, r5, r9
 800397a:	ea45 0901 	orr.w	r9, r5, r1
 800397e:	f8c8 9004 	str.w	r9, [r8, #4]
 8003982:	e783      	b.n	800388c <_malloc_r+0x3f8>
 8003984:	2301      	movs	r3, #1
 8003986:	4645      	mov	r5, r8
 8003988:	f8c8 3004 	str.w	r3, [r8, #4]
 800398c:	2200      	movs	r2, #0
 800398e:	e719      	b.n	80037c4 <_malloc_r+0x330>
 8003990:	f240 5354 	movw	r3, #1364	; 0x554
 8003994:	459c      	cmp	ip, r3
 8003996:	d80b      	bhi.n	80039b0 <_malloc_r+0x51c>
 8003998:	ea4f 4c94 	mov.w	ip, r4, lsr #18
 800399c:	f10c 0c7c 	add.w	ip, ip, #124	; 0x7c
 80039a0:	ea4f 054c 	mov.w	r5, ip, lsl #1
 80039a4:	e5c6      	b.n	8003534 <_malloc_r+0xa0>
 80039a6:	68b5      	ldr	r5, [r6, #8]
 80039a8:	686a      	ldr	r2, [r5, #4]
 80039aa:	f022 0203 	bic.w	r2, r2, #3
 80039ae:	e709      	b.n	80037c4 <_malloc_r+0x330>
 80039b0:	25fc      	movs	r5, #252	; 0xfc
 80039b2:	f04f 0c7e 	mov.w	ip, #126	; 0x7e
 80039b6:	e5bd      	b.n	8003534 <_malloc_r+0xa0>
 80039b8:	0511      	lsls	r1, r2, #20
 80039ba:	0d09      	lsrs	r1, r1, #20
 80039bc:	2900      	cmp	r1, #0
 80039be:	f47f ae95 	bne.w	80036ec <_malloc_r+0x258>
 80039c2:	68b2      	ldr	r2, [r6, #8]
 80039c4:	eb0b 010a 	add.w	r1, fp, sl
 80039c8:	f041 0101 	orr.w	r1, r1, #1
 80039cc:	6051      	str	r1, [r2, #4]
 80039ce:	e6e3      	b.n	8003798 <_malloc_r+0x304>
 80039d0:	2101      	movs	r1, #1
 80039d2:	f04f 0b00 	mov.w	fp, #0
 80039d6:	e6b7      	b.n	8003748 <_malloc_r+0x2b4>
 80039d8:	4638      	mov	r0, r7
 80039da:	f105 0108 	add.w	r1, r5, #8
 80039de:	9201      	str	r2, [sp, #4]
 80039e0:	f7ff fb68 	bl	80030b4 <_free_r>
 80039e4:	9a01      	ldr	r2, [sp, #4]
 80039e6:	6853      	ldr	r3, [r2, #4]
 80039e8:	e6d6      	b.n	8003798 <_malloc_r+0x304>
 80039ea:	f5b2 7faa 	cmp.w	r2, #340	; 0x154
 80039ee:	d806      	bhi.n	80039fe <_malloc_r+0x56a>
 80039f0:	ea4f 39d0 	mov.w	r9, r0, lsr #15
 80039f4:	f109 0977 	add.w	r9, r9, #119	; 0x77
 80039f8:	ea4f 0549 	mov.w	r5, r9, lsl #1
 80039fc:	e732      	b.n	8003864 <_malloc_r+0x3d0>
 80039fe:	f240 5154 	movw	r1, #1364	; 0x554
 8003a02:	25fc      	movs	r5, #252	; 0xfc
 8003a04:	428a      	cmp	r2, r1
 8003a06:	f04f 097e 	mov.w	r9, #126	; 0x7e
 8003a0a:	bf9e      	ittt	ls
 8003a0c:	ea4f 4990 	movls.w	r9, r0, lsr #18
 8003a10:	f109 097c 	addls.w	r9, r9, #124	; 0x7c
 8003a14:	ea4f 0549 	movls.w	r5, r9, lsl #1
 8003a18:	e724      	b.n	8003864 <_malloc_r+0x3d0>
 8003a1a:	6872      	ldr	r2, [r6, #4]
 8003a1c:	ea22 0203 	bic.w	r2, r2, r3
 8003a20:	6072      	str	r2, [r6, #4]
 8003a22:	e760      	b.n	80038e6 <_malloc_r+0x452>
 8003a24:	005b      	lsls	r3, r3, #1
 8003a26:	f108 0804 	add.w	r8, r8, #4
 8003a2a:	e763      	b.n	80038f4 <_malloc_r+0x460>

08003a2c <memchr>:
 8003a2c:	0783      	lsls	r3, r0, #30
 8003a2e:	b2c9      	uxtb	r1, r1
 8003a30:	b470      	push	{r4, r5, r6}
 8003a32:	d040      	beq.n	8003ab6 <memchr+0x8a>
 8003a34:	1e54      	subs	r4, r2, #1
 8003a36:	2a00      	cmp	r2, #0
 8003a38:	d03f      	beq.n	8003aba <memchr+0x8e>
 8003a3a:	7803      	ldrb	r3, [r0, #0]
 8003a3c:	428b      	cmp	r3, r1
 8003a3e:	d021      	beq.n	8003a84 <memchr+0x58>
 8003a40:	1c43      	adds	r3, r0, #1
 8003a42:	e004      	b.n	8003a4e <memchr+0x22>
 8003a44:	b304      	cbz	r4, 8003a88 <memchr+0x5c>
 8003a46:	7802      	ldrb	r2, [r0, #0]
 8003a48:	3c01      	subs	r4, #1
 8003a4a:	428a      	cmp	r2, r1
 8003a4c:	d01a      	beq.n	8003a84 <memchr+0x58>
 8003a4e:	f013 0f03 	tst.w	r3, #3
 8003a52:	4618      	mov	r0, r3
 8003a54:	f103 0301 	add.w	r3, r3, #1
 8003a58:	d1f4      	bne.n	8003a44 <memchr+0x18>
 8003a5a:	2c03      	cmp	r4, #3
 8003a5c:	d816      	bhi.n	8003a8c <memchr+0x60>
 8003a5e:	1e65      	subs	r5, r4, #1
 8003a60:	b194      	cbz	r4, 8003a88 <memchr+0x5c>
 8003a62:	7803      	ldrb	r3, [r0, #0]
 8003a64:	428b      	cmp	r3, r1
 8003a66:	d00d      	beq.n	8003a84 <memchr+0x58>
 8003a68:	1c42      	adds	r2, r0, #1
 8003a6a:	2300      	movs	r3, #0
 8003a6c:	e002      	b.n	8003a74 <memchr+0x48>
 8003a6e:	7804      	ldrb	r4, [r0, #0]
 8003a70:	428c      	cmp	r4, r1
 8003a72:	d007      	beq.n	8003a84 <memchr+0x58>
 8003a74:	429d      	cmp	r5, r3
 8003a76:	4610      	mov	r0, r2
 8003a78:	f103 0301 	add.w	r3, r3, #1
 8003a7c:	f102 0201 	add.w	r2, r2, #1
 8003a80:	d1f5      	bne.n	8003a6e <memchr+0x42>
 8003a82:	2000      	movs	r0, #0
 8003a84:	bc70      	pop	{r4, r5, r6}
 8003a86:	4770      	bx	lr
 8003a88:	4620      	mov	r0, r4
 8003a8a:	e7fb      	b.n	8003a84 <memchr+0x58>
 8003a8c:	ea41 2601 	orr.w	r6, r1, r1, lsl #8
 8003a90:	ea46 4606 	orr.w	r6, r6, r6, lsl #16
 8003a94:	4602      	mov	r2, r0
 8003a96:	3004      	adds	r0, #4
 8003a98:	6813      	ldr	r3, [r2, #0]
 8003a9a:	4073      	eors	r3, r6
 8003a9c:	f1a3 3501 	sub.w	r5, r3, #16843009	; 0x1010101
 8003aa0:	ea25 0303 	bic.w	r3, r5, r3
 8003aa4:	f013 3f80 	tst.w	r3, #2155905152	; 0x80808080
 8003aa8:	d103      	bne.n	8003ab2 <memchr+0x86>
 8003aaa:	3c04      	subs	r4, #4
 8003aac:	2c03      	cmp	r4, #3
 8003aae:	d8f1      	bhi.n	8003a94 <memchr+0x68>
 8003ab0:	e7d5      	b.n	8003a5e <memchr+0x32>
 8003ab2:	4610      	mov	r0, r2
 8003ab4:	e7d3      	b.n	8003a5e <memchr+0x32>
 8003ab6:	4614      	mov	r4, r2
 8003ab8:	e7cf      	b.n	8003a5a <memchr+0x2e>
 8003aba:	4610      	mov	r0, r2
 8003abc:	e7e2      	b.n	8003a84 <memchr+0x58>
 8003abe:	bf00      	nop

08003ac0 <memcpy>:
 8003ac0:	2a03      	cmp	r2, #3
 8003ac2:	e92d 0ff0 	stmdb	sp!, {r4, r5, r6, r7, r8, r9, sl, fp}
 8003ac6:	d809      	bhi.n	8003adc <memcpy+0x1c>
 8003ac8:	b12a      	cbz	r2, 8003ad6 <memcpy+0x16>
 8003aca:	2300      	movs	r3, #0
 8003acc:	5ccc      	ldrb	r4, [r1, r3]
 8003ace:	54c4      	strb	r4, [r0, r3]
 8003ad0:	3301      	adds	r3, #1
 8003ad2:	4293      	cmp	r3, r2
 8003ad4:	d1fa      	bne.n	8003acc <memcpy+0xc>
 8003ad6:	e8bd 0ff0 	ldmia.w	sp!, {r4, r5, r6, r7, r8, r9, sl, fp}
 8003ada:	4770      	bx	lr
 8003adc:	0783      	lsls	r3, r0, #30
 8003ade:	4402      	add	r2, r0
 8003ae0:	d00e      	beq.n	8003b00 <memcpy+0x40>
 8003ae2:	1c44      	adds	r4, r0, #1
 8003ae4:	1c4d      	adds	r5, r1, #1
 8003ae6:	f815 7c01 	ldrb.w	r7, [r5, #-1]
 8003aea:	f004 0603 	and.w	r6, r4, #3
 8003aee:	4623      	mov	r3, r4
 8003af0:	3401      	adds	r4, #1
 8003af2:	4629      	mov	r1, r5
 8003af4:	3501      	adds	r5, #1
 8003af6:	f804 7c02 	strb.w	r7, [r4, #-2]
 8003afa:	2e00      	cmp	r6, #0
 8003afc:	d1f3      	bne.n	8003ae6 <memcpy+0x26>
 8003afe:	e000      	b.n	8003b02 <memcpy+0x42>
 8003b00:	4603      	mov	r3, r0
 8003b02:	f011 0403 	ands.w	r4, r1, #3
 8003b06:	d06d      	beq.n	8003be4 <memcpy+0x124>
 8003b08:	1ad7      	subs	r7, r2, r3
 8003b0a:	1b0d      	subs	r5, r1, r4
 8003b0c:	2f03      	cmp	r7, #3
 8003b0e:	682e      	ldr	r6, [r5, #0]
 8003b10:	dd19      	ble.n	8003b46 <memcpy+0x86>
 8003b12:	f1c4 0c04 	rsb	ip, r4, #4
 8003b16:	ea4f 08c4 	mov.w	r8, r4, lsl #3
 8003b1a:	1d1c      	adds	r4, r3, #4
 8003b1c:	ea4f 0ccc 	mov.w	ip, ip, lsl #3
 8003b20:	f855 7f04 	ldr.w	r7, [r5, #4]!
 8003b24:	ebc4 0902 	rsb	r9, r4, r2
 8003b28:	4623      	mov	r3, r4
 8003b2a:	3104      	adds	r1, #4
 8003b2c:	3404      	adds	r4, #4
 8003b2e:	f1b9 0f03 	cmp.w	r9, #3
 8003b32:	fa26 fa08 	lsr.w	sl, r6, r8
 8003b36:	fa07 fb0c 	lsl.w	fp, r7, ip
 8003b3a:	463e      	mov	r6, r7
 8003b3c:	ea4b 070a 	orr.w	r7, fp, sl
 8003b40:	f844 7c08 	str.w	r7, [r4, #-8]
 8003b44:	dcec      	bgt.n	8003b20 <memcpy+0x60>
 8003b46:	429a      	cmp	r2, r3
 8003b48:	d9c5      	bls.n	8003ad6 <memcpy+0x16>
 8003b4a:	3301      	adds	r3, #1
 8003b4c:	3101      	adds	r1, #1
 8003b4e:	3201      	adds	r2, #1
 8003b50:	f811 4c01 	ldrb.w	r4, [r1, #-1]
 8003b54:	3301      	adds	r3, #1
 8003b56:	3101      	adds	r1, #1
 8003b58:	4293      	cmp	r3, r2
 8003b5a:	f803 4c02 	strb.w	r4, [r3, #-2]
 8003b5e:	d1f7      	bne.n	8003b50 <memcpy+0x90>
 8003b60:	e7b9      	b.n	8003ad6 <memcpy+0x16>
 8003b62:	680c      	ldr	r4, [r1, #0]
 8003b64:	3340      	adds	r3, #64	; 0x40
 8003b66:	3140      	adds	r1, #64	; 0x40
 8003b68:	f843 4c40 	str.w	r4, [r3, #-64]
 8003b6c:	f851 4c3c 	ldr.w	r4, [r1, #-60]
 8003b70:	f843 4c3c 	str.w	r4, [r3, #-60]
 8003b74:	f851 4c38 	ldr.w	r4, [r1, #-56]
 8003b78:	f843 4c38 	str.w	r4, [r3, #-56]
 8003b7c:	f851 4c34 	ldr.w	r4, [r1, #-52]
 8003b80:	f843 4c34 	str.w	r4, [r3, #-52]
 8003b84:	f851 4c30 	ldr.w	r4, [r1, #-48]
 8003b88:	f843 4c30 	str.w	r4, [r3, #-48]
 8003b8c:	f851 4c2c 	ldr.w	r4, [r1, #-44]
 8003b90:	f843 4c2c 	str.w	r4, [r3, #-44]
 8003b94:	f851 4c28 	ldr.w	r4, [r1, #-40]
 8003b98:	f843 4c28 	str.w	r4, [r3, #-40]
 8003b9c:	f851 4c24 	ldr.w	r4, [r1, #-36]
 8003ba0:	f843 4c24 	str.w	r4, [r3, #-36]
 8003ba4:	f851 4c20 	ldr.w	r4, [r1, #-32]
 8003ba8:	f843 4c20 	str.w	r4, [r3, #-32]
 8003bac:	f851 4c1c 	ldr.w	r4, [r1, #-28]
 8003bb0:	f843 4c1c 	str.w	r4, [r3, #-28]
 8003bb4:	f851 4c18 	ldr.w	r4, [r1, #-24]
 8003bb8:	f843 4c18 	str.w	r4, [r3, #-24]
 8003bbc:	f851 4c14 	ldr.w	r4, [r1, #-20]
 8003bc0:	f843 4c14 	str.w	r4, [r3, #-20]
 8003bc4:	f851 4c10 	ldr.w	r4, [r1, #-16]
 8003bc8:	f843 4c10 	str.w	r4, [r3, #-16]
 8003bcc:	f851 4c0c 	ldr.w	r4, [r1, #-12]
 8003bd0:	f843 4c0c 	str.w	r4, [r3, #-12]
 8003bd4:	f851 4c08 	ldr.w	r4, [r1, #-8]
 8003bd8:	f843 4c08 	str.w	r4, [r3, #-8]
 8003bdc:	f851 4c04 	ldr.w	r4, [r1, #-4]
 8003be0:	f843 4c04 	str.w	r4, [r3, #-4]
 8003be4:	1ad4      	subs	r4, r2, r3
 8003be6:	2c3f      	cmp	r4, #63	; 0x3f
 8003be8:	dcbb      	bgt.n	8003b62 <memcpy+0xa2>
 8003bea:	e011      	b.n	8003c10 <memcpy+0x150>
 8003bec:	680c      	ldr	r4, [r1, #0]
 8003bee:	3310      	adds	r3, #16
 8003bf0:	3110      	adds	r1, #16
 8003bf2:	f843 4c10 	str.w	r4, [r3, #-16]
 8003bf6:	f851 4c0c 	ldr.w	r4, [r1, #-12]
 8003bfa:	f843 4c0c 	str.w	r4, [r3, #-12]
 8003bfe:	f851 4c08 	ldr.w	r4, [r1, #-8]
 8003c02:	f843 4c08 	str.w	r4, [r3, #-8]
 8003c06:	f851 4c04 	ldr.w	r4, [r1, #-4]
 8003c0a:	f843 4c04 	str.w	r4, [r3, #-4]
 8003c0e:	1ad4      	subs	r4, r2, r3
 8003c10:	2c0f      	cmp	r4, #15
 8003c12:	dceb      	bgt.n	8003bec <memcpy+0x12c>
 8003c14:	2c03      	cmp	r4, #3
 8003c16:	dd96      	ble.n	8003b46 <memcpy+0x86>
 8003c18:	1d1c      	adds	r4, r3, #4
 8003c1a:	1d0d      	adds	r5, r1, #4
 8003c1c:	f855 7c04 	ldr.w	r7, [r5, #-4]
 8003c20:	1b16      	subs	r6, r2, r4
 8003c22:	4623      	mov	r3, r4
 8003c24:	4629      	mov	r1, r5
 8003c26:	3404      	adds	r4, #4
 8003c28:	3504      	adds	r5, #4
 8003c2a:	2e03      	cmp	r6, #3
 8003c2c:	f844 7c08 	str.w	r7, [r4, #-8]
 8003c30:	dcf4      	bgt.n	8003c1c <memcpy+0x15c>
 8003c32:	e788      	b.n	8003b46 <memcpy+0x86>

08003c34 <memset>:
 8003c34:	2a03      	cmp	r2, #3
 8003c36:	b2c9      	uxtb	r1, r1
 8003c38:	b470      	push	{r4, r5, r6}
 8003c3a:	d808      	bhi.n	8003c4e <memset+0x1a>
 8003c3c:	b12a      	cbz	r2, 8003c4a <memset+0x16>
 8003c3e:	4603      	mov	r3, r0
 8003c40:	1812      	adds	r2, r2, r0
 8003c42:	f803 1b01 	strb.w	r1, [r3], #1
 8003c46:	4293      	cmp	r3, r2
 8003c48:	d1fb      	bne.n	8003c42 <memset+0xe>
 8003c4a:	bc70      	pop	{r4, r5, r6}
 8003c4c:	4770      	bx	lr
 8003c4e:	0783      	lsls	r3, r0, #30
 8003c50:	4402      	add	r2, r0
 8003c52:	d009      	beq.n	8003c68 <memset+0x34>
 8003c54:	1c44      	adds	r4, r0, #1
 8003c56:	f004 0503 	and.w	r5, r4, #3
 8003c5a:	4623      	mov	r3, r4
 8003c5c:	f804 1c01 	strb.w	r1, [r4, #-1]
 8003c60:	3401      	adds	r4, #1
 8003c62:	2d00      	cmp	r5, #0
 8003c64:	d1f7      	bne.n	8003c56 <memset+0x22>
 8003c66:	e000      	b.n	8003c6a <memset+0x36>
 8003c68:	4603      	mov	r3, r0
 8003c6a:	1ad5      	subs	r5, r2, r3
 8003c6c:	eb01 2401 	add.w	r4, r1, r1, lsl #8
 8003c70:	2d3f      	cmp	r5, #63	; 0x3f
 8003c72:	eb04 4404 	add.w	r4, r4, r4, lsl #16
 8003c76:	dd2c      	ble.n	8003cd2 <memset+0x9e>
 8003c78:	601c      	str	r4, [r3, #0]
 8003c7a:	3340      	adds	r3, #64	; 0x40
 8003c7c:	1ad5      	subs	r5, r2, r3
 8003c7e:	f843 4c3c 	str.w	r4, [r3, #-60]
 8003c82:	2d3f      	cmp	r5, #63	; 0x3f
 8003c84:	f843 4c38 	str.w	r4, [r3, #-56]
 8003c88:	f843 4c34 	str.w	r4, [r3, #-52]
 8003c8c:	f843 4c30 	str.w	r4, [r3, #-48]
 8003c90:	f843 4c2c 	str.w	r4, [r3, #-44]
 8003c94:	f843 4c28 	str.w	r4, [r3, #-40]
 8003c98:	f843 4c24 	str.w	r4, [r3, #-36]
 8003c9c:	f843 4c20 	str.w	r4, [r3, #-32]
 8003ca0:	f843 4c1c 	str.w	r4, [r3, #-28]
 8003ca4:	f843 4c18 	str.w	r4, [r3, #-24]
 8003ca8:	f843 4c14 	str.w	r4, [r3, #-20]
 8003cac:	f843 4c10 	str.w	r4, [r3, #-16]
 8003cb0:	f843 4c0c 	str.w	r4, [r3, #-12]
 8003cb4:	f843 4c08 	str.w	r4, [r3, #-8]
 8003cb8:	f843 4c04 	str.w	r4, [r3, #-4]
 8003cbc:	dcdc      	bgt.n	8003c78 <memset+0x44>
 8003cbe:	e008      	b.n	8003cd2 <memset+0x9e>
 8003cc0:	601c      	str	r4, [r3, #0]
 8003cc2:	3310      	adds	r3, #16
 8003cc4:	1ad5      	subs	r5, r2, r3
 8003cc6:	f843 4c0c 	str.w	r4, [r3, #-12]
 8003cca:	f843 4c08 	str.w	r4, [r3, #-8]
 8003cce:	f843 4c04 	str.w	r4, [r3, #-4]
 8003cd2:	2d0f      	cmp	r5, #15
 8003cd4:	dcf4      	bgt.n	8003cc0 <memset+0x8c>
 8003cd6:	2d03      	cmp	r5, #3
 8003cd8:	dd08      	ble.n	8003cec <memset+0xb8>
 8003cda:	1d1d      	adds	r5, r3, #4
 8003cdc:	1b56      	subs	r6, r2, r5
 8003cde:	f845 4c04 	str.w	r4, [r5, #-4]
 8003ce2:	2e03      	cmp	r6, #3
 8003ce4:	462b      	mov	r3, r5
 8003ce6:	f105 0504 	add.w	r5, r5, #4
 8003cea:	dcf7      	bgt.n	8003cdc <memset+0xa8>
 8003cec:	429a      	cmp	r2, r3
 8003cee:	d9ac      	bls.n	8003c4a <memset+0x16>
 8003cf0:	3301      	adds	r3, #1
 8003cf2:	3201      	adds	r2, #1
 8003cf4:	f803 1c01 	strb.w	r1, [r3, #-1]
 8003cf8:	3301      	adds	r3, #1
 8003cfa:	4293      	cmp	r3, r2
 8003cfc:	d1fa      	bne.n	8003cf4 <memset+0xc0>
 8003cfe:	e7a4      	b.n	8003c4a <memset+0x16>

08003d00 <__malloc_lock>:
 8003d00:	4770      	bx	lr
 8003d02:	bf00      	nop

08003d04 <__malloc_unlock>:
 8003d04:	4770      	bx	lr
 8003d06:	bf00      	nop

08003d08 <_Balloc>:
 8003d08:	b570      	push	{r4, r5, r6, lr}
 8003d0a:	4606      	mov	r6, r0
 8003d0c:	6a44      	ldr	r4, [r0, #36]	; 0x24
 8003d0e:	460d      	mov	r5, r1
 8003d10:	b15c      	cbz	r4, 8003d2a <_Balloc+0x22>
 8003d12:	68e2      	ldr	r2, [r4, #12]
 8003d14:	b19a      	cbz	r2, 8003d3e <_Balloc+0x36>
 8003d16:	f852 0025 	ldr.w	r0, [r2, r5, lsl #2]
 8003d1a:	b1e0      	cbz	r0, 8003d56 <_Balloc+0x4e>
 8003d1c:	6801      	ldr	r1, [r0, #0]
 8003d1e:	f842 1025 	str.w	r1, [r2, r5, lsl #2]
 8003d22:	2200      	movs	r2, #0
 8003d24:	6102      	str	r2, [r0, #16]
 8003d26:	60c2      	str	r2, [r0, #12]
 8003d28:	bd70      	pop	{r4, r5, r6, pc}
 8003d2a:	2010      	movs	r0, #16
 8003d2c:	f7ff fba2 	bl	8003474 <malloc>
 8003d30:	2300      	movs	r3, #0
 8003d32:	4604      	mov	r4, r0
 8003d34:	6270      	str	r0, [r6, #36]	; 0x24
 8003d36:	6043      	str	r3, [r0, #4]
 8003d38:	6083      	str	r3, [r0, #8]
 8003d3a:	6003      	str	r3, [r0, #0]
 8003d3c:	60c3      	str	r3, [r0, #12]
 8003d3e:	2221      	movs	r2, #33	; 0x21
 8003d40:	4630      	mov	r0, r6
 8003d42:	2104      	movs	r1, #4
 8003d44:	f001 fca6 	bl	8005694 <_calloc_r>
 8003d48:	6a73      	ldr	r3, [r6, #36]	; 0x24
 8003d4a:	60e0      	str	r0, [r4, #12]
 8003d4c:	68da      	ldr	r2, [r3, #12]
 8003d4e:	2a00      	cmp	r2, #0
 8003d50:	d1e1      	bne.n	8003d16 <_Balloc+0xe>
 8003d52:	2000      	movs	r0, #0
 8003d54:	bd70      	pop	{r4, r5, r6, pc}
 8003d56:	2301      	movs	r3, #1
 8003d58:	4630      	mov	r0, r6
 8003d5a:	4619      	mov	r1, r3
 8003d5c:	fa03 f405 	lsl.w	r4, r3, r5
 8003d60:	1d62      	adds	r2, r4, #5
 8003d62:	0092      	lsls	r2, r2, #2
 8003d64:	f001 fc96 	bl	8005694 <_calloc_r>
 8003d68:	2800      	cmp	r0, #0
 8003d6a:	d0f2      	beq.n	8003d52 <_Balloc+0x4a>
 8003d6c:	6045      	str	r5, [r0, #4]
 8003d6e:	6084      	str	r4, [r0, #8]
 8003d70:	e7d7      	b.n	8003d22 <_Balloc+0x1a>
 8003d72:	bf00      	nop

08003d74 <_Bfree>:
 8003d74:	b530      	push	{r4, r5, lr}
 8003d76:	4604      	mov	r4, r0
 8003d78:	6a45      	ldr	r5, [r0, #36]	; 0x24
 8003d7a:	b083      	sub	sp, #12
 8003d7c:	b155      	cbz	r5, 8003d94 <_Bfree+0x20>
 8003d7e:	b139      	cbz	r1, 8003d90 <_Bfree+0x1c>
 8003d80:	6a63      	ldr	r3, [r4, #36]	; 0x24
 8003d82:	684a      	ldr	r2, [r1, #4]
 8003d84:	68db      	ldr	r3, [r3, #12]
 8003d86:	f853 0022 	ldr.w	r0, [r3, r2, lsl #2]
 8003d8a:	6008      	str	r0, [r1, #0]
 8003d8c:	f843 1022 	str.w	r1, [r3, r2, lsl #2]
 8003d90:	b003      	add	sp, #12
 8003d92:	bd30      	pop	{r4, r5, pc}
 8003d94:	2010      	movs	r0, #16
 8003d96:	9101      	str	r1, [sp, #4]
 8003d98:	f7ff fb6c 	bl	8003474 <malloc>
 8003d9c:	9901      	ldr	r1, [sp, #4]
 8003d9e:	6260      	str	r0, [r4, #36]	; 0x24
 8003da0:	6045      	str	r5, [r0, #4]
 8003da2:	6085      	str	r5, [r0, #8]
 8003da4:	6005      	str	r5, [r0, #0]
 8003da6:	60c5      	str	r5, [r0, #12]
 8003da8:	e7e9      	b.n	8003d7e <_Bfree+0xa>
 8003daa:	bf00      	nop

08003dac <__multadd>:
 8003dac:	e92d 47f0 	stmdb	sp!, {r4, r5, r6, r7, r8, r9, sl, lr}
 8003db0:	4688      	mov	r8, r1
 8003db2:	f8d1 a010 	ldr.w	sl, [r1, #16]
 8003db6:	b082      	sub	sp, #8
 8003db8:	4681      	mov	r9, r0
 8003dba:	f101 0514 	add.w	r5, r1, #20
 8003dbe:	2400      	movs	r4, #0
 8003dc0:	682f      	ldr	r7, [r5, #0]
 8003dc2:	3401      	adds	r4, #1
 8003dc4:	b2be      	uxth	r6, r7
 8003dc6:	0c3f      	lsrs	r7, r7, #16
 8003dc8:	fb02 3606 	mla	r6, r2, r6, r3
 8003dcc:	fb02 f307 	mul.w	r3, r2, r7
 8003dd0:	eb03 4316 	add.w	r3, r3, r6, lsr #16
 8003dd4:	b2b6      	uxth	r6, r6
 8003dd6:	eb06 4603 	add.w	r6, r6, r3, lsl #16
 8003dda:	0c1b      	lsrs	r3, r3, #16
 8003ddc:	45a2      	cmp	sl, r4
 8003dde:	f845 6b04 	str.w	r6, [r5], #4
 8003de2:	dced      	bgt.n	8003dc0 <__multadd+0x14>
 8003de4:	b153      	cbz	r3, 8003dfc <__multadd+0x50>
 8003de6:	f8d8 2008 	ldr.w	r2, [r8, #8]
 8003dea:	4592      	cmp	sl, r2
 8003dec:	da0a      	bge.n	8003e04 <__multadd+0x58>
 8003dee:	eb08 028a 	add.w	r2, r8, sl, lsl #2
 8003df2:	f10a 0101 	add.w	r1, sl, #1
 8003df6:	f8c8 1010 	str.w	r1, [r8, #16]
 8003dfa:	6153      	str	r3, [r2, #20]
 8003dfc:	4640      	mov	r0, r8
 8003dfe:	b002      	add	sp, #8
 8003e00:	e8bd 87f0 	ldmia.w	sp!, {r4, r5, r6, r7, r8, r9, sl, pc}
 8003e04:	f8d8 1004 	ldr.w	r1, [r8, #4]
 8003e08:	4648      	mov	r0, r9
 8003e0a:	9301      	str	r3, [sp, #4]
 8003e0c:	3101      	adds	r1, #1
 8003e0e:	f7ff ff7b 	bl	8003d08 <_Balloc>
 8003e12:	f8d8 2010 	ldr.w	r2, [r8, #16]
 8003e16:	f108 010c 	add.w	r1, r8, #12
 8003e1a:	3202      	adds	r2, #2
 8003e1c:	0092      	lsls	r2, r2, #2
 8003e1e:	4604      	mov	r4, r0
 8003e20:	300c      	adds	r0, #12
 8003e22:	f7ff fe4d 	bl	8003ac0 <memcpy>
 8003e26:	4641      	mov	r1, r8
 8003e28:	4648      	mov	r0, r9
 8003e2a:	46a0      	mov	r8, r4
 8003e2c:	f7ff ffa2 	bl	8003d74 <_Bfree>
 8003e30:	9b01      	ldr	r3, [sp, #4]
 8003e32:	e7dc      	b.n	8003dee <__multadd+0x42>

08003e34 <__s2b>:
 8003e34:	e92d 43f8 	stmdb	sp!, {r3, r4, r5, r6, r7, r8, r9, lr}
 8003e38:	f648 6539 	movw	r5, #36409	; 0x8e39
 8003e3c:	461f      	mov	r7, r3
 8003e3e:	f6c3 05e3 	movt	r5, #14563	; 0x38e3
 8003e42:	3308      	adds	r3, #8
 8003e44:	4606      	mov	r6, r0
 8003e46:	460c      	mov	r4, r1
 8003e48:	4690      	mov	r8, r2
 8003e4a:	fb85 1003 	smull	r1, r0, r5, r3
 8003e4e:	17db      	asrs	r3, r3, #31
 8003e50:	ebc3 0060 	rsb	r0, r3, r0, asr #1
 8003e54:	2801      	cmp	r0, #1
 8003e56:	dd37      	ble.n	8003ec8 <__s2b+0x94>
 8003e58:	2501      	movs	r5, #1
 8003e5a:	2100      	movs	r1, #0
 8003e5c:	006d      	lsls	r5, r5, #1
 8003e5e:	3101      	adds	r1, #1
 8003e60:	42a8      	cmp	r0, r5
 8003e62:	dcfb      	bgt.n	8003e5c <__s2b+0x28>
 8003e64:	4630      	mov	r0, r6
 8003e66:	f7ff ff4f 	bl	8003d08 <_Balloc>
 8003e6a:	9b08      	ldr	r3, [sp, #32]
 8003e6c:	6143      	str	r3, [r0, #20]
 8003e6e:	2301      	movs	r3, #1
 8003e70:	f1b8 0f09 	cmp.w	r8, #9
 8003e74:	4601      	mov	r1, r0
 8003e76:	6103      	str	r3, [r0, #16]
 8003e78:	dd22      	ble.n	8003ec0 <__s2b+0x8c>
 8003e7a:	f104 0909 	add.w	r9, r4, #9
 8003e7e:	4444      	add	r4, r8
 8003e80:	464d      	mov	r5, r9
 8003e82:	f815 3b01 	ldrb.w	r3, [r5], #1
 8003e86:	220a      	movs	r2, #10
 8003e88:	4630      	mov	r0, r6
 8003e8a:	3b30      	subs	r3, #48	; 0x30
 8003e8c:	f7ff ff8e 	bl	8003dac <__multadd>
 8003e90:	42a5      	cmp	r5, r4
 8003e92:	4601      	mov	r1, r0
 8003e94:	d1f5      	bne.n	8003e82 <__s2b+0x4e>
 8003e96:	eb09 0408 	add.w	r4, r9, r8
 8003e9a:	3c08      	subs	r4, #8
 8003e9c:	4547      	cmp	r7, r8
 8003e9e:	dd0c      	ble.n	8003eba <__s2b+0x86>
 8003ea0:	ebc8 0707 	rsb	r7, r8, r7
 8003ea4:	19e7      	adds	r7, r4, r7
 8003ea6:	f814 3b01 	ldrb.w	r3, [r4], #1
 8003eaa:	220a      	movs	r2, #10
 8003eac:	4630      	mov	r0, r6
 8003eae:	3b30      	subs	r3, #48	; 0x30
 8003eb0:	f7ff ff7c 	bl	8003dac <__multadd>
 8003eb4:	42bc      	cmp	r4, r7
 8003eb6:	4601      	mov	r1, r0
 8003eb8:	d1f5      	bne.n	8003ea6 <__s2b+0x72>
 8003eba:	4608      	mov	r0, r1
 8003ebc:	e8bd 83f8 	ldmia.w	sp!, {r3, r4, r5, r6, r7, r8, r9, pc}
 8003ec0:	340a      	adds	r4, #10
 8003ec2:	f04f 0809 	mov.w	r8, #9
 8003ec6:	e7e9      	b.n	8003e9c <__s2b+0x68>
 8003ec8:	2100      	movs	r1, #0
 8003eca:	e7cb      	b.n	8003e64 <__s2b+0x30>

08003ecc <__hi0bits>:
 8003ecc:	4603      	mov	r3, r0
 8003ece:	2000      	movs	r0, #0
 8003ed0:	0c1a      	lsrs	r2, r3, #16
 8003ed2:	d101      	bne.n	8003ed8 <__hi0bits+0xc>
 8003ed4:	041b      	lsls	r3, r3, #16
 8003ed6:	2010      	movs	r0, #16
 8003ed8:	f013 4f7f 	tst.w	r3, #4278190080	; 0xff000000
 8003edc:	d101      	bne.n	8003ee2 <__hi0bits+0x16>
 8003ede:	3008      	adds	r0, #8
 8003ee0:	021b      	lsls	r3, r3, #8
 8003ee2:	f013 4f70 	tst.w	r3, #4026531840	; 0xf0000000
 8003ee6:	d101      	bne.n	8003eec <__hi0bits+0x20>
 8003ee8:	3004      	adds	r0, #4
 8003eea:	011b      	lsls	r3, r3, #4
 8003eec:	f013 4f40 	tst.w	r3, #3221225472	; 0xc0000000
 8003ef0:	d101      	bne.n	8003ef6 <__hi0bits+0x2a>
 8003ef2:	3002      	adds	r0, #2
 8003ef4:	009b      	lsls	r3, r3, #2
 8003ef6:	2b00      	cmp	r3, #0
 8003ef8:	db02      	blt.n	8003f00 <__hi0bits+0x34>
 8003efa:	005b      	lsls	r3, r3, #1
 8003efc:	d401      	bmi.n	8003f02 <__hi0bits+0x36>
 8003efe:	2020      	movs	r0, #32
 8003f00:	4770      	bx	lr
 8003f02:	3001      	adds	r0, #1
 8003f04:	4770      	bx	lr
 8003f06:	bf00      	nop

08003f08 <__lo0bits>:
 8003f08:	6803      	ldr	r3, [r0, #0]
 8003f0a:	4602      	mov	r2, r0
 8003f0c:	f013 0007 	ands.w	r0, r3, #7
 8003f10:	d007      	beq.n	8003f22 <__lo0bits+0x1a>
 8003f12:	07d9      	lsls	r1, r3, #31
 8003f14:	d41f      	bmi.n	8003f56 <__lo0bits+0x4e>
 8003f16:	0798      	lsls	r0, r3, #30
 8003f18:	d41f      	bmi.n	8003f5a <__lo0bits+0x52>
 8003f1a:	089b      	lsrs	r3, r3, #2
 8003f1c:	2002      	movs	r0, #2
 8003f1e:	6013      	str	r3, [r2, #0]
 8003f20:	4770      	bx	lr
 8003f22:	b299      	uxth	r1, r3
 8003f24:	b909      	cbnz	r1, 8003f2a <__lo0bits+0x22>
 8003f26:	0c1b      	lsrs	r3, r3, #16
 8003f28:	2010      	movs	r0, #16
 8003f2a:	f013 0fff 	tst.w	r3, #255	; 0xff
 8003f2e:	d101      	bne.n	8003f34 <__lo0bits+0x2c>
 8003f30:	3008      	adds	r0, #8
 8003f32:	0a1b      	lsrs	r3, r3, #8
 8003f34:	0719      	lsls	r1, r3, #28
 8003f36:	d101      	bne.n	8003f3c <__lo0bits+0x34>
 8003f38:	3004      	adds	r0, #4
 8003f3a:	091b      	lsrs	r3, r3, #4
 8003f3c:	0799      	lsls	r1, r3, #30
 8003f3e:	d101      	bne.n	8003f44 <__lo0bits+0x3c>
 8003f40:	3002      	adds	r0, #2
 8003f42:	089b      	lsrs	r3, r3, #2
 8003f44:	07d9      	lsls	r1, r3, #31
 8003f46:	d404      	bmi.n	8003f52 <__lo0bits+0x4a>
 8003f48:	085b      	lsrs	r3, r3, #1
 8003f4a:	d101      	bne.n	8003f50 <__lo0bits+0x48>
 8003f4c:	2020      	movs	r0, #32
 8003f4e:	4770      	bx	lr
 8003f50:	3001      	adds	r0, #1
 8003f52:	6013      	str	r3, [r2, #0]
 8003f54:	4770      	bx	lr
 8003f56:	2000      	movs	r0, #0
 8003f58:	4770      	bx	lr
 8003f5a:	085b      	lsrs	r3, r3, #1
 8003f5c:	2001      	movs	r0, #1
 8003f5e:	6013      	str	r3, [r2, #0]
 8003f60:	4770      	bx	lr
 8003f62:	bf00      	nop

08003f64 <__i2b>:
 8003f64:	b510      	push	{r4, lr}
 8003f66:	460c      	mov	r4, r1
 8003f68:	2101      	movs	r1, #1
 8003f6a:	f7ff fecd 	bl	8003d08 <_Balloc>
 8003f6e:	2201      	movs	r2, #1
 8003f70:	6144      	str	r4, [r0, #20]
 8003f72:	6102      	str	r2, [r0, #16]
 8003f74:	bd10      	pop	{r4, pc}
 8003f76:	bf00      	nop

08003f78 <__multiply>:
 8003f78:	e92d 4ff0 	stmdb	sp!, {r4, r5, r6, r7, r8, r9, sl, fp, lr}
 8003f7c:	460c      	mov	r4, r1
 8003f7e:	690e      	ldr	r6, [r1, #16]
 8003f80:	b085      	sub	sp, #20
 8003f82:	6915      	ldr	r5, [r2, #16]
 8003f84:	4617      	mov	r7, r2
 8003f86:	42ae      	cmp	r6, r5
 8003f88:	da04      	bge.n	8003f94 <__multiply+0x1c>
 8003f8a:	4632      	mov	r2, r6
 8003f8c:	463c      	mov	r4, r7
 8003f8e:	462e      	mov	r6, r5
 8003f90:	460f      	mov	r7, r1
 8003f92:	4615      	mov	r5, r2
 8003f94:	68a3      	ldr	r3, [r4, #8]
 8003f96:	eb06 0805 	add.w	r8, r6, r5
 8003f9a:	6861      	ldr	r1, [r4, #4]
 8003f9c:	4598      	cmp	r8, r3
 8003f9e:	bfc8      	it	gt
 8003fa0:	3101      	addgt	r1, #1
 8003fa2:	f7ff feb1 	bl	8003d08 <_Balloc>
 8003fa6:	eb00 0988 	add.w	r9, r0, r8, lsl #2
 8003faa:	f100 0314 	add.w	r3, r0, #20
 8003fae:	f109 0914 	add.w	r9, r9, #20
 8003fb2:	9001      	str	r0, [sp, #4]
 8003fb4:	2000      	movs	r0, #0
 8003fb6:	454b      	cmp	r3, r9
 8003fb8:	d203      	bcs.n	8003fc2 <__multiply+0x4a>
 8003fba:	f843 0b04 	str.w	r0, [r3], #4
 8003fbe:	4599      	cmp	r9, r3
 8003fc0:	d8fb      	bhi.n	8003fba <__multiply+0x42>
 8003fc2:	eb07 0585 	add.w	r5, r7, r5, lsl #2
 8003fc6:	eb04 0686 	add.w	r6, r4, r6, lsl #2
 8003fca:	3714      	adds	r7, #20
 8003fcc:	3514      	adds	r5, #20
 8003fce:	3414      	adds	r4, #20
 8003fd0:	3614      	adds	r6, #20
 8003fd2:	42af      	cmp	r7, r5
 8003fd4:	d257      	bcs.n	8004086 <__multiply+0x10e>
 8003fd6:	9a01      	ldr	r2, [sp, #4]
 8003fd8:	f8cd 9008 	str.w	r9, [sp, #8]
 8003fdc:	46a9      	mov	r9, r5
 8003fde:	f8cd 800c 	str.w	r8, [sp, #12]
 8003fe2:	f102 0c18 	add.w	ip, r2, #24
 8003fe6:	46a0      	mov	r8, r4
 8003fe8:	f857 4b04 	ldr.w	r4, [r7], #4
 8003fec:	b2a0      	uxth	r0, r4
 8003fee:	b1f0      	cbz	r0, 800402e <__multiply+0xb6>
 8003ff0:	4642      	mov	r2, r8
 8003ff2:	f1ac 0304 	sub.w	r3, ip, #4
 8003ff6:	2400      	movs	r4, #0
 8003ff8:	f852 1b04 	ldr.w	r1, [r2], #4
 8003ffc:	681d      	ldr	r5, [r3, #0]
 8003ffe:	fa1f fa81 	uxth.w	sl, r1
 8004002:	0c09      	lsrs	r1, r1, #16
 8004004:	fa1f fb85 	uxth.w	fp, r5
 8004008:	0c2d      	lsrs	r5, r5, #16
 800400a:	fb00 ba0a 	mla	sl, r0, sl, fp
 800400e:	fb00 5101 	mla	r1, r0, r1, r5
 8004012:	4454      	add	r4, sl
 8004014:	eb01 4114 	add.w	r1, r1, r4, lsr #16
 8004018:	b2a4      	uxth	r4, r4
 800401a:	ea44 4501 	orr.w	r5, r4, r1, lsl #16
 800401e:	0c0c      	lsrs	r4, r1, #16
 8004020:	4296      	cmp	r6, r2
 8004022:	f843 5b04 	str.w	r5, [r3], #4
 8004026:	d8e7      	bhi.n	8003ff8 <__multiply+0x80>
 8004028:	601c      	str	r4, [r3, #0]
 800402a:	f857 4c04 	ldr.w	r4, [r7, #-4]
 800402e:	0c24      	lsrs	r4, r4, #16
 8004030:	d021      	beq.n	8004076 <__multiply+0xfe>
 8004032:	f85c 1c04 	ldr.w	r1, [ip, #-4]
 8004036:	4642      	mov	r2, r8
 8004038:	4663      	mov	r3, ip
 800403a:	2500      	movs	r5, #0
 800403c:	4608      	mov	r0, r1
 800403e:	f8b2 a000 	ldrh.w	sl, [r2]
 8004042:	0c00      	lsrs	r0, r0, #16
 8004044:	b289      	uxth	r1, r1
 8004046:	469b      	mov	fp, r3
 8004048:	fb04 000a 	mla	r0, r4, sl, r0
 800404c:	1945      	adds	r5, r0, r5
 800404e:	ea41 4105 	orr.w	r1, r1, r5, lsl #16
 8004052:	f843 1c04 	str.w	r1, [r3, #-4]
 8004056:	f853 0b04 	ldr.w	r0, [r3], #4
 800405a:	f852 1b04 	ldr.w	r1, [r2], #4
 800405e:	fa1f fa80 	uxth.w	sl, r0
 8004062:	0c09      	lsrs	r1, r1, #16
 8004064:	fb04 a101 	mla	r1, r4, r1, sl
 8004068:	eb01 4115 	add.w	r1, r1, r5, lsr #16
 800406c:	0c0d      	lsrs	r5, r1, #16
 800406e:	4296      	cmp	r6, r2
 8004070:	d8e5      	bhi.n	800403e <__multiply+0xc6>
 8004072:	f8cb 1000 	str.w	r1, [fp]
 8004076:	45b9      	cmp	r9, r7
 8004078:	f10c 0c04 	add.w	ip, ip, #4
 800407c:	d8b4      	bhi.n	8003fe8 <__multiply+0x70>
 800407e:	f8dd 9008 	ldr.w	r9, [sp, #8]
 8004082:	f8dd 800c 	ldr.w	r8, [sp, #12]
 8004086:	f1b8 0f00 	cmp.w	r8, #0
 800408a:	dd0b      	ble.n	80040a4 <__multiply+0x12c>
 800408c:	f859 3c04 	ldr.w	r3, [r9, #-4]
 8004090:	f1a9 0904 	sub.w	r9, r9, #4
 8004094:	b11b      	cbz	r3, 800409e <__multiply+0x126>
 8004096:	e005      	b.n	80040a4 <__multiply+0x12c>
 8004098:	f859 3d04 	ldr.w	r3, [r9, #-4]!
 800409c:	b913      	cbnz	r3, 80040a4 <__multiply+0x12c>
 800409e:	f1b8 0801 	subs.w	r8, r8, #1
 80040a2:	d1f9      	bne.n	8004098 <__multiply+0x120>
 80040a4:	9b01      	ldr	r3, [sp, #4]
 80040a6:	4618      	mov	r0, r3
 80040a8:	f8c3 8010 	str.w	r8, [r3, #16]
 80040ac:	b005      	add	sp, #20
 80040ae:	e8bd 8ff0 	ldmia.w	sp!, {r4, r5, r6, r7, r8, r9, sl, fp, pc}
 80040b2:	bf00      	nop

080040b4 <__pow5mult>:
 80040b4:	f012 0303 	ands.w	r3, r2, #3
 80040b8:	e92d 41f0 	stmdb	sp!, {r4, r5, r6, r7, r8, lr}
 80040bc:	4614      	mov	r4, r2
 80040be:	4680      	mov	r8, r0
 80040c0:	460f      	mov	r7, r1
 80040c2:	d128      	bne.n	8004116 <__pow5mult+0x62>
 80040c4:	10a4      	asrs	r4, r4, #2
 80040c6:	d01a      	beq.n	80040fe <__pow5mult+0x4a>
 80040c8:	f8d8 5024 	ldr.w	r5, [r8, #36]	; 0x24
 80040cc:	2d00      	cmp	r5, #0
 80040ce:	d02e      	beq.n	800412e <__pow5mult+0x7a>
 80040d0:	68ae      	ldr	r6, [r5, #8]
 80040d2:	b92e      	cbnz	r6, 80040e0 <__pow5mult+0x2c>
 80040d4:	e036      	b.n	8004144 <__pow5mult+0x90>
 80040d6:	1064      	asrs	r4, r4, #1
 80040d8:	d011      	beq.n	80040fe <__pow5mult+0x4a>
 80040da:	6835      	ldr	r5, [r6, #0]
 80040dc:	b195      	cbz	r5, 8004104 <__pow5mult+0x50>
 80040de:	462e      	mov	r6, r5
 80040e0:	07e0      	lsls	r0, r4, #31
 80040e2:	d5f8      	bpl.n	80040d6 <__pow5mult+0x22>
 80040e4:	4639      	mov	r1, r7
 80040e6:	4632      	mov	r2, r6
 80040e8:	4640      	mov	r0, r8
 80040ea:	f7ff ff45 	bl	8003f78 <__multiply>
 80040ee:	4639      	mov	r1, r7
 80040f0:	4605      	mov	r5, r0
 80040f2:	4640      	mov	r0, r8
 80040f4:	f7ff fe3e 	bl	8003d74 <_Bfree>
 80040f8:	1064      	asrs	r4, r4, #1
 80040fa:	462f      	mov	r7, r5
 80040fc:	d1ed      	bne.n	80040da <__pow5mult+0x26>
 80040fe:	4638      	mov	r0, r7
 8004100:	e8bd 81f0 	ldmia.w	sp!, {r4, r5, r6, r7, r8, pc}
 8004104:	4631      	mov	r1, r6
 8004106:	4632      	mov	r2, r6
 8004108:	4640      	mov	r0, r8
 800410a:	f7ff ff35 	bl	8003f78 <__multiply>
 800410e:	6030      	str	r0, [r6, #0]
 8004110:	4606      	mov	r6, r0
 8004112:	6005      	str	r5, [r0, #0]
 8004114:	e7e4      	b.n	80040e0 <__pow5mult+0x2c>
 8004116:	f248 3298 	movw	r2, #33688	; 0x8398
 800411a:	1e5d      	subs	r5, r3, #1
 800411c:	f6c0 0200 	movt	r2, #2048	; 0x800
 8004120:	2300      	movs	r3, #0
 8004122:	f852 2025 	ldr.w	r2, [r2, r5, lsl #2]
 8004126:	f7ff fe41 	bl	8003dac <__multadd>
 800412a:	4607      	mov	r7, r0
 800412c:	e7ca      	b.n	80040c4 <__pow5mult+0x10>
 800412e:	2010      	movs	r0, #16
 8004130:	f7ff f9a0 	bl	8003474 <malloc>
 8004134:	2300      	movs	r3, #0
 8004136:	4605      	mov	r5, r0
 8004138:	f8c8 0024 	str.w	r0, [r8, #36]	; 0x24
 800413c:	6043      	str	r3, [r0, #4]
 800413e:	6083      	str	r3, [r0, #8]
 8004140:	6003      	str	r3, [r0, #0]
 8004142:	60c3      	str	r3, [r0, #12]
 8004144:	4640      	mov	r0, r8
 8004146:	f240 2171 	movw	r1, #625	; 0x271
 800414a:	f7ff ff0b 	bl	8003f64 <__i2b>
 800414e:	2300      	movs	r3, #0
 8004150:	60a8      	str	r0, [r5, #8]
 8004152:	4606      	mov	r6, r0
 8004154:	6003      	str	r3, [r0, #0]
 8004156:	e7c3      	b.n	80040e0 <__pow5mult+0x2c>

08004158 <__lshift>:
 8004158:	e92d 4ff8 	stmdb	sp!, {r3, r4, r5, r6, r7, r8, r9, sl, fp, lr}
 800415c:	4693      	mov	fp, r2
 800415e:	690a      	ldr	r2, [r1, #16]
 8004160:	460f      	mov	r7, r1
 8004162:	ea4f 156b 	mov.w	r5, fp, asr #5
 8004166:	688b      	ldr	r3, [r1, #8]
 8004168:	eb05 0a02 	add.w	sl, r5, r2
 800416c:	4681      	mov	r9, r0
 800416e:	f10a 0601 	add.w	r6, sl, #1
 8004172:	6849      	ldr	r1, [r1, #4]
 8004174:	429e      	cmp	r6, r3
 8004176:	dd03      	ble.n	8004180 <__lshift+0x28>
 8004178:	005b      	lsls	r3, r3, #1
 800417a:	3101      	adds	r1, #1
 800417c:	429e      	cmp	r6, r3
 800417e:	dcfb      	bgt.n	8004178 <__lshift+0x20>
 8004180:	4648      	mov	r0, r9
 8004182:	f7ff fdc1 	bl	8003d08 <_Balloc>
 8004186:	2d00      	cmp	r5, #0
 8004188:	4680      	mov	r8, r0
 800418a:	f100 0414 	add.w	r4, r0, #20
 800418e:	dd0a      	ble.n	80041a6 <__lshift+0x4e>
 8004190:	2300      	movs	r3, #0
 8004192:	461a      	mov	r2, r3
 8004194:	3301      	adds	r3, #1
 8004196:	f844 2b04 	str.w	r2, [r4], #4
 800419a:	42ab      	cmp	r3, r5
 800419c:	d1fa      	bne.n	8004194 <__lshift+0x3c>
 800419e:	eb08 0383 	add.w	r3, r8, r3, lsl #2
 80041a2:	f103 0414 	add.w	r4, r3, #20
 80041a6:	6938      	ldr	r0, [r7, #16]
 80041a8:	f107 0514 	add.w	r5, r7, #20
 80041ac:	eb07 0080 	add.w	r0, r7, r0, lsl #2
 80041b0:	3014      	adds	r0, #20
 80041b2:	f01b 0b1f 	ands.w	fp, fp, #31
 80041b6:	d01c      	beq.n	80041f2 <__lshift+0x9a>
 80041b8:	f1cb 0320 	rsb	r3, fp, #32
 80041bc:	2200      	movs	r2, #0
 80041be:	6829      	ldr	r1, [r5, #0]
 80041c0:	fa01 f10b 	lsl.w	r1, r1, fp
 80041c4:	430a      	orrs	r2, r1
 80041c6:	f844 2b04 	str.w	r2, [r4], #4
 80041ca:	f855 2b04 	ldr.w	r2, [r5], #4
 80041ce:	42a8      	cmp	r0, r5
 80041d0:	fa22 f203 	lsr.w	r2, r2, r3
 80041d4:	d8f3      	bhi.n	80041be <__lshift+0x66>
 80041d6:	6022      	str	r2, [r4, #0]
 80041d8:	b10a      	cbz	r2, 80041de <__lshift+0x86>
 80041da:	f10a 0602 	add.w	r6, sl, #2
 80041de:	4648      	mov	r0, r9
 80041e0:	3e01      	subs	r6, #1
 80041e2:	4639      	mov	r1, r7
 80041e4:	f8c8 6010 	str.w	r6, [r8, #16]
 80041e8:	f7ff fdc4 	bl	8003d74 <_Bfree>
 80041ec:	4640      	mov	r0, r8
 80041ee:	e8bd 8ff8 	ldmia.w	sp!, {r3, r4, r5, r6, r7, r8, r9, sl, fp, pc}
 80041f2:	f855 3b04 	ldr.w	r3, [r5], #4
 80041f6:	42a8      	cmp	r0, r5
 80041f8:	f844 3b04 	str.w	r3, [r4], #4
 80041fc:	d9ef      	bls.n	80041de <__lshift+0x86>
 80041fe:	f855 3b04 	ldr.w	r3, [r5], #4
 8004202:	42a8      	cmp	r0, r5
 8004204:	f844 3b04 	str.w	r3, [r4], #4
 8004208:	d8f3      	bhi.n	80041f2 <__lshift+0x9a>
 800420a:	e7e8      	b.n	80041de <__lshift+0x86>

0800420c <__mcmp>:
 800420c:	4603      	mov	r3, r0
 800420e:	690a      	ldr	r2, [r1, #16]
 8004210:	6900      	ldr	r0, [r0, #16]
 8004212:	b430      	push	{r4, r5}
 8004214:	1a80      	subs	r0, r0, r2
 8004216:	d10f      	bne.n	8004238 <__mcmp+0x2c>
 8004218:	3204      	adds	r2, #4
 800421a:	f103 0514 	add.w	r5, r3, #20
 800421e:	0092      	lsls	r2, r2, #2
 8004220:	189b      	adds	r3, r3, r2
 8004222:	1889      	adds	r1, r1, r2
 8004224:	3304      	adds	r3, #4
 8004226:	3104      	adds	r1, #4
 8004228:	f853 2d04 	ldr.w	r2, [r3, #-4]!
 800422c:	f851 4d04 	ldr.w	r4, [r1, #-4]!
 8004230:	42a2      	cmp	r2, r4
 8004232:	d103      	bne.n	800423c <__mcmp+0x30>
 8004234:	429d      	cmp	r5, r3
 8004236:	d3f7      	bcc.n	8004228 <__mcmp+0x1c>
 8004238:	bc30      	pop	{r4, r5}
 800423a:	4770      	bx	lr
 800423c:	4294      	cmp	r4, r2
 800423e:	bf94      	ite	ls
 8004240:	2001      	movls	r0, #1
 8004242:	f04f 30ff 	movhi.w	r0, #4294967295
 8004246:	e7f7      	b.n	8004238 <__mcmp+0x2c>

08004248 <__mdiff>:
 8004248:	e92d 4ff8 	stmdb	sp!, {r3, r4, r5, r6, r7, r8, r9, sl, fp, lr}
 800424c:	468b      	mov	fp, r1
 800424e:	4604      	mov	r4, r0
 8004250:	4611      	mov	r1, r2
 8004252:	4658      	mov	r0, fp
 8004254:	4691      	mov	r9, r2
 8004256:	f7ff ffd9 	bl	800420c <__mcmp>
 800425a:	1e05      	subs	r5, r0, #0
 800425c:	d061      	beq.n	8004322 <__mdiff+0xda>
 800425e:	bfbc      	itt	lt
 8004260:	465b      	movlt	r3, fp
 8004262:	46cb      	movlt	fp, r9
 8004264:	4620      	mov	r0, r4
 8004266:	bfb8      	it	lt
 8004268:	4699      	movlt	r9, r3
 800426a:	f8db 1004 	ldr.w	r1, [fp, #4]
 800426e:	bfac      	ite	ge
 8004270:	f04f 0800 	movge.w	r8, #0
 8004274:	f04f 0801 	movlt.w	r8, #1
 8004278:	f7ff fd46 	bl	8003d08 <_Balloc>
 800427c:	f8db 7010 	ldr.w	r7, [fp, #16]
 8004280:	f109 0514 	add.w	r5, r9, #20
 8004284:	f8d9 3010 	ldr.w	r3, [r9, #16]
 8004288:	f10b 0614 	add.w	r6, fp, #20
 800428c:	2400      	movs	r4, #0
 800428e:	eb0b 0c87 	add.w	ip, fp, r7, lsl #2
 8004292:	eb09 0983 	add.w	r9, r9, r3, lsl #2
 8004296:	f10c 0c14 	add.w	ip, ip, #20
 800429a:	f109 0914 	add.w	r9, r9, #20
 800429e:	f100 0a14 	add.w	sl, r0, #20
 80042a2:	f8c0 800c 	str.w	r8, [r0, #12]
 80042a6:	f856 8b04 	ldr.w	r8, [r6], #4
 80042aa:	4653      	mov	r3, sl
 80042ac:	f855 ab04 	ldr.w	sl, [r5], #4
 80042b0:	4632      	mov	r2, r6
 80042b2:	fa1f f188 	uxth.w	r1, r8
 80042b6:	1909      	adds	r1, r1, r4
 80042b8:	fa1f fb8a 	uxth.w	fp, sl
 80042bc:	ebcb 0101 	rsb	r1, fp, r1
 80042c0:	ea4f 441a 	mov.w	r4, sl, lsr #16
 80042c4:	ebc4 4418 	rsb	r4, r4, r8, lsr #16
 80042c8:	eb04 4421 	add.w	r4, r4, r1, asr #16
 80042cc:	b289      	uxth	r1, r1
 80042ce:	ea41 4104 	orr.w	r1, r1, r4, lsl #16
 80042d2:	1424      	asrs	r4, r4, #16
 80042d4:	45a9      	cmp	r9, r5
 80042d6:	f843 1b04 	str.w	r1, [r3], #4
 80042da:	469a      	mov	sl, r3
 80042dc:	d8e3      	bhi.n	80042a6 <__mdiff+0x5e>
 80042de:	45b4      	cmp	ip, r6
 80042e0:	4698      	mov	r8, r3
 80042e2:	d914      	bls.n	800430e <__mdiff+0xc6>
 80042e4:	f852 5b04 	ldr.w	r5, [r2], #4
 80042e8:	b2a9      	uxth	r1, r5
 80042ea:	0c2d      	lsrs	r5, r5, #16
 80042ec:	190c      	adds	r4, r1, r4
 80042ee:	eb05 4524 	add.w	r5, r5, r4, asr #16
 80042f2:	b2a4      	uxth	r4, r4
 80042f4:	ea44 4105 	orr.w	r1, r4, r5, lsl #16
 80042f8:	142c      	asrs	r4, r5, #16
 80042fa:	4594      	cmp	ip, r2
 80042fc:	f843 1b04 	str.w	r1, [r3], #4
 8004300:	d8f0      	bhi.n	80042e4 <__mdiff+0x9c>
 8004302:	43f3      	mvns	r3, r6
 8004304:	4463      	add	r3, ip
 8004306:	f023 0303 	bic.w	r3, r3, #3
 800430a:	3304      	adds	r3, #4
 800430c:	4443      	add	r3, r8
 800430e:	3b04      	subs	r3, #4
 8004310:	b921      	cbnz	r1, 800431c <__mdiff+0xd4>
 8004312:	f853 2d04 	ldr.w	r2, [r3, #-4]!
 8004316:	3f01      	subs	r7, #1
 8004318:	2a00      	cmp	r2, #0
 800431a:	d0fa      	beq.n	8004312 <__mdiff+0xca>
 800431c:	6107      	str	r7, [r0, #16]
 800431e:	e8bd 8ff8 	ldmia.w	sp!, {r3, r4, r5, r6, r7, r8, r9, sl, fp, pc}
 8004322:	4620      	mov	r0, r4
 8004324:	4629      	mov	r1, r5
 8004326:	f7ff fcef 	bl	8003d08 <_Balloc>
 800432a:	2301      	movs	r3, #1
 800432c:	6145      	str	r5, [r0, #20]
 800432e:	6103      	str	r3, [r0, #16]
 8004330:	e8bd 8ff8 	ldmia.w	sp!, {r3, r4, r5, r6, r7, r8, r9, sl, fp, pc}

08004334 <__ulp>:
 8004334:	2300      	movs	r3, #0
 8004336:	f6c7 73f0 	movt	r3, #32752	; 0x7ff0
 800433a:	400b      	ands	r3, r1
 800433c:	f1a3 7350 	sub.w	r3, r3, #54525952	; 0x3400000
 8004340:	2b00      	cmp	r3, #0
 8004342:	dd02      	ble.n	800434a <__ulp+0x16>
 8004344:	4619      	mov	r1, r3
 8004346:	2000      	movs	r0, #0
 8004348:	4770      	bx	lr
 800434a:	425b      	negs	r3, r3
 800434c:	2100      	movs	r1, #0
 800434e:	151b      	asrs	r3, r3, #20
 8004350:	2b13      	cmp	r3, #19
 8004352:	dd0b      	ble.n	800436c <__ulp+0x38>
 8004354:	2b32      	cmp	r3, #50	; 0x32
 8004356:	dd02      	ble.n	800435e <__ulp+0x2a>
 8004358:	2301      	movs	r3, #1
 800435a:	4618      	mov	r0, r3
 800435c:	4770      	bx	lr
 800435e:	2201      	movs	r2, #1
 8004360:	f1c3 0333 	rsb	r3, r3, #51	; 0x33
 8004364:	fa02 f303 	lsl.w	r3, r2, r3
 8004368:	4618      	mov	r0, r3
 800436a:	4770      	bx	lr
 800436c:	f44f 2200 	mov.w	r2, #524288	; 0x80000
 8004370:	2000      	movs	r0, #0
 8004372:	fa42 f103 	asr.w	r1, r2, r3
 8004376:	4770      	bx	lr

08004378 <__b2d>:
 8004378:	e92d 43f8 	stmdb	sp!, {r3, r4, r5, r6, r7, r8, r9, lr}
 800437c:	f100 0814 	add.w	r8, r0, #20
 8004380:	6906      	ldr	r6, [r0, #16]
 8004382:	4689      	mov	r9, r1
 8004384:	3604      	adds	r6, #4
 8004386:	eb00 0686 	add.w	r6, r0, r6, lsl #2
 800438a:	4634      	mov	r4, r6
 800438c:	4637      	mov	r7, r6
 800438e:	f854 5b04 	ldr.w	r5, [r4], #4
 8004392:	4628      	mov	r0, r5
 8004394:	f7ff fd9a 	bl	8003ecc <__hi0bits>
 8004398:	280a      	cmp	r0, #10
 800439a:	f1c0 0320 	rsb	r3, r0, #32
 800439e:	f8c9 3000 	str.w	r3, [r9]
 80043a2:	dc18      	bgt.n	80043d6 <__b2d+0x5e>
 80043a4:	45b0      	cmp	r8, r6
 80043a6:	f1c0 010b 	rsb	r1, r0, #11
 80043aa:	fa25 f701 	lsr.w	r7, r5, r1
 80043ae:	bf38      	it	cc
 80043b0:	f854 4c08 	ldrcc.w	r4, [r4, #-8]
 80043b4:	f047 577f 	orr.w	r7, r7, #1069547520	; 0x3fc00000
 80043b8:	f447 1340 	orr.w	r3, r7, #3145728	; 0x300000
 80043bc:	bf34      	ite	cc
 80043be:	fa24 f101 	lsrcc.w	r1, r4, r1
 80043c2:	2100      	movcs	r1, #0
 80043c4:	3015      	adds	r0, #21
 80043c6:	fa05 f500 	lsl.w	r5, r5, r0
 80043ca:	ea41 0205 	orr.w	r2, r1, r5
 80043ce:	4610      	mov	r0, r2
 80043d0:	4619      	mov	r1, r3
 80043d2:	e8bd 83f8 	ldmia.w	sp!, {r3, r4, r5, r6, r7, r8, r9, pc}
 80043d6:	2100      	movs	r1, #0
 80043d8:	45b0      	cmp	r8, r6
 80043da:	d202      	bcs.n	80043e2 <__b2d+0x6a>
 80043dc:	f854 1c08 	ldr.w	r1, [r4, #-8]
 80043e0:	1f37      	subs	r7, r6, #4
 80043e2:	f1b0 040b 	subs.w	r4, r0, #11
 80043e6:	d018      	beq.n	800441a <__b2d+0xa2>
 80043e8:	fa05 f504 	lsl.w	r5, r5, r4
 80043ec:	f1c0 002b 	rsb	r0, r0, #43	; 0x2b
 80043f0:	4547      	cmp	r7, r8
 80043f2:	f045 557f 	orr.w	r5, r5, #1069547520	; 0x3fc00000
 80043f6:	fa21 f600 	lsr.w	r6, r1, r0
 80043fa:	f445 1540 	orr.w	r5, r5, #3145728	; 0x300000
 80043fe:	ea45 0306 	orr.w	r3, r5, r6
 8004402:	bf88      	it	hi
 8004404:	f857 5c04 	ldrhi.w	r5, [r7, #-4]
 8004408:	fa01 f104 	lsl.w	r1, r1, r4
 800440c:	bf8c      	ite	hi
 800440e:	fa25 f000 	lsrhi.w	r0, r5, r0
 8004412:	2000      	movls	r0, #0
 8004414:	ea40 0201 	orr.w	r2, r0, r1
 8004418:	e7d9      	b.n	80043ce <__b2d+0x56>
 800441a:	f045 557f 	orr.w	r5, r5, #1069547520	; 0x3fc00000
 800441e:	460a      	mov	r2, r1
 8004420:	f445 1340 	orr.w	r3, r5, #3145728	; 0x300000
 8004424:	e7d3      	b.n	80043ce <__b2d+0x56>
 8004426:	bf00      	nop

08004428 <__d2b>:
 8004428:	e92d 43f0 	stmdb	sp!, {r4, r5, r6, r7, r8, r9, lr}
 800442c:	b083      	sub	sp, #12
 800442e:	2101      	movs	r1, #1
 8004430:	461d      	mov	r5, r3
 8004432:	4614      	mov	r4, r2
 8004434:	9f0a      	ldr	r7, [sp, #40]	; 0x28
 8004436:	f7ff fc67 	bl	8003d08 <_Balloc>
 800443a:	f3c5 560a 	ubfx	r6, r5, #20, #11
 800443e:	f025 437f 	bic.w	r3, r5, #4278190080	; 0xff000000
 8004442:	46a9      	mov	r9, r5
 8004444:	f423 0370 	bic.w	r3, r3, #15728640	; 0xf00000
 8004448:	4680      	mov	r8, r0
 800444a:	b10e      	cbz	r6, 8004450 <__d2b+0x28>
 800444c:	f443 1380 	orr.w	r3, r3, #1048576	; 0x100000
 8004450:	9301      	str	r3, [sp, #4]
 8004452:	2c00      	cmp	r4, #0
 8004454:	d024      	beq.n	80044a0 <__d2b+0x78>
 8004456:	a802      	add	r0, sp, #8
 8004458:	f840 4d08 	str.w	r4, [r0, #-8]!
 800445c:	4668      	mov	r0, sp
 800445e:	f7ff fd53 	bl	8003f08 <__lo0bits>
 8004462:	9b01      	ldr	r3, [sp, #4]
 8004464:	2800      	cmp	r0, #0
 8004466:	d131      	bne.n	80044cc <__d2b+0xa4>
 8004468:	9a00      	ldr	r2, [sp, #0]
 800446a:	f8c8 2014 	str.w	r2, [r8, #20]
 800446e:	2b00      	cmp	r3, #0
 8004470:	bf0c      	ite	eq
 8004472:	2401      	moveq	r4, #1
 8004474:	2402      	movne	r4, #2
 8004476:	f8c8 3018 	str.w	r3, [r8, #24]
 800447a:	f8c8 4010 	str.w	r4, [r8, #16]
 800447e:	b9e6      	cbnz	r6, 80044ba <__d2b+0x92>
 8004480:	eb08 0384 	add.w	r3, r8, r4, lsl #2
 8004484:	f2a0 4032 	subw	r0, r0, #1074	; 0x432
 8004488:	6038      	str	r0, [r7, #0]
 800448a:	6918      	ldr	r0, [r3, #16]
 800448c:	f7ff fd1e 	bl	8003ecc <__hi0bits>
 8004490:	9b0b      	ldr	r3, [sp, #44]	; 0x2c
 8004492:	ebc0 1044 	rsb	r0, r0, r4, lsl #5
 8004496:	6018      	str	r0, [r3, #0]
 8004498:	4640      	mov	r0, r8
 800449a:	b003      	add	sp, #12
 800449c:	e8bd 83f0 	ldmia.w	sp!, {r4, r5, r6, r7, r8, r9, pc}
 80044a0:	a801      	add	r0, sp, #4
 80044a2:	f7ff fd31 	bl	8003f08 <__lo0bits>
 80044a6:	2301      	movs	r3, #1
 80044a8:	461c      	mov	r4, r3
 80044aa:	f8c8 3010 	str.w	r3, [r8, #16]
 80044ae:	9b01      	ldr	r3, [sp, #4]
 80044b0:	f8c8 3014 	str.w	r3, [r8, #20]
 80044b4:	3020      	adds	r0, #32
 80044b6:	2e00      	cmp	r6, #0
 80044b8:	d0e2      	beq.n	8004480 <__d2b+0x58>
 80044ba:	9a0b      	ldr	r2, [sp, #44]	; 0x2c
 80044bc:	f2a6 4933 	subw	r9, r6, #1075	; 0x433
 80044c0:	f1c0 0335 	rsb	r3, r0, #53	; 0x35
 80044c4:	4448      	add	r0, r9
 80044c6:	6038      	str	r0, [r7, #0]
 80044c8:	6013      	str	r3, [r2, #0]
 80044ca:	e7e5      	b.n	8004498 <__d2b+0x70>
 80044cc:	f1c0 0120 	rsb	r1, r0, #32
 80044d0:	9a00      	ldr	r2, [sp, #0]
 80044d2:	fa03 f101 	lsl.w	r1, r3, r1
 80044d6:	fa23 f300 	lsr.w	r3, r3, r0
 80044da:	430a      	orrs	r2, r1
 80044dc:	9301      	str	r3, [sp, #4]
 80044de:	f8c8 2014 	str.w	r2, [r8, #20]
 80044e2:	e7c4      	b.n	800446e <__d2b+0x46>

080044e4 <__ratio>:
 80044e4:	e92d 43f0 	stmdb	sp!, {r4, r5, r6, r7, r8, r9, lr}
 80044e8:	b083      	sub	sp, #12
 80044ea:	4688      	mov	r8, r1
 80044ec:	4669      	mov	r1, sp
 80044ee:	4606      	mov	r6, r0
 80044f0:	f7ff ff42 	bl	8004378 <__b2d>
 80044f4:	460d      	mov	r5, r1
 80044f6:	4604      	mov	r4, r0
 80044f8:	a901      	add	r1, sp, #4
 80044fa:	4640      	mov	r0, r8
 80044fc:	f7ff ff3c 	bl	8004378 <__b2d>
 8004500:	462f      	mov	r7, r5
 8004502:	460b      	mov	r3, r1
 8004504:	4602      	mov	r2, r0
 8004506:	f8d8 1010 	ldr.w	r1, [r8, #16]
 800450a:	4699      	mov	r9, r3
 800450c:	6930      	ldr	r0, [r6, #16]
 800450e:	4626      	mov	r6, r4
 8004510:	4690      	mov	r8, r2
 8004512:	ebc1 0e00 	rsb	lr, r1, r0
 8004516:	e89d 0003 	ldmia.w	sp, {r0, r1}
 800451a:	1a40      	subs	r0, r0, r1
 800451c:	eb00 114e 	add.w	r1, r0, lr, lsl #5
 8004520:	2900      	cmp	r1, #0
 8004522:	bfc9      	itett	gt
 8004524:	eb05 5701 	addgt.w	r7, r5, r1, lsl #20
 8004528:	eba3 5901 	suble.w	r9, r3, r1, lsl #20
 800452c:	4624      	movgt	r4, r4
 800452e:	463d      	movgt	r5, r7
 8004530:	bfdc      	itt	le
 8004532:	4612      	movle	r2, r2
 8004534:	464b      	movle	r3, r9
 8004536:	4620      	mov	r0, r4
 8004538:	4629      	mov	r1, r5
 800453a:	f002 fb39 	bl	8006bb0 <__aeabi_ddiv>
 800453e:	b003      	add	sp, #12
 8004540:	e8bd 83f0 	ldmia.w	sp!, {r4, r5, r6, r7, r8, r9, pc}

08004544 <_mprec_log10>:
 8004544:	2817      	cmp	r0, #23
 8004546:	b510      	push	{r4, lr}
 8004548:	4604      	mov	r4, r0
 800454a:	dd0c      	ble.n	8004566 <_mprec_log10+0x22>
 800454c:	2100      	movs	r1, #0
 800454e:	2000      	movs	r0, #0
 8004550:	f6c3 71f0 	movt	r1, #16368	; 0x3ff0
 8004554:	2300      	movs	r3, #0
 8004556:	2200      	movs	r2, #0
 8004558:	f2c4 0324 	movt	r3, #16420	; 0x4024
 800455c:	f002 f9fe 	bl	800695c <__aeabi_dmul>
 8004560:	3c01      	subs	r4, #1
 8004562:	d1f7      	bne.n	8004554 <_mprec_log10+0x10>
 8004564:	bd10      	pop	{r4, pc}
 8004566:	f248 3398 	movw	r3, #33688	; 0x8398
 800456a:	f6c0 0300 	movt	r3, #2048	; 0x800
 800456e:	eb03 03c0 	add.w	r3, r3, r0, lsl #3
 8004572:	e9d3 0104 	ldrd	r0, r1, [r3, #16]
 8004576:	bd10      	pop	{r4, pc}

08004578 <__copybits>:
 8004578:	b470      	push	{r4, r5, r6}
 800457a:	3901      	subs	r1, #1
 800457c:	6915      	ldr	r5, [r2, #16]
 800457e:	f102 0314 	add.w	r3, r2, #20
 8004582:	114e      	asrs	r6, r1, #5
 8004584:	3601      	adds	r6, #1
 8004586:	eb02 0585 	add.w	r5, r2, r5, lsl #2
 800458a:	3514      	adds	r5, #20
 800458c:	eb00 0686 	add.w	r6, r0, r6, lsl #2
 8004590:	42ab      	cmp	r3, r5
 8004592:	d20c      	bcs.n	80045ae <__copybits+0x36>
 8004594:	4601      	mov	r1, r0
 8004596:	f853 4b04 	ldr.w	r4, [r3], #4
 800459a:	429d      	cmp	r5, r3
 800459c:	f841 4b04 	str.w	r4, [r1], #4
 80045a0:	d8f9      	bhi.n	8004596 <__copybits+0x1e>
 80045a2:	1aab      	subs	r3, r5, r2
 80045a4:	3b15      	subs	r3, #21
 80045a6:	f023 0303 	bic.w	r3, r3, #3
 80045aa:	3304      	adds	r3, #4
 80045ac:	18c0      	adds	r0, r0, r3
 80045ae:	4286      	cmp	r6, r0
 80045b0:	d904      	bls.n	80045bc <__copybits+0x44>
 80045b2:	2300      	movs	r3, #0
 80045b4:	f840 3b04 	str.w	r3, [r0], #4
 80045b8:	4286      	cmp	r6, r0
 80045ba:	d8fb      	bhi.n	80045b4 <__copybits+0x3c>
 80045bc:	bc70      	pop	{r4, r5, r6}
 80045be:	4770      	bx	lr

080045c0 <__any_on>:
 80045c0:	b430      	push	{r4, r5}
 80045c2:	114b      	asrs	r3, r1, #5
 80045c4:	6904      	ldr	r4, [r0, #16]
 80045c6:	f100 0214 	add.w	r2, r0, #20
 80045ca:	429c      	cmp	r4, r3
 80045cc:	bfb8      	it	lt
 80045ce:	4623      	movlt	r3, r4
 80045d0:	db00      	blt.n	80045d4 <__any_on+0x14>
 80045d2:	dc11      	bgt.n	80045f8 <__any_on+0x38>
 80045d4:	3304      	adds	r3, #4
 80045d6:	eb00 0083 	add.w	r0, r0, r3, lsl #2
 80045da:	1d03      	adds	r3, r0, #4
 80045dc:	429a      	cmp	r2, r3
 80045de:	d218      	bcs.n	8004612 <__any_on+0x52>
 80045e0:	f853 3c04 	ldr.w	r3, [r3, #-4]
 80045e4:	b92b      	cbnz	r3, 80045f2 <__any_on+0x32>
 80045e6:	4282      	cmp	r2, r0
 80045e8:	d213      	bcs.n	8004612 <__any_on+0x52>
 80045ea:	f850 3d04 	ldr.w	r3, [r0, #-4]!
 80045ee:	2b00      	cmp	r3, #0
 80045f0:	d0f9      	beq.n	80045e6 <__any_on+0x26>
 80045f2:	2001      	movs	r0, #1
 80045f4:	bc30      	pop	{r4, r5}
 80045f6:	4770      	bx	lr
 80045f8:	f011 011f 	ands.w	r1, r1, #31
 80045fc:	d0ea      	beq.n	80045d4 <__any_on+0x14>
 80045fe:	eb00 0483 	add.w	r4, r0, r3, lsl #2
 8004602:	6964      	ldr	r4, [r4, #20]
 8004604:	fa24 f501 	lsr.w	r5, r4, r1
 8004608:	fa05 f101 	lsl.w	r1, r5, r1
 800460c:	42a1      	cmp	r1, r4
 800460e:	d1f0      	bne.n	80045f2 <__any_on+0x32>
 8004610:	e7e0      	b.n	80045d4 <__any_on+0x14>
 8004612:	2000      	movs	r0, #0
 8004614:	e7ee      	b.n	80045f4 <__any_on+0x34>
 8004616:	bf00      	nop

08004618 <__fpclassifyd>:
 8004618:	ea50 0201 	orrs.w	r2, r0, r1
 800461c:	d101      	bne.n	8004622 <__fpclassifyd+0xa>
 800461e:	2002      	movs	r0, #2
 8004620:	4770      	bx	lr
 8004622:	f1d0 0201 	rsbs	r2, r0, #1
 8004626:	bf38      	it	cc
 8004628:	2200      	movcc	r2, #0
 800462a:	f1b1 4f00 	cmp.w	r1, #2147483648	; 0x80000000
 800462e:	bf08      	it	eq
 8004630:	2800      	cmpeq	r0, #0
 8004632:	d0f4      	beq.n	800461e <__fpclassifyd+0x6>
 8004634:	f021 4300 	bic.w	r3, r1, #2147483648	; 0x80000000
 8004638:	f64f 71ff 	movw	r1, #65535	; 0xffff
 800463c:	f5a3 1080 	sub.w	r0, r3, #1048576	; 0x100000
 8004640:	f6c7 71df 	movt	r1, #32735	; 0x7fdf
 8004644:	4288      	cmp	r0, r1
 8004646:	d801      	bhi.n	800464c <__fpclassifyd+0x34>
 8004648:	2004      	movs	r0, #4
 800464a:	4770      	bx	lr
 800464c:	f5b3 1f80 	cmp.w	r3, #1048576	; 0x100000
 8004650:	d201      	bcs.n	8004656 <__fpclassifyd+0x3e>
 8004652:	2003      	movs	r0, #3
 8004654:	4770      	bx	lr
 8004656:	2000      	movs	r0, #0
 8004658:	f6c7 70f0 	movt	r0, #32752	; 0x7ff0
 800465c:	4283      	cmp	r3, r0
 800465e:	bf14      	ite	ne
 8004660:	2000      	movne	r0, #0
 8004662:	f002 0001 	andeq.w	r0, r2, #1
 8004666:	4770      	bx	lr

08004668 <_sbrk_r>:
 8004668:	b538      	push	{r3, r4, r5, lr}
 800466a:	f240 54f0 	movw	r4, #1520	; 0x5f0
 800466e:	f2c2 0400 	movt	r4, #8192	; 0x2000
 8004672:	4605      	mov	r5, r0
 8004674:	4608      	mov	r0, r1
 8004676:	2300      	movs	r3, #0
 8004678:	6023      	str	r3, [r4, #0]
 800467a:	f003 fd5b 	bl	8008134 <_sbrk>
 800467e:	1c43      	adds	r3, r0, #1
 8004680:	d000      	beq.n	8004684 <_sbrk_r+0x1c>
 8004682:	bd38      	pop	{r3, r4, r5, pc}
 8004684:	6823      	ldr	r3, [r4, #0]
 8004686:	2b00      	cmp	r3, #0
 8004688:	d0fb      	beq.n	8004682 <_sbrk_r+0x1a>
 800468a:	602b      	str	r3, [r5, #0]
 800468c:	bd38      	pop	{r3, r4, r5, pc}
 800468e:	bf00      	nop

08004690 <__sread>:
 8004690:	b510      	push	{r4, lr}
 8004692:	460c      	mov	r4, r1
 8004694:	f9b1 100e 	ldrsh.w	r1, [r1, #14]
 8004698:	f001 fb6c 	bl	8005d74 <_read_r>
 800469c:	2800      	cmp	r0, #0
 800469e:	bfab      	itete	ge
 80046a0:	6d63      	ldrge	r3, [r4, #84]	; 0x54
 80046a2:	89a3      	ldrhlt	r3, [r4, #12]
 80046a4:	181b      	addge	r3, r3, r0
 80046a6:	f423 5380 	biclt.w	r3, r3, #4096	; 0x1000
 80046aa:	bfac      	ite	ge
 80046ac:	6563      	strge	r3, [r4, #84]	; 0x54
 80046ae:	81a3      	strhlt	r3, [r4, #12]
 80046b0:	bd10      	pop	{r4, pc}
 80046b2:	bf00      	nop

080046b4 <__seofread>:
 80046b4:	2000      	movs	r0, #0
 80046b6:	4770      	bx	lr

080046b8 <__swrite>:
 80046b8:	e92d 41f0 	stmdb	sp!, {r4, r5, r6, r7, r8, lr}
 80046bc:	460c      	mov	r4, r1
 80046be:	8989      	ldrh	r1, [r1, #12]
 80046c0:	461d      	mov	r5, r3
 80046c2:	4607      	mov	r7, r0
 80046c4:	4616      	mov	r6, r2
 80046c6:	f401 7380 	and.w	r3, r1, #256	; 0x100
 80046ca:	b21b      	sxth	r3, r3
 80046cc:	b133      	cbz	r3, 80046dc <__swrite+0x24>
 80046ce:	f9b4 100e 	ldrsh.w	r1, [r4, #14]
 80046d2:	2200      	movs	r2, #0
 80046d4:	2302      	movs	r3, #2
 80046d6:	f001 fad1 	bl	8005c7c <_lseek_r>
 80046da:	89a1      	ldrh	r1, [r4, #12]
 80046dc:	f421 5180 	bic.w	r1, r1, #4096	; 0x1000
 80046e0:	4638      	mov	r0, r7
 80046e2:	81a1      	strh	r1, [r4, #12]
 80046e4:	4632      	mov	r2, r6
 80046e6:	f9b4 100e 	ldrsh.w	r1, [r4, #14]
 80046ea:	462b      	mov	r3, r5
 80046ec:	e8bd 41f0 	ldmia.w	sp!, {r4, r5, r6, r7, r8, lr}
 80046f0:	f000 bfba 	b.w	8005668 <_write_r>

080046f4 <__sseek>:
 80046f4:	b510      	push	{r4, lr}
 80046f6:	460c      	mov	r4, r1
 80046f8:	f9b1 100e 	ldrsh.w	r1, [r1, #14]
 80046fc:	f001 fabe 	bl	8005c7c <_lseek_r>
 8004700:	89a3      	ldrh	r3, [r4, #12]
 8004702:	1c42      	adds	r2, r0, #1
 8004704:	bf16      	itet	ne
 8004706:	6560      	strne	r0, [r4, #84]	; 0x54
 8004708:	f423 5380 	biceq.w	r3, r3, #4096	; 0x1000
 800470c:	f443 5380 	orrne.w	r3, r3, #4096	; 0x1000
 8004710:	81a3      	strh	r3, [r4, #12]
 8004712:	bd10      	pop	{r4, pc}

08004714 <__sclose>:
 8004714:	f9b1 100e 	ldrsh.w	r1, [r1, #14]
 8004718:	f000 bfec 	b.w	80056f4 <_close_r>

0800471c <strcmp>:
 800471c:	ea80 0201 	eor.w	r2, r0, r1
 8004720:	f012 0f03 	tst.w	r2, #3
 8004724:	f040 803a 	bne.w	800479c <strcmp_unaligned>
 8004728:	f010 0203 	ands.w	r2, r0, #3
 800472c:	f020 0003 	bic.w	r0, r0, #3
 8004730:	f021 0103 	bic.w	r1, r1, #3
 8004734:	f850 cb04 	ldr.w	ip, [r0], #4
 8004738:	bf08      	it	eq
 800473a:	f851 3b04 	ldreq.w	r3, [r1], #4
 800473e:	d00d      	beq.n	800475c <strcmp+0x40>
 8004740:	f082 0203 	eor.w	r2, r2, #3
 8004744:	ea4f 02c2 	mov.w	r2, r2, lsl #3
 8004748:	f06f 437f 	mvn.w	r3, #4278190080	; 0xff000000
 800474c:	fa23 f202 	lsr.w	r2, r3, r2
 8004750:	f851 3b04 	ldr.w	r3, [r1], #4
 8004754:	ea4c 0c02 	orr.w	ip, ip, r2
 8004758:	ea43 0302 	orr.w	r3, r3, r2
 800475c:	f1ac 3201 	sub.w	r2, ip, #16843009	; 0x1010101
 8004760:	459c      	cmp	ip, r3
 8004762:	bf01      	itttt	eq
 8004764:	ea22 020c 	biceq.w	r2, r2, ip
 8004768:	f012 3f80 	tsteq.w	r2, #2155905152	; 0x80808080
 800476c:	f850 cb04 	ldreq.w	ip, [r0], #4
 8004770:	f851 3b04 	ldreq.w	r3, [r1], #4
 8004774:	d0f2      	beq.n	800475c <strcmp+0x40>
 8004776:	ea4f 600c 	mov.w	r0, ip, lsl #24
 800477a:	ea4f 2c1c 	mov.w	ip, ip, lsr #8
 800477e:	2801      	cmp	r0, #1
 8004780:	bf28      	it	cs
 8004782:	ebb0 6f03 	cmpcs.w	r0, r3, lsl #24
 8004786:	bf08      	it	eq
 8004788:	0a1b      	lsreq	r3, r3, #8
 800478a:	d0f4      	beq.n	8004776 <strcmp+0x5a>
 800478c:	f003 03ff 	and.w	r3, r3, #255	; 0xff
 8004790:	ea4f 6010 	mov.w	r0, r0, lsr #24
 8004794:	eba0 0003 	sub.w	r0, r0, r3
 8004798:	4770      	bx	lr
 800479a:	bf00      	nop

0800479c <strcmp_unaligned>:
 800479c:	f010 0f03 	tst.w	r0, #3
 80047a0:	d00a      	beq.n	80047b8 <strcmp_unaligned+0x1c>
 80047a2:	f810 2b01 	ldrb.w	r2, [r0], #1
 80047a6:	f811 3b01 	ldrb.w	r3, [r1], #1
 80047aa:	2a01      	cmp	r2, #1
 80047ac:	bf28      	it	cs
 80047ae:	429a      	cmpcs	r2, r3
 80047b0:	d0f4      	beq.n	800479c <strcmp_unaligned>
 80047b2:	eba2 0003 	sub.w	r0, r2, r3
 80047b6:	4770      	bx	lr
 80047b8:	f84d 5d04 	str.w	r5, [sp, #-4]!
 80047bc:	f84d 4d04 	str.w	r4, [sp, #-4]!
 80047c0:	f04f 0201 	mov.w	r2, #1
 80047c4:	ea42 2202 	orr.w	r2, r2, r2, lsl #8
 80047c8:	ea42 4202 	orr.w	r2, r2, r2, lsl #16
 80047cc:	f001 0c03 	and.w	ip, r1, #3
 80047d0:	f021 0103 	bic.w	r1, r1, #3
 80047d4:	f850 4b04 	ldr.w	r4, [r0], #4
 80047d8:	f851 5b04 	ldr.w	r5, [r1], #4
 80047dc:	f1bc 0f02 	cmp.w	ip, #2
 80047e0:	d026      	beq.n	8004830 <strcmp_unaligned+0x94>
 80047e2:	d84b      	bhi.n	800487c <strcmp_unaligned+0xe0>
 80047e4:	f024 4c7f 	bic.w	ip, r4, #4278190080	; 0xff000000
 80047e8:	ebbc 2f15 	cmp.w	ip, r5, lsr #8
 80047ec:	eba4 0302 	sub.w	r3, r4, r2
 80047f0:	ea23 0304 	bic.w	r3, r3, r4
 80047f4:	d10d      	bne.n	8004812 <strcmp_unaligned+0x76>
 80047f6:	ea13 13c2 	ands.w	r3, r3, r2, lsl #7
 80047fa:	bf08      	it	eq
 80047fc:	f851 5b04 	ldreq.w	r5, [r1], #4
 8004800:	d10a      	bne.n	8004818 <strcmp_unaligned+0x7c>
 8004802:	ea8c 0c04 	eor.w	ip, ip, r4
 8004806:	ebbc 6f05 	cmp.w	ip, r5, lsl #24
 800480a:	d10c      	bne.n	8004826 <strcmp_unaligned+0x8a>
 800480c:	f850 4b04 	ldr.w	r4, [r0], #4
 8004810:	e7e8      	b.n	80047e4 <strcmp_unaligned+0x48>
 8004812:	ea4f 2515 	mov.w	r5, r5, lsr #8
 8004816:	e05c      	b.n	80048d2 <strcmp_unaligned+0x136>
 8004818:	f033 437f 	bics.w	r3, r3, #4278190080	; 0xff000000
 800481c:	d152      	bne.n	80048c4 <strcmp_unaligned+0x128>
 800481e:	780d      	ldrb	r5, [r1, #0]
 8004820:	ea4f 6c14 	mov.w	ip, r4, lsr #24
 8004824:	e055      	b.n	80048d2 <strcmp_unaligned+0x136>
 8004826:	ea4f 6c14 	mov.w	ip, r4, lsr #24
 800482a:	f005 05ff 	and.w	r5, r5, #255	; 0xff
 800482e:	e050      	b.n	80048d2 <strcmp_unaligned+0x136>
 8004830:	ea4f 4c04 	mov.w	ip, r4, lsl #16
 8004834:	eba4 0302 	sub.w	r3, r4, r2
 8004838:	ea4f 4c1c 	mov.w	ip, ip, lsr #16
 800483c:	ea23 0304 	bic.w	r3, r3, r4
 8004840:	ebbc 4f15 	cmp.w	ip, r5, lsr #16
 8004844:	d117      	bne.n	8004876 <strcmp_unaligned+0xda>
 8004846:	ea13 13c2 	ands.w	r3, r3, r2, lsl #7
 800484a:	bf08      	it	eq
 800484c:	f851 5b04 	ldreq.w	r5, [r1], #4
 8004850:	d107      	bne.n	8004862 <strcmp_unaligned+0xc6>
 8004852:	ea8c 0c04 	eor.w	ip, ip, r4
 8004856:	ebbc 4f05 	cmp.w	ip, r5, lsl #16
 800485a:	d108      	bne.n	800486e <strcmp_unaligned+0xd2>
 800485c:	f850 4b04 	ldr.w	r4, [r0], #4
 8004860:	e7e6      	b.n	8004830 <strcmp_unaligned+0x94>
 8004862:	041b      	lsls	r3, r3, #16
 8004864:	d12e      	bne.n	80048c4 <strcmp_unaligned+0x128>
 8004866:	880d      	ldrh	r5, [r1, #0]
 8004868:	ea4f 4c14 	mov.w	ip, r4, lsr #16
 800486c:	e031      	b.n	80048d2 <strcmp_unaligned+0x136>
 800486e:	ea4f 4505 	mov.w	r5, r5, lsl #16
 8004872:	ea4f 4c14 	mov.w	ip, r4, lsr #16
 8004876:	ea4f 4515 	mov.w	r5, r5, lsr #16
 800487a:	e02a      	b.n	80048d2 <strcmp_unaligned+0x136>
 800487c:	f004 0cff 	and.w	ip, r4, #255	; 0xff
 8004880:	ebbc 6f15 	cmp.w	ip, r5, lsr #24
 8004884:	eba4 0302 	sub.w	r3, r4, r2
 8004888:	ea23 0304 	bic.w	r3, r3, r4
 800488c:	d10d      	bne.n	80048aa <strcmp_unaligned+0x10e>
 800488e:	ea13 13c2 	ands.w	r3, r3, r2, lsl #7
 8004892:	bf08      	it	eq
 8004894:	f851 5b04 	ldreq.w	r5, [r1], #4
 8004898:	d10a      	bne.n	80048b0 <strcmp_unaligned+0x114>
 800489a:	ea8c 0c04 	eor.w	ip, ip, r4
 800489e:	ebbc 2f05 	cmp.w	ip, r5, lsl #8
 80048a2:	d10a      	bne.n	80048ba <strcmp_unaligned+0x11e>
 80048a4:	f850 4b04 	ldr.w	r4, [r0], #4
 80048a8:	e7e8      	b.n	800487c <strcmp_unaligned+0xe0>
 80048aa:	ea4f 6515 	mov.w	r5, r5, lsr #24
 80048ae:	e010      	b.n	80048d2 <strcmp_unaligned+0x136>
 80048b0:	f014 0fff 	tst.w	r4, #255	; 0xff
 80048b4:	d006      	beq.n	80048c4 <strcmp_unaligned+0x128>
 80048b6:	f851 5b04 	ldr.w	r5, [r1], #4
 80048ba:	ea4f 2c14 	mov.w	ip, r4, lsr #8
 80048be:	f025 457f 	bic.w	r5, r5, #4278190080	; 0xff000000
 80048c2:	e006      	b.n	80048d2 <strcmp_unaligned+0x136>
 80048c4:	f04f 0000 	mov.w	r0, #0
 80048c8:	f85d 4b04 	ldr.w	r4, [sp], #4
 80048cc:	f85d 5b04 	ldr.w	r5, [sp], #4
 80048d0:	4770      	bx	lr
 80048d2:	f00c 02ff 	and.w	r2, ip, #255	; 0xff
 80048d6:	f005 00ff 	and.w	r0, r5, #255	; 0xff
 80048da:	2801      	cmp	r0, #1
 80048dc:	bf28      	it	cs
 80048de:	4290      	cmpcs	r0, r2
 80048e0:	bf04      	itt	eq
 80048e2:	ea4f 2c1c 	moveq.w	ip, ip, lsr #8
 80048e6:	0a2d      	lsreq	r5, r5, #8
 80048e8:	d0f3      	beq.n	80048d2 <strcmp_unaligned+0x136>
 80048ea:	eba2 0000 	sub.w	r0, r2, r0
 80048ee:	f85d 4b04 	ldr.w	r4, [sp], #4
 80048f2:	f85d 5b04 	ldr.w	r5, [sp], #4
 80048f6:	4770      	bx	lr

080048f8 <strlen>:
 80048f8:	f020 0103 	bic.w	r1, r0, #3
 80048fc:	f010 0003 	ands.w	r0, r0, #3
 8004900:	f1c0 0000 	rsb	r0, r0, #0
 8004904:	f851 3b04 	ldr.w	r3, [r1], #4
 8004908:	f100 0c04 	add.w	ip, r0, #4
 800490c:	ea4f 0ccc 	mov.w	ip, ip, lsl #3
 8004910:	f06f 0200 	mvn.w	r2, #0
 8004914:	bf1c      	itt	ne
 8004916:	fa22 f20c 	lsrne.w	r2, r2, ip
 800491a:	4313      	orrne	r3, r2
 800491c:	f04f 0c01 	mov.w	ip, #1
 8004920:	ea4c 2c0c 	orr.w	ip, ip, ip, lsl #8
 8004924:	ea4c 4c0c 	orr.w	ip, ip, ip, lsl #16
 8004928:	eba3 020c 	sub.w	r2, r3, ip
 800492c:	ea22 0203 	bic.w	r2, r2, r3
 8004930:	ea12 12cc 	ands.w	r2, r2, ip, lsl #7
 8004934:	bf04      	itt	eq
 8004936:	f851 3b04 	ldreq.w	r3, [r1], #4
 800493a:	3004      	addeq	r0, #4
 800493c:	d0f4      	beq.n	8004928 <strlen+0x30>
 800493e:	f013 0fff 	tst.w	r3, #255	; 0xff
 8004942:	bf1f      	itttt	ne
 8004944:	3001      	addne	r0, #1
 8004946:	f413 4f7f 	tstne.w	r3, #65280	; 0xff00
 800494a:	3001      	addne	r0, #1
 800494c:	f413 0f7f 	tstne.w	r3, #16711680	; 0xff0000
 8004950:	bf18      	it	ne
 8004952:	3001      	addne	r0, #1
 8004954:	4770      	bx	lr
 8004956:	bf00      	nop

08004958 <__sprint_r>:
 8004958:	6893      	ldr	r3, [r2, #8]
 800495a:	e92d 47f0 	stmdb	sp!, {r4, r5, r6, r7, r8, r9, sl, lr}
 800495e:	4691      	mov	r9, r2
 8004960:	4607      	mov	r7, r0
 8004962:	460e      	mov	r6, r1
 8004964:	b373      	cbz	r3, 80049c4 <__sprint_r+0x6c>
 8004966:	6e4c      	ldr	r4, [r1, #100]	; 0x64
 8004968:	f414 5f00 	tst.w	r4, #8192	; 0x2000
 800496c:	d02e      	beq.n	80049cc <__sprint_r+0x74>
 800496e:	6812      	ldr	r2, [r2, #0]
 8004970:	f102 0a08 	add.w	sl, r2, #8
 8004974:	f85a 2c04 	ldr.w	r2, [sl, #-4]
 8004978:	f85a 5c08 	ldr.w	r5, [sl, #-8]
 800497c:	ea5f 0892 	movs.w	r8, r2, lsr #2
 8004980:	d016      	beq.n	80049b0 <__sprint_r+0x58>
 8004982:	3d04      	subs	r5, #4
 8004984:	2400      	movs	r4, #0
 8004986:	e001      	b.n	800498c <__sprint_r+0x34>
 8004988:	45a0      	cmp	r8, r4
 800498a:	d00f      	beq.n	80049ac <__sprint_r+0x54>
 800498c:	4638      	mov	r0, r7
 800498e:	f855 1f04 	ldr.w	r1, [r5, #4]!
 8004992:	4632      	mov	r2, r6
 8004994:	3401      	adds	r4, #1
 8004996:	f000 ff25 	bl	80057e4 <_fputwc_r>
 800499a:	1c43      	adds	r3, r0, #1
 800499c:	d1f4      	bne.n	8004988 <__sprint_r+0x30>
 800499e:	2300      	movs	r3, #0
 80049a0:	f8c9 3008 	str.w	r3, [r9, #8]
 80049a4:	f8c9 3004 	str.w	r3, [r9, #4]
 80049a8:	e8bd 87f0 	ldmia.w	sp!, {r4, r5, r6, r7, r8, r9, sl, pc}
 80049ac:	f8d9 3008 	ldr.w	r3, [r9, #8]
 80049b0:	eba3 0388 	sub.w	r3, r3, r8, lsl #2
 80049b4:	f10a 0a08 	add.w	sl, sl, #8
 80049b8:	f8c9 3008 	str.w	r3, [r9, #8]
 80049bc:	2b00      	cmp	r3, #0
 80049be:	d1d9      	bne.n	8004974 <__sprint_r+0x1c>
 80049c0:	4618      	mov	r0, r3
 80049c2:	e7ec      	b.n	800499e <__sprint_r+0x46>
 80049c4:	6053      	str	r3, [r2, #4]
 80049c6:	4618      	mov	r0, r3
 80049c8:	e8bd 87f0 	ldmia.w	sp!, {r4, r5, r6, r7, r8, r9, sl, pc}
 80049cc:	f000 ffb4 	bl	8005938 <__sfvwrite_r>
 80049d0:	e7e5      	b.n	800499e <__sprint_r+0x46>
 80049d2:	bf00      	nop

080049d4 <_vfiprintf_r>:
 80049d4:	e92d 4ff0 	stmdb	sp!, {r4, r5, r6, r7, r8, r9, sl, fp, lr}
 80049d8:	f2ad 4dec 	subw	sp, sp, #1260	; 0x4ec
 80049dc:	4689      	mov	r9, r1
 80049de:	4615      	mov	r5, r2
 80049e0:	9309      	str	r3, [sp, #36]	; 0x24
 80049e2:	9007      	str	r0, [sp, #28]
 80049e4:	b118      	cbz	r0, 80049ee <_vfiprintf_r+0x1a>
 80049e6:	6983      	ldr	r3, [r0, #24]
 80049e8:	2b00      	cmp	r3, #0
 80049ea:	f000 84cb 	beq.w	8005384 <_vfiprintf_r+0x9b0>
 80049ee:	f248 3378 	movw	r3, #33656	; 0x8378
 80049f2:	f6c0 0300 	movt	r3, #2048	; 0x800
 80049f6:	4599      	cmp	r9, r3
 80049f8:	f000 84cd 	beq.w	8005396 <_vfiprintf_r+0x9c2>
 80049fc:	f248 3358 	movw	r3, #33624	; 0x8358
 8004a00:	f6c0 0300 	movt	r3, #2048	; 0x800
 8004a04:	4599      	cmp	r9, r3
 8004a06:	f000 85ca 	beq.w	800559e <_vfiprintf_r+0xbca>
 8004a0a:	f248 3338 	movw	r3, #33592	; 0x8338
 8004a0e:	f6c0 0300 	movt	r3, #2048	; 0x800
 8004a12:	4599      	cmp	r9, r3
 8004a14:	bf04      	itt	eq
 8004a16:	f8dd b01c 	ldreq.w	fp, [sp, #28]
 8004a1a:	f8db 900c 	ldreq.w	r9, [fp, #12]
 8004a1e:	f8b9 c00c 	ldrh.w	ip, [r9, #12]
 8004a22:	f40c 5300 	and.w	r3, ip, #8192	; 0x2000
 8004a26:	b21b      	sxth	r3, r3
 8004a28:	b94b      	cbnz	r3, 8004a3e <_vfiprintf_r+0x6a>
 8004a2a:	f8d9 3064 	ldr.w	r3, [r9, #100]	; 0x64
 8004a2e:	f44c 5c00 	orr.w	ip, ip, #8192	; 0x2000
 8004a32:	f8a9 c00c 	strh.w	ip, [r9, #12]
 8004a36:	f423 5300 	bic.w	r3, r3, #8192	; 0x2000
 8004a3a:	f8c9 3064 	str.w	r3, [r9, #100]	; 0x64
 8004a3e:	f00c 0308 	and.w	r3, ip, #8
 8004a42:	b21b      	sxth	r3, r3
 8004a44:	2b00      	cmp	r3, #0
 8004a46:	f000 842d 	beq.w	80052a4 <_vfiprintf_r+0x8d0>
 8004a4a:	f8d9 3010 	ldr.w	r3, [r9, #16]
 8004a4e:	2b00      	cmp	r3, #0
 8004a50:	f000 8428 	beq.w	80052a4 <_vfiprintf_r+0x8d0>
 8004a54:	f00c 031a 	and.w	r3, ip, #26
 8004a58:	2b0a      	cmp	r3, #10
 8004a5a:	f000 8431 	beq.w	80052c0 <_vfiprintf_r+0x8ec>
 8004a5e:	462e      	mov	r6, r5
 8004a60:	f10d 0a80 	add.w	sl, sp, #128	; 0x80
 8004a64:	f10d 0b7f 	add.w	fp, sp, #127	; 0x7f
 8004a68:	2300      	movs	r3, #0
 8004a6a:	f8cd a00c 	str.w	sl, [sp, #12]
 8004a6e:	f10d 08e8 	add.w	r8, sp, #232	; 0xe8
 8004a72:	ebcb 0a0a 	rsb	sl, fp, sl
 8004a76:	930d      	str	r3, [sp, #52]	; 0x34
 8004a78:	f8cd b008 	str.w	fp, [sp, #8]
 8004a7c:	9305      	str	r3, [sp, #20]
 8004a7e:	f8cd a03c 	str.w	sl, [sp, #60]	; 0x3c
 8004a82:	f8cd 804c 	str.w	r8, [sp, #76]	; 0x4c
 8004a86:	9315      	str	r3, [sp, #84]	; 0x54
 8004a88:	9314      	str	r3, [sp, #80]	; 0x50
 8004a8a:	7833      	ldrb	r3, [r6, #0]
 8004a8c:	2b25      	cmp	r3, #37	; 0x25
 8004a8e:	bf18      	it	ne
 8004a90:	2b00      	cmpne	r3, #0
 8004a92:	f000 8383 	beq.w	800519c <_vfiprintf_r+0x7c8>
 8004a96:	1c72      	adds	r2, r6, #1
 8004a98:	4614      	mov	r4, r2
 8004a9a:	3201      	adds	r2, #1
 8004a9c:	7823      	ldrb	r3, [r4, #0]
 8004a9e:	2b25      	cmp	r3, #37	; 0x25
 8004aa0:	bf18      	it	ne
 8004aa2:	2b00      	cmpne	r3, #0
 8004aa4:	d1f8      	bne.n	8004a98 <_vfiprintf_r+0xc4>
 8004aa6:	1ba5      	subs	r5, r4, r6
 8004aa8:	d012      	beq.n	8004ad0 <_vfiprintf_r+0xfc>
 8004aaa:	9b14      	ldr	r3, [sp, #80]	; 0x50
 8004aac:	9a15      	ldr	r2, [sp, #84]	; 0x54
 8004aae:	3301      	adds	r3, #1
 8004ab0:	f8c8 6000 	str.w	r6, [r8]
 8004ab4:	2b07      	cmp	r3, #7
 8004ab6:	f8c8 5004 	str.w	r5, [r8, #4]
 8004aba:	442a      	add	r2, r5
 8004abc:	9314      	str	r3, [sp, #80]	; 0x50
 8004abe:	9215      	str	r2, [sp, #84]	; 0x54
 8004ac0:	bfd8      	it	le
 8004ac2:	f108 0808 	addle.w	r8, r8, #8
 8004ac6:	f300 843b 	bgt.w	8005340 <_vfiprintf_r+0x96c>
 8004aca:	9e05      	ldr	r6, [sp, #20]
 8004acc:	1976      	adds	r6, r6, r5
 8004ace:	9605      	str	r6, [sp, #20]
 8004ad0:	7823      	ldrb	r3, [r4, #0]
 8004ad2:	2b00      	cmp	r3, #0
 8004ad4:	f000 8569 	beq.w	80055aa <_vfiprintf_r+0xbd6>
 8004ad8:	2300      	movs	r3, #0
 8004ada:	f88d 3047 	strb.w	r3, [sp, #71]	; 0x47
 8004ade:	461a      	mov	r2, r3
 8004ae0:	7863      	ldrb	r3, [r4, #1]
 8004ae2:	1c66      	adds	r6, r4, #1
 8004ae4:	f04f 3cff 	mov.w	ip, #4294967295
 8004ae8:	4617      	mov	r7, r2
 8004aea:	9208      	str	r2, [sp, #32]
 8004aec:	3601      	adds	r6, #1
 8004aee:	f1a3 0120 	sub.w	r1, r3, #32
 8004af2:	2958      	cmp	r1, #88	; 0x58
 8004af4:	f200 820a 	bhi.w	8004f0c <_vfiprintf_r+0x538>
 8004af8:	e8df f011 	tbh	[pc, r1, lsl #1]
 8004afc:	02080202 	.word	0x02080202
 8004b00:	01fe0208 	.word	0x01fe0208
 8004b04:	02080208 	.word	0x02080208
 8004b08:	02080208 	.word	0x02080208
 8004b0c:	02080208 	.word	0x02080208
 8004b10:	021700e1 	.word	0x021700e1
 8004b14:	00ef0208 	.word	0x00ef0208
 8004b18:	0208021a 	.word	0x0208021a
 8004b1c:	0239024a 	.word	0x0239024a
 8004b20:	02390239 	.word	0x02390239
 8004b24:	02390239 	.word	0x02390239
 8004b28:	02390239 	.word	0x02390239
 8004b2c:	02390239 	.word	0x02390239
 8004b30:	02080208 	.word	0x02080208
 8004b34:	02080208 	.word	0x02080208
 8004b38:	02080208 	.word	0x02080208
 8004b3c:	02080208 	.word	0x02080208
 8004b40:	02080208 	.word	0x02080208
 8004b44:	02080059 	.word	0x02080059
 8004b48:	02080208 	.word	0x02080208
 8004b4c:	02080208 	.word	0x02080208
 8004b50:	02080208 	.word	0x02080208
 8004b54:	02080208 	.word	0x02080208
 8004b58:	00d50208 	.word	0x00d50208
 8004b5c:	02080208 	.word	0x02080208
 8004b60:	02080208 	.word	0x02080208
 8004b64:	00b90208 	.word	0x00b90208
 8004b68:	02080208 	.word	0x02080208
 8004b6c:	020801a0 	.word	0x020801a0
 8004b70:	02080208 	.word	0x02080208
 8004b74:	02080208 	.word	0x02080208
 8004b78:	02080208 	.word	0x02080208
 8004b7c:	02080208 	.word	0x02080208
 8004b80:	01420208 	.word	0x01420208
 8004b84:	0208005b 	.word	0x0208005b
 8004b88:	02080208 	.word	0x02080208
 8004b8c:	005b01c8 	.word	0x005b01c8
 8004b90:	02080208 	.word	0x02080208
 8004b94:	020801bb 	.word	0x020801bb
 8004b98:	00d701cc 	.word	0x00d701cc
 8004b9c:	01df01e3 	.word	0x01df01e3
 8004ba0:	01150208 	.word	0x01150208
 8004ba4:	00bb0208 	.word	0x00bb0208
 8004ba8:	02080208 	.word	0x02080208
 8004bac:	00f3      	.short	0x00f3
 8004bae:	f047 0710 	orr.w	r7, r7, #16
 8004bb2:	f88d 2047 	strb.w	r2, [sp, #71]	; 0x47
 8004bb6:	06ba      	lsls	r2, r7, #26
 8004bb8:	f140 845a 	bpl.w	8005470 <_vfiprintf_r+0xa9c>
 8004bbc:	f8dd a024 	ldr.w	sl, [sp, #36]	; 0x24
 8004bc0:	f10a 0307 	add.w	r3, sl, #7
 8004bc4:	f023 0307 	bic.w	r3, r3, #7
 8004bc8:	f103 0b08 	add.w	fp, r3, #8
 8004bcc:	f8cd b024 	str.w	fp, [sp, #36]	; 0x24
 8004bd0:	e9d3 2300 	ldrd	r2, r3, [r3]
 8004bd4:	4614      	mov	r4, r2
 8004bd6:	461d      	mov	r5, r3
 8004bd8:	2a00      	cmp	r2, #0
 8004bda:	f173 0b00 	sbcs.w	fp, r3, #0
 8004bde:	f2c0 84b2 	blt.w	8005546 <_vfiprintf_r+0xb72>
 8004be2:	ea54 0005 	orrs.w	r0, r4, r5
 8004be6:	f89d b047 	ldrb.w	fp, [sp, #71]	; 0x47
 8004bea:	bf0c      	ite	eq
 8004bec:	2100      	moveq	r1, #0
 8004bee:	2101      	movne	r1, #1
 8004bf0:	2201      	movs	r2, #1
 8004bf2:	f1bc 0f00 	cmp.w	ip, #0
 8004bf6:	bfa8      	it	ge
 8004bf8:	f027 0780 	bicge.w	r7, r7, #128	; 0x80
 8004bfc:	f1bc 0f00 	cmp.w	ip, #0
 8004c00:	bf0c      	ite	eq
 8004c02:	460b      	moveq	r3, r1
 8004c04:	f041 0301 	orrne.w	r3, r1, #1
 8004c08:	2b00      	cmp	r3, #0
 8004c0a:	f000 82c9 	beq.w	80051a0 <_vfiprintf_r+0x7cc>
 8004c0e:	2a01      	cmp	r2, #1
 8004c10:	f000 83eb 	beq.w	80053ea <_vfiprintf_r+0xa16>
 8004c14:	2a02      	cmp	r2, #2
 8004c16:	f000 83c3 	beq.w	80053a0 <_vfiprintf_r+0x9cc>
 8004c1a:	f10d 007f 	add.w	r0, sp, #127	; 0x7f
 8004c1e:	f8cd b010 	str.w	fp, [sp, #16]
 8004c22:	08e1      	lsrs	r1, r4, #3
 8004c24:	f04f 0a07 	mov.w	sl, #7
 8004c28:	ea04 020a 	and.w	r2, r4, sl
 8004c2c:	ea41 7145 	orr.w	r1, r1, r5, lsl #29
 8004c30:	ea4f 0ad5 	mov.w	sl, r5, lsr #3
 8004c34:	460c      	mov	r4, r1
 8004c36:	4655      	mov	r5, sl
 8004c38:	4603      	mov	r3, r0
 8004c3a:	3230      	adds	r2, #48	; 0x30
 8004c3c:	3801      	subs	r0, #1
 8004c3e:	ea54 0b05 	orrs.w	fp, r4, r5
 8004c42:	b2d2      	uxtb	r2, r2
 8004c44:	701a      	strb	r2, [r3, #0]
 8004c46:	d1ec      	bne.n	8004c22 <_vfiprintf_r+0x24e>
 8004c48:	07fd      	lsls	r5, r7, #31
 8004c4a:	930b      	str	r3, [sp, #44]	; 0x2c
 8004c4c:	f8dd b010 	ldr.w	fp, [sp, #16]
 8004c50:	f140 8447 	bpl.w	80054e2 <_vfiprintf_r+0xb0e>
 8004c54:	2a30      	cmp	r2, #48	; 0x30
 8004c56:	f000 83ec 	beq.w	8005432 <_vfiprintf_r+0xa5e>
 8004c5a:	f8dd a00c 	ldr.w	sl, [sp, #12]
 8004c5e:	2230      	movs	r2, #48	; 0x30
 8004c60:	900b      	str	r0, [sp, #44]	; 0x2c
 8004c62:	f803 2c01 	strb.w	r2, [r3, #-1]
 8004c66:	ebc0 000a 	rsb	r0, r0, sl
 8004c6a:	9004      	str	r0, [sp, #16]
 8004c6c:	e2a5      	b.n	80051ba <_vfiprintf_r+0x7e6>
 8004c6e:	f047 0710 	orr.w	r7, r7, #16
 8004c72:	06ba      	lsls	r2, r7, #26
 8004c74:	f140 840d 	bpl.w	8005492 <_vfiprintf_r+0xabe>
 8004c78:	f8dd a024 	ldr.w	sl, [sp, #36]	; 0x24
 8004c7c:	2201      	movs	r2, #1
 8004c7e:	f10a 0307 	add.w	r3, sl, #7
 8004c82:	f023 0307 	bic.w	r3, r3, #7
 8004c86:	f103 0b08 	add.w	fp, r3, #8
 8004c8a:	f8cd b024 	str.w	fp, [sp, #36]	; 0x24
 8004c8e:	e9d3 4500 	ldrd	r4, r5, [r3]
 8004c92:	ea54 0005 	orrs.w	r0, r4, r5
 8004c96:	bf0c      	ite	eq
 8004c98:	2100      	moveq	r1, #0
 8004c9a:	2101      	movne	r1, #1
 8004c9c:	f04f 0b00 	mov.w	fp, #0
 8004ca0:	f88d b047 	strb.w	fp, [sp, #71]	; 0x47
 8004ca4:	e7a5      	b.n	8004bf2 <_vfiprintf_r+0x21e>
 8004ca6:	f047 0710 	orr.w	r7, r7, #16
 8004caa:	f017 0220 	ands.w	r2, r7, #32
 8004cae:	f000 83c7 	beq.w	8005440 <_vfiprintf_r+0xa6c>
 8004cb2:	f8dd a024 	ldr.w	sl, [sp, #36]	; 0x24
 8004cb6:	2200      	movs	r2, #0
 8004cb8:	f10a 0307 	add.w	r3, sl, #7
 8004cbc:	e7e1      	b.n	8004c82 <_vfiprintf_r+0x2ae>
 8004cbe:	9809      	ldr	r0, [sp, #36]	; 0x24
 8004cc0:	f8dd a024 	ldr.w	sl, [sp, #36]	; 0x24
 8004cc4:	6800      	ldr	r0, [r0, #0]
 8004cc6:	f10a 0104 	add.w	r1, sl, #4
 8004cca:	2800      	cmp	r0, #0
 8004ccc:	9008      	str	r0, [sp, #32]
 8004cce:	f280 83fb 	bge.w	80054c8 <_vfiprintf_r+0xaf4>
 8004cd2:	9808      	ldr	r0, [sp, #32]
 8004cd4:	9109      	str	r1, [sp, #36]	; 0x24
 8004cd6:	4240      	negs	r0, r0
 8004cd8:	9008      	str	r0, [sp, #32]
 8004cda:	f047 0704 	orr.w	r7, r7, #4
 8004cde:	7833      	ldrb	r3, [r6, #0]
 8004ce0:	e704      	b.n	8004aec <_vfiprintf_r+0x118>
 8004ce2:	06bc      	lsls	r4, r7, #26
 8004ce4:	f248 5b08 	movw	fp, #34056	; 0x8508
 8004ce8:	f6c0 0b00 	movt	fp, #2048	; 0x800
 8004cec:	f88d 2047 	strb.w	r2, [sp, #71]	; 0x47
 8004cf0:	f8cd b034 	str.w	fp, [sp, #52]	; 0x34
 8004cf4:	f140 80ad 	bpl.w	8004e52 <_vfiprintf_r+0x47e>
 8004cf8:	f8dd a024 	ldr.w	sl, [sp, #36]	; 0x24
 8004cfc:	f10a 0207 	add.w	r2, sl, #7
 8004d00:	f022 0207 	bic.w	r2, r2, #7
 8004d04:	f102 0b08 	add.w	fp, r2, #8
 8004d08:	f8cd b024 	str.w	fp, [sp, #36]	; 0x24
 8004d0c:	e9d2 4500 	ldrd	r4, r5, [r2]
 8004d10:	07fa      	lsls	r2, r7, #31
 8004d12:	f100 83c8 	bmi.w	80054a6 <_vfiprintf_r+0xad2>
 8004d16:	ea54 0b05 	orrs.w	fp, r4, r5
 8004d1a:	f04f 0202 	mov.w	r2, #2
 8004d1e:	bf0c      	ite	eq
 8004d20:	2100      	moveq	r1, #0
 8004d22:	2101      	movne	r1, #1
 8004d24:	e7ba      	b.n	8004c9c <_vfiprintf_r+0x2c8>
 8004d26:	9b09      	ldr	r3, [sp, #36]	; 0x24
 8004d28:	2400      	movs	r4, #0
 8004d2a:	f8dd b024 	ldr.w	fp, [sp, #36]	; 0x24
 8004d2e:	f88d 4047 	strb.w	r4, [sp, #71]	; 0x47
 8004d32:	681b      	ldr	r3, [r3, #0]
 8004d34:	f10b 0a04 	add.w	sl, fp, #4
 8004d38:	930b      	str	r3, [sp, #44]	; 0x2c
 8004d3a:	2b00      	cmp	r3, #0
 8004d3c:	f000 845c 	beq.w	80055f8 <_vfiprintf_r+0xc24>
 8004d40:	f1bc 0f00 	cmp.w	ip, #0
 8004d44:	980b      	ldr	r0, [sp, #44]	; 0x2c
 8004d46:	f2c0 844e 	blt.w	80055e6 <_vfiprintf_r+0xc12>
 8004d4a:	4662      	mov	r2, ip
 8004d4c:	4621      	mov	r1, r4
 8004d4e:	f8cd c004 	str.w	ip, [sp, #4]
 8004d52:	f7fe fe6b 	bl	8003a2c <memchr>
 8004d56:	f8dd c004 	ldr.w	ip, [sp, #4]
 8004d5a:	2800      	cmp	r0, #0
 8004d5c:	f000 845e 	beq.w	800561c <_vfiprintf_r+0xc48>
 8004d60:	9b0b      	ldr	r3, [sp, #44]	; 0x2c
 8004d62:	f89d b047 	ldrb.w	fp, [sp, #71]	; 0x47
 8004d66:	1ac0      	subs	r0, r0, r3
 8004d68:	f8cd a024 	str.w	sl, [sp, #36]	; 0x24
 8004d6c:	4560      	cmp	r0, ip
 8004d6e:	9004      	str	r0, [sp, #16]
 8004d70:	bfc4      	itt	gt
 8004d72:	9406      	strgt	r4, [sp, #24]
 8004d74:	f8cd c010 	strgt.w	ip, [sp, #16]
 8004d78:	f300 8221 	bgt.w	80051be <_vfiprintf_r+0x7ea>
 8004d7c:	9406      	str	r4, [sp, #24]
 8004d7e:	e21e      	b.n	80051be <_vfiprintf_r+0x7ea>
 8004d80:	9b09      	ldr	r3, [sp, #36]	; 0x24
 8004d82:	2501      	movs	r5, #1
 8004d84:	f8dd b024 	ldr.w	fp, [sp, #36]	; 0x24
 8004d88:	2200      	movs	r2, #0
 8004d8a:	a816      	add	r0, sp, #88	; 0x58
 8004d8c:	f88d 2047 	strb.w	r2, [sp, #71]	; 0x47
 8004d90:	681b      	ldr	r3, [r3, #0]
 8004d92:	f10b 0b04 	add.w	fp, fp, #4
 8004d96:	9504      	str	r5, [sp, #16]
 8004d98:	f8cd b024 	str.w	fp, [sp, #36]	; 0x24
 8004d9c:	900b      	str	r0, [sp, #44]	; 0x2c
 8004d9e:	f88d 3058 	strb.w	r3, [sp, #88]	; 0x58
 8004da2:	2300      	movs	r3, #0
 8004da4:	9306      	str	r3, [sp, #24]
 8004da6:	f017 0302 	ands.w	r3, r7, #2
 8004daa:	930a      	str	r3, [sp, #40]	; 0x28
 8004dac:	bf18      	it	ne
 8004dae:	3502      	addne	r5, #2
 8004db0:	f017 0a84 	ands.w	sl, r7, #132	; 0x84
 8004db4:	f8cd a030 	str.w	sl, [sp, #48]	; 0x30
 8004db8:	f040 810a 	bne.w	8004fd0 <_vfiprintf_r+0x5fc>
 8004dbc:	9808      	ldr	r0, [sp, #32]
 8004dbe:	1b44      	subs	r4, r0, r5
 8004dc0:	2c00      	cmp	r4, #0
 8004dc2:	f340 8105 	ble.w	8004fd0 <_vfiprintf_r+0x5fc>
 8004dc6:	2c10      	cmp	r4, #16
 8004dc8:	f248 4bc0 	movw	fp, #33984	; 0x84c0
 8004dcc:	bfd8      	it	le
 8004dce:	f6c0 0b00 	movtle	fp, #2048	; 0x800
 8004dd2:	f340 80e4 	ble.w	8004f9e <_vfiprintf_r+0x5ca>
 8004dd6:	f6c0 0b00 	movt	fp, #2048	; 0x800
 8004dda:	950e      	str	r5, [sp, #56]	; 0x38
 8004ddc:	f04f 0a10 	mov.w	sl, #16
 8004de0:	465d      	mov	r5, fp
 8004de2:	46a3      	mov	fp, r4
 8004de4:	9c07      	ldr	r4, [sp, #28]
 8004de6:	e005      	b.n	8004df4 <_vfiprintf_r+0x420>
 8004de8:	f1ab 0b10 	sub.w	fp, fp, #16
 8004dec:	f1bb 0f10 	cmp.w	fp, #16
 8004df0:	f340 80d2 	ble.w	8004f98 <_vfiprintf_r+0x5c4>
 8004df4:	9b14      	ldr	r3, [sp, #80]	; 0x50
 8004df6:	f108 0808 	add.w	r8, r8, #8
 8004dfa:	9a15      	ldr	r2, [sp, #84]	; 0x54
 8004dfc:	3301      	adds	r3, #1
 8004dfe:	e908 0420 	stmdb	r8, {r5, sl}
 8004e02:	3210      	adds	r2, #16
 8004e04:	2b07      	cmp	r3, #7
 8004e06:	9314      	str	r3, [sp, #80]	; 0x50
 8004e08:	9215      	str	r2, [sp, #84]	; 0x54
 8004e0a:	dded      	ble.n	8004de8 <_vfiprintf_r+0x414>
 8004e0c:	4620      	mov	r0, r4
 8004e0e:	4649      	mov	r1, r9
 8004e10:	aa13      	add	r2, sp, #76	; 0x4c
 8004e12:	f10d 08e8 	add.w	r8, sp, #232	; 0xe8
 8004e16:	f7ff fd9f 	bl	8004958 <__sprint_r>
 8004e1a:	2800      	cmp	r0, #0
 8004e1c:	d0e4      	beq.n	8004de8 <_vfiprintf_r+0x414>
 8004e1e:	f8b9 300c 	ldrh.w	r3, [r9, #12]
 8004e22:	f003 0340 	and.w	r3, r3, #64	; 0x40
 8004e26:	b21b      	sxth	r3, r3
 8004e28:	b113      	cbz	r3, 8004e30 <_vfiprintf_r+0x45c>
 8004e2a:	f04f 36ff 	mov.w	r6, #4294967295
 8004e2e:	9605      	str	r6, [sp, #20]
 8004e30:	9805      	ldr	r0, [sp, #20]
 8004e32:	b03b      	add	sp, #236	; 0xec
 8004e34:	f50d 6d80 	add.w	sp, sp, #1024	; 0x400
 8004e38:	e8bd 8ff0 	ldmia.w	sp!, {r4, r5, r6, r7, r8, r9, sl, fp, pc}
 8004e3c:	06bc      	lsls	r4, r7, #26
 8004e3e:	f248 4bf4 	movw	fp, #34036	; 0x84f4
 8004e42:	f6c0 0b00 	movt	fp, #2048	; 0x800
 8004e46:	f88d 2047 	strb.w	r2, [sp, #71]	; 0x47
 8004e4a:	f8cd b034 	str.w	fp, [sp, #52]	; 0x34
 8004e4e:	f53f af53 	bmi.w	8004cf8 <_vfiprintf_r+0x324>
 8004e52:	06f8      	lsls	r0, r7, #27
 8004e54:	f100 834b 	bmi.w	80054ee <_vfiprintf_r+0xb1a>
 8004e58:	0679      	lsls	r1, r7, #25
 8004e5a:	f140 8348 	bpl.w	80054ee <_vfiprintf_r+0xb1a>
 8004e5e:	f8dd b024 	ldr.w	fp, [sp, #36]	; 0x24
 8004e62:	2500      	movs	r5, #0
 8004e64:	f10b 0b04 	add.w	fp, fp, #4
 8004e68:	f83b 4c04 	ldrh.w	r4, [fp, #-4]
 8004e6c:	f8cd b024 	str.w	fp, [sp, #36]	; 0x24
 8004e70:	e74e      	b.n	8004d10 <_vfiprintf_r+0x33c>
 8004e72:	7833      	ldrb	r3, [r6, #0]
 8004e74:	4631      	mov	r1, r6
 8004e76:	2b6c      	cmp	r3, #108	; 0x6c
 8004e78:	bf18      	it	ne
 8004e7a:	f047 0710 	orrne.w	r7, r7, #16
 8004e7e:	f47f ae35 	bne.w	8004aec <_vfiprintf_r+0x118>
 8004e82:	3601      	adds	r6, #1
 8004e84:	f047 0720 	orr.w	r7, r7, #32
 8004e88:	784b      	ldrb	r3, [r1, #1]
 8004e8a:	e62f      	b.n	8004aec <_vfiprintf_r+0x118>
 8004e8c:	f047 0740 	orr.w	r7, r7, #64	; 0x40
 8004e90:	7833      	ldrb	r3, [r6, #0]
 8004e92:	e62b      	b.n	8004aec <_vfiprintf_r+0x118>
 8004e94:	06bc      	lsls	r4, r7, #26
 8004e96:	f88d 2047 	strb.w	r2, [sp, #71]	; 0x47
 8004e9a:	f100 8372 	bmi.w	8005582 <_vfiprintf_r+0xbae>
 8004e9e:	06f8      	lsls	r0, r7, #27
 8004ea0:	f140 838d 	bpl.w	80055be <_vfiprintf_r+0xbea>
 8004ea4:	f8dd b024 	ldr.w	fp, [sp, #36]	; 0x24
 8004ea8:	9805      	ldr	r0, [sp, #20]
 8004eaa:	f10b 0b04 	add.w	fp, fp, #4
 8004eae:	f85b 3c04 	ldr.w	r3, [fp, #-4]
 8004eb2:	f8cd b024 	str.w	fp, [sp, #36]	; 0x24
 8004eb6:	6018      	str	r0, [r3, #0]
 8004eb8:	e5e7      	b.n	8004a8a <_vfiprintf_r+0xb6>
 8004eba:	f047 0720 	orr.w	r7, r7, #32
 8004ebe:	7833      	ldrb	r3, [r6, #0]
 8004ec0:	e614      	b.n	8004aec <_vfiprintf_r+0x118>
 8004ec2:	9b09      	ldr	r3, [sp, #36]	; 0x24
 8004ec4:	2500      	movs	r5, #0
 8004ec6:	f248 5b08 	movw	fp, #34056	; 0x8508
 8004eca:	f047 0702 	orr.w	r7, r7, #2
 8004ece:	f103 0a04 	add.w	sl, r3, #4
 8004ed2:	f6c0 0b00 	movt	fp, #2048	; 0x800
 8004ed6:	6819      	ldr	r1, [r3, #0]
 8004ed8:	2330      	movs	r3, #48	; 0x30
 8004eda:	f88d 3048 	strb.w	r3, [sp, #72]	; 0x48
 8004ede:	2378      	movs	r3, #120	; 0x78
 8004ee0:	460c      	mov	r4, r1
 8004ee2:	1b49      	subs	r1, r1, r5
 8004ee4:	bf18      	it	ne
 8004ee6:	2101      	movne	r1, #1
 8004ee8:	f8cd a024 	str.w	sl, [sp, #36]	; 0x24
 8004eec:	f88d 3049 	strb.w	r3, [sp, #73]	; 0x49
 8004ef0:	2202      	movs	r2, #2
 8004ef2:	f8cd b034 	str.w	fp, [sp, #52]	; 0x34
 8004ef6:	e6d1      	b.n	8004c9c <_vfiprintf_r+0x2c8>
 8004ef8:	f047 0701 	orr.w	r7, r7, #1
 8004efc:	7833      	ldrb	r3, [r6, #0]
 8004efe:	e5f5      	b.n	8004aec <_vfiprintf_r+0x118>
 8004f00:	7833      	ldrb	r3, [r6, #0]
 8004f02:	2a00      	cmp	r2, #0
 8004f04:	f47f adf2 	bne.w	8004aec <_vfiprintf_r+0x118>
 8004f08:	2220      	movs	r2, #32
 8004f0a:	e5ef      	b.n	8004aec <_vfiprintf_r+0x118>
 8004f0c:	f88d 2047 	strb.w	r2, [sp, #71]	; 0x47
 8004f10:	2b00      	cmp	r3, #0
 8004f12:	f000 834a 	beq.w	80055aa <_vfiprintf_r+0xbd6>
 8004f16:	2501      	movs	r5, #1
 8004f18:	f88d 3058 	strb.w	r3, [sp, #88]	; 0x58
 8004f1c:	9504      	str	r5, [sp, #16]
 8004f1e:	ab16      	add	r3, sp, #88	; 0x58
 8004f20:	930b      	str	r3, [sp, #44]	; 0x2c
 8004f22:	2300      	movs	r3, #0
 8004f24:	f88d 3047 	strb.w	r3, [sp, #71]	; 0x47
 8004f28:	e73b      	b.n	8004da2 <_vfiprintf_r+0x3ce>
 8004f2a:	7833      	ldrb	r3, [r6, #0]
 8004f2c:	222b      	movs	r2, #43	; 0x2b
 8004f2e:	e5dd      	b.n	8004aec <_vfiprintf_r+0x118>
 8004f30:	4630      	mov	r0, r6
 8004f32:	f810 3b01 	ldrb.w	r3, [r0], #1
 8004f36:	2b2a      	cmp	r3, #42	; 0x2a
 8004f38:	f000 8378 	beq.w	800562c <_vfiprintf_r+0xc58>
 8004f3c:	f1a3 0130 	sub.w	r1, r3, #48	; 0x30
 8004f40:	2909      	cmp	r1, #9
 8004f42:	bf84      	itt	hi
 8004f44:	4606      	movhi	r6, r0
 8004f46:	f04f 0c00 	movhi.w	ip, #0
 8004f4a:	f63f add0 	bhi.w	8004aee <_vfiprintf_r+0x11a>
 8004f4e:	f04f 0c00 	mov.w	ip, #0
 8004f52:	f810 3b01 	ldrb.w	r3, [r0], #1
 8004f56:	eb0c 0c8c 	add.w	ip, ip, ip, lsl #2
 8004f5a:	eb01 0c4c 	add.w	ip, r1, ip, lsl #1
 8004f5e:	f1a3 0130 	sub.w	r1, r3, #48	; 0x30
 8004f62:	2909      	cmp	r1, #9
 8004f64:	4606      	mov	r6, r0
 8004f66:	d9f4      	bls.n	8004f52 <_vfiprintf_r+0x57e>
 8004f68:	ea4c 7cec 	orr.w	ip, ip, ip, asr #31
 8004f6c:	e5bf      	b.n	8004aee <_vfiprintf_r+0x11a>
 8004f6e:	4630      	mov	r0, r6
 8004f70:	2100      	movs	r1, #0
 8004f72:	f1a3 0530 	sub.w	r5, r3, #48	; 0x30
 8004f76:	f810 3b01 	ldrb.w	r3, [r0], #1
 8004f7a:	eb01 0181 	add.w	r1, r1, r1, lsl #2
 8004f7e:	f1a3 0430 	sub.w	r4, r3, #48	; 0x30
 8004f82:	4606      	mov	r6, r0
 8004f84:	2c09      	cmp	r4, #9
 8004f86:	eb05 0141 	add.w	r1, r5, r1, lsl #1
 8004f8a:	d9f2      	bls.n	8004f72 <_vfiprintf_r+0x59e>
 8004f8c:	9108      	str	r1, [sp, #32]
 8004f8e:	e5ae      	b.n	8004aee <_vfiprintf_r+0x11a>
 8004f90:	f047 0780 	orr.w	r7, r7, #128	; 0x80
 8004f94:	7833      	ldrb	r3, [r6, #0]
 8004f96:	e5a9      	b.n	8004aec <_vfiprintf_r+0x118>
 8004f98:	465c      	mov	r4, fp
 8004f9a:	46ab      	mov	fp, r5
 8004f9c:	9d0e      	ldr	r5, [sp, #56]	; 0x38
 8004f9e:	9a14      	ldr	r2, [sp, #80]	; 0x50
 8004fa0:	9915      	ldr	r1, [sp, #84]	; 0x54
 8004fa2:	3201      	adds	r2, #1
 8004fa4:	f8c8 b000 	str.w	fp, [r8]
 8004fa8:	2a07      	cmp	r2, #7
 8004faa:	f8c8 4004 	str.w	r4, [r8, #4]
 8004fae:	4421      	add	r1, r4
 8004fb0:	9214      	str	r2, [sp, #80]	; 0x50
 8004fb2:	9115      	str	r1, [sp, #84]	; 0x54
 8004fb4:	bfd8      	it	le
 8004fb6:	f108 0808 	addle.w	r8, r8, #8
 8004fba:	dd09      	ble.n	8004fd0 <_vfiprintf_r+0x5fc>
 8004fbc:	9807      	ldr	r0, [sp, #28]
 8004fbe:	4649      	mov	r1, r9
 8004fc0:	aa13      	add	r2, sp, #76	; 0x4c
 8004fc2:	f7ff fcc9 	bl	8004958 <__sprint_r>
 8004fc6:	2800      	cmp	r0, #0
 8004fc8:	f47f af29 	bne.w	8004e1e <_vfiprintf_r+0x44a>
 8004fcc:	f10d 08e8 	add.w	r8, sp, #232	; 0xe8
 8004fd0:	f89d 3047 	ldrb.w	r3, [sp, #71]	; 0x47
 8004fd4:	b193      	cbz	r3, 8004ffc <_vfiprintf_r+0x628>
 8004fd6:	9b14      	ldr	r3, [sp, #80]	; 0x50
 8004fd8:	f10d 0147 	add.w	r1, sp, #71	; 0x47
 8004fdc:	9a15      	ldr	r2, [sp, #84]	; 0x54
 8004fde:	3301      	adds	r3, #1
 8004fe0:	f8c8 1000 	str.w	r1, [r8]
 8004fe4:	2101      	movs	r1, #1
 8004fe6:	2b07      	cmp	r3, #7
 8004fe8:	f8c8 1004 	str.w	r1, [r8, #4]
 8004fec:	440a      	add	r2, r1
 8004fee:	9314      	str	r3, [sp, #80]	; 0x50
 8004ff0:	bfd8      	it	le
 8004ff2:	f108 0808 	addle.w	r8, r8, #8
 8004ff6:	9215      	str	r2, [sp, #84]	; 0x54
 8004ff8:	f300 81ae 	bgt.w	8005358 <_vfiprintf_r+0x984>
 8004ffc:	9b0a      	ldr	r3, [sp, #40]	; 0x28
 8004ffe:	b18b      	cbz	r3, 8005024 <_vfiprintf_r+0x650>
 8005000:	9b14      	ldr	r3, [sp, #80]	; 0x50
 8005002:	a912      	add	r1, sp, #72	; 0x48
 8005004:	9a15      	ldr	r2, [sp, #84]	; 0x54
 8005006:	3301      	adds	r3, #1
 8005008:	f8c8 1000 	str.w	r1, [r8]
 800500c:	2102      	movs	r1, #2
 800500e:	2b07      	cmp	r3, #7
 8005010:	f8c8 1004 	str.w	r1, [r8, #4]
 8005014:	440a      	add	r2, r1
 8005016:	9314      	str	r3, [sp, #80]	; 0x50
 8005018:	bfd8      	it	le
 800501a:	f108 0808 	addle.w	r8, r8, #8
 800501e:	9215      	str	r2, [sp, #84]	; 0x54
 8005020:	f300 81a5 	bgt.w	800536e <_vfiprintf_r+0x99a>
 8005024:	9b0c      	ldr	r3, [sp, #48]	; 0x30
 8005026:	2b80      	cmp	r3, #128	; 0x80
 8005028:	f000 80d5 	beq.w	80051d6 <_vfiprintf_r+0x802>
 800502c:	f8dd b018 	ldr.w	fp, [sp, #24]
 8005030:	9b04      	ldr	r3, [sp, #16]
 8005032:	ebc3 0a0b 	rsb	sl, r3, fp
 8005036:	f1ba 0f00 	cmp.w	sl, #0
 800503a:	dd42      	ble.n	80050c2 <_vfiprintf_r+0x6ee>
 800503c:	f1ba 0f10 	cmp.w	sl, #16
 8005040:	4c97      	ldr	r4, [pc, #604]	; (80052a0 <_vfiprintf_r+0x8cc>)
 8005042:	dd27      	ble.n	8005094 <_vfiprintf_r+0x6c0>
 8005044:	9506      	str	r5, [sp, #24]
 8005046:	f04f 0b10 	mov.w	fp, #16
 800504a:	4625      	mov	r5, r4
 800504c:	9c07      	ldr	r4, [sp, #28]
 800504e:	e004      	b.n	800505a <_vfiprintf_r+0x686>
 8005050:	f1aa 0a10 	sub.w	sl, sl, #16
 8005054:	f1ba 0f10 	cmp.w	sl, #16
 8005058:	dd1a      	ble.n	8005090 <_vfiprintf_r+0x6bc>
 800505a:	9b14      	ldr	r3, [sp, #80]	; 0x50
 800505c:	f108 0808 	add.w	r8, r8, #8
 8005060:	9a15      	ldr	r2, [sp, #84]	; 0x54
 8005062:	3301      	adds	r3, #1
 8005064:	e908 0820 	stmdb	r8, {r5, fp}
 8005068:	3210      	adds	r2, #16
 800506a:	2b07      	cmp	r3, #7
 800506c:	9314      	str	r3, [sp, #80]	; 0x50
 800506e:	9215      	str	r2, [sp, #84]	; 0x54
 8005070:	ddee      	ble.n	8005050 <_vfiprintf_r+0x67c>
 8005072:	4620      	mov	r0, r4
 8005074:	4649      	mov	r1, r9
 8005076:	aa13      	add	r2, sp, #76	; 0x4c
 8005078:	f10d 08e8 	add.w	r8, sp, #232	; 0xe8
 800507c:	f7ff fc6c 	bl	8004958 <__sprint_r>
 8005080:	2800      	cmp	r0, #0
 8005082:	f47f aecc 	bne.w	8004e1e <_vfiprintf_r+0x44a>
 8005086:	f1aa 0a10 	sub.w	sl, sl, #16
 800508a:	f1ba 0f10 	cmp.w	sl, #16
 800508e:	dce4      	bgt.n	800505a <_vfiprintf_r+0x686>
 8005090:	462c      	mov	r4, r5
 8005092:	9d06      	ldr	r5, [sp, #24]
 8005094:	9b14      	ldr	r3, [sp, #80]	; 0x50
 8005096:	9a15      	ldr	r2, [sp, #84]	; 0x54
 8005098:	3301      	adds	r3, #1
 800509a:	e888 0410 	stmia.w	r8, {r4, sl}
 800509e:	2b07      	cmp	r3, #7
 80050a0:	4452      	add	r2, sl
 80050a2:	9314      	str	r3, [sp, #80]	; 0x50
 80050a4:	bfd8      	it	le
 80050a6:	f108 0808 	addle.w	r8, r8, #8
 80050aa:	9215      	str	r2, [sp, #84]	; 0x54
 80050ac:	dd09      	ble.n	80050c2 <_vfiprintf_r+0x6ee>
 80050ae:	9807      	ldr	r0, [sp, #28]
 80050b0:	4649      	mov	r1, r9
 80050b2:	aa13      	add	r2, sp, #76	; 0x4c
 80050b4:	f7ff fc50 	bl	8004958 <__sprint_r>
 80050b8:	2800      	cmp	r0, #0
 80050ba:	f47f aeb0 	bne.w	8004e1e <_vfiprintf_r+0x44a>
 80050be:	f10d 08e8 	add.w	r8, sp, #232	; 0xe8
 80050c2:	9b14      	ldr	r3, [sp, #80]	; 0x50
 80050c4:	9904      	ldr	r1, [sp, #16]
 80050c6:	3301      	adds	r3, #1
 80050c8:	980b      	ldr	r0, [sp, #44]	; 0x2c
 80050ca:	9a15      	ldr	r2, [sp, #84]	; 0x54
 80050cc:	2b07      	cmp	r3, #7
 80050ce:	e888 0003 	stmia.w	r8, {r0, r1}
 80050d2:	440a      	add	r2, r1
 80050d4:	9314      	str	r3, [sp, #80]	; 0x50
 80050d6:	bfd8      	it	le
 80050d8:	f108 0808 	addle.w	r8, r8, #8
 80050dc:	9215      	str	r2, [sp, #84]	; 0x54
 80050de:	f300 80c6 	bgt.w	800526e <_vfiprintf_r+0x89a>
 80050e2:	077b      	lsls	r3, r7, #29
 80050e4:	d546      	bpl.n	8005174 <_vfiprintf_r+0x7a0>
 80050e6:	9a08      	ldr	r2, [sp, #32]
 80050e8:	1b54      	subs	r4, r2, r5
 80050ea:	2c00      	cmp	r4, #0
 80050ec:	dd42      	ble.n	8005174 <_vfiprintf_r+0x7a0>
 80050ee:	2c10      	cmp	r4, #16
 80050f0:	f248 4bc0 	movw	fp, #33984	; 0x84c0
 80050f4:	bfd8      	it	le
 80050f6:	f6c0 0b00 	movtle	fp, #2048	; 0x800
 80050fa:	dd27      	ble.n	800514c <_vfiprintf_r+0x778>
 80050fc:	f6c0 0b00 	movt	fp, #2048	; 0x800
 8005100:	2710      	movs	r7, #16
 8005102:	465b      	mov	r3, fp
 8005104:	f8dd a01c 	ldr.w	sl, [sp, #28]
 8005108:	46ab      	mov	fp, r5
 800510a:	461d      	mov	r5, r3
 800510c:	e002      	b.n	8005114 <_vfiprintf_r+0x740>
 800510e:	3c10      	subs	r4, #16
 8005110:	2c10      	cmp	r4, #16
 8005112:	dd18      	ble.n	8005146 <_vfiprintf_r+0x772>
 8005114:	9b14      	ldr	r3, [sp, #80]	; 0x50
 8005116:	f108 0808 	add.w	r8, r8, #8
 800511a:	9a15      	ldr	r2, [sp, #84]	; 0x54
 800511c:	3301      	adds	r3, #1
 800511e:	e908 00a0 	stmdb	r8, {r5, r7}
 8005122:	3210      	adds	r2, #16
 8005124:	2b07      	cmp	r3, #7
 8005126:	9314      	str	r3, [sp, #80]	; 0x50
 8005128:	9215      	str	r2, [sp, #84]	; 0x54
 800512a:	ddf0      	ble.n	800510e <_vfiprintf_r+0x73a>
 800512c:	4650      	mov	r0, sl
 800512e:	4649      	mov	r1, r9
 8005130:	aa13      	add	r2, sp, #76	; 0x4c
 8005132:	f10d 08e8 	add.w	r8, sp, #232	; 0xe8
 8005136:	f7ff fc0f 	bl	8004958 <__sprint_r>
 800513a:	2800      	cmp	r0, #0
 800513c:	f47f ae6f 	bne.w	8004e1e <_vfiprintf_r+0x44a>
 8005140:	3c10      	subs	r4, #16
 8005142:	2c10      	cmp	r4, #16
 8005144:	dce6      	bgt.n	8005114 <_vfiprintf_r+0x740>
 8005146:	462b      	mov	r3, r5
 8005148:	465d      	mov	r5, fp
 800514a:	469b      	mov	fp, r3
 800514c:	9a14      	ldr	r2, [sp, #80]	; 0x50
 800514e:	9915      	ldr	r1, [sp, #84]	; 0x54
 8005150:	3201      	adds	r2, #1
 8005152:	f8c8 4004 	str.w	r4, [r8, #4]
 8005156:	2a07      	cmp	r2, #7
 8005158:	440c      	add	r4, r1
 800515a:	f8c8 b000 	str.w	fp, [r8]
 800515e:	9214      	str	r2, [sp, #80]	; 0x50
 8005160:	9415      	str	r4, [sp, #84]	; 0x54
 8005162:	dd08      	ble.n	8005176 <_vfiprintf_r+0x7a2>
 8005164:	9807      	ldr	r0, [sp, #28]
 8005166:	4649      	mov	r1, r9
 8005168:	aa13      	add	r2, sp, #76	; 0x4c
 800516a:	f7ff fbf5 	bl	8004958 <__sprint_r>
 800516e:	2800      	cmp	r0, #0
 8005170:	f47f ae55 	bne.w	8004e1e <_vfiprintf_r+0x44a>
 8005174:	9c15      	ldr	r4, [sp, #84]	; 0x54
 8005176:	9b05      	ldr	r3, [sp, #20]
 8005178:	9808      	ldr	r0, [sp, #32]
 800517a:	4285      	cmp	r5, r0
 800517c:	bfac      	ite	ge
 800517e:	195b      	addge	r3, r3, r5
 8005180:	181b      	addlt	r3, r3, r0
 8005182:	9305      	str	r3, [sp, #20]
 8005184:	2c00      	cmp	r4, #0
 8005186:	d17d      	bne.n	8005284 <_vfiprintf_r+0x8b0>
 8005188:	2300      	movs	r3, #0
 800518a:	9314      	str	r3, [sp, #80]	; 0x50
 800518c:	7833      	ldrb	r3, [r6, #0]
 800518e:	f10d 08e8 	add.w	r8, sp, #232	; 0xe8
 8005192:	2b25      	cmp	r3, #37	; 0x25
 8005194:	bf18      	it	ne
 8005196:	2b00      	cmpne	r3, #0
 8005198:	f47f ac7d 	bne.w	8004a96 <_vfiprintf_r+0xc2>
 800519c:	4634      	mov	r4, r6
 800519e:	e497      	b.n	8004ad0 <_vfiprintf_r+0xfc>
 80051a0:	2a00      	cmp	r2, #0
 80051a2:	d178      	bne.n	8005296 <_vfiprintf_r+0x8c2>
 80051a4:	07f9      	lsls	r1, r7, #31
 80051a6:	f140 811c 	bpl.w	80053e2 <_vfiprintf_r+0xa0e>
 80051aa:	980f      	ldr	r0, [sp, #60]	; 0x3c
 80051ac:	f10d 037f 	add.w	r3, sp, #127	; 0x7f
 80051b0:	930b      	str	r3, [sp, #44]	; 0x2c
 80051b2:	2330      	movs	r3, #48	; 0x30
 80051b4:	f88d 307f 	strb.w	r3, [sp, #127]	; 0x7f
 80051b8:	9004      	str	r0, [sp, #16]
 80051ba:	f8cd c018 	str.w	ip, [sp, #24]
 80051be:	9d04      	ldr	r5, [sp, #16]
 80051c0:	f8dd a018 	ldr.w	sl, [sp, #24]
 80051c4:	4555      	cmp	r5, sl
 80051c6:	bfb8      	it	lt
 80051c8:	4655      	movlt	r5, sl
 80051ca:	f1bb 0f00 	cmp.w	fp, #0
 80051ce:	f43f adea 	beq.w	8004da6 <_vfiprintf_r+0x3d2>
 80051d2:	3501      	adds	r5, #1
 80051d4:	e5e7      	b.n	8004da6 <_vfiprintf_r+0x3d2>
 80051d6:	9808      	ldr	r0, [sp, #32]
 80051d8:	ebc5 0a00 	rsb	sl, r5, r0
 80051dc:	f1ba 0f00 	cmp.w	sl, #0
 80051e0:	f77f af24 	ble.w	800502c <_vfiprintf_r+0x658>
 80051e4:	f1ba 0f10 	cmp.w	sl, #16
 80051e8:	4c2d      	ldr	r4, [pc, #180]	; (80052a0 <_vfiprintf_r+0x8cc>)
 80051ea:	dd27      	ble.n	800523c <_vfiprintf_r+0x868>
 80051ec:	950a      	str	r5, [sp, #40]	; 0x28
 80051ee:	f04f 0b10 	mov.w	fp, #16
 80051f2:	4625      	mov	r5, r4
 80051f4:	9c07      	ldr	r4, [sp, #28]
 80051f6:	e004      	b.n	8005202 <_vfiprintf_r+0x82e>
 80051f8:	f1aa 0a10 	sub.w	sl, sl, #16
 80051fc:	f1ba 0f10 	cmp.w	sl, #16
 8005200:	dd1a      	ble.n	8005238 <_vfiprintf_r+0x864>
 8005202:	9b14      	ldr	r3, [sp, #80]	; 0x50
 8005204:	f108 0808 	add.w	r8, r8, #8
 8005208:	9a15      	ldr	r2, [sp, #84]	; 0x54
 800520a:	3301      	adds	r3, #1
 800520c:	e908 0820 	stmdb	r8, {r5, fp}
 8005210:	3210      	adds	r2, #16
 8005212:	2b07      	cmp	r3, #7
 8005214:	9314      	str	r3, [sp, #80]	; 0x50
 8005216:	9215      	str	r2, [sp, #84]	; 0x54
 8005218:	ddee      	ble.n	80051f8 <_vfiprintf_r+0x824>
 800521a:	4620      	mov	r0, r4
 800521c:	4649      	mov	r1, r9
 800521e:	aa13      	add	r2, sp, #76	; 0x4c
 8005220:	f10d 08e8 	add.w	r8, sp, #232	; 0xe8
 8005224:	f7ff fb98 	bl	8004958 <__sprint_r>
 8005228:	2800      	cmp	r0, #0
 800522a:	f47f adf8 	bne.w	8004e1e <_vfiprintf_r+0x44a>
 800522e:	f1aa 0a10 	sub.w	sl, sl, #16
 8005232:	f1ba 0f10 	cmp.w	sl, #16
 8005236:	dce4      	bgt.n	8005202 <_vfiprintf_r+0x82e>
 8005238:	462c      	mov	r4, r5
 800523a:	9d0a      	ldr	r5, [sp, #40]	; 0x28
 800523c:	9b14      	ldr	r3, [sp, #80]	; 0x50
 800523e:	9a15      	ldr	r2, [sp, #84]	; 0x54
 8005240:	3301      	adds	r3, #1
 8005242:	e888 0410 	stmia.w	r8, {r4, sl}
 8005246:	2b07      	cmp	r3, #7
 8005248:	4452      	add	r2, sl
 800524a:	9314      	str	r3, [sp, #80]	; 0x50
 800524c:	bfd8      	it	le
 800524e:	f108 0808 	addle.w	r8, r8, #8
 8005252:	9215      	str	r2, [sp, #84]	; 0x54
 8005254:	f77f aeea 	ble.w	800502c <_vfiprintf_r+0x658>
 8005258:	9807      	ldr	r0, [sp, #28]
 800525a:	4649      	mov	r1, r9
 800525c:	aa13      	add	r2, sp, #76	; 0x4c
 800525e:	f7ff fb7b 	bl	8004958 <__sprint_r>
 8005262:	2800      	cmp	r0, #0
 8005264:	f47f addb 	bne.w	8004e1e <_vfiprintf_r+0x44a>
 8005268:	f10d 08e8 	add.w	r8, sp, #232	; 0xe8
 800526c:	e6de      	b.n	800502c <_vfiprintf_r+0x658>
 800526e:	9807      	ldr	r0, [sp, #28]
 8005270:	4649      	mov	r1, r9
 8005272:	aa13      	add	r2, sp, #76	; 0x4c
 8005274:	f7ff fb70 	bl	8004958 <__sprint_r>
 8005278:	2800      	cmp	r0, #0
 800527a:	f47f add0 	bne.w	8004e1e <_vfiprintf_r+0x44a>
 800527e:	f10d 08e8 	add.w	r8, sp, #232	; 0xe8
 8005282:	e72e      	b.n	80050e2 <_vfiprintf_r+0x70e>
 8005284:	9807      	ldr	r0, [sp, #28]
 8005286:	4649      	mov	r1, r9
 8005288:	aa13      	add	r2, sp, #76	; 0x4c
 800528a:	f7ff fb65 	bl	8004958 <__sprint_r>
 800528e:	2800      	cmp	r0, #0
 8005290:	f43f af7a 	beq.w	8005188 <_vfiprintf_r+0x7b4>
 8005294:	e5c3      	b.n	8004e1e <_vfiprintf_r+0x44a>
 8005296:	9304      	str	r3, [sp, #16]
 8005298:	ab20      	add	r3, sp, #128	; 0x80
 800529a:	930b      	str	r3, [sp, #44]	; 0x2c
 800529c:	e78d      	b.n	80051ba <_vfiprintf_r+0x7e6>
 800529e:	bf00      	nop
 80052a0:	080084d0 	.word	0x080084d0
 80052a4:	9807      	ldr	r0, [sp, #28]
 80052a6:	4649      	mov	r1, r9
 80052a8:	f7fc fc36 	bl	8001b18 <__swsetup_r>
 80052ac:	2800      	cmp	r0, #0
 80052ae:	f47f adbc 	bne.w	8004e2a <_vfiprintf_r+0x456>
 80052b2:	f8b9 c00c 	ldrh.w	ip, [r9, #12]
 80052b6:	f00c 031a 	and.w	r3, ip, #26
 80052ba:	2b0a      	cmp	r3, #10
 80052bc:	f47f abcf 	bne.w	8004a5e <_vfiprintf_r+0x8a>
 80052c0:	f8b9 800e 	ldrh.w	r8, [r9, #14]
 80052c4:	f418 4f00 	tst.w	r8, #32768	; 0x8000
 80052c8:	f47f abc9 	bne.w	8004a5e <_vfiprintf_r+0x8a>
 80052cc:	f8d9 6064 	ldr.w	r6, [r9, #100]	; 0x64
 80052d0:	462a      	mov	r2, r5
 80052d2:	f8d9 7028 	ldr.w	r7, [r9, #40]	; 0x28
 80052d6:	a920      	add	r1, sp, #128	; 0x80
 80052d8:	9807      	ldr	r0, [sp, #28]
 80052da:	f44f 6480 	mov.w	r4, #1024	; 0x400
 80052de:	9639      	str	r6, [sp, #228]	; 0xe4
 80052e0:	ad3a      	add	r5, sp, #232	; 0xe8
 80052e2:	f8d9 6020 	ldr.w	r6, [r9, #32]
 80052e6:	f02c 0c02 	bic.w	ip, ip, #2
 80052ea:	9b09      	ldr	r3, [sp, #36]	; 0x24
 80052ec:	9422      	str	r4, [sp, #136]	; 0x88
 80052ee:	9425      	str	r4, [sp, #148]	; 0x94
 80052f0:	2400      	movs	r4, #0
 80052f2:	f8ad c08c 	strh.w	ip, [sp, #140]	; 0x8c
 80052f6:	f8ad 808e 	strh.w	r8, [sp, #142]	; 0x8e
 80052fa:	9628      	str	r6, [sp, #160]	; 0xa0
 80052fc:	972a      	str	r7, [sp, #168]	; 0xa8
 80052fe:	9520      	str	r5, [sp, #128]	; 0x80
 8005300:	9524      	str	r5, [sp, #144]	; 0x90
 8005302:	9426      	str	r4, [sp, #152]	; 0x98
 8005304:	f7ff fb66 	bl	80049d4 <_vfiprintf_r>
 8005308:	2800      	cmp	r0, #0
 800530a:	9005      	str	r0, [sp, #20]
 800530c:	db09      	blt.n	8005322 <_vfiprintf_r+0x94e>
 800530e:	9807      	ldr	r0, [sp, #28]
 8005310:	a920      	add	r1, sp, #128	; 0x80
 8005312:	f7fd fcb9 	bl	8002c88 <_fflush_r>
 8005316:	9e05      	ldr	r6, [sp, #20]
 8005318:	42a0      	cmp	r0, r4
 800531a:	bf18      	it	ne
 800531c:	f04f 36ff 	movne.w	r6, #4294967295
 8005320:	9605      	str	r6, [sp, #20]
 8005322:	f8bd 308c 	ldrh.w	r3, [sp, #140]	; 0x8c
 8005326:	f003 0340 	and.w	r3, r3, #64	; 0x40
 800532a:	b21b      	sxth	r3, r3
 800532c:	2b00      	cmp	r3, #0
 800532e:	f43f ad7f 	beq.w	8004e30 <_vfiprintf_r+0x45c>
 8005332:	f8b9 300c 	ldrh.w	r3, [r9, #12]
 8005336:	f043 0340 	orr.w	r3, r3, #64	; 0x40
 800533a:	f8a9 300c 	strh.w	r3, [r9, #12]
 800533e:	e577      	b.n	8004e30 <_vfiprintf_r+0x45c>
 8005340:	9807      	ldr	r0, [sp, #28]
 8005342:	4649      	mov	r1, r9
 8005344:	aa13      	add	r2, sp, #76	; 0x4c
 8005346:	f7ff fb07 	bl	8004958 <__sprint_r>
 800534a:	2800      	cmp	r0, #0
 800534c:	f47f ad67 	bne.w	8004e1e <_vfiprintf_r+0x44a>
 8005350:	f10d 08e8 	add.w	r8, sp, #232	; 0xe8
 8005354:	f7ff bbb9 	b.w	8004aca <_vfiprintf_r+0xf6>
 8005358:	9807      	ldr	r0, [sp, #28]
 800535a:	4649      	mov	r1, r9
 800535c:	aa13      	add	r2, sp, #76	; 0x4c
 800535e:	f7ff fafb 	bl	8004958 <__sprint_r>
 8005362:	2800      	cmp	r0, #0
 8005364:	f47f ad5b 	bne.w	8004e1e <_vfiprintf_r+0x44a>
 8005368:	f10d 08e8 	add.w	r8, sp, #232	; 0xe8
 800536c:	e646      	b.n	8004ffc <_vfiprintf_r+0x628>
 800536e:	9807      	ldr	r0, [sp, #28]
 8005370:	4649      	mov	r1, r9
 8005372:	aa13      	add	r2, sp, #76	; 0x4c
 8005374:	f7ff faf0 	bl	8004958 <__sprint_r>
 8005378:	2800      	cmp	r0, #0
 800537a:	f47f ad50 	bne.w	8004e1e <_vfiprintf_r+0x44a>
 800537e:	f10d 08e8 	add.w	r8, sp, #232	; 0xe8
 8005382:	e64f      	b.n	8005024 <_vfiprintf_r+0x650>
 8005384:	f7fd fdb2 	bl	8002eec <__sinit>
 8005388:	f248 3378 	movw	r3, #33656	; 0x8378
 800538c:	f6c0 0300 	movt	r3, #2048	; 0x800
 8005390:	4599      	cmp	r9, r3
 8005392:	f47f ab33 	bne.w	80049fc <_vfiprintf_r+0x28>
 8005396:	9e07      	ldr	r6, [sp, #28]
 8005398:	f8d6 9004 	ldr.w	r9, [r6, #4]
 800539c:	f7ff bb3f 	b.w	8004a1e <_vfiprintf_r+0x4a>
 80053a0:	9604      	str	r6, [sp, #16]
 80053a2:	f10d 017f 	add.w	r1, sp, #127	; 0x7f
 80053a6:	9e0d      	ldr	r6, [sp, #52]	; 0x34
 80053a8:	f8cd b018 	str.w	fp, [sp, #24]
 80053ac:	f04f 0a0f 	mov.w	sl, #15
 80053b0:	0923      	lsrs	r3, r4, #4
 80053b2:	ea04 020a 	and.w	r2, r4, sl
 80053b6:	ea43 7305 	orr.w	r3, r3, r5, lsl #28
 80053ba:	18b2      	adds	r2, r6, r2
 80053bc:	ea4f 1a15 	mov.w	sl, r5, lsr #4
 80053c0:	461c      	mov	r4, r3
 80053c2:	4655      	mov	r5, sl
 80053c4:	7812      	ldrb	r2, [r2, #0]
 80053c6:	4608      	mov	r0, r1
 80053c8:	3901      	subs	r1, #1
 80053ca:	ea54 0b05 	orrs.w	fp, r4, r5
 80053ce:	7002      	strb	r2, [r0, #0]
 80053d0:	d1ec      	bne.n	80053ac <_vfiprintf_r+0x9d8>
 80053d2:	9b03      	ldr	r3, [sp, #12]
 80053d4:	9e04      	ldr	r6, [sp, #16]
 80053d6:	1a1b      	subs	r3, r3, r0
 80053d8:	900b      	str	r0, [sp, #44]	; 0x2c
 80053da:	f8dd b018 	ldr.w	fp, [sp, #24]
 80053de:	9304      	str	r3, [sp, #16]
 80053e0:	e6eb      	b.n	80051ba <_vfiprintf_r+0x7e6>
 80053e2:	ab20      	add	r3, sp, #128	; 0x80
 80053e4:	9204      	str	r2, [sp, #16]
 80053e6:	930b      	str	r3, [sp, #44]	; 0x2c
 80053e8:	e6e7      	b.n	80051ba <_vfiprintf_r+0x7e6>
 80053ea:	2d00      	cmp	r5, #0
 80053ec:	bf08      	it	eq
 80053ee:	2c0a      	cmpeq	r4, #10
 80053f0:	d36e      	bcc.n	80054d0 <_vfiprintf_r+0xafc>
 80053f2:	f10d 0a7f 	add.w	sl, sp, #127	; 0x7f
 80053f6:	9604      	str	r6, [sp, #16]
 80053f8:	f8cd c018 	str.w	ip, [sp, #24]
 80053fc:	4620      	mov	r0, r4
 80053fe:	4629      	mov	r1, r5
 8005400:	220a      	movs	r2, #10
 8005402:	2300      	movs	r3, #0
 8005404:	f001 fd6c 	bl	8006ee0 <__aeabi_uldivmod>
 8005408:	4656      	mov	r6, sl
 800540a:	4620      	mov	r0, r4
 800540c:	4629      	mov	r1, r5
 800540e:	2300      	movs	r3, #0
 8005410:	f10a 3aff 	add.w	sl, sl, #4294967295
 8005414:	f102 0430 	add.w	r4, r2, #48	; 0x30
 8005418:	220a      	movs	r2, #10
 800541a:	7034      	strb	r4, [r6, #0]
 800541c:	f001 fd60 	bl	8006ee0 <__aeabi_uldivmod>
 8005420:	4604      	mov	r4, r0
 8005422:	460d      	mov	r5, r1
 8005424:	ea54 0005 	orrs.w	r0, r4, r5
 8005428:	d1e8      	bne.n	80053fc <_vfiprintf_r+0xa28>
 800542a:	960b      	str	r6, [sp, #44]	; 0x2c
 800542c:	f8dd c018 	ldr.w	ip, [sp, #24]
 8005430:	9e04      	ldr	r6, [sp, #16]
 8005432:	f8dd a00c 	ldr.w	sl, [sp, #12]
 8005436:	9b0b      	ldr	r3, [sp, #44]	; 0x2c
 8005438:	ebc3 030a 	rsb	r3, r3, sl
 800543c:	9304      	str	r3, [sp, #16]
 800543e:	e6bc      	b.n	80051ba <_vfiprintf_r+0x7e6>
 8005440:	f017 0310 	ands.w	r3, r7, #16
 8005444:	f040 808e 	bne.w	8005564 <_vfiprintf_r+0xb90>
 8005448:	f017 0240 	ands.w	r2, r7, #64	; 0x40
 800544c:	f000 808a 	beq.w	8005564 <_vfiprintf_r+0xb90>
 8005450:	f8dd b024 	ldr.w	fp, [sp, #36]	; 0x24
 8005454:	461a      	mov	r2, r3
 8005456:	f8bb 4000 	ldrh.w	r4, [fp]
 800545a:	2500      	movs	r5, #0
 800545c:	f10b 0b04 	add.w	fp, fp, #4
 8005460:	ea54 0005 	orrs.w	r0, r4, r5
 8005464:	f8cd b024 	str.w	fp, [sp, #36]	; 0x24
 8005468:	bf0c      	ite	eq
 800546a:	2100      	moveq	r1, #0
 800546c:	2101      	movne	r1, #1
 800546e:	e415      	b.n	8004c9c <_vfiprintf_r+0x2c8>
 8005470:	06fb      	lsls	r3, r7, #27
 8005472:	d457      	bmi.n	8005524 <_vfiprintf_r+0xb50>
 8005474:	067d      	lsls	r5, r7, #25
 8005476:	d555      	bpl.n	8005524 <_vfiprintf_r+0xb50>
 8005478:	f8dd b024 	ldr.w	fp, [sp, #36]	; 0x24
 800547c:	f10b 0b04 	add.w	fp, fp, #4
 8005480:	f93b 4c04 	ldrsh.w	r4, [fp, #-4]
 8005484:	f8cd b024 	str.w	fp, [sp, #36]	; 0x24
 8005488:	4622      	mov	r2, r4
 800548a:	17e5      	asrs	r5, r4, #31
 800548c:	462b      	mov	r3, r5
 800548e:	f7ff bba3 	b.w	8004bd8 <_vfiprintf_r+0x204>
 8005492:	06fb      	lsls	r3, r7, #27
 8005494:	d436      	bmi.n	8005504 <_vfiprintf_r+0xb30>
 8005496:	067d      	lsls	r5, r7, #25
 8005498:	d534      	bpl.n	8005504 <_vfiprintf_r+0xb30>
 800549a:	f8dd b024 	ldr.w	fp, [sp, #36]	; 0x24
 800549e:	2201      	movs	r2, #1
 80054a0:	f8bb 4000 	ldrh.w	r4, [fp]
 80054a4:	e7d9      	b.n	800545a <_vfiprintf_r+0xa86>
 80054a6:	2100      	movs	r1, #0
 80054a8:	2202      	movs	r2, #2
 80054aa:	ea54 0005 	orrs.w	r0, r4, r5
 80054ae:	f43f abf5 	beq.w	8004c9c <_vfiprintf_r+0x2c8>
 80054b2:	2230      	movs	r2, #48	; 0x30
 80054b4:	f047 0702 	orr.w	r7, r7, #2
 80054b8:	f88d 2048 	strb.w	r2, [sp, #72]	; 0x48
 80054bc:	2101      	movs	r1, #1
 80054be:	2202      	movs	r2, #2
 80054c0:	f88d 3049 	strb.w	r3, [sp, #73]	; 0x49
 80054c4:	f7ff bbea 	b.w	8004c9c <_vfiprintf_r+0x2c8>
 80054c8:	7833      	ldrb	r3, [r6, #0]
 80054ca:	9109      	str	r1, [sp, #36]	; 0x24
 80054cc:	f7ff bb0e 	b.w	8004aec <_vfiprintf_r+0x118>
 80054d0:	980f      	ldr	r0, [sp, #60]	; 0x3c
 80054d2:	3430      	adds	r4, #48	; 0x30
 80054d4:	f10d 037f 	add.w	r3, sp, #127	; 0x7f
 80054d8:	f88d 407f 	strb.w	r4, [sp, #127]	; 0x7f
 80054dc:	930b      	str	r3, [sp, #44]	; 0x2c
 80054de:	9004      	str	r0, [sp, #16]
 80054e0:	e66b      	b.n	80051ba <_vfiprintf_r+0x7e6>
 80054e2:	f8dd a00c 	ldr.w	sl, [sp, #12]
 80054e6:	ebc3 030a 	rsb	r3, r3, sl
 80054ea:	9304      	str	r3, [sp, #16]
 80054ec:	e665      	b.n	80051ba <_vfiprintf_r+0x7e6>
 80054ee:	f8dd a024 	ldr.w	sl, [sp, #36]	; 0x24
 80054f2:	2500      	movs	r5, #0
 80054f4:	f10a 0a04 	add.w	sl, sl, #4
 80054f8:	f85a 2c04 	ldr.w	r2, [sl, #-4]
 80054fc:	f8cd a024 	str.w	sl, [sp, #36]	; 0x24
 8005500:	4614      	mov	r4, r2
 8005502:	e405      	b.n	8004d10 <_vfiprintf_r+0x33c>
 8005504:	f8dd a024 	ldr.w	sl, [sp, #36]	; 0x24
 8005508:	2201      	movs	r2, #1
 800550a:	f10a 0a04 	add.w	sl, sl, #4
 800550e:	f85a 1c04 	ldr.w	r1, [sl, #-4]
 8005512:	f8cd a024 	str.w	sl, [sp, #36]	; 0x24
 8005516:	460c      	mov	r4, r1
 8005518:	3100      	adds	r1, #0
 800551a:	bf18      	it	ne
 800551c:	2101      	movne	r1, #1
 800551e:	2500      	movs	r5, #0
 8005520:	f7ff bbbc 	b.w	8004c9c <_vfiprintf_r+0x2c8>
 8005524:	f8dd a024 	ldr.w	sl, [sp, #36]	; 0x24
 8005528:	f10a 0a04 	add.w	sl, sl, #4
 800552c:	f85a 3c04 	ldr.w	r3, [sl, #-4]
 8005530:	f8cd a024 	str.w	sl, [sp, #36]	; 0x24
 8005534:	461a      	mov	r2, r3
 8005536:	461c      	mov	r4, r3
 8005538:	17dd      	asrs	r5, r3, #31
 800553a:	462b      	mov	r3, r5
 800553c:	2a00      	cmp	r2, #0
 800553e:	f173 0b00 	sbcs.w	fp, r3, #0
 8005542:	f6bf ab4e 	bge.w	8004be2 <_vfiprintf_r+0x20e>
 8005546:	4264      	negs	r4, r4
 8005548:	eb65 0545 	sbc.w	r5, r5, r5, lsl #1
 800554c:	f04f 0b2d 	mov.w	fp, #45	; 0x2d
 8005550:	ea54 0105 	orrs.w	r1, r4, r5
 8005554:	f88d b047 	strb.w	fp, [sp, #71]	; 0x47
 8005558:	bf0c      	ite	eq
 800555a:	2100      	moveq	r1, #0
 800555c:	2101      	movne	r1, #1
 800555e:	2201      	movs	r2, #1
 8005560:	f7ff bb47 	b.w	8004bf2 <_vfiprintf_r+0x21e>
 8005564:	f8dd a024 	ldr.w	sl, [sp, #36]	; 0x24
 8005568:	f10a 0a04 	add.w	sl, sl, #4
 800556c:	f85a 1c04 	ldr.w	r1, [sl, #-4]
 8005570:	f8cd a024 	str.w	sl, [sp, #36]	; 0x24
 8005574:	460c      	mov	r4, r1
 8005576:	3100      	adds	r1, #0
 8005578:	bf18      	it	ne
 800557a:	2101      	movne	r1, #1
 800557c:	2500      	movs	r5, #0
 800557e:	f7ff bb8d 	b.w	8004c9c <_vfiprintf_r+0x2c8>
 8005582:	f8dd a024 	ldr.w	sl, [sp, #36]	; 0x24
 8005586:	9a05      	ldr	r2, [sp, #20]
 8005588:	f10a 0a04 	add.w	sl, sl, #4
 800558c:	f85a 3c04 	ldr.w	r3, [sl, #-4]
 8005590:	17d1      	asrs	r1, r2, #31
 8005592:	f8cd a024 	str.w	sl, [sp, #36]	; 0x24
 8005596:	601a      	str	r2, [r3, #0]
 8005598:	6059      	str	r1, [r3, #4]
 800559a:	f7ff ba76 	b.w	8004a8a <_vfiprintf_r+0xb6>
 800559e:	f8dd a01c 	ldr.w	sl, [sp, #28]
 80055a2:	f8da 9008 	ldr.w	r9, [sl, #8]
 80055a6:	f7ff ba3a 	b.w	8004a1e <_vfiprintf_r+0x4a>
 80055aa:	9b15      	ldr	r3, [sp, #84]	; 0x54
 80055ac:	2b00      	cmp	r3, #0
 80055ae:	f43f ac36 	beq.w	8004e1e <_vfiprintf_r+0x44a>
 80055b2:	9807      	ldr	r0, [sp, #28]
 80055b4:	4649      	mov	r1, r9
 80055b6:	aa13      	add	r2, sp, #76	; 0x4c
 80055b8:	f7ff f9ce 	bl	8004958 <__sprint_r>
 80055bc:	e42f      	b.n	8004e1e <_vfiprintf_r+0x44a>
 80055be:	f8dd a024 	ldr.w	sl, [sp, #36]	; 0x24
 80055c2:	0679      	lsls	r1, r7, #25
 80055c4:	bf48      	it	mi
 80055c6:	f8dd b014 	ldrmi.w	fp, [sp, #20]
 80055ca:	f10a 0a04 	add.w	sl, sl, #4
 80055ce:	f85a 3c04 	ldr.w	r3, [sl, #-4]
 80055d2:	bf58      	it	pl
 80055d4:	9805      	ldrpl	r0, [sp, #20]
 80055d6:	f8cd a024 	str.w	sl, [sp, #36]	; 0x24
 80055da:	bf4c      	ite	mi
 80055dc:	f8a3 b000 	strhmi.w	fp, [r3]
 80055e0:	6018      	strpl	r0, [r3, #0]
 80055e2:	f7ff ba52 	b.w	8004a8a <_vfiprintf_r+0xb6>
 80055e6:	f8cd a024 	str.w	sl, [sp, #36]	; 0x24
 80055ea:	f7ff f985 	bl	80048f8 <strlen>
 80055ee:	f89d b047 	ldrb.w	fp, [sp, #71]	; 0x47
 80055f2:	9004      	str	r0, [sp, #16]
 80055f4:	f7ff bbc2 	b.w	8004d7c <_vfiprintf_r+0x3a8>
 80055f8:	f1bc 0f06 	cmp.w	ip, #6
 80055fc:	bf34      	ite	cc
 80055fe:	4663      	movcc	r3, ip
 8005600:	2306      	movcs	r3, #6
 8005602:	9304      	str	r3, [sp, #16]
 8005604:	9b04      	ldr	r3, [sp, #16]
 8005606:	f8cd a024 	str.w	sl, [sp, #36]	; 0x24
 800560a:	ea23 75e3 	bic.w	r5, r3, r3, asr #31
 800560e:	f248 531c 	movw	r3, #34076	; 0x851c
 8005612:	f6c0 0300 	movt	r3, #2048	; 0x800
 8005616:	930b      	str	r3, [sp, #44]	; 0x2c
 8005618:	f7ff bbc3 	b.w	8004da2 <_vfiprintf_r+0x3ce>
 800561c:	f89d b047 	ldrb.w	fp, [sp, #71]	; 0x47
 8005620:	f8cd a024 	str.w	sl, [sp, #36]	; 0x24
 8005624:	f8cd c010 	str.w	ip, [sp, #16]
 8005628:	9006      	str	r0, [sp, #24]
 800562a:	e5c8      	b.n	80051be <_vfiprintf_r+0x7ea>
 800562c:	f8dd a024 	ldr.w	sl, [sp, #36]	; 0x24
 8005630:	7873      	ldrb	r3, [r6, #1]
 8005632:	4606      	mov	r6, r0
 8005634:	f10a 0104 	add.w	r1, sl, #4
 8005638:	9109      	str	r1, [sp, #36]	; 0x24
 800563a:	f8da c000 	ldr.w	ip, [sl]
 800563e:	f1bc 0f00 	cmp.w	ip, #0
 8005642:	bfb8      	it	lt
 8005644:	f04f 3cff 	movlt.w	ip, #4294967295
 8005648:	f7ff ba50 	b.w	8004aec <_vfiprintf_r+0x118>

0800564c <vfiprintf>:
 800564c:	b430      	push	{r4, r5}
 800564e:	f240 0400 	movw	r4, #0
 8005652:	f2c2 0400 	movt	r4, #8192	; 0x2000
 8005656:	460d      	mov	r5, r1
 8005658:	4613      	mov	r3, r2
 800565a:	4601      	mov	r1, r0
 800565c:	462a      	mov	r2, r5
 800565e:	6820      	ldr	r0, [r4, #0]
 8005660:	bc30      	pop	{r4, r5}
 8005662:	f7ff b9b7 	b.w	80049d4 <_vfiprintf_r>
 8005666:	bf00      	nop

08005668 <_write_r>:
 8005668:	b538      	push	{r3, r4, r5, lr}
 800566a:	f240 54f0 	movw	r4, #1520	; 0x5f0
 800566e:	f2c2 0400 	movt	r4, #8192	; 0x2000
 8005672:	4605      	mov	r5, r0
 8005674:	4608      	mov	r0, r1
 8005676:	4611      	mov	r1, r2
 8005678:	461a      	mov	r2, r3
 800567a:	2300      	movs	r3, #0
 800567c:	6023      	str	r3, [r4, #0]
 800567e:	f002 fdd7 	bl	8008230 <_write>
 8005682:	1c43      	adds	r3, r0, #1
 8005684:	d000      	beq.n	8005688 <_write_r+0x20>
 8005686:	bd38      	pop	{r3, r4, r5, pc}
 8005688:	6823      	ldr	r3, [r4, #0]
 800568a:	2b00      	cmp	r3, #0
 800568c:	d0fb      	beq.n	8005686 <_write_r+0x1e>
 800568e:	602b      	str	r3, [r5, #0]
 8005690:	bd38      	pop	{r3, r4, r5, pc}
 8005692:	bf00      	nop

08005694 <_calloc_r>:
 8005694:	b510      	push	{r4, lr}
 8005696:	fb01 f102 	mul.w	r1, r1, r2
 800569a:	f7fd fefb 	bl	8003494 <_malloc_r>
 800569e:	4604      	mov	r4, r0
 80056a0:	b170      	cbz	r0, 80056c0 <_calloc_r+0x2c>
 80056a2:	f850 2c04 	ldr.w	r2, [r0, #-4]
 80056a6:	f022 0203 	bic.w	r2, r2, #3
 80056aa:	3a04      	subs	r2, #4
 80056ac:	2a24      	cmp	r2, #36	; 0x24
 80056ae:	d81c      	bhi.n	80056ea <_calloc_r+0x56>
 80056b0:	2a13      	cmp	r2, #19
 80056b2:	bf98      	it	ls
 80056b4:	4603      	movls	r3, r0
 80056b6:	d805      	bhi.n	80056c4 <_calloc_r+0x30>
 80056b8:	2200      	movs	r2, #0
 80056ba:	601a      	str	r2, [r3, #0]
 80056bc:	605a      	str	r2, [r3, #4]
 80056be:	609a      	str	r2, [r3, #8]
 80056c0:	4620      	mov	r0, r4
 80056c2:	bd10      	pop	{r4, pc}
 80056c4:	2100      	movs	r1, #0
 80056c6:	2a1b      	cmp	r2, #27
 80056c8:	6001      	str	r1, [r0, #0]
 80056ca:	bf98      	it	ls
 80056cc:	f100 0308 	addls.w	r3, r0, #8
 80056d0:	6041      	str	r1, [r0, #4]
 80056d2:	d9f1      	bls.n	80056b8 <_calloc_r+0x24>
 80056d4:	2a24      	cmp	r2, #36	; 0x24
 80056d6:	6081      	str	r1, [r0, #8]
 80056d8:	60c1      	str	r1, [r0, #12]
 80056da:	bf11      	iteee	ne
 80056dc:	f100 0310 	addne.w	r3, r0, #16
 80056e0:	6101      	streq	r1, [r0, #16]
 80056e2:	f100 0318 	addeq.w	r3, r0, #24
 80056e6:	6141      	streq	r1, [r0, #20]
 80056e8:	e7e6      	b.n	80056b8 <_calloc_r+0x24>
 80056ea:	2100      	movs	r1, #0
 80056ec:	f7fe faa2 	bl	8003c34 <memset>
 80056f0:	4620      	mov	r0, r4
 80056f2:	bd10      	pop	{r4, pc}

080056f4 <_close_r>:
 80056f4:	b538      	push	{r3, r4, r5, lr}
 80056f6:	f240 54f0 	movw	r4, #1520	; 0x5f0
 80056fa:	f2c2 0400 	movt	r4, #8192	; 0x2000
 80056fe:	4605      	mov	r5, r0
 8005700:	4608      	mov	r0, r1
 8005702:	2300      	movs	r3, #0
 8005704:	6023      	str	r3, [r4, #0]
 8005706:	f002 fccf 	bl	80080a8 <_close>
 800570a:	1c43      	adds	r3, r0, #1
 800570c:	d000      	beq.n	8005710 <_close_r+0x1c>
 800570e:	bd38      	pop	{r3, r4, r5, pc}
 8005710:	6823      	ldr	r3, [r4, #0]
 8005712:	2b00      	cmp	r3, #0
 8005714:	d0fb      	beq.n	800570e <_close_r+0x1a>
 8005716:	602b      	str	r3, [r5, #0]
 8005718:	bd38      	pop	{r3, r4, r5, pc}
 800571a:	bf00      	nop

0800571c <_fclose_r>:
 800571c:	b570      	push	{r4, r5, r6, lr}
 800571e:	460c      	mov	r4, r1
 8005720:	4605      	mov	r5, r0
 8005722:	460e      	mov	r6, r1
 8005724:	2900      	cmp	r1, #0
 8005726:	d049      	beq.n	80057bc <_fclose_r+0xa0>
 8005728:	f7fd fc52 	bl	8002fd0 <__sfp_lock_acquire>
 800572c:	b115      	cbz	r5, 8005734 <_fclose_r+0x18>
 800572e:	69ab      	ldr	r3, [r5, #24]
 8005730:	2b00      	cmp	r3, #0
 8005732:	d045      	beq.n	80057c0 <_fclose_r+0xa4>
 8005734:	f248 3378 	movw	r3, #33656	; 0x8378
 8005738:	f6c0 0300 	movt	r3, #2048	; 0x800
 800573c:	429c      	cmp	r4, r3
 800573e:	bf08      	it	eq
 8005740:	686c      	ldreq	r4, [r5, #4]
 8005742:	d00e      	beq.n	8005762 <_fclose_r+0x46>
 8005744:	f248 3358 	movw	r3, #33624	; 0x8358
 8005748:	f6c0 0300 	movt	r3, #2048	; 0x800
 800574c:	429c      	cmp	r4, r3
 800574e:	bf08      	it	eq
 8005750:	68ac      	ldreq	r4, [r5, #8]
 8005752:	d006      	beq.n	8005762 <_fclose_r+0x46>
 8005754:	f248 3338 	movw	r3, #33592	; 0x8338
 8005758:	f6c0 0300 	movt	r3, #2048	; 0x800
 800575c:	429c      	cmp	r4, r3
 800575e:	bf08      	it	eq
 8005760:	68ec      	ldreq	r4, [r5, #12]
 8005762:	f9b4 600c 	ldrsh.w	r6, [r4, #12]
 8005766:	b33e      	cbz	r6, 80057b8 <_fclose_r+0x9c>
 8005768:	4628      	mov	r0, r5
 800576a:	4621      	mov	r1, r4
 800576c:	f7fd fa8c 	bl	8002c88 <_fflush_r>
 8005770:	6b23      	ldr	r3, [r4, #48]	; 0x30
 8005772:	4606      	mov	r6, r0
 8005774:	b13b      	cbz	r3, 8005786 <_fclose_r+0x6a>
 8005776:	4628      	mov	r0, r5
 8005778:	6a21      	ldr	r1, [r4, #32]
 800577a:	4798      	blx	r3
 800577c:	ea36 0620 	bics.w	r6, r6, r0, asr #32
 8005780:	bf28      	it	cs
 8005782:	f04f 36ff 	movcs.w	r6, #4294967295
 8005786:	89a3      	ldrh	r3, [r4, #12]
 8005788:	f003 0380 	and.w	r3, r3, #128	; 0x80
 800578c:	b21b      	sxth	r3, r3
 800578e:	b9db      	cbnz	r3, 80057c8 <_fclose_r+0xac>
 8005790:	6b61      	ldr	r1, [r4, #52]	; 0x34
 8005792:	b141      	cbz	r1, 80057a6 <_fclose_r+0x8a>
 8005794:	f104 0344 	add.w	r3, r4, #68	; 0x44
 8005798:	4299      	cmp	r1, r3
 800579a:	d002      	beq.n	80057a2 <_fclose_r+0x86>
 800579c:	4628      	mov	r0, r5
 800579e:	f7fd fc89 	bl	80030b4 <_free_r>
 80057a2:	2300      	movs	r3, #0
 80057a4:	6363      	str	r3, [r4, #52]	; 0x34
 80057a6:	6ca1      	ldr	r1, [r4, #72]	; 0x48
 80057a8:	b121      	cbz	r1, 80057b4 <_fclose_r+0x98>
 80057aa:	4628      	mov	r0, r5
 80057ac:	f7fd fc82 	bl	80030b4 <_free_r>
 80057b0:	2300      	movs	r3, #0
 80057b2:	64a3      	str	r3, [r4, #72]	; 0x48
 80057b4:	2300      	movs	r3, #0
 80057b6:	81a3      	strh	r3, [r4, #12]
 80057b8:	f7fd fc0c 	bl	8002fd4 <__sfp_lock_release>
 80057bc:	4630      	mov	r0, r6
 80057be:	bd70      	pop	{r4, r5, r6, pc}
 80057c0:	4628      	mov	r0, r5
 80057c2:	f7fd fb93 	bl	8002eec <__sinit>
 80057c6:	e7b5      	b.n	8005734 <_fclose_r+0x18>
 80057c8:	4628      	mov	r0, r5
 80057ca:	6921      	ldr	r1, [r4, #16]
 80057cc:	f7fd fc72 	bl	80030b4 <_free_r>
 80057d0:	e7de      	b.n	8005790 <_fclose_r+0x74>
 80057d2:	bf00      	nop

080057d4 <fclose>:
 80057d4:	f240 0300 	movw	r3, #0
 80057d8:	4601      	mov	r1, r0
 80057da:	f2c2 0300 	movt	r3, #8192	; 0x2000
 80057de:	6818      	ldr	r0, [r3, #0]
 80057e0:	f7ff bf9c 	b.w	800571c <_fclose_r>

080057e4 <_fputwc_r>:
 80057e4:	8993      	ldrh	r3, [r2, #12]
 80057e6:	e92d 43f0 	stmdb	sp!, {r4, r5, r6, r7, r8, r9, lr}
 80057ea:	4614      	mov	r4, r2
 80057ec:	f403 5200 	and.w	r2, r3, #8192	; 0x2000
 80057f0:	b083      	sub	sp, #12
 80057f2:	4607      	mov	r7, r0
 80057f4:	460e      	mov	r6, r1
 80057f6:	b212      	sxth	r2, r2
 80057f8:	b932      	cbnz	r2, 8005808 <_fputwc_r+0x24>
 80057fa:	6e62      	ldr	r2, [r4, #100]	; 0x64
 80057fc:	f443 5300 	orr.w	r3, r3, #8192	; 0x2000
 8005800:	81a3      	strh	r3, [r4, #12]
 8005802:	f442 5200 	orr.w	r2, r2, #8192	; 0x2000
 8005806:	6662      	str	r2, [r4, #100]	; 0x64
 8005808:	f7fd fd9e 	bl	8003348 <__locale_mb_cur_max>
 800580c:	2801      	cmp	r0, #1
 800580e:	d049      	beq.n	80058a4 <_fputwc_r+0xc0>
 8005810:	f10d 0804 	add.w	r8, sp, #4
 8005814:	4638      	mov	r0, r7
 8005816:	4641      	mov	r1, r8
 8005818:	4632      	mov	r2, r6
 800581a:	f104 035c 	add.w	r3, r4, #92	; 0x5c
 800581e:	f000 fd25 	bl	800626c <_wcrtomb_r>
 8005822:	1c42      	adds	r2, r0, #1
 8005824:	4681      	mov	r9, r0
 8005826:	d027      	beq.n	8005878 <_fputwc_r+0x94>
 8005828:	2800      	cmp	r0, #0
 800582a:	d039      	beq.n	80058a0 <_fputwc_r+0xbc>
 800582c:	2500      	movs	r5, #0
 800582e:	e009      	b.n	8005844 <_fputwc_r+0x60>
 8005830:	6823      	ldr	r3, [r4, #0]
 8005832:	f818 2005 	ldrb.w	r2, [r8, r5]
 8005836:	701a      	strb	r2, [r3, #0]
 8005838:	6823      	ldr	r3, [r4, #0]
 800583a:	3301      	adds	r3, #1
 800583c:	6023      	str	r3, [r4, #0]
 800583e:	3501      	adds	r5, #1
 8005840:	454d      	cmp	r5, r9
 8005842:	d22d      	bcs.n	80058a0 <_fputwc_r+0xbc>
 8005844:	68a3      	ldr	r3, [r4, #8]
 8005846:	3b01      	subs	r3, #1
 8005848:	60a3      	str	r3, [r4, #8]
 800584a:	2b00      	cmp	r3, #0
 800584c:	daf0      	bge.n	8005830 <_fputwc_r+0x4c>
 800584e:	69a2      	ldr	r2, [r4, #24]
 8005850:	2000      	movs	r0, #0
 8005852:	4293      	cmp	r3, r2
 8005854:	db17      	blt.n	8005886 <_fputwc_r+0xa2>
 8005856:	6823      	ldr	r3, [r4, #0]
 8005858:	f818 2005 	ldrb.w	r2, [r8, r5]
 800585c:	701a      	strb	r2, [r3, #0]
 800585e:	6823      	ldr	r3, [r4, #0]
 8005860:	1c5a      	adds	r2, r3, #1
 8005862:	7819      	ldrb	r1, [r3, #0]
 8005864:	290a      	cmp	r1, #10
 8005866:	bf14      	ite	ne
 8005868:	6022      	strne	r2, [r4, #0]
 800586a:	4638      	moveq	r0, r7
 800586c:	d00e      	beq.n	800588c <_fputwc_r+0xa8>
 800586e:	2800      	cmp	r0, #0
 8005870:	d0e5      	beq.n	800583e <_fputwc_r+0x5a>
 8005872:	f04f 30ff 	mov.w	r0, #4294967295
 8005876:	e003      	b.n	8005880 <_fputwc_r+0x9c>
 8005878:	89a3      	ldrh	r3, [r4, #12]
 800587a:	f043 0340 	orr.w	r3, r3, #64	; 0x40
 800587e:	81a3      	strh	r3, [r4, #12]
 8005880:	b003      	add	sp, #12
 8005882:	e8bd 83f0 	ldmia.w	sp!, {r4, r5, r6, r7, r8, r9, pc}
 8005886:	f818 1005 	ldrb.w	r1, [r8, r5]
 800588a:	4638      	mov	r0, r7
 800588c:	4622      	mov	r2, r4
 800588e:	f000 fc6d 	bl	800616c <__swbuf_r>
 8005892:	f1b0 33ff 	subs.w	r3, r0, #4294967295
 8005896:	4258      	negs	r0, r3
 8005898:	4158      	adcs	r0, r3
 800589a:	2800      	cmp	r0, #0
 800589c:	d0cf      	beq.n	800583e <_fputwc_r+0x5a>
 800589e:	e7e8      	b.n	8005872 <_fputwc_r+0x8e>
 80058a0:	4630      	mov	r0, r6
 80058a2:	e7ed      	b.n	8005880 <_fputwc_r+0x9c>
 80058a4:	1e73      	subs	r3, r6, #1
 80058a6:	2bfe      	cmp	r3, #254	; 0xfe
 80058a8:	d8b2      	bhi.n	8005810 <_fputwc_r+0x2c>
 80058aa:	f10d 0808 	add.w	r8, sp, #8
 80058ae:	4681      	mov	r9, r0
 80058b0:	f808 6d04 	strb.w	r6, [r8, #-4]!
 80058b4:	e7ba      	b.n	800582c <_fputwc_r+0x48>
 80058b6:	bf00      	nop

080058b8 <fputwc>:
 80058b8:	b570      	push	{r4, r5, r6, lr}
 80058ba:	f240 0500 	movw	r5, #0
 80058be:	f2c2 0500 	movt	r5, #8192	; 0x2000
 80058c2:	4606      	mov	r6, r0
 80058c4:	460c      	mov	r4, r1
 80058c6:	6828      	ldr	r0, [r5, #0]
 80058c8:	b108      	cbz	r0, 80058ce <fputwc+0x16>
 80058ca:	6983      	ldr	r3, [r0, #24]
 80058cc:	b1e3      	cbz	r3, 8005908 <fputwc+0x50>
 80058ce:	f248 3378 	movw	r3, #33656	; 0x8378
 80058d2:	f6c0 0300 	movt	r3, #2048	; 0x800
 80058d6:	429c      	cmp	r4, r3
 80058d8:	bf08      	it	eq
 80058da:	6844      	ldreq	r4, [r0, #4]
 80058dc:	d00e      	beq.n	80058fc <fputwc+0x44>
 80058de:	f248 3358 	movw	r3, #33624	; 0x8358
 80058e2:	f6c0 0300 	movt	r3, #2048	; 0x800
 80058e6:	429c      	cmp	r4, r3
 80058e8:	bf08      	it	eq
 80058ea:	6884      	ldreq	r4, [r0, #8]
 80058ec:	d006      	beq.n	80058fc <fputwc+0x44>
 80058ee:	f248 3338 	movw	r3, #33592	; 0x8338
 80058f2:	f6c0 0300 	movt	r3, #2048	; 0x800
 80058f6:	429c      	cmp	r4, r3
 80058f8:	bf08      	it	eq
 80058fa:	68c4      	ldreq	r4, [r0, #12]
 80058fc:	4631      	mov	r1, r6
 80058fe:	4622      	mov	r2, r4
 8005900:	e8bd 4070 	ldmia.w	sp!, {r4, r5, r6, lr}
 8005904:	f7ff bf6e 	b.w	80057e4 <_fputwc_r>
 8005908:	f7fd faf0 	bl	8002eec <__sinit>
 800590c:	6828      	ldr	r0, [r5, #0]
 800590e:	e7de      	b.n	80058ce <fputwc+0x16>

08005910 <_fstat_r>:
 8005910:	b538      	push	{r3, r4, r5, lr}
 8005912:	f240 54f0 	movw	r4, #1520	; 0x5f0
 8005916:	f2c2 0400 	movt	r4, #8192	; 0x2000
 800591a:	4605      	mov	r5, r0
 800591c:	4608      	mov	r0, r1
 800591e:	4611      	mov	r1, r2
 8005920:	2300      	movs	r3, #0
 8005922:	6023      	str	r3, [r4, #0]
 8005924:	f002 fbcc 	bl	80080c0 <_fstat>
 8005928:	1c43      	adds	r3, r0, #1
 800592a:	d000      	beq.n	800592e <_fstat_r+0x1e>
 800592c:	bd38      	pop	{r3, r4, r5, pc}
 800592e:	6823      	ldr	r3, [r4, #0]
 8005930:	2b00      	cmp	r3, #0
 8005932:	d0fb      	beq.n	800592c <_fstat_r+0x1c>
 8005934:	602b      	str	r3, [r5, #0]
 8005936:	bd38      	pop	{r3, r4, r5, pc}

08005938 <__sfvwrite_r>:
 8005938:	6893      	ldr	r3, [r2, #8]
 800593a:	e92d 4ff0 	stmdb	sp!, {r4, r5, r6, r7, r8, r9, sl, fp, lr}
 800593e:	4690      	mov	r8, r2
 8005940:	b085      	sub	sp, #20
 8005942:	4681      	mov	r9, r0
 8005944:	460c      	mov	r4, r1
 8005946:	2b00      	cmp	r3, #0
 8005948:	d02b      	beq.n	80059a2 <__sfvwrite_r+0x6a>
 800594a:	898b      	ldrh	r3, [r1, #12]
 800594c:	f003 0208 	and.w	r2, r3, #8
 8005950:	b212      	sxth	r2, r2
 8005952:	2a00      	cmp	r2, #0
 8005954:	d029      	beq.n	80059aa <__sfvwrite_r+0x72>
 8005956:	690a      	ldr	r2, [r1, #16]
 8005958:	2a00      	cmp	r2, #0
 800595a:	d026      	beq.n	80059aa <__sfvwrite_r+0x72>
 800595c:	f003 0202 	and.w	r2, r3, #2
 8005960:	f8d8 5000 	ldr.w	r5, [r8]
 8005964:	b212      	sxth	r2, r2
 8005966:	2a00      	cmp	r2, #0
 8005968:	d035      	beq.n	80059d6 <__sfvwrite_r+0x9e>
 800596a:	f04f 0a00 	mov.w	sl, #0
 800596e:	4657      	mov	r7, sl
 8005970:	f5b7 6f80 	cmp.w	r7, #1024	; 0x400
 8005974:	bf34      	ite	cc
 8005976:	463b      	movcc	r3, r7
 8005978:	f44f 6380 	movcs.w	r3, #1024	; 0x400
 800597c:	4652      	mov	r2, sl
 800597e:	4648      	mov	r0, r9
 8005980:	2f00      	cmp	r7, #0
 8005982:	d022      	beq.n	80059ca <__sfvwrite_r+0x92>
 8005984:	6a21      	ldr	r1, [r4, #32]
 8005986:	6aa6      	ldr	r6, [r4, #40]	; 0x28
 8005988:	47b0      	blx	r6
 800598a:	2800      	cmp	r0, #0
 800598c:	4482      	add	sl, r0
 800598e:	ebc0 0707 	rsb	r7, r0, r7
 8005992:	dd69      	ble.n	8005a68 <__sfvwrite_r+0x130>
 8005994:	f8d8 3008 	ldr.w	r3, [r8, #8]
 8005998:	1a18      	subs	r0, r3, r0
 800599a:	f8c8 0008 	str.w	r0, [r8, #8]
 800599e:	2800      	cmp	r0, #0
 80059a0:	d1e6      	bne.n	8005970 <__sfvwrite_r+0x38>
 80059a2:	2000      	movs	r0, #0
 80059a4:	b005      	add	sp, #20
 80059a6:	e8bd 8ff0 	ldmia.w	sp!, {r4, r5, r6, r7, r8, r9, sl, fp, pc}
 80059aa:	4648      	mov	r0, r9
 80059ac:	4621      	mov	r1, r4
 80059ae:	f7fc f8b3 	bl	8001b18 <__swsetup_r>
 80059b2:	89a3      	ldrh	r3, [r4, #12]
 80059b4:	2800      	cmp	r0, #0
 80059b6:	d0d1      	beq.n	800595c <__sfvwrite_r+0x24>
 80059b8:	f043 0340 	orr.w	r3, r3, #64	; 0x40
 80059bc:	f04f 30ff 	mov.w	r0, #4294967295
 80059c0:	81a3      	strh	r3, [r4, #12]
 80059c2:	2309      	movs	r3, #9
 80059c4:	f8c9 3000 	str.w	r3, [r9]
 80059c8:	e7ec      	b.n	80059a4 <__sfvwrite_r+0x6c>
 80059ca:	f8d5 a000 	ldr.w	sl, [r5]
 80059ce:	3508      	adds	r5, #8
 80059d0:	f855 7c04 	ldr.w	r7, [r5, #-4]
 80059d4:	e7cc      	b.n	8005970 <__sfvwrite_r+0x38>
 80059d6:	f013 0a01 	ands.w	sl, r3, #1
 80059da:	d14c      	bne.n	8005a76 <__sfvwrite_r+0x13e>
 80059dc:	4656      	mov	r6, sl
 80059de:	2e00      	cmp	r6, #0
 80059e0:	d02f      	beq.n	8005a42 <__sfvwrite_r+0x10a>
 80059e2:	f403 7200 	and.w	r2, r3, #512	; 0x200
 80059e6:	68a7      	ldr	r7, [r4, #8]
 80059e8:	4619      	mov	r1, r3
 80059ea:	b212      	sxth	r2, r2
 80059ec:	2a00      	cmp	r2, #0
 80059ee:	d07e      	beq.n	8005aee <__sfvwrite_r+0x1b6>
 80059f0:	42be      	cmp	r6, r7
 80059f2:	46bc      	mov	ip, r7
 80059f4:	f0c0 80ac 	bcc.w	8005b50 <__sfvwrite_r+0x218>
 80059f8:	f401 6190 	and.w	r1, r1, #1152	; 0x480
 80059fc:	2900      	cmp	r1, #0
 80059fe:	f040 80c8 	bne.w	8005b92 <__sfvwrite_r+0x25a>
 8005a02:	6820      	ldr	r0, [r4, #0]
 8005a04:	46b3      	mov	fp, r6
 8005a06:	9703      	str	r7, [sp, #12]
 8005a08:	4637      	mov	r7, r6
 8005a0a:	4662      	mov	r2, ip
 8005a0c:	4651      	mov	r1, sl
 8005a0e:	f8cd c004 	str.w	ip, [sp, #4]
 8005a12:	f000 f949 	bl	8005ca8 <memmove>
 8005a16:	68a1      	ldr	r1, [r4, #8]
 8005a18:	6822      	ldr	r2, [r4, #0]
 8005a1a:	f8dd c004 	ldr.w	ip, [sp, #4]
 8005a1e:	9b03      	ldr	r3, [sp, #12]
 8005a20:	4462      	add	r2, ip
 8005a22:	6022      	str	r2, [r4, #0]
 8005a24:	1ac9      	subs	r1, r1, r3
 8005a26:	60a1      	str	r1, [r4, #8]
 8005a28:	f8d8 2008 	ldr.w	r2, [r8, #8]
 8005a2c:	44da      	add	sl, fp
 8005a2e:	ebcb 0606 	rsb	r6, fp, r6
 8005a32:	1bd7      	subs	r7, r2, r7
 8005a34:	f8c8 7008 	str.w	r7, [r8, #8]
 8005a38:	2f00      	cmp	r7, #0
 8005a3a:	d0b2      	beq.n	80059a2 <__sfvwrite_r+0x6a>
 8005a3c:	89a3      	ldrh	r3, [r4, #12]
 8005a3e:	2e00      	cmp	r6, #0
 8005a40:	d1cf      	bne.n	80059e2 <__sfvwrite_r+0xaa>
 8005a42:	f8d5 a000 	ldr.w	sl, [r5]
 8005a46:	3508      	adds	r5, #8
 8005a48:	f855 6c04 	ldr.w	r6, [r5, #-4]
 8005a4c:	e7c7      	b.n	80059de <__sfvwrite_r+0xa6>
 8005a4e:	f000 f9a7 	bl	8005da0 <_realloc_r>
 8005a52:	4603      	mov	r3, r0
 8005a54:	2800      	cmp	r0, #0
 8005a56:	f040 80c8 	bne.w	8005bea <__sfvwrite_r+0x2b2>
 8005a5a:	4648      	mov	r0, r9
 8005a5c:	6921      	ldr	r1, [r4, #16]
 8005a5e:	f7fd fb29 	bl	80030b4 <_free_r>
 8005a62:	230c      	movs	r3, #12
 8005a64:	f8c9 3000 	str.w	r3, [r9]
 8005a68:	89a3      	ldrh	r3, [r4, #12]
 8005a6a:	f04f 30ff 	mov.w	r0, #4294967295
 8005a6e:	f043 0340 	orr.w	r3, r3, #64	; 0x40
 8005a72:	81a3      	strh	r3, [r4, #12]
 8005a74:	e796      	b.n	80059a4 <__sfvwrite_r+0x6c>
 8005a76:	4692      	mov	sl, r2
 8005a78:	4694      	mov	ip, r2
 8005a7a:	4693      	mov	fp, r2
 8005a7c:	4617      	mov	r7, r2
 8005a7e:	2f00      	cmp	r7, #0
 8005a80:	d02e      	beq.n	8005ae0 <__sfvwrite_r+0x1a8>
 8005a82:	f1bc 0f00 	cmp.w	ip, #0
 8005a86:	d076      	beq.n	8005b76 <__sfvwrite_r+0x23e>
 8005a88:	6820      	ldr	r0, [r4, #0]
 8005a8a:	45ba      	cmp	sl, r7
 8005a8c:	bf34      	ite	cc
 8005a8e:	4653      	movcc	r3, sl
 8005a90:	463b      	movcs	r3, r7
 8005a92:	6922      	ldr	r2, [r4, #16]
 8005a94:	68a6      	ldr	r6, [r4, #8]
 8005a96:	4290      	cmp	r0, r2
 8005a98:	f8d4 e014 	ldr.w	lr, [r4, #20]
 8005a9c:	d903      	bls.n	8005aa6 <__sfvwrite_r+0x16e>
 8005a9e:	4476      	add	r6, lr
 8005aa0:	42b3      	cmp	r3, r6
 8005aa2:	f300 80af 	bgt.w	8005c04 <__sfvwrite_r+0x2cc>
 8005aa6:	4573      	cmp	r3, lr
 8005aa8:	db35      	blt.n	8005b16 <__sfvwrite_r+0x1de>
 8005aaa:	6aa6      	ldr	r6, [r4, #40]	; 0x28
 8005aac:	4648      	mov	r0, r9
 8005aae:	6a21      	ldr	r1, [r4, #32]
 8005ab0:	465a      	mov	r2, fp
 8005ab2:	f8cd c004 	str.w	ip, [sp, #4]
 8005ab6:	4673      	mov	r3, lr
 8005ab8:	47b0      	blx	r6
 8005aba:	f8dd c004 	ldr.w	ip, [sp, #4]
 8005abe:	1e06      	subs	r6, r0, #0
 8005ac0:	ddd2      	ble.n	8005a68 <__sfvwrite_r+0x130>
 8005ac2:	ebba 0a06 	subs.w	sl, sl, r6
 8005ac6:	d03b      	beq.n	8005b40 <__sfvwrite_r+0x208>
 8005ac8:	f8d8 3008 	ldr.w	r3, [r8, #8]
 8005acc:	44b3      	add	fp, r6
 8005ace:	1bbf      	subs	r7, r7, r6
 8005ad0:	1b9e      	subs	r6, r3, r6
 8005ad2:	f8c8 6008 	str.w	r6, [r8, #8]
 8005ad6:	2e00      	cmp	r6, #0
 8005ad8:	f43f af63 	beq.w	80059a2 <__sfvwrite_r+0x6a>
 8005adc:	2f00      	cmp	r7, #0
 8005ade:	d1d0      	bne.n	8005a82 <__sfvwrite_r+0x14a>
 8005ae0:	f8d5 b000 	ldr.w	fp, [r5]
 8005ae4:	f04f 0c00 	mov.w	ip, #0
 8005ae8:	686f      	ldr	r7, [r5, #4]
 8005aea:	3508      	adds	r5, #8
 8005aec:	e7c7      	b.n	8005a7e <__sfvwrite_r+0x146>
 8005aee:	6820      	ldr	r0, [r4, #0]
 8005af0:	6923      	ldr	r3, [r4, #16]
 8005af2:	4298      	cmp	r0, r3
 8005af4:	d903      	bls.n	8005afe <__sfvwrite_r+0x1c6>
 8005af6:	42be      	cmp	r6, r7
 8005af8:	46bb      	mov	fp, r7
 8005afa:	f200 8096 	bhi.w	8005c2a <__sfvwrite_r+0x2f2>
 8005afe:	6963      	ldr	r3, [r4, #20]
 8005b00:	429e      	cmp	r6, r3
 8005b02:	d32b      	bcc.n	8005b5c <__sfvwrite_r+0x224>
 8005b04:	6aa7      	ldr	r7, [r4, #40]	; 0x28
 8005b06:	4648      	mov	r0, r9
 8005b08:	6a21      	ldr	r1, [r4, #32]
 8005b0a:	4652      	mov	r2, sl
 8005b0c:	47b8      	blx	r7
 8005b0e:	1e07      	subs	r7, r0, #0
 8005b10:	ddaa      	ble.n	8005a68 <__sfvwrite_r+0x130>
 8005b12:	46bb      	mov	fp, r7
 8005b14:	e788      	b.n	8005a28 <__sfvwrite_r+0xf0>
 8005b16:	461a      	mov	r2, r3
 8005b18:	461e      	mov	r6, r3
 8005b1a:	4659      	mov	r1, fp
 8005b1c:	9302      	str	r3, [sp, #8]
 8005b1e:	f8cd c004 	str.w	ip, [sp, #4]
 8005b22:	f000 f8c1 	bl	8005ca8 <memmove>
 8005b26:	9b02      	ldr	r3, [sp, #8]
 8005b28:	ebba 0a06 	subs.w	sl, sl, r6
 8005b2c:	68a1      	ldr	r1, [r4, #8]
 8005b2e:	6822      	ldr	r2, [r4, #0]
 8005b30:	ebc3 0101 	rsb	r1, r3, r1
 8005b34:	f8dd c004 	ldr.w	ip, [sp, #4]
 8005b38:	4413      	add	r3, r2
 8005b3a:	60a1      	str	r1, [r4, #8]
 8005b3c:	6023      	str	r3, [r4, #0]
 8005b3e:	d1c3      	bne.n	8005ac8 <__sfvwrite_r+0x190>
 8005b40:	4648      	mov	r0, r9
 8005b42:	4621      	mov	r1, r4
 8005b44:	f7fd f8a0 	bl	8002c88 <_fflush_r>
 8005b48:	2800      	cmp	r0, #0
 8005b4a:	d18d      	bne.n	8005a68 <__sfvwrite_r+0x130>
 8005b4c:	46d4      	mov	ip, sl
 8005b4e:	e7bb      	b.n	8005ac8 <__sfvwrite_r+0x190>
 8005b50:	6820      	ldr	r0, [r4, #0]
 8005b52:	46b3      	mov	fp, r6
 8005b54:	9603      	str	r6, [sp, #12]
 8005b56:	4637      	mov	r7, r6
 8005b58:	46b4      	mov	ip, r6
 8005b5a:	e756      	b.n	8005a0a <__sfvwrite_r+0xd2>
 8005b5c:	4651      	mov	r1, sl
 8005b5e:	4632      	mov	r2, r6
 8005b60:	f000 f8a2 	bl	8005ca8 <memmove>
 8005b64:	68a1      	ldr	r1, [r4, #8]
 8005b66:	6822      	ldr	r2, [r4, #0]
 8005b68:	4637      	mov	r7, r6
 8005b6a:	1b89      	subs	r1, r1, r6
 8005b6c:	46b3      	mov	fp, r6
 8005b6e:	1992      	adds	r2, r2, r6
 8005b70:	60a1      	str	r1, [r4, #8]
 8005b72:	6022      	str	r2, [r4, #0]
 8005b74:	e758      	b.n	8005a28 <__sfvwrite_r+0xf0>
 8005b76:	4658      	mov	r0, fp
 8005b78:	210a      	movs	r1, #10
 8005b7a:	463a      	mov	r2, r7
 8005b7c:	f7fd ff56 	bl	8003a2c <memchr>
 8005b80:	2800      	cmp	r0, #0
 8005b82:	d061      	beq.n	8005c48 <__sfvwrite_r+0x310>
 8005b84:	f100 0a01 	add.w	sl, r0, #1
 8005b88:	f04f 0c01 	mov.w	ip, #1
 8005b8c:	ebcb 0a0a 	rsb	sl, fp, sl
 8005b90:	e77a      	b.n	8005a88 <__sfvwrite_r+0x150>
 8005b92:	6967      	ldr	r7, [r4, #20]
 8005b94:	f403 6380 	and.w	r3, r3, #1024	; 0x400
 8005b98:	6822      	ldr	r2, [r4, #0]
 8005b9a:	6921      	ldr	r1, [r4, #16]
 8005b9c:	b21b      	sxth	r3, r3
 8005b9e:	eb07 0747 	add.w	r7, r7, r7, lsl #1
 8005ba2:	ebc1 0b02 	rsb	fp, r1, r2
 8005ba6:	eb07 77d7 	add.w	r7, r7, r7, lsr #31
 8005baa:	f10b 0001 	add.w	r0, fp, #1
 8005bae:	1980      	adds	r0, r0, r6
 8005bb0:	107f      	asrs	r7, r7, #1
 8005bb2:	4287      	cmp	r7, r0
 8005bb4:	463a      	mov	r2, r7
 8005bb6:	bf38      	it	cc
 8005bb8:	4607      	movcc	r7, r0
 8005bba:	4648      	mov	r0, r9
 8005bbc:	bf38      	it	cc
 8005bbe:	463a      	movcc	r2, r7
 8005bc0:	2b00      	cmp	r3, #0
 8005bc2:	f43f af44 	beq.w	8005a4e <__sfvwrite_r+0x116>
 8005bc6:	4611      	mov	r1, r2
 8005bc8:	f7fd fc64 	bl	8003494 <_malloc_r>
 8005bcc:	2800      	cmp	r0, #0
 8005bce:	f43f af48 	beq.w	8005a62 <__sfvwrite_r+0x12a>
 8005bd2:	6921      	ldr	r1, [r4, #16]
 8005bd4:	465a      	mov	r2, fp
 8005bd6:	9002      	str	r0, [sp, #8]
 8005bd8:	f7fd ff72 	bl	8003ac0 <memcpy>
 8005bdc:	89a2      	ldrh	r2, [r4, #12]
 8005bde:	9b02      	ldr	r3, [sp, #8]
 8005be0:	f422 6290 	bic.w	r2, r2, #1152	; 0x480
 8005be4:	f042 0280 	orr.w	r2, r2, #128	; 0x80
 8005be8:	81a2      	strh	r2, [r4, #12]
 8005bea:	ebcb 0207 	rsb	r2, fp, r7
 8005bee:	eb03 000b 	add.w	r0, r3, fp
 8005bf2:	6167      	str	r7, [r4, #20]
 8005bf4:	46b3      	mov	fp, r6
 8005bf6:	6123      	str	r3, [r4, #16]
 8005bf8:	4637      	mov	r7, r6
 8005bfa:	9603      	str	r6, [sp, #12]
 8005bfc:	46b4      	mov	ip, r6
 8005bfe:	6020      	str	r0, [r4, #0]
 8005c00:	60a2      	str	r2, [r4, #8]
 8005c02:	e702      	b.n	8005a0a <__sfvwrite_r+0xd2>
 8005c04:	4659      	mov	r1, fp
 8005c06:	4632      	mov	r2, r6
 8005c08:	f8cd c004 	str.w	ip, [sp, #4]
 8005c0c:	f000 f84c 	bl	8005ca8 <memmove>
 8005c10:	6823      	ldr	r3, [r4, #0]
 8005c12:	4648      	mov	r0, r9
 8005c14:	4621      	mov	r1, r4
 8005c16:	199b      	adds	r3, r3, r6
 8005c18:	6023      	str	r3, [r4, #0]
 8005c1a:	f7fd f835 	bl	8002c88 <_fflush_r>
 8005c1e:	f8dd c004 	ldr.w	ip, [sp, #4]
 8005c22:	2800      	cmp	r0, #0
 8005c24:	f43f af4d 	beq.w	8005ac2 <__sfvwrite_r+0x18a>
 8005c28:	e71e      	b.n	8005a68 <__sfvwrite_r+0x130>
 8005c2a:	4651      	mov	r1, sl
 8005c2c:	463a      	mov	r2, r7
 8005c2e:	f000 f83b 	bl	8005ca8 <memmove>
 8005c32:	6822      	ldr	r2, [r4, #0]
 8005c34:	4648      	mov	r0, r9
 8005c36:	4621      	mov	r1, r4
 8005c38:	19d2      	adds	r2, r2, r7
 8005c3a:	6022      	str	r2, [r4, #0]
 8005c3c:	f7fd f824 	bl	8002c88 <_fflush_r>
 8005c40:	2800      	cmp	r0, #0
 8005c42:	f43f aef1 	beq.w	8005a28 <__sfvwrite_r+0xf0>
 8005c46:	e70f      	b.n	8005a68 <__sfvwrite_r+0x130>
 8005c48:	f107 0a01 	add.w	sl, r7, #1
 8005c4c:	f04f 0c01 	mov.w	ip, #1
 8005c50:	e71a      	b.n	8005a88 <__sfvwrite_r+0x150>
 8005c52:	bf00      	nop

08005c54 <_isatty_r>:
 8005c54:	b538      	push	{r3, r4, r5, lr}
 8005c56:	f240 54f0 	movw	r4, #1520	; 0x5f0
 8005c5a:	f2c2 0400 	movt	r4, #8192	; 0x2000
 8005c5e:	4605      	mov	r5, r0
 8005c60:	4608      	mov	r0, r1
 8005c62:	2300      	movs	r3, #0
 8005c64:	6023      	str	r3, [r4, #0]
 8005c66:	f002 fa3d 	bl	80080e4 <_isatty>
 8005c6a:	1c43      	adds	r3, r0, #1
 8005c6c:	d000      	beq.n	8005c70 <_isatty_r+0x1c>
 8005c6e:	bd38      	pop	{r3, r4, r5, pc}
 8005c70:	6823      	ldr	r3, [r4, #0]
 8005c72:	2b00      	cmp	r3, #0
 8005c74:	d0fb      	beq.n	8005c6e <_isatty_r+0x1a>
 8005c76:	602b      	str	r3, [r5, #0]
 8005c78:	bd38      	pop	{r3, r4, r5, pc}
 8005c7a:	bf00      	nop

08005c7c <_lseek_r>:
 8005c7c:	b538      	push	{r3, r4, r5, lr}
 8005c7e:	f240 54f0 	movw	r4, #1520	; 0x5f0
 8005c82:	f2c2 0400 	movt	r4, #8192	; 0x2000
 8005c86:	4605      	mov	r5, r0
 8005c88:	4608      	mov	r0, r1
 8005c8a:	4611      	mov	r1, r2
 8005c8c:	461a      	mov	r2, r3
 8005c8e:	2300      	movs	r3, #0
 8005c90:	6023      	str	r3, [r4, #0]
 8005c92:	f002 fa41 	bl	8008118 <_lseek>
 8005c96:	1c43      	adds	r3, r0, #1
 8005c98:	d000      	beq.n	8005c9c <_lseek_r+0x20>
 8005c9a:	bd38      	pop	{r3, r4, r5, pc}
 8005c9c:	6823      	ldr	r3, [r4, #0]
 8005c9e:	2b00      	cmp	r3, #0
 8005ca0:	d0fb      	beq.n	8005c9a <_lseek_r+0x1e>
 8005ca2:	602b      	str	r3, [r5, #0]
 8005ca4:	bd38      	pop	{r3, r4, r5, pc}
 8005ca6:	bf00      	nop

08005ca8 <memmove>:
 8005ca8:	4288      	cmp	r0, r1
 8005caa:	b4f0      	push	{r4, r5, r6, r7}
 8005cac:	d911      	bls.n	8005cd2 <memmove+0x2a>
 8005cae:	188c      	adds	r4, r1, r2
 8005cb0:	42a0      	cmp	r0, r4
 8005cb2:	d20e      	bcs.n	8005cd2 <memmove+0x2a>
 8005cb4:	1885      	adds	r5, r0, r2
 8005cb6:	1e53      	subs	r3, r2, #1
 8005cb8:	b14a      	cbz	r2, 8005cce <memmove+0x26>
 8005cba:	4621      	mov	r1, r4
 8005cbc:	462a      	mov	r2, r5
 8005cbe:	f811 4d01 	ldrb.w	r4, [r1, #-1]!
 8005cc2:	3b01      	subs	r3, #1
 8005cc4:	f1b3 3fff 	cmp.w	r3, #4294967295
 8005cc8:	f802 4d01 	strb.w	r4, [r2, #-1]!
 8005ccc:	d1f7      	bne.n	8005cbe <memmove+0x16>
 8005cce:	bcf0      	pop	{r4, r5, r6, r7}
 8005cd0:	4770      	bx	lr
 8005cd2:	2a0f      	cmp	r2, #15
 8005cd4:	d947      	bls.n	8005d66 <memmove+0xbe>
 8005cd6:	ea41 0300 	orr.w	r3, r1, r0
 8005cda:	079b      	lsls	r3, r3, #30
 8005cdc:	d145      	bne.n	8005d6a <memmove+0xc2>
 8005cde:	460c      	mov	r4, r1
 8005ce0:	4603      	mov	r3, r0
 8005ce2:	4615      	mov	r5, r2
 8005ce4:	6826      	ldr	r6, [r4, #0]
 8005ce6:	3310      	adds	r3, #16
 8005ce8:	3410      	adds	r4, #16
 8005cea:	3d10      	subs	r5, #16
 8005cec:	2d0f      	cmp	r5, #15
 8005cee:	f843 6c10 	str.w	r6, [r3, #-16]
 8005cf2:	f854 6c0c 	ldr.w	r6, [r4, #-12]
 8005cf6:	f843 6c0c 	str.w	r6, [r3, #-12]
 8005cfa:	f854 6c08 	ldr.w	r6, [r4, #-8]
 8005cfe:	f843 6c08 	str.w	r6, [r3, #-8]
 8005d02:	f854 6c04 	ldr.w	r6, [r4, #-4]
 8005d06:	f843 6c04 	str.w	r6, [r3, #-4]
 8005d0a:	d8eb      	bhi.n	8005ce4 <memmove+0x3c>
 8005d0c:	f1a2 0510 	sub.w	r5, r2, #16
 8005d10:	f002 040f 	and.w	r4, r2, #15
 8005d14:	f025 050f 	bic.w	r5, r5, #15
 8005d18:	3510      	adds	r5, #16
 8005d1a:	2c03      	cmp	r4, #3
 8005d1c:	eb00 0305 	add.w	r3, r0, r5
 8005d20:	4429      	add	r1, r5
 8005d22:	d924      	bls.n	8005d6e <memmove+0xc6>
 8005d24:	f1a4 0c04 	sub.w	ip, r4, #4
 8005d28:	461d      	mov	r5, r3
 8005d2a:	460c      	mov	r4, r1
 8005d2c:	ea4f 0c9c 	mov.w	ip, ip, lsr #2
 8005d30:	eb01 078c 	add.w	r7, r1, ip, lsl #2
 8005d34:	3704      	adds	r7, #4
 8005d36:	f854 6b04 	ldr.w	r6, [r4], #4
 8005d3a:	42bc      	cmp	r4, r7
 8005d3c:	f845 6b04 	str.w	r6, [r5], #4
 8005d40:	d1f9      	bne.n	8005d36 <memmove+0x8e>
 8005d42:	f10c 0401 	add.w	r4, ip, #1
 8005d46:	f002 0203 	and.w	r2, r2, #3
 8005d4a:	00a4      	lsls	r4, r4, #2
 8005d4c:	1909      	adds	r1, r1, r4
 8005d4e:	191b      	adds	r3, r3, r4
 8005d50:	2a00      	cmp	r2, #0
 8005d52:	d0bc      	beq.n	8005cce <memmove+0x26>
 8005d54:	3901      	subs	r1, #1
 8005d56:	189a      	adds	r2, r3, r2
 8005d58:	f811 4f01 	ldrb.w	r4, [r1, #1]!
 8005d5c:	f803 4b01 	strb.w	r4, [r3], #1
 8005d60:	4293      	cmp	r3, r2
 8005d62:	d1f9      	bne.n	8005d58 <memmove+0xb0>
 8005d64:	e7b3      	b.n	8005cce <memmove+0x26>
 8005d66:	4603      	mov	r3, r0
 8005d68:	e7f2      	b.n	8005d50 <memmove+0xa8>
 8005d6a:	4603      	mov	r3, r0
 8005d6c:	e7f2      	b.n	8005d54 <memmove+0xac>
 8005d6e:	4622      	mov	r2, r4
 8005d70:	e7ee      	b.n	8005d50 <memmove+0xa8>
 8005d72:	bf00      	nop

08005d74 <_read_r>:
 8005d74:	b538      	push	{r3, r4, r5, lr}
 8005d76:	f240 54f0 	movw	r4, #1520	; 0x5f0
 8005d7a:	f2c2 0400 	movt	r4, #8192	; 0x2000
 8005d7e:	4605      	mov	r5, r0
 8005d80:	4608      	mov	r0, r1
 8005d82:	4611      	mov	r1, r2
 8005d84:	461a      	mov	r2, r3
 8005d86:	2300      	movs	r3, #0
 8005d88:	6023      	str	r3, [r4, #0]
 8005d8a:	f002 fa0f 	bl	80081ac <_read>
 8005d8e:	1c43      	adds	r3, r0, #1
 8005d90:	d000      	beq.n	8005d94 <_read_r+0x20>
 8005d92:	bd38      	pop	{r3, r4, r5, pc}
 8005d94:	6823      	ldr	r3, [r4, #0]
 8005d96:	2b00      	cmp	r3, #0
 8005d98:	d0fb      	beq.n	8005d92 <_read_r+0x1e>
 8005d9a:	602b      	str	r3, [r5, #0]
 8005d9c:	bd38      	pop	{r3, r4, r5, pc}
 8005d9e:	bf00      	nop

08005da0 <_realloc_r>:
 8005da0:	e92d 4ff0 	stmdb	sp!, {r4, r5, r6, r7, r8, r9, sl, fp, lr}
 8005da4:	460c      	mov	r4, r1
 8005da6:	b083      	sub	sp, #12
 8005da8:	4681      	mov	r9, r0
 8005daa:	4617      	mov	r7, r2
 8005dac:	2900      	cmp	r1, #0
 8005dae:	f000 811c 	beq.w	8005fea <_realloc_r+0x24a>
 8005db2:	f107 050b 	add.w	r5, r7, #11
 8005db6:	f7fd ffa3 	bl	8003d00 <__malloc_lock>
 8005dba:	f854 2c04 	ldr.w	r2, [r4, #-4]
 8005dbe:	2d16      	cmp	r5, #22
 8005dc0:	f1a4 0a08 	sub.w	sl, r4, #8
 8005dc4:	f022 0603 	bic.w	r6, r2, #3
 8005dc8:	d875      	bhi.n	8005eb6 <_realloc_r+0x116>
 8005dca:	2110      	movs	r1, #16
 8005dcc:	2300      	movs	r3, #0
 8005dce:	460d      	mov	r5, r1
 8005dd0:	42bd      	cmp	r5, r7
 8005dd2:	bf38      	it	cc
 8005dd4:	f043 0301 	orrcc.w	r3, r3, #1
 8005dd8:	2b00      	cmp	r3, #0
 8005dda:	f040 810c 	bne.w	8005ff6 <_realloc_r+0x256>
 8005dde:	428e      	cmp	r6, r1
 8005de0:	da6e      	bge.n	8005ec0 <_realloc_r+0x120>
 8005de2:	f240 1b70 	movw	fp, #368	; 0x170
 8005de6:	eb0a 0006 	add.w	r0, sl, r6
 8005dea:	f2c2 0b00 	movt	fp, #8192	; 0x2000
 8005dee:	f8db e008 	ldr.w	lr, [fp, #8]
 8005df2:	4586      	cmp	lr, r0
 8005df4:	f000 8104 	beq.w	8006000 <_realloc_r+0x260>
 8005df8:	f8d0 c004 	ldr.w	ip, [r0, #4]
 8005dfc:	f02c 0801 	bic.w	r8, ip, #1
 8005e00:	4480      	add	r8, r0
 8005e02:	f8d8 8004 	ldr.w	r8, [r8, #4]
 8005e06:	f018 0f01 	tst.w	r8, #1
 8005e0a:	bf1c      	itt	ne
 8005e0c:	469c      	movne	ip, r3
 8005e0e:	4660      	movne	r0, ip
 8005e10:	d06f      	beq.n	8005ef2 <_realloc_r+0x152>
 8005e12:	07d3      	lsls	r3, r2, #31
 8005e14:	f100 80c3 	bmi.w	8005f9e <_realloc_r+0x1fe>
 8005e18:	f854 3c08 	ldr.w	r3, [r4, #-8]
 8005e1c:	ebc3 030a 	rsb	r3, r3, sl
 8005e20:	685a      	ldr	r2, [r3, #4]
 8005e22:	f022 0203 	bic.w	r2, r2, #3
 8005e26:	1992      	adds	r2, r2, r6
 8005e28:	9201      	str	r2, [sp, #4]
 8005e2a:	2800      	cmp	r0, #0
 8005e2c:	d06c      	beq.n	8005f08 <_realloc_r+0x168>
 8005e2e:	4570      	cmp	r0, lr
 8005e30:	f000 8137 	beq.w	80060a2 <_realloc_r+0x302>
 8005e34:	eb0c 0802 	add.w	r8, ip, r2
 8005e38:	4588      	cmp	r8, r1
 8005e3a:	db65      	blt.n	8005f08 <_realloc_r+0x168>
 8005e3c:	68c1      	ldr	r1, [r0, #12]
 8005e3e:	461f      	mov	r7, r3
 8005e40:	6880      	ldr	r0, [r0, #8]
 8005e42:	1f32      	subs	r2, r6, #4
 8005e44:	2a24      	cmp	r2, #36	; 0x24
 8005e46:	6088      	str	r0, [r1, #8]
 8005e48:	60c1      	str	r1, [r0, #12]
 8005e4a:	f857 0f08 	ldr.w	r0, [r7, #8]!
 8005e4e:	68d9      	ldr	r1, [r3, #12]
 8005e50:	60c1      	str	r1, [r0, #12]
 8005e52:	6088      	str	r0, [r1, #8]
 8005e54:	f200 8178 	bhi.w	8006148 <_realloc_r+0x3a8>
 8005e58:	2a13      	cmp	r2, #19
 8005e5a:	bf9c      	itt	ls
 8005e5c:	4639      	movls	r1, r7
 8005e5e:	4620      	movls	r0, r4
 8005e60:	d91f      	bls.n	8005ea2 <_realloc_r+0x102>
 8005e62:	6821      	ldr	r1, [r4, #0]
 8005e64:	2a1b      	cmp	r2, #27
 8005e66:	bf98      	it	ls
 8005e68:	f104 0008 	addls.w	r0, r4, #8
 8005e6c:	6099      	str	r1, [r3, #8]
 8005e6e:	6861      	ldr	r1, [r4, #4]
 8005e70:	60d9      	str	r1, [r3, #12]
 8005e72:	bf98      	it	ls
 8005e74:	f103 0110 	addls.w	r1, r3, #16
 8005e78:	d913      	bls.n	8005ea2 <_realloc_r+0x102>
 8005e7a:	68a1      	ldr	r1, [r4, #8]
 8005e7c:	2a24      	cmp	r2, #36	; 0x24
 8005e7e:	bf14      	ite	ne
 8005e80:	f104 0010 	addne.w	r0, r4, #16
 8005e84:	f104 0018 	addeq.w	r0, r4, #24
 8005e88:	6119      	str	r1, [r3, #16]
 8005e8a:	68e1      	ldr	r1, [r4, #12]
 8005e8c:	6159      	str	r1, [r3, #20]
 8005e8e:	bf11      	iteee	ne
 8005e90:	f103 0118 	addne.w	r1, r3, #24
 8005e94:	6922      	ldreq	r2, [r4, #16]
 8005e96:	f103 0120 	addeq.w	r1, r3, #32
 8005e9a:	619a      	streq	r2, [r3, #24]
 8005e9c:	bf04      	itt	eq
 8005e9e:	6962      	ldreq	r2, [r4, #20]
 8005ea0:	61da      	streq	r2, [r3, #28]
 8005ea2:	6802      	ldr	r2, [r0, #0]
 8005ea4:	463c      	mov	r4, r7
 8005ea6:	600a      	str	r2, [r1, #0]
 8005ea8:	469a      	mov	sl, r3
 8005eaa:	6842      	ldr	r2, [r0, #4]
 8005eac:	604a      	str	r2, [r1, #4]
 8005eae:	6882      	ldr	r2, [r0, #8]
 8005eb0:	608a      	str	r2, [r1, #8]
 8005eb2:	685a      	ldr	r2, [r3, #4]
 8005eb4:	e005      	b.n	8005ec2 <_realloc_r+0x122>
 8005eb6:	f025 0507 	bic.w	r5, r5, #7
 8005eba:	4629      	mov	r1, r5
 8005ebc:	0feb      	lsrs	r3, r5, #31
 8005ebe:	e787      	b.n	8005dd0 <_realloc_r+0x30>
 8005ec0:	46b0      	mov	r8, r6
 8005ec2:	ebc5 0308 	rsb	r3, r5, r8
 8005ec6:	2b0f      	cmp	r3, #15
 8005ec8:	d855      	bhi.n	8005f76 <_realloc_r+0x1d6>
 8005eca:	eb0a 0308 	add.w	r3, sl, r8
 8005ece:	f002 0201 	and.w	r2, r2, #1
 8005ed2:	ea42 0208 	orr.w	r2, r2, r8
 8005ed6:	f8ca 2004 	str.w	r2, [sl, #4]
 8005eda:	685a      	ldr	r2, [r3, #4]
 8005edc:	f042 0201 	orr.w	r2, r2, #1
 8005ee0:	605a      	str	r2, [r3, #4]
 8005ee2:	4648      	mov	r0, r9
 8005ee4:	4627      	mov	r7, r4
 8005ee6:	f7fd ff0d 	bl	8003d04 <__malloc_unlock>
 8005eea:	4638      	mov	r0, r7
 8005eec:	b003      	add	sp, #12
 8005eee:	e8bd 8ff0 	ldmia.w	sp!, {r4, r5, r6, r7, r8, r9, sl, fp, pc}
 8005ef2:	f02c 0c03 	bic.w	ip, ip, #3
 8005ef6:	eb0c 0806 	add.w	r8, ip, r6
 8005efa:	4588      	cmp	r8, r1
 8005efc:	db89      	blt.n	8005e12 <_realloc_r+0x72>
 8005efe:	68c3      	ldr	r3, [r0, #12]
 8005f00:	6881      	ldr	r1, [r0, #8]
 8005f02:	60cb      	str	r3, [r1, #12]
 8005f04:	6099      	str	r1, [r3, #8]
 8005f06:	e7dc      	b.n	8005ec2 <_realloc_r+0x122>
 8005f08:	9a01      	ldr	r2, [sp, #4]
 8005f0a:	428a      	cmp	r2, r1
 8005f0c:	db47      	blt.n	8005f9e <_realloc_r+0x1fe>
 8005f0e:	461f      	mov	r7, r3
 8005f10:	68d9      	ldr	r1, [r3, #12]
 8005f12:	1f32      	subs	r2, r6, #4
 8005f14:	f857 0f08 	ldr.w	r0, [r7, #8]!
 8005f18:	2a24      	cmp	r2, #36	; 0x24
 8005f1a:	60c1      	str	r1, [r0, #12]
 8005f1c:	6088      	str	r0, [r1, #8]
 8005f1e:	f200 80b1 	bhi.w	8006084 <_realloc_r+0x2e4>
 8005f22:	2a13      	cmp	r2, #19
 8005f24:	bf9c      	itt	ls
 8005f26:	4639      	movls	r1, r7
 8005f28:	4620      	movls	r0, r4
 8005f2a:	d91f      	bls.n	8005f6c <_realloc_r+0x1cc>
 8005f2c:	6821      	ldr	r1, [r4, #0]
 8005f2e:	2a1b      	cmp	r2, #27
 8005f30:	bf98      	it	ls
 8005f32:	f104 0008 	addls.w	r0, r4, #8
 8005f36:	6099      	str	r1, [r3, #8]
 8005f38:	6861      	ldr	r1, [r4, #4]
 8005f3a:	60d9      	str	r1, [r3, #12]
 8005f3c:	bf98      	it	ls
 8005f3e:	f103 0110 	addls.w	r1, r3, #16
 8005f42:	d913      	bls.n	8005f6c <_realloc_r+0x1cc>
 8005f44:	68a1      	ldr	r1, [r4, #8]
 8005f46:	2a24      	cmp	r2, #36	; 0x24
 8005f48:	bf14      	ite	ne
 8005f4a:	f104 0010 	addne.w	r0, r4, #16
 8005f4e:	f104 0018 	addeq.w	r0, r4, #24
 8005f52:	6119      	str	r1, [r3, #16]
 8005f54:	68e1      	ldr	r1, [r4, #12]
 8005f56:	6159      	str	r1, [r3, #20]
 8005f58:	bf11      	iteee	ne
 8005f5a:	f103 0118 	addne.w	r1, r3, #24
 8005f5e:	6922      	ldreq	r2, [r4, #16]
 8005f60:	f103 0120 	addeq.w	r1, r3, #32
 8005f64:	619a      	streq	r2, [r3, #24]
 8005f66:	bf04      	itt	eq
 8005f68:	6962      	ldreq	r2, [r4, #20]
 8005f6a:	61da      	streq	r2, [r3, #28]
 8005f6c:	6802      	ldr	r2, [r0, #0]
 8005f6e:	463c      	mov	r4, r7
 8005f70:	f8dd 8004 	ldr.w	r8, [sp, #4]
 8005f74:	e797      	b.n	8005ea6 <_realloc_r+0x106>
 8005f76:	eb0a 0105 	add.w	r1, sl, r5
 8005f7a:	f002 0201 	and.w	r2, r2, #1
 8005f7e:	18ce      	adds	r6, r1, r3
 8005f80:	4315      	orrs	r5, r2
 8005f82:	f043 0301 	orr.w	r3, r3, #1
 8005f86:	f8ca 5004 	str.w	r5, [sl, #4]
 8005f8a:	604b      	str	r3, [r1, #4]
 8005f8c:	4648      	mov	r0, r9
 8005f8e:	6873      	ldr	r3, [r6, #4]
 8005f90:	3108      	adds	r1, #8
 8005f92:	f043 0301 	orr.w	r3, r3, #1
 8005f96:	6073      	str	r3, [r6, #4]
 8005f98:	f7fd f88c 	bl	80030b4 <_free_r>
 8005f9c:	e7a1      	b.n	8005ee2 <_realloc_r+0x142>
 8005f9e:	4639      	mov	r1, r7
 8005fa0:	4648      	mov	r0, r9
 8005fa2:	f7fd fa77 	bl	8003494 <_malloc_r>
 8005fa6:	4607      	mov	r7, r0
 8005fa8:	b1d8      	cbz	r0, 8005fe2 <_realloc_r+0x242>
 8005faa:	f854 2c04 	ldr.w	r2, [r4, #-4]
 8005fae:	f1a0 0108 	sub.w	r1, r0, #8
 8005fb2:	f022 0301 	bic.w	r3, r2, #1
 8005fb6:	4453      	add	r3, sl
 8005fb8:	4299      	cmp	r1, r3
 8005fba:	f000 80bf 	beq.w	800613c <_realloc_r+0x39c>
 8005fbe:	1f32      	subs	r2, r6, #4
 8005fc0:	2a24      	cmp	r2, #36	; 0x24
 8005fc2:	d86a      	bhi.n	800609a <_realloc_r+0x2fa>
 8005fc4:	2a13      	cmp	r2, #19
 8005fc6:	bf9c      	itt	ls
 8005fc8:	4603      	movls	r3, r0
 8005fca:	4622      	movls	r2, r4
 8005fcc:	d839      	bhi.n	8006042 <_realloc_r+0x2a2>
 8005fce:	6811      	ldr	r1, [r2, #0]
 8005fd0:	6019      	str	r1, [r3, #0]
 8005fd2:	6851      	ldr	r1, [r2, #4]
 8005fd4:	6059      	str	r1, [r3, #4]
 8005fd6:	6892      	ldr	r2, [r2, #8]
 8005fd8:	609a      	str	r2, [r3, #8]
 8005fda:	4648      	mov	r0, r9
 8005fdc:	4621      	mov	r1, r4
 8005fde:	f7fd f869 	bl	80030b4 <_free_r>
 8005fe2:	4648      	mov	r0, r9
 8005fe4:	f7fd fe8e 	bl	8003d04 <__malloc_unlock>
 8005fe8:	e77f      	b.n	8005eea <_realloc_r+0x14a>
 8005fea:	4611      	mov	r1, r2
 8005fec:	b003      	add	sp, #12
 8005fee:	e8bd 4ff0 	ldmia.w	sp!, {r4, r5, r6, r7, r8, r9, sl, fp, lr}
 8005ff2:	f7fd ba4f 	b.w	8003494 <_malloc_r>
 8005ff6:	230c      	movs	r3, #12
 8005ff8:	2700      	movs	r7, #0
 8005ffa:	f8c9 3000 	str.w	r3, [r9]
 8005ffe:	e774      	b.n	8005eea <_realloc_r+0x14a>
 8006000:	f8de 3004 	ldr.w	r3, [lr, #4]
 8006004:	f105 0010 	add.w	r0, r5, #16
 8006008:	f023 0c03 	bic.w	ip, r3, #3
 800600c:	eb0c 0306 	add.w	r3, ip, r6
 8006010:	4283      	cmp	r3, r0
 8006012:	bfb8      	it	lt
 8006014:	4670      	movlt	r0, lr
 8006016:	f6ff aefc 	blt.w	8005e12 <_realloc_r+0x72>
 800601a:	eb0a 0205 	add.w	r2, sl, r5
 800601e:	1b5b      	subs	r3, r3, r5
 8006020:	f043 0301 	orr.w	r3, r3, #1
 8006024:	4648      	mov	r0, r9
 8006026:	6053      	str	r3, [r2, #4]
 8006028:	4627      	mov	r7, r4
 800602a:	f854 3c04 	ldr.w	r3, [r4, #-4]
 800602e:	f8cb 2008 	str.w	r2, [fp, #8]
 8006032:	f003 0301 	and.w	r3, r3, #1
 8006036:	431d      	orrs	r5, r3
 8006038:	f844 5c04 	str.w	r5, [r4, #-4]
 800603c:	f7fd fe62 	bl	8003d04 <__malloc_unlock>
 8006040:	e753      	b.n	8005eea <_realloc_r+0x14a>
 8006042:	6823      	ldr	r3, [r4, #0]
 8006044:	2a1b      	cmp	r2, #27
 8006046:	bf98      	it	ls
 8006048:	f104 0208 	addls.w	r2, r4, #8
 800604c:	6003      	str	r3, [r0, #0]
 800604e:	6863      	ldr	r3, [r4, #4]
 8006050:	6043      	str	r3, [r0, #4]
 8006052:	bf98      	it	ls
 8006054:	f100 0308 	addls.w	r3, r0, #8
 8006058:	d9b9      	bls.n	8005fce <_realloc_r+0x22e>
 800605a:	68a3      	ldr	r3, [r4, #8]
 800605c:	2a24      	cmp	r2, #36	; 0x24
 800605e:	bf14      	ite	ne
 8006060:	f104 0210 	addne.w	r2, r4, #16
 8006064:	f104 0218 	addeq.w	r2, r4, #24
 8006068:	6083      	str	r3, [r0, #8]
 800606a:	68e3      	ldr	r3, [r4, #12]
 800606c:	60c3      	str	r3, [r0, #12]
 800606e:	bf11      	iteee	ne
 8006070:	f100 0310 	addne.w	r3, r0, #16
 8006074:	6921      	ldreq	r1, [r4, #16]
 8006076:	f100 0318 	addeq.w	r3, r0, #24
 800607a:	6101      	streq	r1, [r0, #16]
 800607c:	bf04      	itt	eq
 800607e:	6961      	ldreq	r1, [r4, #20]
 8006080:	6141      	streq	r1, [r0, #20]
 8006082:	e7a4      	b.n	8005fce <_realloc_r+0x22e>
 8006084:	4621      	mov	r1, r4
 8006086:	4638      	mov	r0, r7
 8006088:	9300      	str	r3, [sp, #0]
 800608a:	f7ff fe0d 	bl	8005ca8 <memmove>
 800608e:	e89d 0108 	ldmia.w	sp, {r3, r8}
 8006092:	463c      	mov	r4, r7
 8006094:	469a      	mov	sl, r3
 8006096:	685a      	ldr	r2, [r3, #4]
 8006098:	e713      	b.n	8005ec2 <_realloc_r+0x122>
 800609a:	4621      	mov	r1, r4
 800609c:	f7ff fe04 	bl	8005ca8 <memmove>
 80060a0:	e79b      	b.n	8005fda <_realloc_r+0x23a>
 80060a2:	9801      	ldr	r0, [sp, #4]
 80060a4:	f105 0210 	add.w	r2, r5, #16
 80060a8:	eb0c 0800 	add.w	r8, ip, r0
 80060ac:	4590      	cmp	r8, r2
 80060ae:	f6ff af2b 	blt.w	8005f08 <_realloc_r+0x168>
 80060b2:	461f      	mov	r7, r3
 80060b4:	68d9      	ldr	r1, [r3, #12]
 80060b6:	1f32      	subs	r2, r6, #4
 80060b8:	f857 0f08 	ldr.w	r0, [r7, #8]!
 80060bc:	2a24      	cmp	r2, #36	; 0x24
 80060be:	60c1      	str	r1, [r0, #12]
 80060c0:	6088      	str	r0, [r1, #8]
 80060c2:	d84b      	bhi.n	800615c <_realloc_r+0x3bc>
 80060c4:	2a13      	cmp	r2, #19
 80060c6:	bf9c      	itt	ls
 80060c8:	463a      	movls	r2, r7
 80060ca:	4621      	movls	r1, r4
 80060cc:	d91f      	bls.n	800610e <_realloc_r+0x36e>
 80060ce:	6821      	ldr	r1, [r4, #0]
 80060d0:	2a1b      	cmp	r2, #27
 80060d2:	bf98      	it	ls
 80060d4:	f103 0210 	addls.w	r2, r3, #16
 80060d8:	6099      	str	r1, [r3, #8]
 80060da:	6861      	ldr	r1, [r4, #4]
 80060dc:	60d9      	str	r1, [r3, #12]
 80060de:	bf98      	it	ls
 80060e0:	f104 0108 	addls.w	r1, r4, #8
 80060e4:	d913      	bls.n	800610e <_realloc_r+0x36e>
 80060e6:	68a1      	ldr	r1, [r4, #8]
 80060e8:	2a24      	cmp	r2, #36	; 0x24
 80060ea:	bf14      	ite	ne
 80060ec:	f103 0218 	addne.w	r2, r3, #24
 80060f0:	f103 0220 	addeq.w	r2, r3, #32
 80060f4:	6119      	str	r1, [r3, #16]
 80060f6:	68e1      	ldr	r1, [r4, #12]
 80060f8:	6159      	str	r1, [r3, #20]
 80060fa:	bf11      	iteee	ne
 80060fc:	f104 0110 	addne.w	r1, r4, #16
 8006100:	6920      	ldreq	r0, [r4, #16]
 8006102:	f104 0118 	addeq.w	r1, r4, #24
 8006106:	6198      	streq	r0, [r3, #24]
 8006108:	bf04      	itt	eq
 800610a:	6960      	ldreq	r0, [r4, #20]
 800610c:	61d8      	streq	r0, [r3, #28]
 800610e:	6808      	ldr	r0, [r1, #0]
 8006110:	6010      	str	r0, [r2, #0]
 8006112:	6848      	ldr	r0, [r1, #4]
 8006114:	6050      	str	r0, [r2, #4]
 8006116:	6889      	ldr	r1, [r1, #8]
 8006118:	6091      	str	r1, [r2, #8]
 800611a:	195a      	adds	r2, r3, r5
 800611c:	ebc5 0108 	rsb	r1, r5, r8
 8006120:	f041 0101 	orr.w	r1, r1, #1
 8006124:	4648      	mov	r0, r9
 8006126:	6051      	str	r1, [r2, #4]
 8006128:	6859      	ldr	r1, [r3, #4]
 800612a:	f8cb 2008 	str.w	r2, [fp, #8]
 800612e:	f001 0101 	and.w	r1, r1, #1
 8006132:	430d      	orrs	r5, r1
 8006134:	605d      	str	r5, [r3, #4]
 8006136:	f7fd fde5 	bl	8003d04 <__malloc_unlock>
 800613a:	e6d6      	b.n	8005eea <_realloc_r+0x14a>
 800613c:	f850 3c04 	ldr.w	r3, [r0, #-4]
 8006140:	f023 0803 	bic.w	r8, r3, #3
 8006144:	44b0      	add	r8, r6
 8006146:	e6bc      	b.n	8005ec2 <_realloc_r+0x122>
 8006148:	4621      	mov	r1, r4
 800614a:	4638      	mov	r0, r7
 800614c:	9300      	str	r3, [sp, #0]
 800614e:	f7ff fdab 	bl	8005ca8 <memmove>
 8006152:	9b00      	ldr	r3, [sp, #0]
 8006154:	463c      	mov	r4, r7
 8006156:	469a      	mov	sl, r3
 8006158:	685a      	ldr	r2, [r3, #4]
 800615a:	e6b2      	b.n	8005ec2 <_realloc_r+0x122>
 800615c:	4638      	mov	r0, r7
 800615e:	4621      	mov	r1, r4
 8006160:	9300      	str	r3, [sp, #0]
 8006162:	f7ff fda1 	bl	8005ca8 <memmove>
 8006166:	9b00      	ldr	r3, [sp, #0]
 8006168:	e7d7      	b.n	800611a <_realloc_r+0x37a>
 800616a:	bf00      	nop

0800616c <__swbuf_r>:
 800616c:	b570      	push	{r4, r5, r6, lr}
 800616e:	460d      	mov	r5, r1
 8006170:	4614      	mov	r4, r2
 8006172:	4606      	mov	r6, r0
 8006174:	b110      	cbz	r0, 800617c <__swbuf_r+0x10>
 8006176:	6983      	ldr	r3, [r0, #24]
 8006178:	2b00      	cmp	r3, #0
 800617a:	d061      	beq.n	8006240 <__swbuf_r+0xd4>
 800617c:	f248 3378 	movw	r3, #33656	; 0x8378
 8006180:	f6c0 0300 	movt	r3, #2048	; 0x800
 8006184:	429c      	cmp	r4, r3
 8006186:	bf08      	it	eq
 8006188:	6874      	ldreq	r4, [r6, #4]
 800618a:	d00e      	beq.n	80061aa <__swbuf_r+0x3e>
 800618c:	f248 3358 	movw	r3, #33624	; 0x8358
 8006190:	f6c0 0300 	movt	r3, #2048	; 0x800
 8006194:	429c      	cmp	r4, r3
 8006196:	bf08      	it	eq
 8006198:	68b4      	ldreq	r4, [r6, #8]
 800619a:	d006      	beq.n	80061aa <__swbuf_r+0x3e>
 800619c:	f248 3338 	movw	r3, #33592	; 0x8338
 80061a0:	f6c0 0300 	movt	r3, #2048	; 0x800
 80061a4:	429c      	cmp	r4, r3
 80061a6:	bf08      	it	eq
 80061a8:	68f4      	ldreq	r4, [r6, #12]
 80061aa:	89a3      	ldrh	r3, [r4, #12]
 80061ac:	69a2      	ldr	r2, [r4, #24]
 80061ae:	f003 0008 	and.w	r0, r3, #8
 80061b2:	b200      	sxth	r0, r0
 80061b4:	60a2      	str	r2, [r4, #8]
 80061b6:	2800      	cmp	r0, #0
 80061b8:	d03a      	beq.n	8006230 <__swbuf_r+0xc4>
 80061ba:	6922      	ldr	r2, [r4, #16]
 80061bc:	2a00      	cmp	r2, #0
 80061be:	d037      	beq.n	8006230 <__swbuf_r+0xc4>
 80061c0:	f403 5100 	and.w	r1, r3, #8192	; 0x2000
 80061c4:	b2ed      	uxtb	r5, r5
 80061c6:	b209      	sxth	r1, r1
 80061c8:	b1a9      	cbz	r1, 80061f6 <__swbuf_r+0x8a>
 80061ca:	6823      	ldr	r3, [r4, #0]
 80061cc:	6961      	ldr	r1, [r4, #20]
 80061ce:	1a9a      	subs	r2, r3, r2
 80061d0:	428a      	cmp	r2, r1
 80061d2:	da1c      	bge.n	800620e <__swbuf_r+0xa2>
 80061d4:	3201      	adds	r2, #1
 80061d6:	68a1      	ldr	r1, [r4, #8]
 80061d8:	3901      	subs	r1, #1
 80061da:	60a1      	str	r1, [r4, #8]
 80061dc:	f803 5b01 	strb.w	r5, [r3], #1
 80061e0:	6961      	ldr	r1, [r4, #20]
 80061e2:	6023      	str	r3, [r4, #0]
 80061e4:	4291      	cmp	r1, r2
 80061e6:	d01a      	beq.n	800621e <__swbuf_r+0xb2>
 80061e8:	89a3      	ldrh	r3, [r4, #12]
 80061ea:	07db      	lsls	r3, r3, #31
 80061ec:	d501      	bpl.n	80061f2 <__swbuf_r+0x86>
 80061ee:	2d0a      	cmp	r5, #10
 80061f0:	d015      	beq.n	800621e <__swbuf_r+0xb2>
 80061f2:	4628      	mov	r0, r5
 80061f4:	bd70      	pop	{r4, r5, r6, pc}
 80061f6:	6e61      	ldr	r1, [r4, #100]	; 0x64
 80061f8:	f443 5300 	orr.w	r3, r3, #8192	; 0x2000
 80061fc:	81a3      	strh	r3, [r4, #12]
 80061fe:	6823      	ldr	r3, [r4, #0]
 8006200:	f421 5100 	bic.w	r1, r1, #8192	; 0x2000
 8006204:	6661      	str	r1, [r4, #100]	; 0x64
 8006206:	6961      	ldr	r1, [r4, #20]
 8006208:	1a9a      	subs	r2, r3, r2
 800620a:	428a      	cmp	r2, r1
 800620c:	dbe2      	blt.n	80061d4 <__swbuf_r+0x68>
 800620e:	4630      	mov	r0, r6
 8006210:	4621      	mov	r1, r4
 8006212:	f7fc fd39 	bl	8002c88 <_fflush_r>
 8006216:	b940      	cbnz	r0, 800622a <__swbuf_r+0xbe>
 8006218:	6823      	ldr	r3, [r4, #0]
 800621a:	2201      	movs	r2, #1
 800621c:	e7db      	b.n	80061d6 <__swbuf_r+0x6a>
 800621e:	4630      	mov	r0, r6
 8006220:	4621      	mov	r1, r4
 8006222:	f7fc fd31 	bl	8002c88 <_fflush_r>
 8006226:	2800      	cmp	r0, #0
 8006228:	d0e3      	beq.n	80061f2 <__swbuf_r+0x86>
 800622a:	f04f 35ff 	mov.w	r5, #4294967295
 800622e:	e7e0      	b.n	80061f2 <__swbuf_r+0x86>
 8006230:	4630      	mov	r0, r6
 8006232:	4621      	mov	r1, r4
 8006234:	f7fb fc70 	bl	8001b18 <__swsetup_r>
 8006238:	89a3      	ldrh	r3, [r4, #12]
 800623a:	b920      	cbnz	r0, 8006246 <__swbuf_r+0xda>
 800623c:	6922      	ldr	r2, [r4, #16]
 800623e:	e7bf      	b.n	80061c0 <__swbuf_r+0x54>
 8006240:	f7fc fe54 	bl	8002eec <__sinit>
 8006244:	e79a      	b.n	800617c <__swbuf_r+0x10>
 8006246:	f043 0340 	orr.w	r3, r3, #64	; 0x40
 800624a:	f04f 35ff 	mov.w	r5, #4294967295
 800624e:	81a3      	strh	r3, [r4, #12]
 8006250:	2309      	movs	r3, #9
 8006252:	6033      	str	r3, [r6, #0]
 8006254:	e7cd      	b.n	80061f2 <__swbuf_r+0x86>
 8006256:	bf00      	nop

08006258 <__swbuf>:
 8006258:	f240 0300 	movw	r3, #0
 800625c:	460a      	mov	r2, r1
 800625e:	f2c2 0300 	movt	r3, #8192	; 0x2000
 8006262:	4601      	mov	r1, r0
 8006264:	6818      	ldr	r0, [r3, #0]
 8006266:	f7ff bf81 	b.w	800616c <__swbuf_r>
 800626a:	bf00      	nop

0800626c <_wcrtomb_r>:
 800626c:	e92d 41f0 	stmdb	sp!, {r4, r5, r6, r7, r8, lr}
 8006270:	460d      	mov	r5, r1
 8006272:	b086      	sub	sp, #24
 8006274:	4606      	mov	r6, r0
 8006276:	4690      	mov	r8, r2
 8006278:	461f      	mov	r7, r3
 800627a:	b1a9      	cbz	r1, 80062a8 <_wcrtomb_r+0x3c>
 800627c:	f240 5480 	movw	r4, #1408	; 0x580
 8006280:	f2c2 0400 	movt	r4, #8192	; 0x2000
 8006284:	6824      	ldr	r4, [r4, #0]
 8006286:	f7fd f859 	bl	800333c <__locale_charset>
 800628a:	9700      	str	r7, [sp, #0]
 800628c:	4629      	mov	r1, r5
 800628e:	4642      	mov	r2, r8
 8006290:	4603      	mov	r3, r0
 8006292:	4630      	mov	r0, r6
 8006294:	47a0      	blx	r4
 8006296:	1c43      	adds	r3, r0, #1
 8006298:	d103      	bne.n	80062a2 <_wcrtomb_r+0x36>
 800629a:	2300      	movs	r3, #0
 800629c:	603b      	str	r3, [r7, #0]
 800629e:	238a      	movs	r3, #138	; 0x8a
 80062a0:	6033      	str	r3, [r6, #0]
 80062a2:	b006      	add	sp, #24
 80062a4:	e8bd 81f0 	ldmia.w	sp!, {r4, r5, r6, r7, r8, pc}
 80062a8:	f240 5380 	movw	r3, #1408	; 0x580
 80062ac:	f2c2 0300 	movt	r3, #8192	; 0x2000
 80062b0:	681c      	ldr	r4, [r3, #0]
 80062b2:	f7fd f843 	bl	800333c <__locale_charset>
 80062b6:	9700      	str	r7, [sp, #0]
 80062b8:	a903      	add	r1, sp, #12
 80062ba:	462a      	mov	r2, r5
 80062bc:	4603      	mov	r3, r0
 80062be:	4630      	mov	r0, r6
 80062c0:	47a0      	blx	r4
 80062c2:	e7e8      	b.n	8006296 <_wcrtomb_r+0x2a>

080062c4 <wcrtomb>:
 80062c4:	e92d 43f0 	stmdb	sp!, {r4, r5, r6, r7, r8, r9, lr}
 80062c8:	f240 5380 	movw	r3, #1408	; 0x580
 80062cc:	f240 0400 	movw	r4, #0
 80062d0:	b087      	sub	sp, #28
 80062d2:	4605      	mov	r5, r0
 80062d4:	460f      	mov	r7, r1
 80062d6:	4616      	mov	r6, r2
 80062d8:	f2c2 0400 	movt	r4, #8192	; 0x2000
 80062dc:	f2c2 0300 	movt	r3, #8192	; 0x2000
 80062e0:	b1a8      	cbz	r0, 800630e <wcrtomb+0x4a>
 80062e2:	f8d4 9000 	ldr.w	r9, [r4]
 80062e6:	f8d3 8000 	ldr.w	r8, [r3]
 80062ea:	f7fd f827 	bl	800333c <__locale_charset>
 80062ee:	9600      	str	r6, [sp, #0]
 80062f0:	4629      	mov	r1, r5
 80062f2:	463a      	mov	r2, r7
 80062f4:	4603      	mov	r3, r0
 80062f6:	4648      	mov	r0, r9
 80062f8:	47c0      	blx	r8
 80062fa:	1c42      	adds	r2, r0, #1
 80062fc:	d104      	bne.n	8006308 <wcrtomb+0x44>
 80062fe:	6823      	ldr	r3, [r4, #0]
 8006300:	2200      	movs	r2, #0
 8006302:	6032      	str	r2, [r6, #0]
 8006304:	228a      	movs	r2, #138	; 0x8a
 8006306:	601a      	str	r2, [r3, #0]
 8006308:	b007      	add	sp, #28
 800630a:	e8bd 83f0 	ldmia.w	sp!, {r4, r5, r6, r7, r8, r9, pc}
 800630e:	f8d4 8000 	ldr.w	r8, [r4]
 8006312:	681f      	ldr	r7, [r3, #0]
 8006314:	f7fd f812 	bl	800333c <__locale_charset>
 8006318:	9600      	str	r6, [sp, #0]
 800631a:	a903      	add	r1, sp, #12
 800631c:	462a      	mov	r2, r5
 800631e:	4603      	mov	r3, r0
 8006320:	4640      	mov	r0, r8
 8006322:	47b8      	blx	r7
 8006324:	e7e9      	b.n	80062fa <wcrtomb+0x36>
 8006326:	bf00      	nop

08006328 <__ascii_wctomb>:
 8006328:	b119      	cbz	r1, 8006332 <__ascii_wctomb+0xa>
 800632a:	2aff      	cmp	r2, #255	; 0xff
 800632c:	d803      	bhi.n	8006336 <__ascii_wctomb+0xe>
 800632e:	700a      	strb	r2, [r1, #0]
 8006330:	2101      	movs	r1, #1
 8006332:	4608      	mov	r0, r1
 8006334:	4770      	bx	lr
 8006336:	238a      	movs	r3, #138	; 0x8a
 8006338:	f04f 31ff 	mov.w	r1, #4294967295
 800633c:	6003      	str	r3, [r0, #0]
 800633e:	e7f8      	b.n	8006332 <__ascii_wctomb+0xa>

08006340 <_wctomb_r>:
 8006340:	e92d 41f0 	stmdb	sp!, {r4, r5, r6, r7, r8, lr}
 8006344:	f240 5480 	movw	r4, #1408	; 0x580
 8006348:	f2c2 0400 	movt	r4, #8192	; 0x2000
 800634c:	b082      	sub	sp, #8
 800634e:	461d      	mov	r5, r3
 8006350:	4606      	mov	r6, r0
 8006352:	4688      	mov	r8, r1
 8006354:	4617      	mov	r7, r2
 8006356:	6824      	ldr	r4, [r4, #0]
 8006358:	f7fc fff0 	bl	800333c <__locale_charset>
 800635c:	9500      	str	r5, [sp, #0]
 800635e:	4641      	mov	r1, r8
 8006360:	463a      	mov	r2, r7
 8006362:	4603      	mov	r3, r0
 8006364:	4630      	mov	r0, r6
 8006366:	47a0      	blx	r4
 8006368:	b002      	add	sp, #8
 800636a:	e8bd 81f0 	ldmia.w	sp!, {r4, r5, r6, r7, r8, pc}
 800636e:	bf00      	nop

08006370 <__aeabi_uidiv>:
 8006370:	1e4a      	subs	r2, r1, #1
 8006372:	bf08      	it	eq
 8006374:	4770      	bxeq	lr
 8006376:	f0c0 8124 	bcc.w	80065c2 <__aeabi_uidiv+0x252>
 800637a:	4288      	cmp	r0, r1
 800637c:	f240 8116 	bls.w	80065ac <__aeabi_uidiv+0x23c>
 8006380:	4211      	tst	r1, r2
 8006382:	f000 8117 	beq.w	80065b4 <__aeabi_uidiv+0x244>
 8006386:	fab0 f380 	clz	r3, r0
 800638a:	fab1 f281 	clz	r2, r1
 800638e:	eba2 0303 	sub.w	r3, r2, r3
 8006392:	f1c3 031f 	rsb	r3, r3, #31
 8006396:	a204      	add	r2, pc, #16	; (adr r2, 80063a8 <__aeabi_uidiv+0x38>)
 8006398:	eb02 1303 	add.w	r3, r2, r3, lsl #4
 800639c:	f04f 0200 	mov.w	r2, #0
 80063a0:	469f      	mov	pc, r3
 80063a2:	bf00      	nop
 80063a4:	f3af 8000 	nop.w
 80063a8:	ebb0 7fc1 	cmp.w	r0, r1, lsl #31
 80063ac:	bf00      	nop
 80063ae:	eb42 0202 	adc.w	r2, r2, r2
 80063b2:	bf28      	it	cs
 80063b4:	eba0 70c1 	subcs.w	r0, r0, r1, lsl #31
 80063b8:	ebb0 7f81 	cmp.w	r0, r1, lsl #30
 80063bc:	bf00      	nop
 80063be:	eb42 0202 	adc.w	r2, r2, r2
 80063c2:	bf28      	it	cs
 80063c4:	eba0 7081 	subcs.w	r0, r0, r1, lsl #30
 80063c8:	ebb0 7f41 	cmp.w	r0, r1, lsl #29
 80063cc:	bf00      	nop
 80063ce:	eb42 0202 	adc.w	r2, r2, r2
 80063d2:	bf28      	it	cs
 80063d4:	eba0 7041 	subcs.w	r0, r0, r1, lsl #29
 80063d8:	ebb0 7f01 	cmp.w	r0, r1, lsl #28
 80063dc:	bf00      	nop
 80063de:	eb42 0202 	adc.w	r2, r2, r2
 80063e2:	bf28      	it	cs
 80063e4:	eba0 7001 	subcs.w	r0, r0, r1, lsl #28
 80063e8:	ebb0 6fc1 	cmp.w	r0, r1, lsl #27
 80063ec:	bf00      	nop
 80063ee:	eb42 0202 	adc.w	r2, r2, r2
 80063f2:	bf28      	it	cs
 80063f4:	eba0 60c1 	subcs.w	r0, r0, r1, lsl #27
 80063f8:	ebb0 6f81 	cmp.w	r0, r1, lsl #26
 80063fc:	bf00      	nop
 80063fe:	eb42 0202 	adc.w	r2, r2, r2
 8006402:	bf28      	it	cs
 8006404:	eba0 6081 	subcs.w	r0, r0, r1, lsl #26
 8006408:	ebb0 6f41 	cmp.w	r0, r1, lsl #25
 800640c:	bf00      	nop
 800640e:	eb42 0202 	adc.w	r2, r2, r2
 8006412:	bf28      	it	cs
 8006414:	eba0 6041 	subcs.w	r0, r0, r1, lsl #25
 8006418:	ebb0 6f01 	cmp.w	r0, r1, lsl #24
 800641c:	bf00      	nop
 800641e:	eb42 0202 	adc.w	r2, r2, r2
 8006422:	bf28      	it	cs
 8006424:	eba0 6001 	subcs.w	r0, r0, r1, lsl #24
 8006428:	ebb0 5fc1 	cmp.w	r0, r1, lsl #23
 800642c:	bf00      	nop
 800642e:	eb42 0202 	adc.w	r2, r2, r2
 8006432:	bf28      	it	cs
 8006434:	eba0 50c1 	subcs.w	r0, r0, r1, lsl #23
 8006438:	ebb0 5f81 	cmp.w	r0, r1, lsl #22
 800643c:	bf00      	nop
 800643e:	eb42 0202 	adc.w	r2, r2, r2
 8006442:	bf28      	it	cs
 8006444:	eba0 5081 	subcs.w	r0, r0, r1, lsl #22
 8006448:	ebb0 5f41 	cmp.w	r0, r1, lsl #21
 800644c:	bf00      	nop
 800644e:	eb42 0202 	adc.w	r2, r2, r2
 8006452:	bf28      	it	cs
 8006454:	eba0 5041 	subcs.w	r0, r0, r1, lsl #21
 8006458:	ebb0 5f01 	cmp.w	r0, r1, lsl #20
 800645c:	bf00      	nop
 800645e:	eb42 0202 	adc.w	r2, r2, r2
 8006462:	bf28      	it	cs
 8006464:	eba0 5001 	subcs.w	r0, r0, r1, lsl #20
 8006468:	ebb0 4fc1 	cmp.w	r0, r1, lsl #19
 800646c:	bf00      	nop
 800646e:	eb42 0202 	adc.w	r2, r2, r2
 8006472:	bf28      	it	cs
 8006474:	eba0 40c1 	subcs.w	r0, r0, r1, lsl #19
 8006478:	ebb0 4f81 	cmp.w	r0, r1, lsl #18
 800647c:	bf00      	nop
 800647e:	eb42 0202 	adc.w	r2, r2, r2
 8006482:	bf28      	it	cs
 8006484:	eba0 4081 	subcs.w	r0, r0, r1, lsl #18
 8006488:	ebb0 4f41 	cmp.w	r0, r1, lsl #17
 800648c:	bf00      	nop
 800648e:	eb42 0202 	adc.w	r2, r2, r2
 8006492:	bf28      	it	cs
 8006494:	eba0 4041 	subcs.w	r0, r0, r1, lsl #17
 8006498:	ebb0 4f01 	cmp.w	r0, r1, lsl #16
 800649c:	bf00      	nop
 800649e:	eb42 0202 	adc.w	r2, r2, r2
 80064a2:	bf28      	it	cs
 80064a4:	eba0 4001 	subcs.w	r0, r0, r1, lsl #16
 80064a8:	ebb0 3fc1 	cmp.w	r0, r1, lsl #15
 80064ac:	bf00      	nop
 80064ae:	eb42 0202 	adc.w	r2, r2, r2
 80064b2:	bf28      	it	cs
 80064b4:	eba0 30c1 	subcs.w	r0, r0, r1, lsl #15
 80064b8:	ebb0 3f81 	cmp.w	r0, r1, lsl #14
 80064bc:	bf00      	nop
 80064be:	eb42 0202 	adc.w	r2, r2, r2
 80064c2:	bf28      	it	cs
 80064c4:	eba0 3081 	subcs.w	r0, r0, r1, lsl #14
 80064c8:	ebb0 3f41 	cmp.w	r0, r1, lsl #13
 80064cc:	bf00      	nop
 80064ce:	eb42 0202 	adc.w	r2, r2, r2
 80064d2:	bf28      	it	cs
 80064d4:	eba0 3041 	subcs.w	r0, r0, r1, lsl #13
 80064d8:	ebb0 3f01 	cmp.w	r0, r1, lsl #12
 80064dc:	bf00      	nop
 80064de:	eb42 0202 	adc.w	r2, r2, r2
 80064e2:	bf28      	it	cs
 80064e4:	eba0 3001 	subcs.w	r0, r0, r1, lsl #12
 80064e8:	ebb0 2fc1 	cmp.w	r0, r1, lsl #11
 80064ec:	bf00      	nop
 80064ee:	eb42 0202 	adc.w	r2, r2, r2
 80064f2:	bf28      	it	cs
 80064f4:	eba0 20c1 	subcs.w	r0, r0, r1, lsl #11
 80064f8:	ebb0 2f81 	cmp.w	r0, r1, lsl #10
 80064fc:	bf00      	nop
 80064fe:	eb42 0202 	adc.w	r2, r2, r2
 8006502:	bf28      	it	cs
 8006504:	eba0 2081 	subcs.w	r0, r0, r1, lsl #10
 8006508:	ebb0 2f41 	cmp.w	r0, r1, lsl #9
 800650c:	bf00      	nop
 800650e:	eb42 0202 	adc.w	r2, r2, r2
 8006512:	bf28      	it	cs
 8006514:	eba0 2041 	subcs.w	r0, r0, r1, lsl #9
 8006518:	ebb0 2f01 	cmp.w	r0, r1, lsl #8
 800651c:	bf00      	nop
 800651e:	eb42 0202 	adc.w	r2, r2, r2
 8006522:	bf28      	it	cs
 8006524:	eba0 2001 	subcs.w	r0, r0, r1, lsl #8
 8006528:	ebb0 1fc1 	cmp.w	r0, r1, lsl #7
 800652c:	bf00      	nop
 800652e:	eb42 0202 	adc.w	r2, r2, r2
 8006532:	bf28      	it	cs
 8006534:	eba0 10c1 	subcs.w	r0, r0, r1, lsl #7
 8006538:	ebb0 1f81 	cmp.w	r0, r1, lsl #6
 800653c:	bf00      	nop
 800653e:	eb42 0202 	adc.w	r2, r2, r2
 8006542:	bf28      	it	cs
 8006544:	eba0 1081 	subcs.w	r0, r0, r1, lsl #6
 8006548:	ebb0 1f41 	cmp.w	r0, r1, lsl #5
 800654c:	bf00      	nop
 800654e:	eb42 0202 	adc.w	r2, r2, r2
 8006552:	bf28      	it	cs
 8006554:	eba0 1041 	subcs.w	r0, r0, r1, lsl #5
 8006558:	ebb0 1f01 	cmp.w	r0, r1, lsl #4
 800655c:	bf00      	nop
 800655e:	eb42 0202 	adc.w	r2, r2, r2
 8006562:	bf28      	it	cs
 8006564:	eba0 1001 	subcs.w	r0, r0, r1, lsl #4
 8006568:	ebb0 0fc1 	cmp.w	r0, r1, lsl #3
 800656c:	bf00      	nop
 800656e:	eb42 0202 	adc.w	r2, r2, r2
 8006572:	bf28      	it	cs
 8006574:	eba0 00c1 	subcs.w	r0, r0, r1, lsl #3
 8006578:	ebb0 0f81 	cmp.w	r0, r1, lsl #2
 800657c:	bf00      	nop
 800657e:	eb42 0202 	adc.w	r2, r2, r2
 8006582:	bf28      	it	cs
 8006584:	eba0 0081 	subcs.w	r0, r0, r1, lsl #2
 8006588:	ebb0 0f41 	cmp.w	r0, r1, lsl #1
 800658c:	bf00      	nop
 800658e:	eb42 0202 	adc.w	r2, r2, r2
 8006592:	bf28      	it	cs
 8006594:	eba0 0041 	subcs.w	r0, r0, r1, lsl #1
 8006598:	ebb0 0f01 	cmp.w	r0, r1
 800659c:	bf00      	nop
 800659e:	eb42 0202 	adc.w	r2, r2, r2
 80065a2:	bf28      	it	cs
 80065a4:	eba0 0001 	subcs.w	r0, r0, r1
 80065a8:	4610      	mov	r0, r2
 80065aa:	4770      	bx	lr
 80065ac:	bf0c      	ite	eq
 80065ae:	2001      	moveq	r0, #1
 80065b0:	2000      	movne	r0, #0
 80065b2:	4770      	bx	lr
 80065b4:	fab1 f281 	clz	r2, r1
 80065b8:	f1c2 021f 	rsb	r2, r2, #31
 80065bc:	fa20 f002 	lsr.w	r0, r0, r2
 80065c0:	4770      	bx	lr
 80065c2:	b108      	cbz	r0, 80065c8 <__aeabi_uidiv+0x258>
 80065c4:	f04f 30ff 	mov.w	r0, #4294967295
 80065c8:	f000 b80e 	b.w	80065e8 <__aeabi_idiv0>

080065cc <__aeabi_uidivmod>:
 80065cc:	2900      	cmp	r1, #0
 80065ce:	d0f8      	beq.n	80065c2 <__aeabi_uidiv+0x252>
 80065d0:	e92d 4003 	stmdb	sp!, {r0, r1, lr}
 80065d4:	f7ff fecc 	bl	8006370 <__aeabi_uidiv>
 80065d8:	e8bd 4006 	ldmia.w	sp!, {r1, r2, lr}
 80065dc:	fb02 f300 	mul.w	r3, r2, r0
 80065e0:	eba1 0103 	sub.w	r1, r1, r3
 80065e4:	4770      	bx	lr
 80065e6:	bf00      	nop

080065e8 <__aeabi_idiv0>:
 80065e8:	4770      	bx	lr
 80065ea:	bf00      	nop

080065ec <__aeabi_drsub>:
 80065ec:	f081 4100 	eor.w	r1, r1, #2147483648	; 0x80000000
 80065f0:	e002      	b.n	80065f8 <__adddf3>
 80065f2:	bf00      	nop

080065f4 <__aeabi_dsub>:
 80065f4:	f083 4300 	eor.w	r3, r3, #2147483648	; 0x80000000

080065f8 <__adddf3>:
 80065f8:	b530      	push	{r4, r5, lr}
 80065fa:	ea4f 0441 	mov.w	r4, r1, lsl #1
 80065fe:	ea4f 0543 	mov.w	r5, r3, lsl #1
 8006602:	ea94 0f05 	teq	r4, r5
 8006606:	bf08      	it	eq
 8006608:	ea90 0f02 	teqeq	r0, r2
 800660c:	bf1f      	itttt	ne
 800660e:	ea54 0c00 	orrsne.w	ip, r4, r0
 8006612:	ea55 0c02 	orrsne.w	ip, r5, r2
 8006616:	ea7f 5c64 	mvnsne.w	ip, r4, asr #21
 800661a:	ea7f 5c65 	mvnsne.w	ip, r5, asr #21
 800661e:	f000 80e2 	beq.w	80067e6 <__adddf3+0x1ee>
 8006622:	ea4f 5454 	mov.w	r4, r4, lsr #21
 8006626:	ebd4 5555 	rsbs	r5, r4, r5, lsr #21
 800662a:	bfb8      	it	lt
 800662c:	426d      	neglt	r5, r5
 800662e:	dd0c      	ble.n	800664a <__adddf3+0x52>
 8006630:	442c      	add	r4, r5
 8006632:	ea80 0202 	eor.w	r2, r0, r2
 8006636:	ea81 0303 	eor.w	r3, r1, r3
 800663a:	ea82 0000 	eor.w	r0, r2, r0
 800663e:	ea83 0101 	eor.w	r1, r3, r1
 8006642:	ea80 0202 	eor.w	r2, r0, r2
 8006646:	ea81 0303 	eor.w	r3, r1, r3
 800664a:	2d36      	cmp	r5, #54	; 0x36
 800664c:	bf88      	it	hi
 800664e:	bd30      	pophi	{r4, r5, pc}
 8006650:	f011 4f00 	tst.w	r1, #2147483648	; 0x80000000
 8006654:	ea4f 3101 	mov.w	r1, r1, lsl #12
 8006658:	f44f 1c80 	mov.w	ip, #1048576	; 0x100000
 800665c:	ea4c 3111 	orr.w	r1, ip, r1, lsr #12
 8006660:	d002      	beq.n	8006668 <__adddf3+0x70>
 8006662:	4240      	negs	r0, r0
 8006664:	eb61 0141 	sbc.w	r1, r1, r1, lsl #1
 8006668:	f013 4f00 	tst.w	r3, #2147483648	; 0x80000000
 800666c:	ea4f 3303 	mov.w	r3, r3, lsl #12
 8006670:	ea4c 3313 	orr.w	r3, ip, r3, lsr #12
 8006674:	d002      	beq.n	800667c <__adddf3+0x84>
 8006676:	4252      	negs	r2, r2
 8006678:	eb63 0343 	sbc.w	r3, r3, r3, lsl #1
 800667c:	ea94 0f05 	teq	r4, r5
 8006680:	f000 80a7 	beq.w	80067d2 <__adddf3+0x1da>
 8006684:	f1a4 0401 	sub.w	r4, r4, #1
 8006688:	f1d5 0e20 	rsbs	lr, r5, #32
 800668c:	db0d      	blt.n	80066aa <__adddf3+0xb2>
 800668e:	fa02 fc0e 	lsl.w	ip, r2, lr
 8006692:	fa22 f205 	lsr.w	r2, r2, r5
 8006696:	1880      	adds	r0, r0, r2
 8006698:	f141 0100 	adc.w	r1, r1, #0
 800669c:	fa03 f20e 	lsl.w	r2, r3, lr
 80066a0:	1880      	adds	r0, r0, r2
 80066a2:	fa43 f305 	asr.w	r3, r3, r5
 80066a6:	4159      	adcs	r1, r3
 80066a8:	e00e      	b.n	80066c8 <__adddf3+0xd0>
 80066aa:	f1a5 0520 	sub.w	r5, r5, #32
 80066ae:	f10e 0e20 	add.w	lr, lr, #32
 80066b2:	2a01      	cmp	r2, #1
 80066b4:	fa03 fc0e 	lsl.w	ip, r3, lr
 80066b8:	bf28      	it	cs
 80066ba:	f04c 0c02 	orrcs.w	ip, ip, #2
 80066be:	fa43 f305 	asr.w	r3, r3, r5
 80066c2:	18c0      	adds	r0, r0, r3
 80066c4:	eb51 71e3 	adcs.w	r1, r1, r3, asr #31
 80066c8:	f001 4500 	and.w	r5, r1, #2147483648	; 0x80000000
 80066cc:	d507      	bpl.n	80066de <__adddf3+0xe6>
 80066ce:	f04f 0e00 	mov.w	lr, #0
 80066d2:	f1dc 0c00 	rsbs	ip, ip, #0
 80066d6:	eb7e 0000 	sbcs.w	r0, lr, r0
 80066da:	eb6e 0101 	sbc.w	r1, lr, r1
 80066de:	f5b1 1f80 	cmp.w	r1, #1048576	; 0x100000
 80066e2:	d31b      	bcc.n	800671c <__adddf3+0x124>
 80066e4:	f5b1 1f00 	cmp.w	r1, #2097152	; 0x200000
 80066e8:	d30c      	bcc.n	8006704 <__adddf3+0x10c>
 80066ea:	0849      	lsrs	r1, r1, #1
 80066ec:	ea5f 0030 	movs.w	r0, r0, rrx
 80066f0:	ea4f 0c3c 	mov.w	ip, ip, rrx
 80066f4:	f104 0401 	add.w	r4, r4, #1
 80066f8:	ea4f 5244 	mov.w	r2, r4, lsl #21
 80066fc:	f512 0f80 	cmn.w	r2, #4194304	; 0x400000
 8006700:	f080 809a 	bcs.w	8006838 <__adddf3+0x240>
 8006704:	f1bc 4f00 	cmp.w	ip, #2147483648	; 0x80000000
 8006708:	bf08      	it	eq
 800670a:	ea5f 0c50 	movseq.w	ip, r0, lsr #1
 800670e:	f150 0000 	adcs.w	r0, r0, #0
 8006712:	eb41 5104 	adc.w	r1, r1, r4, lsl #20
 8006716:	ea41 0105 	orr.w	r1, r1, r5
 800671a:	bd30      	pop	{r4, r5, pc}
 800671c:	ea5f 0c4c 	movs.w	ip, ip, lsl #1
 8006720:	4140      	adcs	r0, r0
 8006722:	eb41 0101 	adc.w	r1, r1, r1
 8006726:	f411 1f80 	tst.w	r1, #1048576	; 0x100000
 800672a:	f1a4 0401 	sub.w	r4, r4, #1
 800672e:	d1e9      	bne.n	8006704 <__adddf3+0x10c>
 8006730:	f091 0f00 	teq	r1, #0
 8006734:	bf04      	itt	eq
 8006736:	4601      	moveq	r1, r0
 8006738:	2000      	moveq	r0, #0
 800673a:	fab1 f381 	clz	r3, r1
 800673e:	bf08      	it	eq
 8006740:	3320      	addeq	r3, #32
 8006742:	f1a3 030b 	sub.w	r3, r3, #11
 8006746:	f1b3 0220 	subs.w	r2, r3, #32
 800674a:	da0c      	bge.n	8006766 <__adddf3+0x16e>
 800674c:	320c      	adds	r2, #12
 800674e:	dd08      	ble.n	8006762 <__adddf3+0x16a>
 8006750:	f102 0c14 	add.w	ip, r2, #20
 8006754:	f1c2 020c 	rsb	r2, r2, #12
 8006758:	fa01 f00c 	lsl.w	r0, r1, ip
 800675c:	fa21 f102 	lsr.w	r1, r1, r2
 8006760:	e00c      	b.n	800677c <__adddf3+0x184>
 8006762:	f102 0214 	add.w	r2, r2, #20
 8006766:	bfd8      	it	le
 8006768:	f1c2 0c20 	rsble	ip, r2, #32
 800676c:	fa01 f102 	lsl.w	r1, r1, r2
 8006770:	fa20 fc0c 	lsr.w	ip, r0, ip
 8006774:	bfdc      	itt	le
 8006776:	ea41 010c 	orrle.w	r1, r1, ip
 800677a:	4090      	lslle	r0, r2
 800677c:	1ae4      	subs	r4, r4, r3
 800677e:	bfa2      	ittt	ge
 8006780:	eb01 5104 	addge.w	r1, r1, r4, lsl #20
 8006784:	4329      	orrge	r1, r5
 8006786:	bd30      	popge	{r4, r5, pc}
 8006788:	ea6f 0404 	mvn.w	r4, r4
 800678c:	3c1f      	subs	r4, #31
 800678e:	da1c      	bge.n	80067ca <__adddf3+0x1d2>
 8006790:	340c      	adds	r4, #12
 8006792:	dc0e      	bgt.n	80067b2 <__adddf3+0x1ba>
 8006794:	f104 0414 	add.w	r4, r4, #20
 8006798:	f1c4 0220 	rsb	r2, r4, #32
 800679c:	fa20 f004 	lsr.w	r0, r0, r4
 80067a0:	fa01 f302 	lsl.w	r3, r1, r2
 80067a4:	ea40 0003 	orr.w	r0, r0, r3
 80067a8:	fa21 f304 	lsr.w	r3, r1, r4
 80067ac:	ea45 0103 	orr.w	r1, r5, r3
 80067b0:	bd30      	pop	{r4, r5, pc}
 80067b2:	f1c4 040c 	rsb	r4, r4, #12
 80067b6:	f1c4 0220 	rsb	r2, r4, #32
 80067ba:	fa20 f002 	lsr.w	r0, r0, r2
 80067be:	fa01 f304 	lsl.w	r3, r1, r4
 80067c2:	ea40 0003 	orr.w	r0, r0, r3
 80067c6:	4629      	mov	r1, r5
 80067c8:	bd30      	pop	{r4, r5, pc}
 80067ca:	fa21 f004 	lsr.w	r0, r1, r4
 80067ce:	4629      	mov	r1, r5
 80067d0:	bd30      	pop	{r4, r5, pc}
 80067d2:	f094 0f00 	teq	r4, #0
 80067d6:	f483 1380 	eor.w	r3, r3, #1048576	; 0x100000
 80067da:	bf06      	itte	eq
 80067dc:	f481 1180 	eoreq.w	r1, r1, #1048576	; 0x100000
 80067e0:	3401      	addeq	r4, #1
 80067e2:	3d01      	subne	r5, #1
 80067e4:	e74e      	b.n	8006684 <__adddf3+0x8c>
 80067e6:	ea7f 5c64 	mvns.w	ip, r4, asr #21
 80067ea:	bf18      	it	ne
 80067ec:	ea7f 5c65 	mvnsne.w	ip, r5, asr #21
 80067f0:	d029      	beq.n	8006846 <__adddf3+0x24e>
 80067f2:	ea94 0f05 	teq	r4, r5
 80067f6:	bf08      	it	eq
 80067f8:	ea90 0f02 	teqeq	r0, r2
 80067fc:	d005      	beq.n	800680a <__adddf3+0x212>
 80067fe:	ea54 0c00 	orrs.w	ip, r4, r0
 8006802:	bf04      	itt	eq
 8006804:	4619      	moveq	r1, r3
 8006806:	4610      	moveq	r0, r2
 8006808:	bd30      	pop	{r4, r5, pc}
 800680a:	ea91 0f03 	teq	r1, r3
 800680e:	bf1e      	ittt	ne
 8006810:	2100      	movne	r1, #0
 8006812:	2000      	movne	r0, #0
 8006814:	bd30      	popne	{r4, r5, pc}
 8006816:	ea5f 5c54 	movs.w	ip, r4, lsr #21
 800681a:	d105      	bne.n	8006828 <__adddf3+0x230>
 800681c:	0040      	lsls	r0, r0, #1
 800681e:	4149      	adcs	r1, r1
 8006820:	bf28      	it	cs
 8006822:	f041 4100 	orrcs.w	r1, r1, #2147483648	; 0x80000000
 8006826:	bd30      	pop	{r4, r5, pc}
 8006828:	f514 0480 	adds.w	r4, r4, #4194304	; 0x400000
 800682c:	bf3c      	itt	cc
 800682e:	f501 1180 	addcc.w	r1, r1, #1048576	; 0x100000
 8006832:	bd30      	popcc	{r4, r5, pc}
 8006834:	f001 4500 	and.w	r5, r1, #2147483648	; 0x80000000
 8006838:	f045 41fe 	orr.w	r1, r5, #2130706432	; 0x7f000000
 800683c:	f441 0170 	orr.w	r1, r1, #15728640	; 0xf00000
 8006840:	f04f 0000 	mov.w	r0, #0
 8006844:	bd30      	pop	{r4, r5, pc}
 8006846:	ea7f 5c64 	mvns.w	ip, r4, asr #21
 800684a:	bf1a      	itte	ne
 800684c:	4619      	movne	r1, r3
 800684e:	4610      	movne	r0, r2
 8006850:	ea7f 5c65 	mvnseq.w	ip, r5, asr #21
 8006854:	bf1c      	itt	ne
 8006856:	460b      	movne	r3, r1
 8006858:	4602      	movne	r2, r0
 800685a:	ea50 3401 	orrs.w	r4, r0, r1, lsl #12
 800685e:	bf06      	itte	eq
 8006860:	ea52 3503 	orrseq.w	r5, r2, r3, lsl #12
 8006864:	ea91 0f03 	teqeq	r1, r3
 8006868:	f441 2100 	orrne.w	r1, r1, #524288	; 0x80000
 800686c:	bd30      	pop	{r4, r5, pc}
 800686e:	bf00      	nop

08006870 <__aeabi_ui2d>:
 8006870:	f090 0f00 	teq	r0, #0
 8006874:	bf04      	itt	eq
 8006876:	2100      	moveq	r1, #0
 8006878:	4770      	bxeq	lr
 800687a:	b530      	push	{r4, r5, lr}
 800687c:	f44f 6480 	mov.w	r4, #1024	; 0x400
 8006880:	f104 0432 	add.w	r4, r4, #50	; 0x32
 8006884:	f04f 0500 	mov.w	r5, #0
 8006888:	f04f 0100 	mov.w	r1, #0
 800688c:	e750      	b.n	8006730 <__adddf3+0x138>
 800688e:	bf00      	nop

08006890 <__aeabi_i2d>:
 8006890:	f090 0f00 	teq	r0, #0
 8006894:	bf04      	itt	eq
 8006896:	2100      	moveq	r1, #0
 8006898:	4770      	bxeq	lr
 800689a:	b530      	push	{r4, r5, lr}
 800689c:	f44f 6480 	mov.w	r4, #1024	; 0x400
 80068a0:	f104 0432 	add.w	r4, r4, #50	; 0x32
 80068a4:	f010 4500 	ands.w	r5, r0, #2147483648	; 0x80000000
 80068a8:	bf48      	it	mi
 80068aa:	4240      	negmi	r0, r0
 80068ac:	f04f 0100 	mov.w	r1, #0
 80068b0:	e73e      	b.n	8006730 <__adddf3+0x138>
 80068b2:	bf00      	nop

080068b4 <__aeabi_f2d>:
 80068b4:	0042      	lsls	r2, r0, #1
 80068b6:	ea4f 01e2 	mov.w	r1, r2, asr #3
 80068ba:	ea4f 0131 	mov.w	r1, r1, rrx
 80068be:	ea4f 7002 	mov.w	r0, r2, lsl #28
 80068c2:	bf1f      	itttt	ne
 80068c4:	f012 437f 	andsne.w	r3, r2, #4278190080	; 0xff000000
 80068c8:	f093 4f7f 	teqne	r3, #4278190080	; 0xff000000
 80068cc:	f081 5160 	eorne.w	r1, r1, #939524096	; 0x38000000
 80068d0:	4770      	bxne	lr
 80068d2:	f092 0f00 	teq	r2, #0
 80068d6:	bf14      	ite	ne
 80068d8:	f093 4f7f 	teqne	r3, #4278190080	; 0xff000000
 80068dc:	4770      	bxeq	lr
 80068de:	b530      	push	{r4, r5, lr}
 80068e0:	f44f 7460 	mov.w	r4, #896	; 0x380
 80068e4:	f001 4500 	and.w	r5, r1, #2147483648	; 0x80000000
 80068e8:	f021 4100 	bic.w	r1, r1, #2147483648	; 0x80000000
 80068ec:	e720      	b.n	8006730 <__adddf3+0x138>
 80068ee:	bf00      	nop

080068f0 <__aeabi_ul2d>:
 80068f0:	ea50 0201 	orrs.w	r2, r0, r1
 80068f4:	bf08      	it	eq
 80068f6:	4770      	bxeq	lr
 80068f8:	b530      	push	{r4, r5, lr}
 80068fa:	f04f 0500 	mov.w	r5, #0
 80068fe:	e00a      	b.n	8006916 <__aeabi_l2d+0x16>

08006900 <__aeabi_l2d>:
 8006900:	ea50 0201 	orrs.w	r2, r0, r1
 8006904:	bf08      	it	eq
 8006906:	4770      	bxeq	lr
 8006908:	b530      	push	{r4, r5, lr}
 800690a:	f011 4500 	ands.w	r5, r1, #2147483648	; 0x80000000
 800690e:	d502      	bpl.n	8006916 <__aeabi_l2d+0x16>
 8006910:	4240      	negs	r0, r0
 8006912:	eb61 0141 	sbc.w	r1, r1, r1, lsl #1
 8006916:	f44f 6480 	mov.w	r4, #1024	; 0x400
 800691a:	f104 0432 	add.w	r4, r4, #50	; 0x32
 800691e:	ea5f 5c91 	movs.w	ip, r1, lsr #22
 8006922:	f43f aedc 	beq.w	80066de <__adddf3+0xe6>
 8006926:	f04f 0203 	mov.w	r2, #3
 800692a:	ea5f 0cdc 	movs.w	ip, ip, lsr #3
 800692e:	bf18      	it	ne
 8006930:	3203      	addne	r2, #3
 8006932:	ea5f 0cdc 	movs.w	ip, ip, lsr #3
 8006936:	bf18      	it	ne
 8006938:	3203      	addne	r2, #3
 800693a:	eb02 02dc 	add.w	r2, r2, ip, lsr #3
 800693e:	f1c2 0320 	rsb	r3, r2, #32
 8006942:	fa00 fc03 	lsl.w	ip, r0, r3
 8006946:	fa20 f002 	lsr.w	r0, r0, r2
 800694a:	fa01 fe03 	lsl.w	lr, r1, r3
 800694e:	ea40 000e 	orr.w	r0, r0, lr
 8006952:	fa21 f102 	lsr.w	r1, r1, r2
 8006956:	4414      	add	r4, r2
 8006958:	e6c1      	b.n	80066de <__adddf3+0xe6>
 800695a:	bf00      	nop

0800695c <__aeabi_dmul>:
 800695c:	b570      	push	{r4, r5, r6, lr}
 800695e:	f04f 0cff 	mov.w	ip, #255	; 0xff
 8006962:	f44c 6ce0 	orr.w	ip, ip, #1792	; 0x700
 8006966:	ea1c 5411 	ands.w	r4, ip, r1, lsr #20
 800696a:	bf1d      	ittte	ne
 800696c:	ea1c 5513 	andsne.w	r5, ip, r3, lsr #20
 8006970:	ea94 0f0c 	teqne	r4, ip
 8006974:	ea95 0f0c 	teqne	r5, ip
 8006978:	f000 f8de 	bleq	8006b38 <__aeabi_dmul+0x1dc>
 800697c:	442c      	add	r4, r5
 800697e:	ea81 0603 	eor.w	r6, r1, r3
 8006982:	ea21 514c 	bic.w	r1, r1, ip, lsl #21
 8006986:	ea23 534c 	bic.w	r3, r3, ip, lsl #21
 800698a:	ea50 3501 	orrs.w	r5, r0, r1, lsl #12
 800698e:	bf18      	it	ne
 8006990:	ea52 3503 	orrsne.w	r5, r2, r3, lsl #12
 8006994:	f441 1180 	orr.w	r1, r1, #1048576	; 0x100000
 8006998:	f443 1380 	orr.w	r3, r3, #1048576	; 0x100000
 800699c:	d038      	beq.n	8006a10 <__aeabi_dmul+0xb4>
 800699e:	fba0 ce02 	umull	ip, lr, r0, r2
 80069a2:	f04f 0500 	mov.w	r5, #0
 80069a6:	fbe1 e502 	umlal	lr, r5, r1, r2
 80069aa:	f006 4200 	and.w	r2, r6, #2147483648	; 0x80000000
 80069ae:	fbe0 e503 	umlal	lr, r5, r0, r3
 80069b2:	f04f 0600 	mov.w	r6, #0
 80069b6:	fbe1 5603 	umlal	r5, r6, r1, r3
 80069ba:	f09c 0f00 	teq	ip, #0
 80069be:	bf18      	it	ne
 80069c0:	f04e 0e01 	orrne.w	lr, lr, #1
 80069c4:	f1a4 04ff 	sub.w	r4, r4, #255	; 0xff
 80069c8:	f5b6 7f00 	cmp.w	r6, #512	; 0x200
 80069cc:	f564 7440 	sbc.w	r4, r4, #768	; 0x300
 80069d0:	d204      	bcs.n	80069dc <__aeabi_dmul+0x80>
 80069d2:	ea5f 0e4e 	movs.w	lr, lr, lsl #1
 80069d6:	416d      	adcs	r5, r5
 80069d8:	eb46 0606 	adc.w	r6, r6, r6
 80069dc:	ea42 21c6 	orr.w	r1, r2, r6, lsl #11
 80069e0:	ea41 5155 	orr.w	r1, r1, r5, lsr #21
 80069e4:	ea4f 20c5 	mov.w	r0, r5, lsl #11
 80069e8:	ea40 505e 	orr.w	r0, r0, lr, lsr #21
 80069ec:	ea4f 2ece 	mov.w	lr, lr, lsl #11
 80069f0:	f1b4 0cfd 	subs.w	ip, r4, #253	; 0xfd
 80069f4:	bf88      	it	hi
 80069f6:	f5bc 6fe0 	cmphi.w	ip, #1792	; 0x700
 80069fa:	d81e      	bhi.n	8006a3a <__aeabi_dmul+0xde>
 80069fc:	f1be 4f00 	cmp.w	lr, #2147483648	; 0x80000000
 8006a00:	bf08      	it	eq
 8006a02:	ea5f 0e50 	movseq.w	lr, r0, lsr #1
 8006a06:	f150 0000 	adcs.w	r0, r0, #0
 8006a0a:	eb41 5104 	adc.w	r1, r1, r4, lsl #20
 8006a0e:	bd70      	pop	{r4, r5, r6, pc}
 8006a10:	f006 4600 	and.w	r6, r6, #2147483648	; 0x80000000
 8006a14:	ea46 0101 	orr.w	r1, r6, r1
 8006a18:	ea40 0002 	orr.w	r0, r0, r2
 8006a1c:	ea81 0103 	eor.w	r1, r1, r3
 8006a20:	ebb4 045c 	subs.w	r4, r4, ip, lsr #1
 8006a24:	bfc2      	ittt	gt
 8006a26:	ebd4 050c 	rsbsgt	r5, r4, ip
 8006a2a:	ea41 5104 	orrgt.w	r1, r1, r4, lsl #20
 8006a2e:	bd70      	popgt	{r4, r5, r6, pc}
 8006a30:	f441 1180 	orr.w	r1, r1, #1048576	; 0x100000
 8006a34:	f04f 0e00 	mov.w	lr, #0
 8006a38:	3c01      	subs	r4, #1
 8006a3a:	f300 80ab 	bgt.w	8006b94 <__aeabi_dmul+0x238>
 8006a3e:	f114 0f36 	cmn.w	r4, #54	; 0x36
 8006a42:	bfde      	ittt	le
 8006a44:	2000      	movle	r0, #0
 8006a46:	f001 4100 	andle.w	r1, r1, #2147483648	; 0x80000000
 8006a4a:	bd70      	pople	{r4, r5, r6, pc}
 8006a4c:	f1c4 0400 	rsb	r4, r4, #0
 8006a50:	3c20      	subs	r4, #32
 8006a52:	da35      	bge.n	8006ac0 <__aeabi_dmul+0x164>
 8006a54:	340c      	adds	r4, #12
 8006a56:	dc1b      	bgt.n	8006a90 <__aeabi_dmul+0x134>
 8006a58:	f104 0414 	add.w	r4, r4, #20
 8006a5c:	f1c4 0520 	rsb	r5, r4, #32
 8006a60:	fa00 f305 	lsl.w	r3, r0, r5
 8006a64:	fa20 f004 	lsr.w	r0, r0, r4
 8006a68:	fa01 f205 	lsl.w	r2, r1, r5
 8006a6c:	ea40 0002 	orr.w	r0, r0, r2
 8006a70:	f001 4200 	and.w	r2, r1, #2147483648	; 0x80000000
 8006a74:	f021 4100 	bic.w	r1, r1, #2147483648	; 0x80000000
 8006a78:	eb10 70d3 	adds.w	r0, r0, r3, lsr #31
 8006a7c:	fa21 f604 	lsr.w	r6, r1, r4
 8006a80:	eb42 0106 	adc.w	r1, r2, r6
 8006a84:	ea5e 0e43 	orrs.w	lr, lr, r3, lsl #1
 8006a88:	bf08      	it	eq
 8006a8a:	ea20 70d3 	biceq.w	r0, r0, r3, lsr #31
 8006a8e:	bd70      	pop	{r4, r5, r6, pc}
 8006a90:	f1c4 040c 	rsb	r4, r4, #12
 8006a94:	f1c4 0520 	rsb	r5, r4, #32
 8006a98:	fa00 f304 	lsl.w	r3, r0, r4
 8006a9c:	fa20 f005 	lsr.w	r0, r0, r5
 8006aa0:	fa01 f204 	lsl.w	r2, r1, r4
 8006aa4:	ea40 0002 	orr.w	r0, r0, r2
 8006aa8:	f001 4100 	and.w	r1, r1, #2147483648	; 0x80000000
 8006aac:	eb10 70d3 	adds.w	r0, r0, r3, lsr #31
 8006ab0:	f141 0100 	adc.w	r1, r1, #0
 8006ab4:	ea5e 0e43 	orrs.w	lr, lr, r3, lsl #1
 8006ab8:	bf08      	it	eq
 8006aba:	ea20 70d3 	biceq.w	r0, r0, r3, lsr #31
 8006abe:	bd70      	pop	{r4, r5, r6, pc}
 8006ac0:	f1c4 0520 	rsb	r5, r4, #32
 8006ac4:	fa00 f205 	lsl.w	r2, r0, r5
 8006ac8:	ea4e 0e02 	orr.w	lr, lr, r2
 8006acc:	fa20 f304 	lsr.w	r3, r0, r4
 8006ad0:	fa01 f205 	lsl.w	r2, r1, r5
 8006ad4:	ea43 0302 	orr.w	r3, r3, r2
 8006ad8:	fa21 f004 	lsr.w	r0, r1, r4
 8006adc:	f001 4100 	and.w	r1, r1, #2147483648	; 0x80000000
 8006ae0:	fa21 f204 	lsr.w	r2, r1, r4
 8006ae4:	ea20 0002 	bic.w	r0, r0, r2
 8006ae8:	eb00 70d3 	add.w	r0, r0, r3, lsr #31
 8006aec:	ea5e 0e43 	orrs.w	lr, lr, r3, lsl #1
 8006af0:	bf08      	it	eq
 8006af2:	ea20 70d3 	biceq.w	r0, r0, r3, lsr #31
 8006af6:	bd70      	pop	{r4, r5, r6, pc}
 8006af8:	f094 0f00 	teq	r4, #0
 8006afc:	d10f      	bne.n	8006b1e <__aeabi_dmul+0x1c2>
 8006afe:	f001 4600 	and.w	r6, r1, #2147483648	; 0x80000000
 8006b02:	0040      	lsls	r0, r0, #1
 8006b04:	eb41 0101 	adc.w	r1, r1, r1
 8006b08:	f411 1f80 	tst.w	r1, #1048576	; 0x100000
 8006b0c:	bf08      	it	eq
 8006b0e:	3c01      	subeq	r4, #1
 8006b10:	d0f7      	beq.n	8006b02 <__aeabi_dmul+0x1a6>
 8006b12:	ea41 0106 	orr.w	r1, r1, r6
 8006b16:	f095 0f00 	teq	r5, #0
 8006b1a:	bf18      	it	ne
 8006b1c:	4770      	bxne	lr
 8006b1e:	f003 4600 	and.w	r6, r3, #2147483648	; 0x80000000
 8006b22:	0052      	lsls	r2, r2, #1
 8006b24:	eb43 0303 	adc.w	r3, r3, r3
 8006b28:	f413 1f80 	tst.w	r3, #1048576	; 0x100000
 8006b2c:	bf08      	it	eq
 8006b2e:	3d01      	subeq	r5, #1
 8006b30:	d0f7      	beq.n	8006b22 <__aeabi_dmul+0x1c6>
 8006b32:	ea43 0306 	orr.w	r3, r3, r6
 8006b36:	4770      	bx	lr
 8006b38:	ea94 0f0c 	teq	r4, ip
 8006b3c:	ea0c 5513 	and.w	r5, ip, r3, lsr #20
 8006b40:	bf18      	it	ne
 8006b42:	ea95 0f0c 	teqne	r5, ip
 8006b46:	d00c      	beq.n	8006b62 <__aeabi_dmul+0x206>
 8006b48:	ea50 0641 	orrs.w	r6, r0, r1, lsl #1
 8006b4c:	bf18      	it	ne
 8006b4e:	ea52 0643 	orrsne.w	r6, r2, r3, lsl #1
 8006b52:	d1d1      	bne.n	8006af8 <__aeabi_dmul+0x19c>
 8006b54:	ea81 0103 	eor.w	r1, r1, r3
 8006b58:	f001 4100 	and.w	r1, r1, #2147483648	; 0x80000000
 8006b5c:	f04f 0000 	mov.w	r0, #0
 8006b60:	bd70      	pop	{r4, r5, r6, pc}
 8006b62:	ea50 0641 	orrs.w	r6, r0, r1, lsl #1
 8006b66:	bf06      	itte	eq
 8006b68:	4610      	moveq	r0, r2
 8006b6a:	4619      	moveq	r1, r3
 8006b6c:	ea52 0643 	orrsne.w	r6, r2, r3, lsl #1
 8006b70:	d019      	beq.n	8006ba6 <__aeabi_dmul+0x24a>
 8006b72:	ea94 0f0c 	teq	r4, ip
 8006b76:	d102      	bne.n	8006b7e <__aeabi_dmul+0x222>
 8006b78:	ea50 3601 	orrs.w	r6, r0, r1, lsl #12
 8006b7c:	d113      	bne.n	8006ba6 <__aeabi_dmul+0x24a>
 8006b7e:	ea95 0f0c 	teq	r5, ip
 8006b82:	d105      	bne.n	8006b90 <__aeabi_dmul+0x234>
 8006b84:	ea52 3603 	orrs.w	r6, r2, r3, lsl #12
 8006b88:	bf1c      	itt	ne
 8006b8a:	4610      	movne	r0, r2
 8006b8c:	4619      	movne	r1, r3
 8006b8e:	d10a      	bne.n	8006ba6 <__aeabi_dmul+0x24a>
 8006b90:	ea81 0103 	eor.w	r1, r1, r3
 8006b94:	f001 4100 	and.w	r1, r1, #2147483648	; 0x80000000
 8006b98:	f041 41fe 	orr.w	r1, r1, #2130706432	; 0x7f000000
 8006b9c:	f441 0170 	orr.w	r1, r1, #15728640	; 0xf00000
 8006ba0:	f04f 0000 	mov.w	r0, #0
 8006ba4:	bd70      	pop	{r4, r5, r6, pc}
 8006ba6:	f041 41fe 	orr.w	r1, r1, #2130706432	; 0x7f000000
 8006baa:	f441 0178 	orr.w	r1, r1, #16252928	; 0xf80000
 8006bae:	bd70      	pop	{r4, r5, r6, pc}

08006bb0 <__aeabi_ddiv>:
 8006bb0:	b570      	push	{r4, r5, r6, lr}
 8006bb2:	f04f 0cff 	mov.w	ip, #255	; 0xff
 8006bb6:	f44c 6ce0 	orr.w	ip, ip, #1792	; 0x700
 8006bba:	ea1c 5411 	ands.w	r4, ip, r1, lsr #20
 8006bbe:	bf1d      	ittte	ne
 8006bc0:	ea1c 5513 	andsne.w	r5, ip, r3, lsr #20
 8006bc4:	ea94 0f0c 	teqne	r4, ip
 8006bc8:	ea95 0f0c 	teqne	r5, ip
 8006bcc:	f000 f8a7 	bleq	8006d1e <__aeabi_ddiv+0x16e>
 8006bd0:	eba4 0405 	sub.w	r4, r4, r5
 8006bd4:	ea81 0e03 	eor.w	lr, r1, r3
 8006bd8:	ea52 3503 	orrs.w	r5, r2, r3, lsl #12
 8006bdc:	ea4f 3101 	mov.w	r1, r1, lsl #12
 8006be0:	f000 8088 	beq.w	8006cf4 <__aeabi_ddiv+0x144>
 8006be4:	ea4f 3303 	mov.w	r3, r3, lsl #12
 8006be8:	f04f 5580 	mov.w	r5, #268435456	; 0x10000000
 8006bec:	ea45 1313 	orr.w	r3, r5, r3, lsr #4
 8006bf0:	ea43 6312 	orr.w	r3, r3, r2, lsr #24
 8006bf4:	ea4f 2202 	mov.w	r2, r2, lsl #8
 8006bf8:	ea45 1511 	orr.w	r5, r5, r1, lsr #4
 8006bfc:	ea45 6510 	orr.w	r5, r5, r0, lsr #24
 8006c00:	ea4f 2600 	mov.w	r6, r0, lsl #8
 8006c04:	f00e 4100 	and.w	r1, lr, #2147483648	; 0x80000000
 8006c08:	429d      	cmp	r5, r3
 8006c0a:	bf08      	it	eq
 8006c0c:	4296      	cmpeq	r6, r2
 8006c0e:	f144 04fd 	adc.w	r4, r4, #253	; 0xfd
 8006c12:	f504 7440 	add.w	r4, r4, #768	; 0x300
 8006c16:	d202      	bcs.n	8006c1e <__aeabi_ddiv+0x6e>
 8006c18:	085b      	lsrs	r3, r3, #1
 8006c1a:	ea4f 0232 	mov.w	r2, r2, rrx
 8006c1e:	1ab6      	subs	r6, r6, r2
 8006c20:	eb65 0503 	sbc.w	r5, r5, r3
 8006c24:	085b      	lsrs	r3, r3, #1
 8006c26:	ea4f 0232 	mov.w	r2, r2, rrx
 8006c2a:	f44f 1080 	mov.w	r0, #1048576	; 0x100000
 8006c2e:	f44f 2c00 	mov.w	ip, #524288	; 0x80000
 8006c32:	ebb6 0e02 	subs.w	lr, r6, r2
 8006c36:	eb75 0e03 	sbcs.w	lr, r5, r3
 8006c3a:	bf22      	ittt	cs
 8006c3c:	1ab6      	subcs	r6, r6, r2
 8006c3e:	4675      	movcs	r5, lr
 8006c40:	ea40 000c 	orrcs.w	r0, r0, ip
 8006c44:	085b      	lsrs	r3, r3, #1
 8006c46:	ea4f 0232 	mov.w	r2, r2, rrx
 8006c4a:	ebb6 0e02 	subs.w	lr, r6, r2
 8006c4e:	eb75 0e03 	sbcs.w	lr, r5, r3
 8006c52:	bf22      	ittt	cs
 8006c54:	1ab6      	subcs	r6, r6, r2
 8006c56:	4675      	movcs	r5, lr
 8006c58:	ea40 005c 	orrcs.w	r0, r0, ip, lsr #1
 8006c5c:	085b      	lsrs	r3, r3, #1
 8006c5e:	ea4f 0232 	mov.w	r2, r2, rrx
 8006c62:	ebb6 0e02 	subs.w	lr, r6, r2
 8006c66:	eb75 0e03 	sbcs.w	lr, r5, r3
 8006c6a:	bf22      	ittt	cs
 8006c6c:	1ab6      	subcs	r6, r6, r2
 8006c6e:	4675      	movcs	r5, lr
 8006c70:	ea40 009c 	orrcs.w	r0, r0, ip, lsr #2
 8006c74:	085b      	lsrs	r3, r3, #1
 8006c76:	ea4f 0232 	mov.w	r2, r2, rrx
 8006c7a:	ebb6 0e02 	subs.w	lr, r6, r2
 8006c7e:	eb75 0e03 	sbcs.w	lr, r5, r3
 8006c82:	bf22      	ittt	cs
 8006c84:	1ab6      	subcs	r6, r6, r2
 8006c86:	4675      	movcs	r5, lr
 8006c88:	ea40 00dc 	orrcs.w	r0, r0, ip, lsr #3
 8006c8c:	ea55 0e06 	orrs.w	lr, r5, r6
 8006c90:	d018      	beq.n	8006cc4 <__aeabi_ddiv+0x114>
 8006c92:	ea4f 1505 	mov.w	r5, r5, lsl #4
 8006c96:	ea45 7516 	orr.w	r5, r5, r6, lsr #28
 8006c9a:	ea4f 1606 	mov.w	r6, r6, lsl #4
 8006c9e:	ea4f 03c3 	mov.w	r3, r3, lsl #3
 8006ca2:	ea43 7352 	orr.w	r3, r3, r2, lsr #29
 8006ca6:	ea4f 02c2 	mov.w	r2, r2, lsl #3
 8006caa:	ea5f 1c1c 	movs.w	ip, ip, lsr #4
 8006cae:	d1c0      	bne.n	8006c32 <__aeabi_ddiv+0x82>
 8006cb0:	f411 1f80 	tst.w	r1, #1048576	; 0x100000
 8006cb4:	d10b      	bne.n	8006cce <__aeabi_ddiv+0x11e>
 8006cb6:	ea41 0100 	orr.w	r1, r1, r0
 8006cba:	f04f 0000 	mov.w	r0, #0
 8006cbe:	f04f 4c00 	mov.w	ip, #2147483648	; 0x80000000
 8006cc2:	e7b6      	b.n	8006c32 <__aeabi_ddiv+0x82>
 8006cc4:	f411 1f80 	tst.w	r1, #1048576	; 0x100000
 8006cc8:	bf04      	itt	eq
 8006cca:	4301      	orreq	r1, r0
 8006ccc:	2000      	moveq	r0, #0
 8006cce:	f1b4 0cfd 	subs.w	ip, r4, #253	; 0xfd
 8006cd2:	bf88      	it	hi
 8006cd4:	f5bc 6fe0 	cmphi.w	ip, #1792	; 0x700
 8006cd8:	f63f aeaf 	bhi.w	8006a3a <__aeabi_dmul+0xde>
 8006cdc:	ebb5 0c03 	subs.w	ip, r5, r3
 8006ce0:	bf04      	itt	eq
 8006ce2:	ebb6 0c02 	subseq.w	ip, r6, r2
 8006ce6:	ea5f 0c50 	movseq.w	ip, r0, lsr #1
 8006cea:	f150 0000 	adcs.w	r0, r0, #0
 8006cee:	eb41 5104 	adc.w	r1, r1, r4, lsl #20
 8006cf2:	bd70      	pop	{r4, r5, r6, pc}
 8006cf4:	f00e 4e00 	and.w	lr, lr, #2147483648	; 0x80000000
 8006cf8:	ea4e 3111 	orr.w	r1, lr, r1, lsr #12
 8006cfc:	eb14 045c 	adds.w	r4, r4, ip, lsr #1
 8006d00:	bfc2      	ittt	gt
 8006d02:	ebd4 050c 	rsbsgt	r5, r4, ip
 8006d06:	ea41 5104 	orrgt.w	r1, r1, r4, lsl #20
 8006d0a:	bd70      	popgt	{r4, r5, r6, pc}
 8006d0c:	f441 1180 	orr.w	r1, r1, #1048576	; 0x100000
 8006d10:	f04f 0e00 	mov.w	lr, #0
 8006d14:	3c01      	subs	r4, #1
 8006d16:	e690      	b.n	8006a3a <__aeabi_dmul+0xde>
 8006d18:	ea45 0e06 	orr.w	lr, r5, r6
 8006d1c:	e68d      	b.n	8006a3a <__aeabi_dmul+0xde>
 8006d1e:	ea0c 5513 	and.w	r5, ip, r3, lsr #20
 8006d22:	ea94 0f0c 	teq	r4, ip
 8006d26:	bf08      	it	eq
 8006d28:	ea95 0f0c 	teqeq	r5, ip
 8006d2c:	f43f af3b 	beq.w	8006ba6 <__aeabi_dmul+0x24a>
 8006d30:	ea94 0f0c 	teq	r4, ip
 8006d34:	d10a      	bne.n	8006d4c <__aeabi_ddiv+0x19c>
 8006d36:	ea50 3401 	orrs.w	r4, r0, r1, lsl #12
 8006d3a:	f47f af34 	bne.w	8006ba6 <__aeabi_dmul+0x24a>
 8006d3e:	ea95 0f0c 	teq	r5, ip
 8006d42:	f47f af25 	bne.w	8006b90 <__aeabi_dmul+0x234>
 8006d46:	4610      	mov	r0, r2
 8006d48:	4619      	mov	r1, r3
 8006d4a:	e72c      	b.n	8006ba6 <__aeabi_dmul+0x24a>
 8006d4c:	ea95 0f0c 	teq	r5, ip
 8006d50:	d106      	bne.n	8006d60 <__aeabi_ddiv+0x1b0>
 8006d52:	ea52 3503 	orrs.w	r5, r2, r3, lsl #12
 8006d56:	f43f aefd 	beq.w	8006b54 <__aeabi_dmul+0x1f8>
 8006d5a:	4610      	mov	r0, r2
 8006d5c:	4619      	mov	r1, r3
 8006d5e:	e722      	b.n	8006ba6 <__aeabi_dmul+0x24a>
 8006d60:	ea50 0641 	orrs.w	r6, r0, r1, lsl #1
 8006d64:	bf18      	it	ne
 8006d66:	ea52 0643 	orrsne.w	r6, r2, r3, lsl #1
 8006d6a:	f47f aec5 	bne.w	8006af8 <__aeabi_dmul+0x19c>
 8006d6e:	ea50 0441 	orrs.w	r4, r0, r1, lsl #1
 8006d72:	f47f af0d 	bne.w	8006b90 <__aeabi_dmul+0x234>
 8006d76:	ea52 0543 	orrs.w	r5, r2, r3, lsl #1
 8006d7a:	f47f aeeb 	bne.w	8006b54 <__aeabi_dmul+0x1f8>
 8006d7e:	e712      	b.n	8006ba6 <__aeabi_dmul+0x24a>

08006d80 <__gedf2>:
 8006d80:	f04f 3cff 	mov.w	ip, #4294967295
 8006d84:	e006      	b.n	8006d94 <__cmpdf2+0x4>
 8006d86:	bf00      	nop

08006d88 <__ledf2>:
 8006d88:	f04f 0c01 	mov.w	ip, #1
 8006d8c:	e002      	b.n	8006d94 <__cmpdf2+0x4>
 8006d8e:	bf00      	nop

08006d90 <__cmpdf2>:
 8006d90:	f04f 0c01 	mov.w	ip, #1
 8006d94:	f84d cd04 	str.w	ip, [sp, #-4]!
 8006d98:	ea4f 0c41 	mov.w	ip, r1, lsl #1
 8006d9c:	ea7f 5c6c 	mvns.w	ip, ip, asr #21
 8006da0:	ea4f 0c43 	mov.w	ip, r3, lsl #1
 8006da4:	bf18      	it	ne
 8006da6:	ea7f 5c6c 	mvnsne.w	ip, ip, asr #21
 8006daa:	d01b      	beq.n	8006de4 <__cmpdf2+0x54>
 8006dac:	b001      	add	sp, #4
 8006dae:	ea50 0c41 	orrs.w	ip, r0, r1, lsl #1
 8006db2:	bf0c      	ite	eq
 8006db4:	ea52 0c43 	orrseq.w	ip, r2, r3, lsl #1
 8006db8:	ea91 0f03 	teqne	r1, r3
 8006dbc:	bf02      	ittt	eq
 8006dbe:	ea90 0f02 	teqeq	r0, r2
 8006dc2:	2000      	moveq	r0, #0
 8006dc4:	4770      	bxeq	lr
 8006dc6:	f110 0f00 	cmn.w	r0, #0
 8006dca:	ea91 0f03 	teq	r1, r3
 8006dce:	bf58      	it	pl
 8006dd0:	4299      	cmppl	r1, r3
 8006dd2:	bf08      	it	eq
 8006dd4:	4290      	cmpeq	r0, r2
 8006dd6:	bf2c      	ite	cs
 8006dd8:	17d8      	asrcs	r0, r3, #31
 8006dda:	ea6f 70e3 	mvncc.w	r0, r3, asr #31
 8006dde:	f040 0001 	orr.w	r0, r0, #1
 8006de2:	4770      	bx	lr
 8006de4:	ea4f 0c41 	mov.w	ip, r1, lsl #1
 8006de8:	ea7f 5c6c 	mvns.w	ip, ip, asr #21
 8006dec:	d102      	bne.n	8006df4 <__cmpdf2+0x64>
 8006dee:	ea50 3c01 	orrs.w	ip, r0, r1, lsl #12
 8006df2:	d107      	bne.n	8006e04 <__cmpdf2+0x74>
 8006df4:	ea4f 0c43 	mov.w	ip, r3, lsl #1
 8006df8:	ea7f 5c6c 	mvns.w	ip, ip, asr #21
 8006dfc:	d1d6      	bne.n	8006dac <__cmpdf2+0x1c>
 8006dfe:	ea52 3c03 	orrs.w	ip, r2, r3, lsl #12
 8006e02:	d0d3      	beq.n	8006dac <__cmpdf2+0x1c>
 8006e04:	f85d 0b04 	ldr.w	r0, [sp], #4
 8006e08:	4770      	bx	lr
 8006e0a:	bf00      	nop

08006e0c <__aeabi_cdrcmple>:
 8006e0c:	4684      	mov	ip, r0
 8006e0e:	4610      	mov	r0, r2
 8006e10:	4662      	mov	r2, ip
 8006e12:	468c      	mov	ip, r1
 8006e14:	4619      	mov	r1, r3
 8006e16:	4663      	mov	r3, ip
 8006e18:	e000      	b.n	8006e1c <__aeabi_cdcmpeq>
 8006e1a:	bf00      	nop

08006e1c <__aeabi_cdcmpeq>:
 8006e1c:	b501      	push	{r0, lr}
 8006e1e:	f7ff ffb7 	bl	8006d90 <__cmpdf2>
 8006e22:	2800      	cmp	r0, #0
 8006e24:	bf48      	it	mi
 8006e26:	f110 0f00 	cmnmi.w	r0, #0
 8006e2a:	bd01      	pop	{r0, pc}

08006e2c <__aeabi_dcmpeq>:
 8006e2c:	f84d ed08 	str.w	lr, [sp, #-8]!
 8006e30:	f7ff fff4 	bl	8006e1c <__aeabi_cdcmpeq>
 8006e34:	bf0c      	ite	eq
 8006e36:	2001      	moveq	r0, #1
 8006e38:	2000      	movne	r0, #0
 8006e3a:	f85d fb08 	ldr.w	pc, [sp], #8
 8006e3e:	bf00      	nop

08006e40 <__aeabi_dcmplt>:
 8006e40:	f84d ed08 	str.w	lr, [sp, #-8]!
 8006e44:	f7ff ffea 	bl	8006e1c <__aeabi_cdcmpeq>
 8006e48:	bf34      	ite	cc
 8006e4a:	2001      	movcc	r0, #1
 8006e4c:	2000      	movcs	r0, #0
 8006e4e:	f85d fb08 	ldr.w	pc, [sp], #8
 8006e52:	bf00      	nop

08006e54 <__aeabi_dcmple>:
 8006e54:	f84d ed08 	str.w	lr, [sp, #-8]!
 8006e58:	f7ff ffe0 	bl	8006e1c <__aeabi_cdcmpeq>
 8006e5c:	bf94      	ite	ls
 8006e5e:	2001      	movls	r0, #1
 8006e60:	2000      	movhi	r0, #0
 8006e62:	f85d fb08 	ldr.w	pc, [sp], #8
 8006e66:	bf00      	nop

08006e68 <__aeabi_dcmpge>:
 8006e68:	f84d ed08 	str.w	lr, [sp, #-8]!
 8006e6c:	f7ff ffce 	bl	8006e0c <__aeabi_cdrcmple>
 8006e70:	bf94      	ite	ls
 8006e72:	2001      	movls	r0, #1
 8006e74:	2000      	movhi	r0, #0
 8006e76:	f85d fb08 	ldr.w	pc, [sp], #8
 8006e7a:	bf00      	nop

08006e7c <__aeabi_dcmpgt>:
 8006e7c:	f84d ed08 	str.w	lr, [sp, #-8]!
 8006e80:	f7ff ffc4 	bl	8006e0c <__aeabi_cdrcmple>
 8006e84:	bf34      	ite	cc
 8006e86:	2001      	movcc	r0, #1
 8006e88:	2000      	movcs	r0, #0
 8006e8a:	f85d fb08 	ldr.w	pc, [sp], #8
 8006e8e:	bf00      	nop

08006e90 <__aeabi_d2iz>:
 8006e90:	ea4f 0241 	mov.w	r2, r1, lsl #1
 8006e94:	f512 1200 	adds.w	r2, r2, #2097152	; 0x200000
 8006e98:	d215      	bcs.n	8006ec6 <__aeabi_d2iz+0x36>
 8006e9a:	d511      	bpl.n	8006ec0 <__aeabi_d2iz+0x30>
 8006e9c:	f46f 7378 	mvn.w	r3, #992	; 0x3e0
 8006ea0:	ebb3 5262 	subs.w	r2, r3, r2, asr #21
 8006ea4:	d912      	bls.n	8006ecc <__aeabi_d2iz+0x3c>
 8006ea6:	ea4f 23c1 	mov.w	r3, r1, lsl #11
 8006eaa:	f043 4300 	orr.w	r3, r3, #2147483648	; 0x80000000
 8006eae:	ea43 5350 	orr.w	r3, r3, r0, lsr #21
 8006eb2:	f011 4f00 	tst.w	r1, #2147483648	; 0x80000000
 8006eb6:	fa23 f002 	lsr.w	r0, r3, r2
 8006eba:	bf18      	it	ne
 8006ebc:	4240      	negne	r0, r0
 8006ebe:	4770      	bx	lr
 8006ec0:	f04f 0000 	mov.w	r0, #0
 8006ec4:	4770      	bx	lr
 8006ec6:	ea50 3001 	orrs.w	r0, r0, r1, lsl #12
 8006eca:	d105      	bne.n	8006ed8 <__aeabi_d2iz+0x48>
 8006ecc:	f011 4000 	ands.w	r0, r1, #2147483648	; 0x80000000
 8006ed0:	bf08      	it	eq
 8006ed2:	f06f 4000 	mvneq.w	r0, #2147483648	; 0x80000000
 8006ed6:	4770      	bx	lr
 8006ed8:	f04f 0000 	mov.w	r0, #0
 8006edc:	4770      	bx	lr
 8006ede:	bf00      	nop

08006ee0 <__aeabi_uldivmod>:
 8006ee0:	b94b      	cbnz	r3, 8006ef6 <__aeabi_uldivmod+0x16>
 8006ee2:	b942      	cbnz	r2, 8006ef6 <__aeabi_uldivmod+0x16>
 8006ee4:	2900      	cmp	r1, #0
 8006ee6:	bf08      	it	eq
 8006ee8:	2800      	cmpeq	r0, #0
 8006eea:	d002      	beq.n	8006ef2 <__aeabi_uldivmod+0x12>
 8006eec:	f04f 31ff 	mov.w	r1, #4294967295
 8006ef0:	4608      	mov	r0, r1
 8006ef2:	f7ff bb79 	b.w	80065e8 <__aeabi_idiv0>
 8006ef6:	b082      	sub	sp, #8
 8006ef8:	46ec      	mov	ip, sp
 8006efa:	e92d 5000 	stmdb	sp!, {ip, lr}
 8006efe:	f000 f81d 	bl	8006f3c <__gnu_uldivmod_helper>
 8006f02:	f8dd e004 	ldr.w	lr, [sp, #4]
 8006f06:	b002      	add	sp, #8
 8006f08:	bc0c      	pop	{r2, r3}
 8006f0a:	4770      	bx	lr

08006f0c <__gnu_ldivmod_helper>:
 8006f0c:	e92d 43f8 	stmdb	sp!, {r3, r4, r5, r6, r7, r8, r9, lr}
 8006f10:	4690      	mov	r8, r2
 8006f12:	4699      	mov	r9, r3
 8006f14:	4606      	mov	r6, r0
 8006f16:	460f      	mov	r7, r1
 8006f18:	f000 f828 	bl	8006f6c <__divdi3>
 8006f1c:	9b08      	ldr	r3, [sp, #32]
 8006f1e:	fba8 4500 	umull	r4, r5, r8, r0
 8006f22:	fb08 f801 	mul.w	r8, r8, r1
 8006f26:	fb00 8209 	mla	r2, r0, r9, r8
 8006f2a:	1955      	adds	r5, r2, r5
 8006f2c:	1b34      	subs	r4, r6, r4
 8006f2e:	eb67 0505 	sbc.w	r5, r7, r5
 8006f32:	e9c3 4500 	strd	r4, r5, [r3]
 8006f36:	e8bd 83f8 	ldmia.w	sp!, {r3, r4, r5, r6, r7, r8, r9, pc}
 8006f3a:	bf00      	nop

08006f3c <__gnu_uldivmod_helper>:
 8006f3c:	e92d 41f0 	stmdb	sp!, {r4, r5, r6, r7, r8, lr}
 8006f40:	4690      	mov	r8, r2
 8006f42:	4606      	mov	r6, r0
 8006f44:	460f      	mov	r7, r1
 8006f46:	461d      	mov	r5, r3
 8006f48:	f000 f9c6 	bl	80072d8 <__udivdi3>
 8006f4c:	fb00 f305 	mul.w	r3, r0, r5
 8006f50:	fba0 4508 	umull	r4, r5, r0, r8
 8006f54:	fb08 3801 	mla	r8, r8, r1, r3
 8006f58:	9b06      	ldr	r3, [sp, #24]
 8006f5a:	4445      	add	r5, r8
 8006f5c:	1b34      	subs	r4, r6, r4
 8006f5e:	eb67 0505 	sbc.w	r5, r7, r5
 8006f62:	e9c3 4500 	strd	r4, r5, [r3]
 8006f66:	e8bd 81f0 	ldmia.w	sp!, {r4, r5, r6, r7, r8, pc}
 8006f6a:	bf00      	nop

08006f6c <__divdi3>:
 8006f6c:	e92d 4ff0 	stmdb	sp!, {r4, r5, r6, r7, r8, r9, sl, fp, lr}
 8006f70:	2500      	movs	r5, #0
 8006f72:	2900      	cmp	r1, #0
 8006f74:	b085      	sub	sp, #20
 8006f76:	461c      	mov	r4, r3
 8006f78:	f2c0 8149 	blt.w	800720e <__divdi3+0x2a2>
 8006f7c:	2c00      	cmp	r4, #0
 8006f7e:	f2c0 8141 	blt.w	8007204 <__divdi3+0x298>
 8006f82:	468c      	mov	ip, r1
 8006f84:	460f      	mov	r7, r1
 8006f86:	4682      	mov	sl, r0
 8006f88:	4691      	mov	r9, r2
 8006f8a:	4614      	mov	r4, r2
 8006f8c:	4606      	mov	r6, r0
 8006f8e:	4619      	mov	r1, r3
 8006f90:	2b00      	cmp	r3, #0
 8006f92:	d14b      	bne.n	800702c <__divdi3+0xc0>
 8006f94:	4562      	cmp	r2, ip
 8006f96:	d959      	bls.n	800704c <__divdi3+0xe0>
 8006f98:	fab2 f382 	clz	r3, r2
 8006f9c:	b143      	cbz	r3, 8006fb0 <__divdi3+0x44>
 8006f9e:	f1c3 0220 	rsb	r2, r3, #32
 8006fa2:	fa0c f703 	lsl.w	r7, ip, r3
 8006fa6:	fa20 f202 	lsr.w	r2, r0, r2
 8006faa:	409c      	lsls	r4, r3
 8006fac:	4317      	orrs	r7, r2
 8006fae:	409e      	lsls	r6, r3
 8006fb0:	ea4f 4814 	mov.w	r8, r4, lsr #16
 8006fb4:	4638      	mov	r0, r7
 8006fb6:	4641      	mov	r1, r8
 8006fb8:	fa1f f984 	uxth.w	r9, r4
 8006fbc:	f7ff f9d8 	bl	8006370 <__aeabi_uidiv>
 8006fc0:	4641      	mov	r1, r8
 8006fc2:	4682      	mov	sl, r0
 8006fc4:	4638      	mov	r0, r7
 8006fc6:	f7ff fb01 	bl	80065cc <__aeabi_uidivmod>
 8006fca:	0c33      	lsrs	r3, r6, #16
 8006fcc:	fb09 f00a 	mul.w	r0, r9, sl
 8006fd0:	ea43 4101 	orr.w	r1, r3, r1, lsl #16
 8006fd4:	4288      	cmp	r0, r1
 8006fd6:	d90a      	bls.n	8006fee <__divdi3+0x82>
 8006fd8:	1909      	adds	r1, r1, r4
 8006fda:	f10a 32ff 	add.w	r2, sl, #4294967295
 8006fde:	d205      	bcs.n	8006fec <__divdi3+0x80>
 8006fe0:	4288      	cmp	r0, r1
 8006fe2:	bf84      	itt	hi
 8006fe4:	f1aa 0a02 	subhi.w	sl, sl, #2
 8006fe8:	1909      	addhi	r1, r1, r4
 8006fea:	d800      	bhi.n	8006fee <__divdi3+0x82>
 8006fec:	4692      	mov	sl, r2
 8006fee:	ebc0 0b01 	rsb	fp, r0, r1
 8006ff2:	4641      	mov	r1, r8
 8006ff4:	4658      	mov	r0, fp
 8006ff6:	b2b6      	uxth	r6, r6
 8006ff8:	f7ff f9ba 	bl	8006370 <__aeabi_uidiv>
 8006ffc:	4641      	mov	r1, r8
 8006ffe:	4607      	mov	r7, r0
 8007000:	4658      	mov	r0, fp
 8007002:	f7ff fae3 	bl	80065cc <__aeabi_uidivmod>
 8007006:	fb09 f907 	mul.w	r9, r9, r7
 800700a:	ea46 4101 	orr.w	r1, r6, r1, lsl #16
 800700e:	4589      	cmp	r9, r1
 8007010:	d907      	bls.n	8007022 <__divdi3+0xb6>
 8007012:	1e7b      	subs	r3, r7, #1
 8007014:	190c      	adds	r4, r1, r4
 8007016:	f080 8157 	bcs.w	80072c8 <__divdi3+0x35c>
 800701a:	3f02      	subs	r7, #2
 800701c:	45a1      	cmp	r9, r4
 800701e:	f240 8153 	bls.w	80072c8 <__divdi3+0x35c>
 8007022:	ea47 400a 	orr.w	r0, r7, sl, lsl #16
 8007026:	f04f 0800 	mov.w	r8, #0
 800702a:	e004      	b.n	8007036 <__divdi3+0xca>
 800702c:	4563      	cmp	r3, ip
 800702e:	d958      	bls.n	80070e2 <__divdi3+0x176>
 8007030:	f04f 0800 	mov.w	r8, #0
 8007034:	4640      	mov	r0, r8
 8007036:	4602      	mov	r2, r0
 8007038:	4643      	mov	r3, r8
 800703a:	b115      	cbz	r5, 8007042 <__divdi3+0xd6>
 800703c:	4252      	negs	r2, r2
 800703e:	eb63 0343 	sbc.w	r3, r3, r3, lsl #1
 8007042:	4610      	mov	r0, r2
 8007044:	4619      	mov	r1, r3
 8007046:	b005      	add	sp, #20
 8007048:	e8bd 8ff0 	ldmia.w	sp!, {r4, r5, r6, r7, r8, r9, sl, fp, pc}
 800704c:	b922      	cbnz	r2, 8007058 <__divdi3+0xec>
 800704e:	2001      	movs	r0, #1
 8007050:	4611      	mov	r1, r2
 8007052:	f7ff f98d 	bl	8006370 <__aeabi_uidiv>
 8007056:	4604      	mov	r4, r0
 8007058:	fab4 f384 	clz	r3, r4
 800705c:	2b00      	cmp	r3, #0
 800705e:	f040 80dc 	bne.w	800721a <__divdi3+0x2ae>
 8007062:	1b3f      	subs	r7, r7, r4
 8007064:	ea4f 4914 	mov.w	r9, r4, lsr #16
 8007068:	fa1f fa84 	uxth.w	sl, r4
 800706c:	f04f 0801 	mov.w	r8, #1
 8007070:	4649      	mov	r1, r9
 8007072:	4638      	mov	r0, r7
 8007074:	f7ff f97c 	bl	8006370 <__aeabi_uidiv>
 8007078:	4649      	mov	r1, r9
 800707a:	4683      	mov	fp, r0
 800707c:	4638      	mov	r0, r7
 800707e:	f7ff faa5 	bl	80065cc <__aeabi_uidivmod>
 8007082:	0c33      	lsrs	r3, r6, #16
 8007084:	fb0a f00b 	mul.w	r0, sl, fp
 8007088:	ea43 4101 	orr.w	r1, r3, r1, lsl #16
 800708c:	4288      	cmp	r0, r1
 800708e:	d90b      	bls.n	80070a8 <__divdi3+0x13c>
 8007090:	1909      	adds	r1, r1, r4
 8007092:	f10b 33ff 	add.w	r3, fp, #4294967295
 8007096:	f080 8115 	bcs.w	80072c4 <__divdi3+0x358>
 800709a:	4288      	cmp	r0, r1
 800709c:	bf84      	itt	hi
 800709e:	f1ab 0b02 	subhi.w	fp, fp, #2
 80070a2:	1909      	addhi	r1, r1, r4
 80070a4:	f240 810e 	bls.w	80072c4 <__divdi3+0x358>
 80070a8:	1a0b      	subs	r3, r1, r0
 80070aa:	4649      	mov	r1, r9
 80070ac:	4618      	mov	r0, r3
 80070ae:	9301      	str	r3, [sp, #4]
 80070b0:	f7ff f95e 	bl	8006370 <__aeabi_uidiv>
 80070b4:	9b01      	ldr	r3, [sp, #4]
 80070b6:	4649      	mov	r1, r9
 80070b8:	b2b6      	uxth	r6, r6
 80070ba:	4607      	mov	r7, r0
 80070bc:	4618      	mov	r0, r3
 80070be:	f7ff fa85 	bl	80065cc <__aeabi_uidivmod>
 80070c2:	fb0a fa07 	mul.w	sl, sl, r7
 80070c6:	ea46 4101 	orr.w	r1, r6, r1, lsl #16
 80070ca:	458a      	cmp	sl, r1
 80070cc:	d906      	bls.n	80070dc <__divdi3+0x170>
 80070ce:	1e7b      	subs	r3, r7, #1
 80070d0:	190c      	adds	r4, r1, r4
 80070d2:	d202      	bcs.n	80070da <__divdi3+0x16e>
 80070d4:	3f02      	subs	r7, #2
 80070d6:	45a2      	cmp	sl, r4
 80070d8:	d800      	bhi.n	80070dc <__divdi3+0x170>
 80070da:	461f      	mov	r7, r3
 80070dc:	ea47 400b 	orr.w	r0, r7, fp, lsl #16
 80070e0:	e7a9      	b.n	8007036 <__divdi3+0xca>
 80070e2:	fab3 f483 	clz	r4, r3
 80070e6:	2c00      	cmp	r4, #0
 80070e8:	f000 80e4 	beq.w	80072b4 <__divdi3+0x348>
 80070ec:	f1c4 0320 	rsb	r3, r4, #32
 80070f0:	fa01 f104 	lsl.w	r1, r1, r4
 80070f4:	fa22 fa03 	lsr.w	sl, r2, r3
 80070f8:	fa2c fb03 	lsr.w	fp, ip, r3
 80070fc:	ea4a 0a01 	orr.w	sl, sl, r1
 8007100:	fa20 f803 	lsr.w	r8, r0, r3
 8007104:	fa0c fc04 	lsl.w	ip, ip, r4
 8007108:	4658      	mov	r0, fp
 800710a:	ea4f 471a 	mov.w	r7, sl, lsr #16
 800710e:	ea48 080c 	orr.w	r8, r8, ip
 8007112:	4639      	mov	r1, r7
 8007114:	fa02 f904 	lsl.w	r9, r2, r4
 8007118:	f8cd 900c 	str.w	r9, [sp, #12]
 800711c:	f7ff f928 	bl	8006370 <__aeabi_uidiv>
 8007120:	4639      	mov	r1, r7
 8007122:	4681      	mov	r9, r0
 8007124:	4658      	mov	r0, fp
 8007126:	f7ff fa51 	bl	80065cc <__aeabi_uidivmod>
 800712a:	fa1f fc8a 	uxth.w	ip, sl
 800712e:	ea4f 4318 	mov.w	r3, r8, lsr #16
 8007132:	fb0c f009 	mul.w	r0, ip, r9
 8007136:	ea43 4301 	orr.w	r3, r3, r1, lsl #16
 800713a:	4298      	cmp	r0, r3
 800713c:	d90c      	bls.n	8007158 <__divdi3+0x1ec>
 800713e:	eb13 030a 	adds.w	r3, r3, sl
 8007142:	f109 31ff 	add.w	r1, r9, #4294967295
 8007146:	f080 80c3 	bcs.w	80072d0 <__divdi3+0x364>
 800714a:	4298      	cmp	r0, r3
 800714c:	bf84      	itt	hi
 800714e:	f1a9 0902 	subhi.w	r9, r9, #2
 8007152:	4453      	addhi	r3, sl
 8007154:	f240 80bc 	bls.w	80072d0 <__divdi3+0x364>
 8007158:	1a1b      	subs	r3, r3, r0
 800715a:	4639      	mov	r1, r7
 800715c:	4618      	mov	r0, r3
 800715e:	f8cd c008 	str.w	ip, [sp, #8]
 8007162:	9301      	str	r3, [sp, #4]
 8007164:	f7ff f904 	bl	8006370 <__aeabi_uidiv>
 8007168:	9b01      	ldr	r3, [sp, #4]
 800716a:	4639      	mov	r1, r7
 800716c:	fa1f f888 	uxth.w	r8, r8
 8007170:	4683      	mov	fp, r0
 8007172:	4618      	mov	r0, r3
 8007174:	f7ff fa2a 	bl	80065cc <__aeabi_uidivmod>
 8007178:	f8dd c008 	ldr.w	ip, [sp, #8]
 800717c:	fb0c f30b 	mul.w	r3, ip, fp
 8007180:	ea48 4101 	orr.w	r1, r8, r1, lsl #16
 8007184:	428b      	cmp	r3, r1
 8007186:	d90c      	bls.n	80071a2 <__divdi3+0x236>
 8007188:	eb11 010a 	adds.w	r1, r1, sl
 800718c:	f10b 30ff 	add.w	r0, fp, #4294967295
 8007190:	f080 809c 	bcs.w	80072cc <__divdi3+0x360>
 8007194:	428b      	cmp	r3, r1
 8007196:	bf84      	itt	hi
 8007198:	f1ab 0b02 	subhi.w	fp, fp, #2
 800719c:	4451      	addhi	r1, sl
 800719e:	f240 8095 	bls.w	80072cc <__divdi3+0x360>
 80071a2:	9f03      	ldr	r7, [sp, #12]
 80071a4:	ea4b 4009 	orr.w	r0, fp, r9, lsl #16
 80071a8:	1ac9      	subs	r1, r1, r3
 80071aa:	fa1f fc80 	uxth.w	ip, r0
 80071ae:	b2ba      	uxth	r2, r7
 80071b0:	ea4f 4917 	mov.w	r9, r7, lsr #16
 80071b4:	0c07      	lsrs	r7, r0, #16
 80071b6:	fb02 f80c 	mul.w	r8, r2, ip
 80071ba:	fb02 f207 	mul.w	r2, r2, r7
 80071be:	fb09 230c 	mla	r3, r9, ip, r2
 80071c2:	fb09 f907 	mul.w	r9, r9, r7
 80071c6:	eb03 4318 	add.w	r3, r3, r8, lsr #16
 80071ca:	429a      	cmp	r2, r3
 80071cc:	bf88      	it	hi
 80071ce:	f509 3980 	addhi.w	r9, r9, #65536	; 0x10000
 80071d2:	eb09 4913 	add.w	r9, r9, r3, lsr #16
 80071d6:	4549      	cmp	r1, r9
 80071d8:	d310      	bcc.n	80071fc <__divdi3+0x290>
 80071da:	fa1f f888 	uxth.w	r8, r8
 80071de:	bf14      	ite	ne
 80071e0:	2200      	movne	r2, #0
 80071e2:	2201      	moveq	r2, #1
 80071e4:	fa06 f404 	lsl.w	r4, r6, r4
 80071e8:	eb08 4303 	add.w	r3, r8, r3, lsl #16
 80071ec:	429c      	cmp	r4, r3
 80071ee:	bf2c      	ite	cs
 80071f0:	2300      	movcs	r3, #0
 80071f2:	f002 0301 	andcc.w	r3, r2, #1
 80071f6:	2b00      	cmp	r3, #0
 80071f8:	f43f af15 	beq.w	8007026 <__divdi3+0xba>
 80071fc:	3801      	subs	r0, #1
 80071fe:	f04f 0800 	mov.w	r8, #0
 8007202:	e718      	b.n	8007036 <__divdi3+0xca>
 8007204:	4252      	negs	r2, r2
 8007206:	eb63 0343 	sbc.w	r3, r3, r3, lsl #1
 800720a:	43ed      	mvns	r5, r5
 800720c:	e6b9      	b.n	8006f82 <__divdi3+0x16>
 800720e:	4240      	negs	r0, r0
 8007210:	eb61 0141 	sbc.w	r1, r1, r1, lsl #1
 8007214:	f04f 35ff 	mov.w	r5, #4294967295
 8007218:	e6b0      	b.n	8006f7c <__divdi3+0x10>
 800721a:	409c      	lsls	r4, r3
 800721c:	f1c3 0b20 	rsb	fp, r3, #32
 8007220:	fa27 f80b 	lsr.w	r8, r7, fp
 8007224:	fa07 f703 	lsl.w	r7, r7, r3
 8007228:	ea4f 4914 	mov.w	r9, r4, lsr #16
 800722c:	4640      	mov	r0, r8
 800722e:	4649      	mov	r1, r9
 8007230:	fa26 fb0b 	lsr.w	fp, r6, fp
 8007234:	409e      	lsls	r6, r3
 8007236:	f7ff f89b 	bl	8006370 <__aeabi_uidiv>
 800723a:	4649      	mov	r1, r9
 800723c:	fa1f fa84 	uxth.w	sl, r4
 8007240:	ea4b 0b07 	orr.w	fp, fp, r7
 8007244:	4603      	mov	r3, r0
 8007246:	4640      	mov	r0, r8
 8007248:	9301      	str	r3, [sp, #4]
 800724a:	f7ff f9bf 	bl	80065cc <__aeabi_uidivmod>
 800724e:	9b01      	ldr	r3, [sp, #4]
 8007250:	ea4f 421b 	mov.w	r2, fp, lsr #16
 8007254:	fb0a f003 	mul.w	r0, sl, r3
 8007258:	ea42 4101 	orr.w	r1, r2, r1, lsl #16
 800725c:	4288      	cmp	r0, r1
 800725e:	d906      	bls.n	800726e <__divdi3+0x302>
 8007260:	1e5a      	subs	r2, r3, #1
 8007262:	1909      	adds	r1, r1, r4
 8007264:	d236      	bcs.n	80072d4 <__divdi3+0x368>
 8007266:	4288      	cmp	r0, r1
 8007268:	d934      	bls.n	80072d4 <__divdi3+0x368>
 800726a:	3b02      	subs	r3, #2
 800726c:	1909      	adds	r1, r1, r4
 800726e:	1a0f      	subs	r7, r1, r0
 8007270:	4649      	mov	r1, r9
 8007272:	4638      	mov	r0, r7
 8007274:	9301      	str	r3, [sp, #4]
 8007276:	f7ff f87b 	bl	8006370 <__aeabi_uidiv>
 800727a:	4649      	mov	r1, r9
 800727c:	fa1f fb8b 	uxth.w	fp, fp
 8007280:	4680      	mov	r8, r0
 8007282:	4638      	mov	r0, r7
 8007284:	f7ff f9a2 	bl	80065cc <__aeabi_uidivmod>
 8007288:	9b01      	ldr	r3, [sp, #4]
 800728a:	fb0a f708 	mul.w	r7, sl, r8
 800728e:	ea4b 4101 	orr.w	r1, fp, r1, lsl #16
 8007292:	428f      	cmp	r7, r1
 8007294:	d90a      	bls.n	80072ac <__divdi3+0x340>
 8007296:	1909      	adds	r1, r1, r4
 8007298:	f108 32ff 	add.w	r2, r8, #4294967295
 800729c:	d205      	bcs.n	80072aa <__divdi3+0x33e>
 800729e:	428f      	cmp	r7, r1
 80072a0:	bf84      	itt	hi
 80072a2:	f1a8 0802 	subhi.w	r8, r8, #2
 80072a6:	1909      	addhi	r1, r1, r4
 80072a8:	d800      	bhi.n	80072ac <__divdi3+0x340>
 80072aa:	4690      	mov	r8, r2
 80072ac:	1bcf      	subs	r7, r1, r7
 80072ae:	ea48 4803 	orr.w	r8, r8, r3, lsl #16
 80072b2:	e6dd      	b.n	8007070 <__divdi3+0x104>
 80072b4:	2001      	movs	r0, #1
 80072b6:	4563      	cmp	r3, ip
 80072b8:	bf28      	it	cs
 80072ba:	4552      	cmpcs	r2, sl
 80072bc:	46a0      	mov	r8, r4
 80072be:	f67f aeba 	bls.w	8007036 <__divdi3+0xca>
 80072c2:	e6b5      	b.n	8007030 <__divdi3+0xc4>
 80072c4:	469b      	mov	fp, r3
 80072c6:	e6ef      	b.n	80070a8 <__divdi3+0x13c>
 80072c8:	461f      	mov	r7, r3
 80072ca:	e6aa      	b.n	8007022 <__divdi3+0xb6>
 80072cc:	4683      	mov	fp, r0
 80072ce:	e768      	b.n	80071a2 <__divdi3+0x236>
 80072d0:	4689      	mov	r9, r1
 80072d2:	e741      	b.n	8007158 <__divdi3+0x1ec>
 80072d4:	4613      	mov	r3, r2
 80072d6:	e7ca      	b.n	800726e <__divdi3+0x302>

080072d8 <__udivdi3>:
 80072d8:	e92d 4ff0 	stmdb	sp!, {r4, r5, r6, r7, r8, r9, sl, fp, lr}
 80072dc:	4606      	mov	r6, r0
 80072de:	b083      	sub	sp, #12
 80072e0:	460d      	mov	r5, r1
 80072e2:	4614      	mov	r4, r2
 80072e4:	4607      	mov	r7, r0
 80072e6:	4688      	mov	r8, r1
 80072e8:	2b00      	cmp	r3, #0
 80072ea:	d14a      	bne.n	8007382 <__udivdi3+0xaa>
 80072ec:	428a      	cmp	r2, r1
 80072ee:	d955      	bls.n	800739c <__udivdi3+0xc4>
 80072f0:	fab2 f382 	clz	r3, r2
 80072f4:	b14b      	cbz	r3, 800730a <__udivdi3+0x32>
 80072f6:	f1c3 0220 	rsb	r2, r3, #32
 80072fa:	fa01 f803 	lsl.w	r8, r1, r3
 80072fe:	fa20 f202 	lsr.w	r2, r0, r2
 8007302:	409c      	lsls	r4, r3
 8007304:	ea42 0808 	orr.w	r8, r2, r8
 8007308:	409f      	lsls	r7, r3
 800730a:	0c25      	lsrs	r5, r4, #16
 800730c:	4640      	mov	r0, r8
 800730e:	4629      	mov	r1, r5
 8007310:	fa1f fa84 	uxth.w	sl, r4
 8007314:	f7ff f82c 	bl	8006370 <__aeabi_uidiv>
 8007318:	4629      	mov	r1, r5
 800731a:	4681      	mov	r9, r0
 800731c:	4640      	mov	r0, r8
 800731e:	f7ff f955 	bl	80065cc <__aeabi_uidivmod>
 8007322:	0c3b      	lsrs	r3, r7, #16
 8007324:	fb0a f009 	mul.w	r0, sl, r9
 8007328:	ea43 4101 	orr.w	r1, r3, r1, lsl #16
 800732c:	4288      	cmp	r0, r1
 800732e:	d90a      	bls.n	8007346 <__udivdi3+0x6e>
 8007330:	1909      	adds	r1, r1, r4
 8007332:	f109 32ff 	add.w	r2, r9, #4294967295
 8007336:	d205      	bcs.n	8007344 <__udivdi3+0x6c>
 8007338:	4288      	cmp	r0, r1
 800733a:	bf84      	itt	hi
 800733c:	f1a9 0902 	subhi.w	r9, r9, #2
 8007340:	1909      	addhi	r1, r1, r4
 8007342:	d800      	bhi.n	8007346 <__udivdi3+0x6e>
 8007344:	4691      	mov	r9, r2
 8007346:	ebc0 0801 	rsb	r8, r0, r1
 800734a:	4629      	mov	r1, r5
 800734c:	4640      	mov	r0, r8
 800734e:	b2bf      	uxth	r7, r7
 8007350:	f7ff f80e 	bl	8006370 <__aeabi_uidiv>
 8007354:	4629      	mov	r1, r5
 8007356:	4606      	mov	r6, r0
 8007358:	4640      	mov	r0, r8
 800735a:	f7ff f937 	bl	80065cc <__aeabi_uidivmod>
 800735e:	fb0a fa06 	mul.w	sl, sl, r6
 8007362:	ea47 4101 	orr.w	r1, r7, r1, lsl #16
 8007366:	458a      	cmp	sl, r1
 8007368:	d907      	bls.n	800737a <__udivdi3+0xa2>
 800736a:	1e73      	subs	r3, r6, #1
 800736c:	190c      	adds	r4, r1, r4
 800736e:	f080 8122 	bcs.w	80075b6 <__udivdi3+0x2de>
 8007372:	3e02      	subs	r6, #2
 8007374:	45a2      	cmp	sl, r4
 8007376:	f240 811e 	bls.w	80075b6 <__udivdi3+0x2de>
 800737a:	ea46 4009 	orr.w	r0, r6, r9, lsl #16
 800737e:	2600      	movs	r6, #0
 8007380:	e058      	b.n	8007434 <__udivdi3+0x15c>
 8007382:	428b      	cmp	r3, r1
 8007384:	d854      	bhi.n	8007430 <__udivdi3+0x158>
 8007386:	fab3 f483 	clz	r4, r3
 800738a:	2c00      	cmp	r4, #0
 800738c:	d156      	bne.n	800743c <__udivdi3+0x164>
 800738e:	428b      	cmp	r3, r1
 8007390:	bf28      	it	cs
 8007392:	4282      	cmpcs	r2, r0
 8007394:	d84c      	bhi.n	8007430 <__udivdi3+0x158>
 8007396:	4626      	mov	r6, r4
 8007398:	2001      	movs	r0, #1
 800739a:	e04b      	b.n	8007434 <__udivdi3+0x15c>
 800739c:	b922      	cbnz	r2, 80073a8 <__udivdi3+0xd0>
 800739e:	2001      	movs	r0, #1
 80073a0:	4611      	mov	r1, r2
 80073a2:	f7fe ffe5 	bl	8006370 <__aeabi_uidiv>
 80073a6:	4604      	mov	r4, r0
 80073a8:	fab4 f384 	clz	r3, r4
 80073ac:	2b00      	cmp	r3, #0
 80073ae:	f040 80b9 	bne.w	8007524 <__udivdi3+0x24c>
 80073b2:	1b2d      	subs	r5, r5, r4
 80073b4:	ea4f 4814 	mov.w	r8, r4, lsr #16
 80073b8:	fa1f fa84 	uxth.w	sl, r4
 80073bc:	2601      	movs	r6, #1
 80073be:	4641      	mov	r1, r8
 80073c0:	4628      	mov	r0, r5
 80073c2:	f7fe ffd5 	bl	8006370 <__aeabi_uidiv>
 80073c6:	4641      	mov	r1, r8
 80073c8:	4681      	mov	r9, r0
 80073ca:	4628      	mov	r0, r5
 80073cc:	f7ff f8fe 	bl	80065cc <__aeabi_uidivmod>
 80073d0:	0c3b      	lsrs	r3, r7, #16
 80073d2:	fb0a f009 	mul.w	r0, sl, r9
 80073d6:	ea43 4101 	orr.w	r1, r3, r1, lsl #16
 80073da:	4288      	cmp	r0, r1
 80073dc:	d90b      	bls.n	80073f6 <__udivdi3+0x11e>
 80073de:	1909      	adds	r1, r1, r4
 80073e0:	f109 33ff 	add.w	r3, r9, #4294967295
 80073e4:	f080 80e9 	bcs.w	80075ba <__udivdi3+0x2e2>
 80073e8:	4288      	cmp	r0, r1
 80073ea:	bf84      	itt	hi
 80073ec:	f1a9 0902 	subhi.w	r9, r9, #2
 80073f0:	1909      	addhi	r1, r1, r4
 80073f2:	f240 80e2 	bls.w	80075ba <__udivdi3+0x2e2>
 80073f6:	ebc0 0b01 	rsb	fp, r0, r1
 80073fa:	4641      	mov	r1, r8
 80073fc:	4658      	mov	r0, fp
 80073fe:	b2bf      	uxth	r7, r7
 8007400:	f7fe ffb6 	bl	8006370 <__aeabi_uidiv>
 8007404:	4641      	mov	r1, r8
 8007406:	4605      	mov	r5, r0
 8007408:	4658      	mov	r0, fp
 800740a:	f7ff f8df 	bl	80065cc <__aeabi_uidivmod>
 800740e:	fb0a fa05 	mul.w	sl, sl, r5
 8007412:	ea47 4101 	orr.w	r1, r7, r1, lsl #16
 8007416:	458a      	cmp	sl, r1
 8007418:	d907      	bls.n	800742a <__udivdi3+0x152>
 800741a:	1e6b      	subs	r3, r5, #1
 800741c:	190c      	adds	r4, r1, r4
 800741e:	f080 80ce 	bcs.w	80075be <__udivdi3+0x2e6>
 8007422:	3d02      	subs	r5, #2
 8007424:	45a2      	cmp	sl, r4
 8007426:	f240 80ca 	bls.w	80075be <__udivdi3+0x2e6>
 800742a:	ea45 4009 	orr.w	r0, r5, r9, lsl #16
 800742e:	e001      	b.n	8007434 <__udivdi3+0x15c>
 8007430:	2600      	movs	r6, #0
 8007432:	4630      	mov	r0, r6
 8007434:	4631      	mov	r1, r6
 8007436:	b003      	add	sp, #12
 8007438:	e8bd 8ff0 	ldmia.w	sp!, {r4, r5, r6, r7, r8, r9, sl, fp, pc}
 800743c:	f1c4 0120 	rsb	r1, r4, #32
 8007440:	fa03 f304 	lsl.w	r3, r3, r4
 8007444:	fa22 f801 	lsr.w	r8, r2, r1
 8007448:	fa25 f701 	lsr.w	r7, r5, r1
 800744c:	ea48 0803 	orr.w	r8, r8, r3
 8007450:	fa20 f101 	lsr.w	r1, r0, r1
 8007454:	fa05 f504 	lsl.w	r5, r5, r4
 8007458:	4638      	mov	r0, r7
 800745a:	ea4f 4918 	mov.w	r9, r8, lsr #16
 800745e:	430d      	orrs	r5, r1
 8007460:	4649      	mov	r1, r9
 8007462:	fa02 f204 	lsl.w	r2, r2, r4
 8007466:	9201      	str	r2, [sp, #4]
 8007468:	f7fe ff82 	bl	8006370 <__aeabi_uidiv>
 800746c:	4649      	mov	r1, r9
 800746e:	4682      	mov	sl, r0
 8007470:	4638      	mov	r0, r7
 8007472:	f7ff f8ab 	bl	80065cc <__aeabi_uidivmod>
 8007476:	fa1f f288 	uxth.w	r2, r8
 800747a:	0c2f      	lsrs	r7, r5, #16
 800747c:	fb02 f00a 	mul.w	r0, r2, sl
 8007480:	ea47 4701 	orr.w	r7, r7, r1, lsl #16
 8007484:	42b8      	cmp	r0, r7
 8007486:	d906      	bls.n	8007496 <__udivdi3+0x1be>
 8007488:	eb17 0708 	adds.w	r7, r7, r8
 800748c:	f10a 31ff 	add.w	r1, sl, #4294967295
 8007490:	f0c0 809f 	bcc.w	80075d2 <__udivdi3+0x2fa>
 8007494:	468a      	mov	sl, r1
 8007496:	1a3f      	subs	r7, r7, r0
 8007498:	4649      	mov	r1, r9
 800749a:	4638      	mov	r0, r7
 800749c:	9200      	str	r2, [sp, #0]
 800749e:	f7fe ff67 	bl	8006370 <__aeabi_uidiv>
 80074a2:	4649      	mov	r1, r9
 80074a4:	b2ad      	uxth	r5, r5
 80074a6:	4683      	mov	fp, r0
 80074a8:	4638      	mov	r0, r7
 80074aa:	f7ff f88f 	bl	80065cc <__aeabi_uidivmod>
 80074ae:	9a00      	ldr	r2, [sp, #0]
 80074b0:	fb02 f70b 	mul.w	r7, r2, fp
 80074b4:	ea45 4101 	orr.w	r1, r5, r1, lsl #16
 80074b8:	428f      	cmp	r7, r1
 80074ba:	d905      	bls.n	80074c8 <__udivdi3+0x1f0>
 80074bc:	eb11 0108 	adds.w	r1, r1, r8
 80074c0:	f10b 32ff 	add.w	r2, fp, #4294967295
 80074c4:	d37d      	bcc.n	80075c2 <__udivdi3+0x2ea>
 80074c6:	4693      	mov	fp, r2
 80074c8:	9b01      	ldr	r3, [sp, #4]
 80074ca:	ea4b 400a 	orr.w	r0, fp, sl, lsl #16
 80074ce:	1bc9      	subs	r1, r1, r7
 80074d0:	ea4f 4c10 	mov.w	ip, r0, lsr #16
 80074d4:	b29d      	uxth	r5, r3
 80074d6:	ea4f 4a13 	mov.w	sl, r3, lsr #16
 80074da:	b283      	uxth	r3, r0
 80074dc:	fb05 f203 	mul.w	r2, r5, r3
 80074e0:	fb05 f50c 	mul.w	r5, r5, ip
 80074e4:	fb0a 5303 	mla	r3, sl, r3, r5
 80074e8:	fb0a fa0c 	mul.w	sl, sl, ip
 80074ec:	eb03 4312 	add.w	r3, r3, r2, lsr #16
 80074f0:	429d      	cmp	r5, r3
 80074f2:	bf88      	it	hi
 80074f4:	f50a 3a80 	addhi.w	sl, sl, #65536	; 0x10000
 80074f8:	eb0a 4a13 	add.w	sl, sl, r3, lsr #16
 80074fc:	4551      	cmp	r1, sl
 80074fe:	d30e      	bcc.n	800751e <__udivdi3+0x246>
 8007500:	b292      	uxth	r2, r2
 8007502:	bf14      	ite	ne
 8007504:	2100      	movne	r1, #0
 8007506:	2101      	moveq	r1, #1
 8007508:	fa06 f604 	lsl.w	r6, r6, r4
 800750c:	eb02 4303 	add.w	r3, r2, r3, lsl #16
 8007510:	429e      	cmp	r6, r3
 8007512:	bf2c      	ite	cs
 8007514:	2600      	movcs	r6, #0
 8007516:	f001 0601 	andcc.w	r6, r1, #1
 800751a:	2e00      	cmp	r6, #0
 800751c:	d08a      	beq.n	8007434 <__udivdi3+0x15c>
 800751e:	3801      	subs	r0, #1
 8007520:	2600      	movs	r6, #0
 8007522:	e787      	b.n	8007434 <__udivdi3+0x15c>
 8007524:	409c      	lsls	r4, r3
 8007526:	f1c3 0220 	rsb	r2, r3, #32
 800752a:	fa25 fa02 	lsr.w	sl, r5, r2
 800752e:	fa26 f902 	lsr.w	r9, r6, r2
 8007532:	ea4f 4814 	mov.w	r8, r4, lsr #16
 8007536:	4650      	mov	r0, sl
 8007538:	4641      	mov	r1, r8
 800753a:	fa05 f503 	lsl.w	r5, r5, r3
 800753e:	fa06 f703 	lsl.w	r7, r6, r3
 8007542:	f7fe ff15 	bl	8006370 <__aeabi_uidiv>
 8007546:	4641      	mov	r1, r8
 8007548:	ea49 0905 	orr.w	r9, r9, r5
 800754c:	4683      	mov	fp, r0
 800754e:	4650      	mov	r0, sl
 8007550:	f7ff f83c 	bl	80065cc <__aeabi_uidivmod>
 8007554:	fa1f fa84 	uxth.w	sl, r4
 8007558:	ea4f 4319 	mov.w	r3, r9, lsr #16
 800755c:	fb0a f00b 	mul.w	r0, sl, fp
 8007560:	ea43 4101 	orr.w	r1, r3, r1, lsl #16
 8007564:	4288      	cmp	r0, r1
 8007566:	d909      	bls.n	800757c <__udivdi3+0x2a4>
 8007568:	1909      	adds	r1, r1, r4
 800756a:	f10b 33ff 	add.w	r3, fp, #4294967295
 800756e:	d238      	bcs.n	80075e2 <__udivdi3+0x30a>
 8007570:	4288      	cmp	r0, r1
 8007572:	bf84      	itt	hi
 8007574:	f1ab 0b02 	subhi.w	fp, fp, #2
 8007578:	1909      	addhi	r1, r1, r4
 800757a:	d932      	bls.n	80075e2 <__udivdi3+0x30a>
 800757c:	1a0d      	subs	r5, r1, r0
 800757e:	4641      	mov	r1, r8
 8007580:	4628      	mov	r0, r5
 8007582:	fa1f f989 	uxth.w	r9, r9
 8007586:	f7fe fef3 	bl	8006370 <__aeabi_uidiv>
 800758a:	4641      	mov	r1, r8
 800758c:	4606      	mov	r6, r0
 800758e:	4628      	mov	r0, r5
 8007590:	f7ff f81c 	bl	80065cc <__aeabi_uidivmod>
 8007594:	fb0a f506 	mul.w	r5, sl, r6
 8007598:	ea49 4101 	orr.w	r1, r9, r1, lsl #16
 800759c:	428d      	cmp	r5, r1
 800759e:	d906      	bls.n	80075ae <__udivdi3+0x2d6>
 80075a0:	1e73      	subs	r3, r6, #1
 80075a2:	1909      	adds	r1, r1, r4
 80075a4:	d21f      	bcs.n	80075e6 <__udivdi3+0x30e>
 80075a6:	428d      	cmp	r5, r1
 80075a8:	d91d      	bls.n	80075e6 <__udivdi3+0x30e>
 80075aa:	3e02      	subs	r6, #2
 80075ac:	1909      	adds	r1, r1, r4
 80075ae:	1b4d      	subs	r5, r1, r5
 80075b0:	ea46 460b 	orr.w	r6, r6, fp, lsl #16
 80075b4:	e703      	b.n	80073be <__udivdi3+0xe6>
 80075b6:	461e      	mov	r6, r3
 80075b8:	e6df      	b.n	800737a <__udivdi3+0xa2>
 80075ba:	4699      	mov	r9, r3
 80075bc:	e71b      	b.n	80073f6 <__udivdi3+0x11e>
 80075be:	461d      	mov	r5, r3
 80075c0:	e733      	b.n	800742a <__udivdi3+0x152>
 80075c2:	428f      	cmp	r7, r1
 80075c4:	bf84      	itt	hi
 80075c6:	f1ab 0b02 	subhi.w	fp, fp, #2
 80075ca:	4441      	addhi	r1, r8
 80075cc:	f63f af7c 	bhi.w	80074c8 <__udivdi3+0x1f0>
 80075d0:	e779      	b.n	80074c6 <__udivdi3+0x1ee>
 80075d2:	42b8      	cmp	r0, r7
 80075d4:	bf84      	itt	hi
 80075d6:	f1aa 0a02 	subhi.w	sl, sl, #2
 80075da:	4447      	addhi	r7, r8
 80075dc:	f63f af5b 	bhi.w	8007496 <__udivdi3+0x1be>
 80075e0:	e758      	b.n	8007494 <__udivdi3+0x1bc>
 80075e2:	469b      	mov	fp, r3
 80075e4:	e7ca      	b.n	800757c <__udivdi3+0x2a4>
 80075e6:	461e      	mov	r6, r3
 80075e8:	e7e1      	b.n	80075ae <__udivdi3+0x2d6>
 80075ea:	bf00      	nop

080075ec <delay>:
/** @addtogroup GPIO_IOToggle
 * @{
 */

void delay(vu32 i)
{
 80075ec:	b480      	push	{r7}
 80075ee:	b083      	sub	sp, #12
 80075f0:	af00      	add	r7, sp, #0
 80075f2:	6078      	str	r0, [r7, #4]
	while (i--)
 80075f4:	bf00      	nop
 80075f6:	687b      	ldr	r3, [r7, #4]
 80075f8:	2b00      	cmp	r3, #0
 80075fa:	bf0c      	ite	eq
 80075fc:	2200      	moveq	r2, #0
 80075fe:	2201      	movne	r2, #1
 8007600:	b2d2      	uxtb	r2, r2
 8007602:	f103 33ff 	add.w	r3, r3, #4294967295
 8007606:	607b      	str	r3, [r7, #4]
 8007608:	2a00      	cmp	r2, #0
 800760a:	d1f4      	bne.n	80075f6 <delay+0xa>
		;
}
 800760c:	f107 070c 	add.w	r7, r7, #12
 8007610:	46bd      	mov	sp, r7
 8007612:	bc80      	pop	{r7}
 8007614:	4770      	bx	lr
 8007616:	bf00      	nop

08007618 <packageUsart1>:

//1
void packageUsart1()
{
 8007618:	b580      	push	{r7, lr}
 800761a:	b086      	sub	sp, #24
 800761c:	af00      	add	r7, sp, #0
	RCC_APB2PeriphClockCmd(RCC_APB2Periph_USART1 | RCC_APB2Periph_AFIO, ENABLE);
 800761e:	f244 0001 	movw	r0, #16385	; 0x4001
 8007622:	f04f 0101 	mov.w	r1, #1
 8007626:	f000 fbbd 	bl	8007da4 <RCC_APB2PeriphClockCmd>

	/***************************************************/
	GPIO_InitTypeDef GPIO_InitStruct;
	GPIO_StructInit(&GPIO_InitStruct);
 800762a:	f107 0314 	add.w	r3, r7, #20
 800762e:	4618      	mov	r0, r3
 8007630:	f000 fac8 	bl	8007bc4 <GPIO_StructInit>

	// Initialize USART1_Tx 
	GPIO_InitStruct.GPIO_Pin = GPIO_Pin_9 ;
 8007634:	f44f 7300 	mov.w	r3, #512	; 0x200
 8007638:	82bb      	strh	r3, [r7, #20]
	GPIO_InitStruct.GPIO_Speed = GPIO_Speed_50MHz;
 800763a:	f04f 0303 	mov.w	r3, #3
 800763e:	75bb      	strb	r3, [r7, #22]
	GPIO_InitStruct.GPIO_Mode = GPIO_Mode_AF_PP;
 8007640:	f04f 0318 	mov.w	r3, #24
 8007644:	75fb      	strb	r3, [r7, #23]
	GPIO_Init(GPIOA, &GPIO_InitStruct);
 8007646:	f107 0314 	add.w	r3, r7, #20
 800764a:	4815      	ldr	r0, [pc, #84]	; (80076a0 <packageUsart1+0x88>)
 800764c:	4619      	mov	r1, r3
 800764e:	f000 f9e1 	bl	8007a14 <GPIO_Init>

	// Initialize USART1_RX 
	GPIO_InitStruct.GPIO_Pin = GPIO_Pin_10 ;
 8007652:	f44f 6380 	mov.w	r3, #1024	; 0x400
 8007656:	82bb      	strh	r3, [r7, #20]
	GPIO_InitStruct.GPIO_Mode = GPIO_Mode_IN_FLOATING;
 8007658:	f04f 0304 	mov.w	r3, #4
 800765c:	75fb      	strb	r3, [r7, #23]
	GPIO_Init(GPIOA, &GPIO_InitStruct);
 800765e:	f107 0314 	add.w	r3, r7, #20
 8007662:	480f      	ldr	r0, [pc, #60]	; (80076a0 <packageUsart1+0x88>)
 8007664:	4619      	mov	r1, r3
 8007666:	f000 f9d5 	bl	8007a14 <GPIO_Init>
	/***************************************************/

	/**************************************************/
	USART_InitTypeDef USART_InitStructure;
	// Initialize USART structure
	USART_StructInit(&USART_InitStructure);
 800766a:	f107 0304 	add.w	r3, r7, #4
 800766e:	4618      	mov	r0, r3
 8007670:	f000 fc86 	bl	8007f80 <USART_StructInit>
	// Modify USART_InitStructure for non - default values , e.g.
	// USART_InitStructure . USART_BaudRate = 38400;
	USART_InitStructure.USART_BaudRate = 9600;
 8007674:	f44f 5316 	mov.w	r3, #9600	; 0x2580
 8007678:	607b      	str	r3, [r7, #4]
	USART_InitStructure.USART_Mode = USART_Mode_Rx | USART_Mode_Tx;
 800767a:	f04f 030c 	mov.w	r3, #12
 800767e:	81fb      	strh	r3, [r7, #14]

	USART_Init(USART1, &USART_InitStructure);	//
 8007680:	f107 0304 	add.w	r3, r7, #4
 8007684:	4807      	ldr	r0, [pc, #28]	; (80076a4 <packageUsart1+0x8c>)
 8007686:	4619      	mov	r1, r3
 8007688:	f000 fbac 	bl	8007de4 <USART_Init>
	USART_Cmd(USART1, ENABLE);	//USART
 800768c:	4805      	ldr	r0, [pc, #20]	; (80076a4 <packageUsart1+0x8c>)
 800768e:	f04f 0101 	mov.w	r1, #1
 8007692:	f000 fc97 	bl	8007fc4 <USART_Cmd>
	/**************************************************/
}
 8007696:	f107 0718 	add.w	r7, r7, #24
 800769a:	46bd      	mov	sp, r7
 800769c:	bd80      	pop	{r7, pc}
 800769e:	bf00      	nop
 80076a0:	40010800 	.word	0x40010800
 80076a4:	40013800 	.word	0x40013800

080076a8 <main>:
 * @brief  Main program.
 * @param  None
 * @retval None
 */
int main(void)
{
 80076a8:	b580      	push	{r7, lr}
 80076aa:	b082      	sub	sp, #8
 80076ac:	af00      	add	r7, sp, #0
	 file (startup_stm32f10x_xx.s) before to branch to application main.
	 To reconfigure the default setting of SystemInit() function, refer to
	 system_stm32f10x.c file
	 */

	packageUsart1();
 80076ae:	f7ff ffb3 	bl	8007618 <packageUsart1>

	/* GPIOD Periph clock enable */
	RCC_APB2PeriphClockCmd(RCC_APB2Periph_GPIOA | RCC_APB2Periph_GPIOB, ENABLE);
 80076b2:	f04f 000c 	mov.w	r0, #12
 80076b6:	f04f 0101 	mov.w	r1, #1
 80076ba:	f000 fb73 	bl	8007da4 <RCC_APB2PeriphClockCmd>

	/* Configure PB0/1/10/11/12 in output pushpull mode */
	GPIO_InitStructure.GPIO_Pin = GPIO_Pin_0 | GPIO_Pin_1 | GPIO_Pin_8 | GPIO_Pin_9 | GPIO_Pin_10 | GPIO_Pin_11 | GPIO_Pin_12;
 80076be:	4b5a      	ldr	r3, [pc, #360]	; (8007828 <main+0x180>)
 80076c0:	f641 7203 	movw	r2, #7939	; 0x1f03
 80076c4:	801a      	strh	r2, [r3, #0]
	GPIO_InitStructure.GPIO_Speed = GPIO_Speed_50MHz;
 80076c6:	4b58      	ldr	r3, [pc, #352]	; (8007828 <main+0x180>)
 80076c8:	f04f 0203 	mov.w	r2, #3
 80076cc:	709a      	strb	r2, [r3, #2]
	GPIO_InitStructure.GPIO_Mode = GPIO_Mode_Out_PP;
 80076ce:	4b56      	ldr	r3, [pc, #344]	; (8007828 <main+0x180>)
 80076d0:	f04f 0210 	mov.w	r2, #16
 80076d4:	70da      	strb	r2, [r3, #3]
	GPIO_Init(GPIOB, &GPIO_InitStructure);
 80076d6:	4855      	ldr	r0, [pc, #340]	; (800782c <main+0x184>)
 80076d8:	4953      	ldr	r1, [pc, #332]	; (8007828 <main+0x180>)
 80076da:	f000 f99b 	bl	8007a14 <GPIO_Init>
	/* To achieve GPIO toggling maximum frequency, the following  sequence is mandatory.
	 You can monitor PD0 or PD2 on the scope to measure the output signal.
	 If you need to fine tune this frequency, you can add more GPIO set/reset
	 cycles to minimize more the infinite loop timing.
	 This code needs to be compiled with high speed optimization option.  */
	setvbuf(stdin, NULL, _IONBF, 0);
 80076de:	4b54      	ldr	r3, [pc, #336]	; (8007830 <main+0x188>)
 80076e0:	681b      	ldr	r3, [r3, #0]
 80076e2:	685b      	ldr	r3, [r3, #4]
 80076e4:	4618      	mov	r0, r3
 80076e6:	f04f 0100 	mov.w	r1, #0
 80076ea:	f04f 0202 	mov.w	r2, #2
 80076ee:	f04f 0300 	mov.w	r3, #0
 80076f2:	f7f8 fdcf 	bl	8000294 <setvbuf>
	setvbuf(stdout, NULL, _IONBF, 0);
 80076f6:	4b4e      	ldr	r3, [pc, #312]	; (8007830 <main+0x188>)
 80076f8:	681b      	ldr	r3, [r3, #0]
 80076fa:	689b      	ldr	r3, [r3, #8]
 80076fc:	4618      	mov	r0, r3
 80076fe:	f04f 0100 	mov.w	r1, #0
 8007702:	f04f 0202 	mov.w	r2, #2
 8007706:	f04f 0300 	mov.w	r3, #0
 800770a:	f7f8 fdc3 	bl	8000294 <setvbuf>
	setvbuf(stderr, NULL, _IONBF, 0);
 800770e:	4b48      	ldr	r3, [pc, #288]	; (8007830 <main+0x188>)
 8007710:	681b      	ldr	r3, [r3, #0]
 8007712:	68db      	ldr	r3, [r3, #12]
 8007714:	4618      	mov	r0, r3
 8007716:	f04f 0100 	mov.w	r1, #0
 800771a:	f04f 0202 	mov.w	r2, #2
 800771e:	f04f 0300 	mov.w	r3, #0
 8007722:	f7f8 fdb7 	bl	8000294 <setvbuf>
	int i = 0;
 8007726:	f04f 0300 	mov.w	r3, #0
 800772a:	607b      	str	r3, [r7, #4]
	while (1)
	{
		/* Set PD0 and PD2 */
		GPIO_ResetBits(GPIOB, GPIO_Pin_0 );
 800772c:	483f      	ldr	r0, [pc, #252]	; (800782c <main+0x184>)
 800772e:	f04f 0101 	mov.w	r1, #1
 8007732:	f000 fa6b 	bl	8007c0c <GPIO_ResetBits>
		delay(0xffff);
 8007736:	f64f 70ff 	movw	r0, #65535	; 0xffff
 800773a:	f7ff ff57 	bl	80075ec <delay>
		GPIO_SetBits(GPIOB, GPIO_Pin_0 );
 800773e:	483b      	ldr	r0, [pc, #236]	; (800782c <main+0x184>)
 8007740:	f04f 0101 	mov.w	r1, #1
 8007744:	f000 fa54 	bl	8007bf0 <GPIO_SetBits>
		delay(0xffff);
 8007748:	f64f 70ff 	movw	r0, #65535	; 0xffff
 800774c:	f7ff ff4e 	bl	80075ec <delay>
		GPIO_ResetBits(GPIOB, GPIO_Pin_1 );
 8007750:	4836      	ldr	r0, [pc, #216]	; (800782c <main+0x184>)
 8007752:	f04f 0102 	mov.w	r1, #2
 8007756:	f000 fa59 	bl	8007c0c <GPIO_ResetBits>

		delay(0xffff);
 800775a:	f64f 70ff 	movw	r0, #65535	; 0xffff
 800775e:	f7ff ff45 	bl	80075ec <delay>
		GPIO_SetBits(GPIOB, GPIO_Pin_1 );
 8007762:	4832      	ldr	r0, [pc, #200]	; (800782c <main+0x184>)
 8007764:	f04f 0102 	mov.w	r1, #2
 8007768:	f000 fa42 	bl	8007bf0 <GPIO_SetBits>
		delay(0xffff);
 800776c:	f64f 70ff 	movw	r0, #65535	; 0xffff
 8007770:	f7ff ff3c 	bl	80075ec <delay>

		GPIO_ResetBits(GPIOB, GPIO_Pin_10 );
 8007774:	482d      	ldr	r0, [pc, #180]	; (800782c <main+0x184>)
 8007776:	f44f 6180 	mov.w	r1, #1024	; 0x400
 800777a:	f000 fa47 	bl	8007c0c <GPIO_ResetBits>
		delay(0xffff);
 800777e:	f64f 70ff 	movw	r0, #65535	; 0xffff
 8007782:	f7ff ff33 	bl	80075ec <delay>
		GPIO_SetBits(GPIOB, GPIO_Pin_10 );
 8007786:	4829      	ldr	r0, [pc, #164]	; (800782c <main+0x184>)
 8007788:	f44f 6180 	mov.w	r1, #1024	; 0x400
 800778c:	f000 fa30 	bl	8007bf0 <GPIO_SetBits>
		delay(0xffff);
 8007790:	f64f 70ff 	movw	r0, #65535	; 0xffff
 8007794:	f7ff ff2a 	bl	80075ec <delay>

		GPIO_ResetBits(GPIOB, GPIO_Pin_11 );
 8007798:	4824      	ldr	r0, [pc, #144]	; (800782c <main+0x184>)
 800779a:	f44f 6100 	mov.w	r1, #2048	; 0x800
 800779e:	f000 fa35 	bl	8007c0c <GPIO_ResetBits>
		delay(0xffff);
 80077a2:	f64f 70ff 	movw	r0, #65535	; 0xffff
 80077a6:	f7ff ff21 	bl	80075ec <delay>
		GPIO_SetBits(GPIOB, GPIO_Pin_11 );
 80077aa:	4820      	ldr	r0, [pc, #128]	; (800782c <main+0x184>)
 80077ac:	f44f 6100 	mov.w	r1, #2048	; 0x800
 80077b0:	f000 fa1e 	bl	8007bf0 <GPIO_SetBits>
		delay(0xffff);
 80077b4:	f64f 70ff 	movw	r0, #65535	; 0xffff
 80077b8:	f7ff ff18 	bl	80075ec <delay>

		GPIO_ResetBits(GPIOB, GPIO_Pin_12 );
 80077bc:	481b      	ldr	r0, [pc, #108]	; (800782c <main+0x184>)
 80077be:	f44f 5180 	mov.w	r1, #4096	; 0x1000
 80077c2:	f000 fa23 	bl	8007c0c <GPIO_ResetBits>
		delay(0xffff);
 80077c6:	f64f 70ff 	movw	r0, #65535	; 0xffff
 80077ca:	f7ff ff0f 	bl	80075ec <delay>
		GPIO_SetBits(GPIOB, GPIO_Pin_12 );
 80077ce:	4817      	ldr	r0, [pc, #92]	; (800782c <main+0x184>)
 80077d0:	f44f 5180 	mov.w	r1, #4096	; 0x1000
 80077d4:	f000 fa0c 	bl	8007bf0 <GPIO_SetBits>
		delay(0xffff);
 80077d8:	f64f 70ff 	movw	r0, #65535	; 0xffff
 80077dc:	f7ff ff06 	bl	80075ec <delay>

		while (USART_GetFlagStatus(USART1, USART_FLAG_TXE ) == RESET)
 80077e0:	bf00      	nop
 80077e2:	4814      	ldr	r0, [pc, #80]	; (8007834 <main+0x18c>)
 80077e4:	f04f 0180 	mov.w	r1, #128	; 0x80
 80077e8:	f000 fc0c 	bl	8008004 <USART_GetFlagStatus>
 80077ec:	4603      	mov	r3, r0
 80077ee:	2b00      	cmp	r3, #0
 80077f0:	d0f7      	beq.n	80077e2 <main+0x13a>
			;
		USART1 ->DR = 'a';
 80077f2:	4b10      	ldr	r3, [pc, #64]	; (8007834 <main+0x18c>)
 80077f4:	f04f 0261 	mov.w	r2, #97	; 0x61
 80077f8:	809a      	strh	r2, [r3, #4]

		while (USART_GetFlagStatus(USART1, USART_FLAG_TXE ) == RESET)
 80077fa:	bf00      	nop
 80077fc:	480d      	ldr	r0, [pc, #52]	; (8007834 <main+0x18c>)
 80077fe:	f04f 0180 	mov.w	r1, #128	; 0x80
 8007802:	f000 fbff 	bl	8008004 <USART_GetFlagStatus>
 8007806:	4603      	mov	r3, r0
 8007808:	2b00      	cmp	r3, #0
 800780a:	d0f7      	beq.n	80077fc <main+0x154>
			;
		USART1 ->DR = 'b';
 800780c:	4b09      	ldr	r3, [pc, #36]	; (8007834 <main+0x18c>)
 800780e:	f04f 0262 	mov.w	r2, #98	; 0x62
 8007812:	809a      	strh	r2, [r3, #4]

		printf("OK-->%d\n\r", i++);
 8007814:	687b      	ldr	r3, [r7, #4]
 8007816:	687a      	ldr	r2, [r7, #4]
 8007818:	f102 0201 	add.w	r2, r2, #1
 800781c:	607a      	str	r2, [r7, #4]
 800781e:	4806      	ldr	r0, [pc, #24]	; (8007838 <main+0x190>)
 8007820:	4619      	mov	r1, r3
 8007822:	f7f8 fd1b 	bl	800025c <printf>
		///////////////////////////

	}
 8007826:	e781      	b.n	800772c <main+0x84>
 8007828:	200005ec 	.word	0x200005ec
 800782c:	40010c00 	.word	0x40010c00
 8007830:	20000000 	.word	0x20000000
 8007834:	40013800 	.word	0x40013800
 8007838:	080082e4 	.word	0x080082e4

0800783c <NMI_Handler>:
  * @brief  This function handles NMI exception.
  * @param  None
  * @retval None
  */
void NMI_Handler(void)
{
 800783c:	b480      	push	{r7}
 800783e:	af00      	add	r7, sp, #0
}
 8007840:	46bd      	mov	sp, r7
 8007842:	bc80      	pop	{r7}
 8007844:	4770      	bx	lr
 8007846:	bf00      	nop

08007848 <HardFault_Handler>:
  * @brief  This function handles Hard Fault exception.
  * @param  None
  * @retval None
  */
void HardFault_Handler(void)
{
 8007848:	b480      	push	{r7}
 800784a:	af00      	add	r7, sp, #0
  /* Go to infinite loop when Hard Fault exception occurs */
  while (1)
  {
  }
 800784c:	e7fe      	b.n	800784c <HardFault_Handler+0x4>
 800784e:	bf00      	nop

08007850 <MemManage_Handler>:
  * @brief  This function handles Memory Manage exception.
  * @param  None
  * @retval None
  */
void MemManage_Handler(void)
{
 8007850:	b480      	push	{r7}
 8007852:	af00      	add	r7, sp, #0
  /* Go to infinite loop when Memory Manage exception occurs */
  while (1)
  {
  }
 8007854:	e7fe      	b.n	8007854 <MemManage_Handler+0x4>
 8007856:	bf00      	nop

08007858 <BusFault_Handler>:
  * @brief  This function handles Bus Fault exception.
  * @param  None
  * @retval None
  */
void BusFault_Handler(void)
{
 8007858:	b480      	push	{r7}
 800785a:	af00      	add	r7, sp, #0
  /* Go to infinite loop when Bus Fault exception occurs */
  while (1)
  {
  }
 800785c:	e7fe      	b.n	800785c <BusFault_Handler+0x4>
 800785e:	bf00      	nop

08007860 <UsageFault_Handler>:
  * @brief  This function handles Usage Fault exception.
  * @param  None
  * @retval None
  */
void UsageFault_Handler(void)
{
 8007860:	b480      	push	{r7}
 8007862:	af00      	add	r7, sp, #0
  /* Go to infinite loop when Usage Fault exception occurs */
  while (1)
  {
  }
 8007864:	e7fe      	b.n	8007864 <UsageFault_Handler+0x4>
 8007866:	bf00      	nop

08007868 <SVC_Handler>:
  * @brief  This function handles SVCall exception.
  * @param  None
  * @retval None
  */
void SVC_Handler(void)
{
 8007868:	b480      	push	{r7}
 800786a:	af00      	add	r7, sp, #0
}
 800786c:	46bd      	mov	sp, r7
 800786e:	bc80      	pop	{r7}
 8007870:	4770      	bx	lr
 8007872:	bf00      	nop

08007874 <DebugMon_Handler>:
  * @brief  This function handles Debug Monitor exception.
  * @param  None
  * @retval None
  */
void DebugMon_Handler(void)
{
 8007874:	b480      	push	{r7}
 8007876:	af00      	add	r7, sp, #0
}
 8007878:	46bd      	mov	sp, r7
 800787a:	bc80      	pop	{r7}
 800787c:	4770      	bx	lr
 800787e:	bf00      	nop

08007880 <PendSV_Handler>:
  * @brief  This function handles PendSV_Handler exception.
  * @param  None
  * @retval None
  */
void PendSV_Handler(void)
{
 8007880:	b480      	push	{r7}
 8007882:	af00      	add	r7, sp, #0
}
 8007884:	46bd      	mov	sp, r7
 8007886:	bc80      	pop	{r7}
 8007888:	4770      	bx	lr
 800788a:	bf00      	nop

0800788c <SysTick_Handler>:
  * @brief  This function handles SysTick Handler.
  * @param  None
  * @retval None
  */
void SysTick_Handler(void)
{
 800788c:	b480      	push	{r7}
 800788e:	af00      	add	r7, sp, #0
}
 8007890:	46bd      	mov	sp, r7
 8007892:	bc80      	pop	{r7}
 8007894:	4770      	bx	lr
 8007896:	bf00      	nop

08007898 <SystemInit>:
  * @note   This function should be used only after reset.
  * @param  None
  * @retval None
  */
void SystemInit (void)
{
 8007898:	b580      	push	{r7, lr}
 800789a:	af00      	add	r7, sp, #0
  /* Reset the RCC clock configuration to the default reset state(for debug purpose) */
  /* Set HSION bit */
  RCC->CR |= (uint32_t)0x00000001;
 800789c:	4b15      	ldr	r3, [pc, #84]	; (80078f4 <SystemInit+0x5c>)
 800789e:	4a15      	ldr	r2, [pc, #84]	; (80078f4 <SystemInit+0x5c>)
 80078a0:	6812      	ldr	r2, [r2, #0]
 80078a2:	f042 0201 	orr.w	r2, r2, #1
 80078a6:	601a      	str	r2, [r3, #0]

  /* Reset SW, HPRE, PPRE1, PPRE2, ADCPRE and MCO bits */
#ifndef STM32F10X_CL
  RCC->CFGR &= (uint32_t)0xF8FF0000;
 80078a8:	4a12      	ldr	r2, [pc, #72]	; (80078f4 <SystemInit+0x5c>)
 80078aa:	4b12      	ldr	r3, [pc, #72]	; (80078f4 <SystemInit+0x5c>)
 80078ac:	6859      	ldr	r1, [r3, #4]
 80078ae:	4b12      	ldr	r3, [pc, #72]	; (80078f8 <SystemInit+0x60>)
 80078b0:	400b      	ands	r3, r1
 80078b2:	6053      	str	r3, [r2, #4]
#else
  RCC->CFGR &= (uint32_t)0xF0FF0000;
#endif /* STM32F10X_CL */   
  
  /* Reset HSEON, CSSON and PLLON bits */
  RCC->CR &= (uint32_t)0xFEF6FFFF;
 80078b4:	4a0f      	ldr	r2, [pc, #60]	; (80078f4 <SystemInit+0x5c>)
 80078b6:	4b0f      	ldr	r3, [pc, #60]	; (80078f4 <SystemInit+0x5c>)
 80078b8:	681b      	ldr	r3, [r3, #0]
 80078ba:	f023 7384 	bic.w	r3, r3, #17301504	; 0x1080000
 80078be:	f423 3380 	bic.w	r3, r3, #65536	; 0x10000
 80078c2:	6013      	str	r3, [r2, #0]

  /* Reset HSEBYP bit */
  RCC->CR &= (uint32_t)0xFFFBFFFF;
 80078c4:	4b0b      	ldr	r3, [pc, #44]	; (80078f4 <SystemInit+0x5c>)
 80078c6:	4a0b      	ldr	r2, [pc, #44]	; (80078f4 <SystemInit+0x5c>)
 80078c8:	6812      	ldr	r2, [r2, #0]
 80078ca:	f422 2280 	bic.w	r2, r2, #262144	; 0x40000
 80078ce:	601a      	str	r2, [r3, #0]

  /* Reset PLLSRC, PLLXTPRE, PLLMUL and USBPRE/OTGFSPRE bits */
  RCC->CFGR &= (uint32_t)0xFF80FFFF;
 80078d0:	4b08      	ldr	r3, [pc, #32]	; (80078f4 <SystemInit+0x5c>)
 80078d2:	4a08      	ldr	r2, [pc, #32]	; (80078f4 <SystemInit+0x5c>)
 80078d4:	6852      	ldr	r2, [r2, #4]
 80078d6:	f422 02fe 	bic.w	r2, r2, #8323072	; 0x7f0000
 80078da:	605a      	str	r2, [r3, #4]

  /* Reset CFGR2 register */
  RCC->CFGR2 = 0x00000000;      
#else
  /* Disable all interrupts and clear pending bits  */
  RCC->CIR = 0x009F0000;
 80078dc:	4b05      	ldr	r3, [pc, #20]	; (80078f4 <SystemInit+0x5c>)
 80078de:	f44f 021f 	mov.w	r2, #10420224	; 0x9f0000
 80078e2:	609a      	str	r2, [r3, #8]
  #endif /* DATA_IN_ExtSRAM */
#endif 

  /* Configure the System clock frequency, HCLK, PCLK2 and PCLK1 prescalers */
  /* Configure the Flash Latency cycles and enable prefetch buffer */
  SetSysClock();
 80078e4:	f000 f80c 	bl	8007900 <SetSysClock>

#ifdef VECT_TAB_SRAM
  SCB->VTOR = SRAM_BASE | VECT_TAB_OFFSET; /* Vector Table Relocation in Internal SRAM. */
#else
  SCB->VTOR = FLASH_BASE | VECT_TAB_OFFSET; /* Vector Table Relocation in Internal FLASH. */
 80078e8:	4b04      	ldr	r3, [pc, #16]	; (80078fc <SystemInit+0x64>)
 80078ea:	f04f 6200 	mov.w	r2, #134217728	; 0x8000000
 80078ee:	609a      	str	r2, [r3, #8]
#endif 
}
 80078f0:	bd80      	pop	{r7, pc}
 80078f2:	bf00      	nop
 80078f4:	40021000 	.word	0x40021000
 80078f8:	f8ff0000 	.word	0xf8ff0000
 80078fc:	e000ed00 	.word	0xe000ed00

08007900 <SetSysClock>:
  * @brief  Configures the System clock frequency, HCLK, PCLK2 and PCLK1 prescalers.
  * @param  None
  * @retval None
  */
static void SetSysClock(void)
{
 8007900:	b580      	push	{r7, lr}
 8007902:	af00      	add	r7, sp, #0
#elif defined SYSCLK_FREQ_48MHz
  SetSysClockTo48();
#elif defined SYSCLK_FREQ_56MHz
  SetSysClockTo56();  
#elif defined SYSCLK_FREQ_72MHz
  SetSysClockTo72();
 8007904:	f000 f802 	bl	800790c <SetSysClockTo72>
#endif
 
 /* If none of the define above is enabled, the HSI is used as System clock
    source (default after reset) */ 
}
 8007908:	bd80      	pop	{r7, pc}
 800790a:	bf00      	nop

0800790c <SetSysClockTo72>:
  * @note   This function should be used only after reset.
  * @param  None
  * @retval None
  */
static void SetSysClockTo72(void)
{
 800790c:	b480      	push	{r7}
 800790e:	b083      	sub	sp, #12
 8007910:	af00      	add	r7, sp, #0
  __IO uint32_t StartUpCounter = 0, HSEStatus = 0;
 8007912:	f04f 0300 	mov.w	r3, #0
 8007916:	607b      	str	r3, [r7, #4]
 8007918:	f04f 0300 	mov.w	r3, #0
 800791c:	603b      	str	r3, [r7, #0]
  
  /* SYSCLK, HCLK, PCLK2 and PCLK1 configuration ---------------------------*/    
  /* Enable HSE */    
  RCC->CR |= ((uint32_t)RCC_CR_HSEON);
 800791e:	4b3b      	ldr	r3, [pc, #236]	; (8007a0c <SetSysClockTo72+0x100>)
 8007920:	4a3a      	ldr	r2, [pc, #232]	; (8007a0c <SetSysClockTo72+0x100>)
 8007922:	6812      	ldr	r2, [r2, #0]
 8007924:	f442 3280 	orr.w	r2, r2, #65536	; 0x10000
 8007928:	601a      	str	r2, [r3, #0]
 
  /* Wait till HSE is ready and if Time out is reached exit */
  do
  {
    HSEStatus = RCC->CR & RCC_CR_HSERDY;
 800792a:	4b38      	ldr	r3, [pc, #224]	; (8007a0c <SetSysClockTo72+0x100>)
 800792c:	681b      	ldr	r3, [r3, #0]
 800792e:	f403 3300 	and.w	r3, r3, #131072	; 0x20000
 8007932:	603b      	str	r3, [r7, #0]
    StartUpCounter++;  
 8007934:	687b      	ldr	r3, [r7, #4]
 8007936:	f103 0301 	add.w	r3, r3, #1
 800793a:	607b      	str	r3, [r7, #4]
  } while((HSEStatus == 0) && (StartUpCounter != HSE_STARTUP_TIMEOUT));
 800793c:	683b      	ldr	r3, [r7, #0]
 800793e:	2b00      	cmp	r3, #0
 8007940:	d103      	bne.n	800794a <SetSysClockTo72+0x3e>
 8007942:	687b      	ldr	r3, [r7, #4]
 8007944:	f5b3 6fa0 	cmp.w	r3, #1280	; 0x500
 8007948:	d1ef      	bne.n	800792a <SetSysClockTo72+0x1e>

  if ((RCC->CR & RCC_CR_HSERDY) != RESET)
 800794a:	4b30      	ldr	r3, [pc, #192]	; (8007a0c <SetSysClockTo72+0x100>)
 800794c:	681b      	ldr	r3, [r3, #0]
 800794e:	f403 3300 	and.w	r3, r3, #131072	; 0x20000
 8007952:	2b00      	cmp	r3, #0
 8007954:	d003      	beq.n	800795e <SetSysClockTo72+0x52>
  {
    HSEStatus = (uint32_t)0x01;
 8007956:	f04f 0301 	mov.w	r3, #1
 800795a:	603b      	str	r3, [r7, #0]
 800795c:	e002      	b.n	8007964 <SetSysClockTo72+0x58>
  }
  else
  {
    HSEStatus = (uint32_t)0x00;
 800795e:	f04f 0300 	mov.w	r3, #0
 8007962:	603b      	str	r3, [r7, #0]
  }  

  if (HSEStatus == (uint32_t)0x01)
 8007964:	683b      	ldr	r3, [r7, #0]
 8007966:	2b01      	cmp	r3, #1
 8007968:	d14b      	bne.n	8007a02 <SetSysClockTo72+0xf6>
  {
    /* Enable Prefetch Buffer */
    FLASH->ACR |= FLASH_ACR_PRFTBE;
 800796a:	4b29      	ldr	r3, [pc, #164]	; (8007a10 <SetSysClockTo72+0x104>)
 800796c:	4a28      	ldr	r2, [pc, #160]	; (8007a10 <SetSysClockTo72+0x104>)
 800796e:	6812      	ldr	r2, [r2, #0]
 8007970:	f042 0210 	orr.w	r2, r2, #16
 8007974:	601a      	str	r2, [r3, #0]

    /* Flash 2 wait state */
    FLASH->ACR &= (uint32_t)((uint32_t)~FLASH_ACR_LATENCY);
 8007976:	4b26      	ldr	r3, [pc, #152]	; (8007a10 <SetSysClockTo72+0x104>)
 8007978:	4a25      	ldr	r2, [pc, #148]	; (8007a10 <SetSysClockTo72+0x104>)
 800797a:	6812      	ldr	r2, [r2, #0]
 800797c:	f022 0203 	bic.w	r2, r2, #3
 8007980:	601a      	str	r2, [r3, #0]
    FLASH->ACR |= (uint32_t)FLASH_ACR_LATENCY_2;    
 8007982:	4b23      	ldr	r3, [pc, #140]	; (8007a10 <SetSysClockTo72+0x104>)
 8007984:	4a22      	ldr	r2, [pc, #136]	; (8007a10 <SetSysClockTo72+0x104>)
 8007986:	6812      	ldr	r2, [r2, #0]
 8007988:	f042 0202 	orr.w	r2, r2, #2
 800798c:	601a      	str	r2, [r3, #0]

 
    /* HCLK = SYSCLK */
    RCC->CFGR |= (uint32_t)RCC_CFGR_HPRE_DIV1;
 800798e:	4b1f      	ldr	r3, [pc, #124]	; (8007a0c <SetSysClockTo72+0x100>)
 8007990:	4a1e      	ldr	r2, [pc, #120]	; (8007a0c <SetSysClockTo72+0x100>)
 8007992:	6852      	ldr	r2, [r2, #4]
 8007994:	605a      	str	r2, [r3, #4]
      
    /* PCLK2 = HCLK */
    RCC->CFGR |= (uint32_t)RCC_CFGR_PPRE2_DIV1;
 8007996:	4b1d      	ldr	r3, [pc, #116]	; (8007a0c <SetSysClockTo72+0x100>)
 8007998:	4a1c      	ldr	r2, [pc, #112]	; (8007a0c <SetSysClockTo72+0x100>)
 800799a:	6852      	ldr	r2, [r2, #4]
 800799c:	605a      	str	r2, [r3, #4]
    
    /* PCLK1 = HCLK */
    RCC->CFGR |= (uint32_t)RCC_CFGR_PPRE1_DIV2;
 800799e:	4b1b      	ldr	r3, [pc, #108]	; (8007a0c <SetSysClockTo72+0x100>)
 80079a0:	4a1a      	ldr	r2, [pc, #104]	; (8007a0c <SetSysClockTo72+0x100>)
 80079a2:	6852      	ldr	r2, [r2, #4]
 80079a4:	f442 6280 	orr.w	r2, r2, #1024	; 0x400
 80079a8:	605a      	str	r2, [r3, #4]
    RCC->CFGR &= (uint32_t)~(RCC_CFGR_PLLXTPRE | RCC_CFGR_PLLSRC | RCC_CFGR_PLLMULL);
    RCC->CFGR |= (uint32_t)(RCC_CFGR_PLLXTPRE_PREDIV1 | RCC_CFGR_PLLSRC_PREDIV1 | 
                            RCC_CFGR_PLLMULL9); 
#else    
    /*  PLL configuration: PLLCLK = HSE * 9 = 72 MHz */
    RCC->CFGR &= (uint32_t)((uint32_t)~(RCC_CFGR_PLLSRC | RCC_CFGR_PLLXTPRE |
 80079aa:	4b18      	ldr	r3, [pc, #96]	; (8007a0c <SetSysClockTo72+0x100>)
 80079ac:	4a17      	ldr	r2, [pc, #92]	; (8007a0c <SetSysClockTo72+0x100>)
 80079ae:	6852      	ldr	r2, [r2, #4]
 80079b0:	f422 127c 	bic.w	r2, r2, #4128768	; 0x3f0000
 80079b4:	605a      	str	r2, [r3, #4]
                                        RCC_CFGR_PLLMULL));
    RCC->CFGR |= (uint32_t)(RCC_CFGR_PLLSRC_HSE | RCC_CFGR_PLLMULL9);
 80079b6:	4b15      	ldr	r3, [pc, #84]	; (8007a0c <SetSysClockTo72+0x100>)
 80079b8:	4a14      	ldr	r2, [pc, #80]	; (8007a0c <SetSysClockTo72+0x100>)
 80079ba:	6852      	ldr	r2, [r2, #4]
 80079bc:	f442 12e8 	orr.w	r2, r2, #1900544	; 0x1d0000
 80079c0:	605a      	str	r2, [r3, #4]
#endif /* STM32F10X_CL */

    /* Enable PLL */
    RCC->CR |= RCC_CR_PLLON;
 80079c2:	4b12      	ldr	r3, [pc, #72]	; (8007a0c <SetSysClockTo72+0x100>)
 80079c4:	4a11      	ldr	r2, [pc, #68]	; (8007a0c <SetSysClockTo72+0x100>)
 80079c6:	6812      	ldr	r2, [r2, #0]
 80079c8:	f042 7280 	orr.w	r2, r2, #16777216	; 0x1000000
 80079cc:	601a      	str	r2, [r3, #0]

    /* Wait till PLL is ready */
    while((RCC->CR & RCC_CR_PLLRDY) == 0)
 80079ce:	bf00      	nop
 80079d0:	4b0e      	ldr	r3, [pc, #56]	; (8007a0c <SetSysClockTo72+0x100>)
 80079d2:	681b      	ldr	r3, [r3, #0]
 80079d4:	f003 7300 	and.w	r3, r3, #33554432	; 0x2000000
 80079d8:	2b00      	cmp	r3, #0
 80079da:	d0f9      	beq.n	80079d0 <SetSysClockTo72+0xc4>
    {
    }
    
    /* Select PLL as system clock source */
    RCC->CFGR &= (uint32_t)((uint32_t)~(RCC_CFGR_SW));
 80079dc:	4b0b      	ldr	r3, [pc, #44]	; (8007a0c <SetSysClockTo72+0x100>)
 80079de:	4a0b      	ldr	r2, [pc, #44]	; (8007a0c <SetSysClockTo72+0x100>)
 80079e0:	6852      	ldr	r2, [r2, #4]
 80079e2:	f022 0203 	bic.w	r2, r2, #3
 80079e6:	605a      	str	r2, [r3, #4]
    RCC->CFGR |= (uint32_t)RCC_CFGR_SW_PLL;    
 80079e8:	4b08      	ldr	r3, [pc, #32]	; (8007a0c <SetSysClockTo72+0x100>)
 80079ea:	4a08      	ldr	r2, [pc, #32]	; (8007a0c <SetSysClockTo72+0x100>)
 80079ec:	6852      	ldr	r2, [r2, #4]
 80079ee:	f042 0202 	orr.w	r2, r2, #2
 80079f2:	605a      	str	r2, [r3, #4]

    /* Wait till PLL is used as system clock source */
    while ((RCC->CFGR & (uint32_t)RCC_CFGR_SWS) != (uint32_t)0x08)
 80079f4:	bf00      	nop
 80079f6:	4b05      	ldr	r3, [pc, #20]	; (8007a0c <SetSysClockTo72+0x100>)
 80079f8:	685b      	ldr	r3, [r3, #4]
 80079fa:	f003 030c 	and.w	r3, r3, #12
 80079fe:	2b08      	cmp	r3, #8
 8007a00:	d1f9      	bne.n	80079f6 <SetSysClockTo72+0xea>
  }
  else
  { /* If HSE fails to start-up, the application will have wrong clock 
         configuration. User can add here some code to deal with this error */
  }
}
 8007a02:	f107 070c 	add.w	r7, r7, #12
 8007a06:	46bd      	mov	sp, r7
 8007a08:	bc80      	pop	{r7}
 8007a0a:	4770      	bx	lr
 8007a0c:	40021000 	.word	0x40021000
 8007a10:	40022000 	.word	0x40022000

08007a14 <GPIO_Init>:
  * @param  GPIO_InitStruct: pointer to a GPIO_InitTypeDef structure that
  *         contains the configuration information for the specified GPIO peripheral.
  * @retval None
  */
void GPIO_Init(GPIO_TypeDef* GPIOx, GPIO_InitTypeDef* GPIO_InitStruct)
{
 8007a14:	b480      	push	{r7}
 8007a16:	b089      	sub	sp, #36	; 0x24
 8007a18:	af00      	add	r7, sp, #0
 8007a1a:	6078      	str	r0, [r7, #4]
 8007a1c:	6039      	str	r1, [r7, #0]
  uint32_t currentmode = 0x00, currentpin = 0x00, pinpos = 0x00, pos = 0x00;
 8007a1e:	f04f 0300 	mov.w	r3, #0
 8007a22:	61fb      	str	r3, [r7, #28]
 8007a24:	f04f 0300 	mov.w	r3, #0
 8007a28:	613b      	str	r3, [r7, #16]
 8007a2a:	f04f 0300 	mov.w	r3, #0
 8007a2e:	61bb      	str	r3, [r7, #24]
 8007a30:	f04f 0300 	mov.w	r3, #0
 8007a34:	60fb      	str	r3, [r7, #12]
  uint32_t tmpreg = 0x00, pinmask = 0x00;
 8007a36:	f04f 0300 	mov.w	r3, #0
 8007a3a:	617b      	str	r3, [r7, #20]
 8007a3c:	f04f 0300 	mov.w	r3, #0
 8007a40:	60bb      	str	r3, [r7, #8]
  assert_param(IS_GPIO_ALL_PERIPH(GPIOx));
  assert_param(IS_GPIO_MODE(GPIO_InitStruct->GPIO_Mode));
  assert_param(IS_GPIO_PIN(GPIO_InitStruct->GPIO_Pin));  
  
/*---------------------------- GPIO Mode Configuration -----------------------*/
  currentmode = ((uint32_t)GPIO_InitStruct->GPIO_Mode) & ((uint32_t)0x0F);
 8007a42:	683b      	ldr	r3, [r7, #0]
 8007a44:	78db      	ldrb	r3, [r3, #3]
 8007a46:	f003 030f 	and.w	r3, r3, #15
 8007a4a:	61fb      	str	r3, [r7, #28]
  if ((((uint32_t)GPIO_InitStruct->GPIO_Mode) & ((uint32_t)0x10)) != 0x00)
 8007a4c:	683b      	ldr	r3, [r7, #0]
 8007a4e:	78db      	ldrb	r3, [r3, #3]
 8007a50:	f003 0310 	and.w	r3, r3, #16
 8007a54:	2b00      	cmp	r3, #0
 8007a56:	d004      	beq.n	8007a62 <GPIO_Init+0x4e>
  { 
    /* Check the parameters */
    assert_param(IS_GPIO_SPEED(GPIO_InitStruct->GPIO_Speed));
    /* Output mode */
    currentmode |= (uint32_t)GPIO_InitStruct->GPIO_Speed;
 8007a58:	683b      	ldr	r3, [r7, #0]
 8007a5a:	789b      	ldrb	r3, [r3, #2]
 8007a5c:	69fa      	ldr	r2, [r7, #28]
 8007a5e:	4313      	orrs	r3, r2
 8007a60:	61fb      	str	r3, [r7, #28]
  }
/*---------------------------- GPIO CRL Configuration ------------------------*/
  /* Configure the eight low port pins */
  if (((uint32_t)GPIO_InitStruct->GPIO_Pin & ((uint32_t)0x00FF)) != 0x00)
 8007a62:	683b      	ldr	r3, [r7, #0]
 8007a64:	881b      	ldrh	r3, [r3, #0]
 8007a66:	b2db      	uxtb	r3, r3
 8007a68:	2b00      	cmp	r3, #0
 8007a6a:	d04e      	beq.n	8007b0a <GPIO_Init+0xf6>
  {
    tmpreg = GPIOx->CRL;
 8007a6c:	687b      	ldr	r3, [r7, #4]
 8007a6e:	681b      	ldr	r3, [r3, #0]
 8007a70:	617b      	str	r3, [r7, #20]
    for (pinpos = 0x00; pinpos < 0x08; pinpos++)
 8007a72:	f04f 0300 	mov.w	r3, #0
 8007a76:	61bb      	str	r3, [r7, #24]
 8007a78:	e041      	b.n	8007afe <GPIO_Init+0xea>
    {
      pos = ((uint32_t)0x01) << pinpos;
 8007a7a:	69bb      	ldr	r3, [r7, #24]
 8007a7c:	f04f 0201 	mov.w	r2, #1
 8007a80:	fa02 f303 	lsl.w	r3, r2, r3
 8007a84:	60fb      	str	r3, [r7, #12]
      /* Get the port pins position */
      currentpin = (GPIO_InitStruct->GPIO_Pin) & pos;
 8007a86:	683b      	ldr	r3, [r7, #0]
 8007a88:	881b      	ldrh	r3, [r3, #0]
 8007a8a:	461a      	mov	r2, r3
 8007a8c:	68fb      	ldr	r3, [r7, #12]
 8007a8e:	4013      	ands	r3, r2
 8007a90:	613b      	str	r3, [r7, #16]
      if (currentpin == pos)
 8007a92:	693a      	ldr	r2, [r7, #16]
 8007a94:	68fb      	ldr	r3, [r7, #12]
 8007a96:	429a      	cmp	r2, r3
 8007a98:	d12d      	bne.n	8007af6 <GPIO_Init+0xe2>
      {
        pos = pinpos << 2;
 8007a9a:	69bb      	ldr	r3, [r7, #24]
 8007a9c:	ea4f 0383 	mov.w	r3, r3, lsl #2
 8007aa0:	60fb      	str	r3, [r7, #12]
        /* Clear the corresponding low control register bits */
        pinmask = ((uint32_t)0x0F) << pos;
 8007aa2:	68fb      	ldr	r3, [r7, #12]
 8007aa4:	f04f 020f 	mov.w	r2, #15
 8007aa8:	fa02 f303 	lsl.w	r3, r2, r3
 8007aac:	60bb      	str	r3, [r7, #8]
        tmpreg &= ~pinmask;
 8007aae:	68bb      	ldr	r3, [r7, #8]
 8007ab0:	ea6f 0303 	mvn.w	r3, r3
 8007ab4:	697a      	ldr	r2, [r7, #20]
 8007ab6:	4013      	ands	r3, r2
 8007ab8:	617b      	str	r3, [r7, #20]
        /* Write the mode configuration in the corresponding bits */
        tmpreg |= (currentmode << pos);
 8007aba:	68fb      	ldr	r3, [r7, #12]
 8007abc:	69fa      	ldr	r2, [r7, #28]
 8007abe:	fa02 f303 	lsl.w	r3, r2, r3
 8007ac2:	697a      	ldr	r2, [r7, #20]
 8007ac4:	4313      	orrs	r3, r2
 8007ac6:	617b      	str	r3, [r7, #20]
        /* Reset the corresponding ODR bit */
        if (GPIO_InitStruct->GPIO_Mode == GPIO_Mode_IPD)
 8007ac8:	683b      	ldr	r3, [r7, #0]
 8007aca:	78db      	ldrb	r3, [r3, #3]
 8007acc:	2b28      	cmp	r3, #40	; 0x28
 8007ace:	d107      	bne.n	8007ae0 <GPIO_Init+0xcc>
        {
          GPIOx->BRR = (((uint32_t)0x01) << pinpos);
 8007ad0:	69bb      	ldr	r3, [r7, #24]
 8007ad2:	f04f 0201 	mov.w	r2, #1
 8007ad6:	fa02 f203 	lsl.w	r2, r2, r3
 8007ada:	687b      	ldr	r3, [r7, #4]
 8007adc:	615a      	str	r2, [r3, #20]
 8007ade:	e00a      	b.n	8007af6 <GPIO_Init+0xe2>
        }
        else
        {
          /* Set the corresponding ODR bit */
          if (GPIO_InitStruct->GPIO_Mode == GPIO_Mode_IPU)
 8007ae0:	683b      	ldr	r3, [r7, #0]
 8007ae2:	78db      	ldrb	r3, [r3, #3]
 8007ae4:	2b48      	cmp	r3, #72	; 0x48
 8007ae6:	d106      	bne.n	8007af6 <GPIO_Init+0xe2>
          {
            GPIOx->BSRR = (((uint32_t)0x01) << pinpos);
 8007ae8:	69bb      	ldr	r3, [r7, #24]
 8007aea:	f04f 0201 	mov.w	r2, #1
 8007aee:	fa02 f203 	lsl.w	r2, r2, r3
 8007af2:	687b      	ldr	r3, [r7, #4]
 8007af4:	611a      	str	r2, [r3, #16]
/*---------------------------- GPIO CRL Configuration ------------------------*/
  /* Configure the eight low port pins */
  if (((uint32_t)GPIO_InitStruct->GPIO_Pin & ((uint32_t)0x00FF)) != 0x00)
  {
    tmpreg = GPIOx->CRL;
    for (pinpos = 0x00; pinpos < 0x08; pinpos++)
 8007af6:	69bb      	ldr	r3, [r7, #24]
 8007af8:	f103 0301 	add.w	r3, r3, #1
 8007afc:	61bb      	str	r3, [r7, #24]
 8007afe:	69bb      	ldr	r3, [r7, #24]
 8007b00:	2b07      	cmp	r3, #7
 8007b02:	d9ba      	bls.n	8007a7a <GPIO_Init+0x66>
            GPIOx->BSRR = (((uint32_t)0x01) << pinpos);
          }
        }
      }
    }
    GPIOx->CRL = tmpreg;
 8007b04:	687b      	ldr	r3, [r7, #4]
 8007b06:	697a      	ldr	r2, [r7, #20]
 8007b08:	601a      	str	r2, [r3, #0]
  }
/*---------------------------- GPIO CRH Configuration ------------------------*/
  /* Configure the eight high port pins */
  if (GPIO_InitStruct->GPIO_Pin > 0x00FF)
 8007b0a:	683b      	ldr	r3, [r7, #0]
 8007b0c:	881b      	ldrh	r3, [r3, #0]
 8007b0e:	2bff      	cmp	r3, #255	; 0xff
 8007b10:	d953      	bls.n	8007bba <GPIO_Init+0x1a6>
  {
    tmpreg = GPIOx->CRH;
 8007b12:	687b      	ldr	r3, [r7, #4]
 8007b14:	685b      	ldr	r3, [r3, #4]
 8007b16:	617b      	str	r3, [r7, #20]
    for (pinpos = 0x00; pinpos < 0x08; pinpos++)
 8007b18:	f04f 0300 	mov.w	r3, #0
 8007b1c:	61bb      	str	r3, [r7, #24]
 8007b1e:	e046      	b.n	8007bae <GPIO_Init+0x19a>
    {
      pos = (((uint32_t)0x01) << (pinpos + 0x08));
 8007b20:	69bb      	ldr	r3, [r7, #24]
 8007b22:	f103 0308 	add.w	r3, r3, #8
 8007b26:	f04f 0201 	mov.w	r2, #1
 8007b2a:	fa02 f303 	lsl.w	r3, r2, r3
 8007b2e:	60fb      	str	r3, [r7, #12]
      /* Get the port pins position */
      currentpin = ((GPIO_InitStruct->GPIO_Pin) & pos);
 8007b30:	683b      	ldr	r3, [r7, #0]
 8007b32:	881b      	ldrh	r3, [r3, #0]
 8007b34:	461a      	mov	r2, r3
 8007b36:	68fb      	ldr	r3, [r7, #12]
 8007b38:	4013      	ands	r3, r2
 8007b3a:	613b      	str	r3, [r7, #16]
      if (currentpin == pos)
 8007b3c:	693a      	ldr	r2, [r7, #16]
 8007b3e:	68fb      	ldr	r3, [r7, #12]
 8007b40:	429a      	cmp	r2, r3
 8007b42:	d130      	bne.n	8007ba6 <GPIO_Init+0x192>
      {
        pos = pinpos << 2;
 8007b44:	69bb      	ldr	r3, [r7, #24]
 8007b46:	ea4f 0383 	mov.w	r3, r3, lsl #2
 8007b4a:	60fb      	str	r3, [r7, #12]
        /* Clear the corresponding high control register bits */
        pinmask = ((uint32_t)0x0F) << pos;
 8007b4c:	68fb      	ldr	r3, [r7, #12]
 8007b4e:	f04f 020f 	mov.w	r2, #15
 8007b52:	fa02 f303 	lsl.w	r3, r2, r3
 8007b56:	60bb      	str	r3, [r7, #8]
        tmpreg &= ~pinmask;
 8007b58:	68bb      	ldr	r3, [r7, #8]
 8007b5a:	ea6f 0303 	mvn.w	r3, r3
 8007b5e:	697a      	ldr	r2, [r7, #20]
 8007b60:	4013      	ands	r3, r2
 8007b62:	617b      	str	r3, [r7, #20]
        /* Write the mode configuration in the corresponding bits */
        tmpreg |= (currentmode << pos);
 8007b64:	68fb      	ldr	r3, [r7, #12]
 8007b66:	69fa      	ldr	r2, [r7, #28]
 8007b68:	fa02 f303 	lsl.w	r3, r2, r3
 8007b6c:	697a      	ldr	r2, [r7, #20]
 8007b6e:	4313      	orrs	r3, r2
 8007b70:	617b      	str	r3, [r7, #20]
        /* Reset the corresponding ODR bit */
        if (GPIO_InitStruct->GPIO_Mode == GPIO_Mode_IPD)
 8007b72:	683b      	ldr	r3, [r7, #0]
 8007b74:	78db      	ldrb	r3, [r3, #3]
 8007b76:	2b28      	cmp	r3, #40	; 0x28
 8007b78:	d108      	bne.n	8007b8c <GPIO_Init+0x178>
        {
          GPIOx->BRR = (((uint32_t)0x01) << (pinpos + 0x08));
 8007b7a:	69bb      	ldr	r3, [r7, #24]
 8007b7c:	f103 0308 	add.w	r3, r3, #8
 8007b80:	f04f 0201 	mov.w	r2, #1
 8007b84:	fa02 f203 	lsl.w	r2, r2, r3
 8007b88:	687b      	ldr	r3, [r7, #4]
 8007b8a:	615a      	str	r2, [r3, #20]
        }
        /* Set the corresponding ODR bit */
        if (GPIO_InitStruct->GPIO_Mode == GPIO_Mode_IPU)
 8007b8c:	683b      	ldr	r3, [r7, #0]
 8007b8e:	78db      	ldrb	r3, [r3, #3]
 8007b90:	2b48      	cmp	r3, #72	; 0x48
 8007b92:	d108      	bne.n	8007ba6 <GPIO_Init+0x192>
        {
          GPIOx->BSRR = (((uint32_t)0x01) << (pinpos + 0x08));
 8007b94:	69bb      	ldr	r3, [r7, #24]
 8007b96:	f103 0308 	add.w	r3, r3, #8
 8007b9a:	f04f 0201 	mov.w	r2, #1
 8007b9e:	fa02 f203 	lsl.w	r2, r2, r3
 8007ba2:	687b      	ldr	r3, [r7, #4]
 8007ba4:	611a      	str	r2, [r3, #16]
/*---------------------------- GPIO CRH Configuration ------------------------*/
  /* Configure the eight high port pins */
  if (GPIO_InitStruct->GPIO_Pin > 0x00FF)
  {
    tmpreg = GPIOx->CRH;
    for (pinpos = 0x00; pinpos < 0x08; pinpos++)
 8007ba6:	69bb      	ldr	r3, [r7, #24]
 8007ba8:	f103 0301 	add.w	r3, r3, #1
 8007bac:	61bb      	str	r3, [r7, #24]
 8007bae:	69bb      	ldr	r3, [r7, #24]
 8007bb0:	2b07      	cmp	r3, #7
 8007bb2:	d9b5      	bls.n	8007b20 <GPIO_Init+0x10c>
        {
          GPIOx->BSRR = (((uint32_t)0x01) << (pinpos + 0x08));
        }
      }
    }
    GPIOx->CRH = tmpreg;
 8007bb4:	687b      	ldr	r3, [r7, #4]
 8007bb6:	697a      	ldr	r2, [r7, #20]
 8007bb8:	605a      	str	r2, [r3, #4]
  }
}
 8007bba:	f107 0724 	add.w	r7, r7, #36	; 0x24
 8007bbe:	46bd      	mov	sp, r7
 8007bc0:	bc80      	pop	{r7}
 8007bc2:	4770      	bx	lr

08007bc4 <GPIO_StructInit>:
  * @param  GPIO_InitStruct : pointer to a GPIO_InitTypeDef structure which will
  *         be initialized.
  * @retval None
  */
void GPIO_StructInit(GPIO_InitTypeDef* GPIO_InitStruct)
{
 8007bc4:	b480      	push	{r7}
 8007bc6:	b083      	sub	sp, #12
 8007bc8:	af00      	add	r7, sp, #0
 8007bca:	6078      	str	r0, [r7, #4]
  /* Reset GPIO init structure parameters values */
  GPIO_InitStruct->GPIO_Pin  = GPIO_Pin_All;
 8007bcc:	687b      	ldr	r3, [r7, #4]
 8007bce:	f64f 72ff 	movw	r2, #65535	; 0xffff
 8007bd2:	801a      	strh	r2, [r3, #0]
  GPIO_InitStruct->GPIO_Speed = GPIO_Speed_2MHz;
 8007bd4:	687b      	ldr	r3, [r7, #4]
 8007bd6:	f04f 0202 	mov.w	r2, #2
 8007bda:	709a      	strb	r2, [r3, #2]
  GPIO_InitStruct->GPIO_Mode = GPIO_Mode_IN_FLOATING;
 8007bdc:	687b      	ldr	r3, [r7, #4]
 8007bde:	f04f 0204 	mov.w	r2, #4
 8007be2:	70da      	strb	r2, [r3, #3]
}
 8007be4:	f107 070c 	add.w	r7, r7, #12
 8007be8:	46bd      	mov	sp, r7
 8007bea:	bc80      	pop	{r7}
 8007bec:	4770      	bx	lr
 8007bee:	bf00      	nop

08007bf0 <GPIO_SetBits>:
  * @param  GPIO_Pin: specifies the port bits to be written.
  *   This parameter can be any combination of GPIO_Pin_x where x can be (0..15).
  * @retval None
  */
void GPIO_SetBits(GPIO_TypeDef* GPIOx, uint16_t GPIO_Pin)
{
 8007bf0:	b480      	push	{r7}
 8007bf2:	b083      	sub	sp, #12
 8007bf4:	af00      	add	r7, sp, #0
 8007bf6:	6078      	str	r0, [r7, #4]
 8007bf8:	460b      	mov	r3, r1
 8007bfa:	807b      	strh	r3, [r7, #2]
  /* Check the parameters */
  assert_param(IS_GPIO_ALL_PERIPH(GPIOx));
  assert_param(IS_GPIO_PIN(GPIO_Pin));
  
  GPIOx->BSRR = GPIO_Pin;
 8007bfc:	887a      	ldrh	r2, [r7, #2]
 8007bfe:	687b      	ldr	r3, [r7, #4]
 8007c00:	611a      	str	r2, [r3, #16]
}
 8007c02:	f107 070c 	add.w	r7, r7, #12
 8007c06:	46bd      	mov	sp, r7
 8007c08:	bc80      	pop	{r7}
 8007c0a:	4770      	bx	lr

08007c0c <GPIO_ResetBits>:
  * @param  GPIO_Pin: specifies the port bits to be written.
  *   This parameter can be any combination of GPIO_Pin_x where x can be (0..15).
  * @retval None
  */
void GPIO_ResetBits(GPIO_TypeDef* GPIOx, uint16_t GPIO_Pin)
{
 8007c0c:	b480      	push	{r7}
 8007c0e:	b083      	sub	sp, #12
 8007c10:	af00      	add	r7, sp, #0
 8007c12:	6078      	str	r0, [r7, #4]
 8007c14:	460b      	mov	r3, r1
 8007c16:	807b      	strh	r3, [r7, #2]
  /* Check the parameters */
  assert_param(IS_GPIO_ALL_PERIPH(GPIOx));
  assert_param(IS_GPIO_PIN(GPIO_Pin));
  
  GPIOx->BRR = GPIO_Pin;
 8007c18:	887a      	ldrh	r2, [r7, #2]
 8007c1a:	687b      	ldr	r3, [r7, #4]
 8007c1c:	615a      	str	r2, [r3, #20]
}
 8007c1e:	f107 070c 	add.w	r7, r7, #12
 8007c22:	46bd      	mov	sp, r7
 8007c24:	bc80      	pop	{r7}
 8007c26:	4770      	bx	lr

08007c28 <RCC_GetClocksFreq>:
  * @note   The result of this function could be not correct when using 
  *         fractional value for HSE crystal.  
  * @retval None
  */
void RCC_GetClocksFreq(RCC_ClocksTypeDef* RCC_Clocks)
{
 8007c28:	b480      	push	{r7}
 8007c2a:	b087      	sub	sp, #28
 8007c2c:	af00      	add	r7, sp, #0
 8007c2e:	6078      	str	r0, [r7, #4]
  uint32_t tmp = 0, pllmull = 0, pllsource = 0, presc = 0;
 8007c30:	f04f 0300 	mov.w	r3, #0
 8007c34:	617b      	str	r3, [r7, #20]
 8007c36:	f04f 0300 	mov.w	r3, #0
 8007c3a:	613b      	str	r3, [r7, #16]
 8007c3c:	f04f 0300 	mov.w	r3, #0
 8007c40:	60fb      	str	r3, [r7, #12]
 8007c42:	f04f 0300 	mov.w	r3, #0
 8007c46:	60bb      	str	r3, [r7, #8]
#if defined (STM32F10X_LD_VL) || defined (STM32F10X_MD_VL) || defined (STM32F10X_HD_VL)
  uint32_t prediv1factor = 0;
#endif
    
  /* Get SYSCLK source -------------------------------------------------------*/
  tmp = RCC->CFGR & CFGR_SWS_Mask;
 8007c48:	4b51      	ldr	r3, [pc, #324]	; (8007d90 <RCC_GetClocksFreq+0x168>)
 8007c4a:	685b      	ldr	r3, [r3, #4]
 8007c4c:	f003 030c 	and.w	r3, r3, #12
 8007c50:	617b      	str	r3, [r7, #20]
  
  switch (tmp)
 8007c52:	697b      	ldr	r3, [r7, #20]
 8007c54:	2b04      	cmp	r3, #4
 8007c56:	d007      	beq.n	8007c68 <RCC_GetClocksFreq+0x40>
 8007c58:	2b08      	cmp	r3, #8
 8007c5a:	d009      	beq.n	8007c70 <RCC_GetClocksFreq+0x48>
 8007c5c:	2b00      	cmp	r3, #0
 8007c5e:	d135      	bne.n	8007ccc <RCC_GetClocksFreq+0xa4>
  {
    case 0x00:  /* HSI used as system clock */
      RCC_Clocks->SYSCLK_Frequency = HSI_VALUE;
 8007c60:	687b      	ldr	r3, [r7, #4]
 8007c62:	4a4c      	ldr	r2, [pc, #304]	; (8007d94 <RCC_GetClocksFreq+0x16c>)
 8007c64:	601a      	str	r2, [r3, #0]
      break;
 8007c66:	e035      	b.n	8007cd4 <RCC_GetClocksFreq+0xac>
    case 0x04:  /* HSE used as system clock */
      RCC_Clocks->SYSCLK_Frequency = HSE_VALUE;
 8007c68:	687b      	ldr	r3, [r7, #4]
 8007c6a:	4a4a      	ldr	r2, [pc, #296]	; (8007d94 <RCC_GetClocksFreq+0x16c>)
 8007c6c:	601a      	str	r2, [r3, #0]
      break;
 8007c6e:	e031      	b.n	8007cd4 <RCC_GetClocksFreq+0xac>
    case 0x08:  /* PLL used as system clock */

      /* Get PLL clock source and multiplication factor ----------------------*/
      pllmull = RCC->CFGR & CFGR_PLLMull_Mask;
 8007c70:	4b47      	ldr	r3, [pc, #284]	; (8007d90 <RCC_GetClocksFreq+0x168>)
 8007c72:	685b      	ldr	r3, [r3, #4]
 8007c74:	f403 1370 	and.w	r3, r3, #3932160	; 0x3c0000
 8007c78:	613b      	str	r3, [r7, #16]
      pllsource = RCC->CFGR & CFGR_PLLSRC_Mask;
 8007c7a:	4b45      	ldr	r3, [pc, #276]	; (8007d90 <RCC_GetClocksFreq+0x168>)
 8007c7c:	685b      	ldr	r3, [r3, #4]
 8007c7e:	f403 3380 	and.w	r3, r3, #65536	; 0x10000
 8007c82:	60fb      	str	r3, [r7, #12]
      
#ifndef STM32F10X_CL      
      pllmull = ( pllmull >> 18) + 2;
 8007c84:	693b      	ldr	r3, [r7, #16]
 8007c86:	ea4f 4393 	mov.w	r3, r3, lsr #18
 8007c8a:	f103 0302 	add.w	r3, r3, #2
 8007c8e:	613b      	str	r3, [r7, #16]
      
      if (pllsource == 0x00)
 8007c90:	68fb      	ldr	r3, [r7, #12]
 8007c92:	2b00      	cmp	r3, #0
 8007c94:	d106      	bne.n	8007ca4 <RCC_GetClocksFreq+0x7c>
      {/* HSI oscillator clock divided by 2 selected as PLL clock entry */
        RCC_Clocks->SYSCLK_Frequency = (HSI_VALUE >> 1) * pllmull;
 8007c96:	693b      	ldr	r3, [r7, #16]
 8007c98:	4a3f      	ldr	r2, [pc, #252]	; (8007d98 <RCC_GetClocksFreq+0x170>)
 8007c9a:	fb02 f203 	mul.w	r2, r2, r3
 8007c9e:	687b      	ldr	r3, [r7, #4]
 8007ca0:	601a      	str	r2, [r3, #0]
          pll2mull = ((RCC->CFGR2 & CFGR2_PLL2MUL) >> 8 ) + 2; 
          RCC_Clocks->SYSCLK_Frequency = (((HSE_VALUE / prediv2factor) * pll2mull) / prediv1factor) * pllmull;                         
        }
      }
#endif /* STM32F10X_CL */ 
      break;
 8007ca2:	e017      	b.n	8007cd4 <RCC_GetClocksFreq+0xac>
       prediv1factor = (RCC->CFGR2 & CFGR2_PREDIV1) + 1;
       /* HSE oscillator clock selected as PREDIV1 clock entry */
       RCC_Clocks->SYSCLK_Frequency = (HSE_VALUE / prediv1factor) * pllmull; 
 #else
        /* HSE selected as PLL clock entry */
        if ((RCC->CFGR & CFGR_PLLXTPRE_Mask) != (uint32_t)RESET)
 8007ca4:	4b3a      	ldr	r3, [pc, #232]	; (8007d90 <RCC_GetClocksFreq+0x168>)
 8007ca6:	685b      	ldr	r3, [r3, #4]
 8007ca8:	f403 3300 	and.w	r3, r3, #131072	; 0x20000
 8007cac:	2b00      	cmp	r3, #0
 8007cae:	d006      	beq.n	8007cbe <RCC_GetClocksFreq+0x96>
        {/* HSE oscillator clock divided by 2 */
          RCC_Clocks->SYSCLK_Frequency = (HSE_VALUE >> 1) * pllmull;
 8007cb0:	693b      	ldr	r3, [r7, #16]
 8007cb2:	4a39      	ldr	r2, [pc, #228]	; (8007d98 <RCC_GetClocksFreq+0x170>)
 8007cb4:	fb02 f203 	mul.w	r2, r2, r3
 8007cb8:	687b      	ldr	r3, [r7, #4]
 8007cba:	601a      	str	r2, [r3, #0]
          pll2mull = ((RCC->CFGR2 & CFGR2_PLL2MUL) >> 8 ) + 2; 
          RCC_Clocks->SYSCLK_Frequency = (((HSE_VALUE / prediv2factor) * pll2mull) / prediv1factor) * pllmull;                         
        }
      }
#endif /* STM32F10X_CL */ 
      break;
 8007cbc:	e00a      	b.n	8007cd4 <RCC_GetClocksFreq+0xac>
        {/* HSE oscillator clock divided by 2 */
          RCC_Clocks->SYSCLK_Frequency = (HSE_VALUE >> 1) * pllmull;
        }
        else
        {
          RCC_Clocks->SYSCLK_Frequency = HSE_VALUE * pllmull;
 8007cbe:	693b      	ldr	r3, [r7, #16]
 8007cc0:	4a34      	ldr	r2, [pc, #208]	; (8007d94 <RCC_GetClocksFreq+0x16c>)
 8007cc2:	fb02 f203 	mul.w	r2, r2, r3
 8007cc6:	687b      	ldr	r3, [r7, #4]
 8007cc8:	601a      	str	r2, [r3, #0]
          pll2mull = ((RCC->CFGR2 & CFGR2_PLL2MUL) >> 8 ) + 2; 
          RCC_Clocks->SYSCLK_Frequency = (((HSE_VALUE / prediv2factor) * pll2mull) / prediv1factor) * pllmull;                         
        }
      }
#endif /* STM32F10X_CL */ 
      break;
 8007cca:	e003      	b.n	8007cd4 <RCC_GetClocksFreq+0xac>

    default:
      RCC_Clocks->SYSCLK_Frequency = HSI_VALUE;
 8007ccc:	687b      	ldr	r3, [r7, #4]
 8007cce:	4a31      	ldr	r2, [pc, #196]	; (8007d94 <RCC_GetClocksFreq+0x16c>)
 8007cd0:	601a      	str	r2, [r3, #0]
      break;
 8007cd2:	bf00      	nop
  }

  /* Compute HCLK, PCLK1, PCLK2 and ADCCLK clocks frequencies ----------------*/
  /* Get HCLK prescaler */
  tmp = RCC->CFGR & CFGR_HPRE_Set_Mask;
 8007cd4:	4b2e      	ldr	r3, [pc, #184]	; (8007d90 <RCC_GetClocksFreq+0x168>)
 8007cd6:	685b      	ldr	r3, [r3, #4]
 8007cd8:	f003 03f0 	and.w	r3, r3, #240	; 0xf0
 8007cdc:	617b      	str	r3, [r7, #20]
  tmp = tmp >> 4;
 8007cde:	697b      	ldr	r3, [r7, #20]
 8007ce0:	ea4f 1313 	mov.w	r3, r3, lsr #4
 8007ce4:	617b      	str	r3, [r7, #20]
  presc = APBAHBPrescTable[tmp];
 8007ce6:	4a2d      	ldr	r2, [pc, #180]	; (8007d9c <RCC_GetClocksFreq+0x174>)
 8007ce8:	697b      	ldr	r3, [r7, #20]
 8007cea:	18d3      	adds	r3, r2, r3
 8007cec:	781b      	ldrb	r3, [r3, #0]
 8007cee:	b2db      	uxtb	r3, r3
 8007cf0:	60bb      	str	r3, [r7, #8]
  /* HCLK clock frequency */
  RCC_Clocks->HCLK_Frequency = RCC_Clocks->SYSCLK_Frequency >> presc;
 8007cf2:	687b      	ldr	r3, [r7, #4]
 8007cf4:	681a      	ldr	r2, [r3, #0]
 8007cf6:	68bb      	ldr	r3, [r7, #8]
 8007cf8:	fa22 f203 	lsr.w	r2, r2, r3
 8007cfc:	687b      	ldr	r3, [r7, #4]
 8007cfe:	605a      	str	r2, [r3, #4]
  /* Get PCLK1 prescaler */
  tmp = RCC->CFGR & CFGR_PPRE1_Set_Mask;
 8007d00:	4b23      	ldr	r3, [pc, #140]	; (8007d90 <RCC_GetClocksFreq+0x168>)
 8007d02:	685b      	ldr	r3, [r3, #4]
 8007d04:	f403 63e0 	and.w	r3, r3, #1792	; 0x700
 8007d08:	617b      	str	r3, [r7, #20]
  tmp = tmp >> 8;
 8007d0a:	697b      	ldr	r3, [r7, #20]
 8007d0c:	ea4f 2313 	mov.w	r3, r3, lsr #8
 8007d10:	617b      	str	r3, [r7, #20]
  presc = APBAHBPrescTable[tmp];
 8007d12:	4a22      	ldr	r2, [pc, #136]	; (8007d9c <RCC_GetClocksFreq+0x174>)
 8007d14:	697b      	ldr	r3, [r7, #20]
 8007d16:	18d3      	adds	r3, r2, r3
 8007d18:	781b      	ldrb	r3, [r3, #0]
 8007d1a:	b2db      	uxtb	r3, r3
 8007d1c:	60bb      	str	r3, [r7, #8]
  /* PCLK1 clock frequency */
  RCC_Clocks->PCLK1_Frequency = RCC_Clocks->HCLK_Frequency >> presc;
 8007d1e:	687b      	ldr	r3, [r7, #4]
 8007d20:	685a      	ldr	r2, [r3, #4]
 8007d22:	68bb      	ldr	r3, [r7, #8]
 8007d24:	fa22 f203 	lsr.w	r2, r2, r3
 8007d28:	687b      	ldr	r3, [r7, #4]
 8007d2a:	609a      	str	r2, [r3, #8]
  /* Get PCLK2 prescaler */
  tmp = RCC->CFGR & CFGR_PPRE2_Set_Mask;
 8007d2c:	4b18      	ldr	r3, [pc, #96]	; (8007d90 <RCC_GetClocksFreq+0x168>)
 8007d2e:	685b      	ldr	r3, [r3, #4]
 8007d30:	f403 5360 	and.w	r3, r3, #14336	; 0x3800
 8007d34:	617b      	str	r3, [r7, #20]
  tmp = tmp >> 11;
 8007d36:	697b      	ldr	r3, [r7, #20]
 8007d38:	ea4f 23d3 	mov.w	r3, r3, lsr #11
 8007d3c:	617b      	str	r3, [r7, #20]
  presc = APBAHBPrescTable[tmp];
 8007d3e:	4a17      	ldr	r2, [pc, #92]	; (8007d9c <RCC_GetClocksFreq+0x174>)
 8007d40:	697b      	ldr	r3, [r7, #20]
 8007d42:	18d3      	adds	r3, r2, r3
 8007d44:	781b      	ldrb	r3, [r3, #0]
 8007d46:	b2db      	uxtb	r3, r3
 8007d48:	60bb      	str	r3, [r7, #8]
  /* PCLK2 clock frequency */
  RCC_Clocks->PCLK2_Frequency = RCC_Clocks->HCLK_Frequency >> presc;
 8007d4a:	687b      	ldr	r3, [r7, #4]
 8007d4c:	685a      	ldr	r2, [r3, #4]
 8007d4e:	68bb      	ldr	r3, [r7, #8]
 8007d50:	fa22 f203 	lsr.w	r2, r2, r3
 8007d54:	687b      	ldr	r3, [r7, #4]
 8007d56:	60da      	str	r2, [r3, #12]
  /* Get ADCCLK prescaler */
  tmp = RCC->CFGR & CFGR_ADCPRE_Set_Mask;
 8007d58:	4b0d      	ldr	r3, [pc, #52]	; (8007d90 <RCC_GetClocksFreq+0x168>)
 8007d5a:	685b      	ldr	r3, [r3, #4]
 8007d5c:	f403 4340 	and.w	r3, r3, #49152	; 0xc000
 8007d60:	617b      	str	r3, [r7, #20]
  tmp = tmp >> 14;
 8007d62:	697b      	ldr	r3, [r7, #20]
 8007d64:	ea4f 3393 	mov.w	r3, r3, lsr #14
 8007d68:	617b      	str	r3, [r7, #20]
  presc = ADCPrescTable[tmp];
 8007d6a:	4a0d      	ldr	r2, [pc, #52]	; (8007da0 <RCC_GetClocksFreq+0x178>)
 8007d6c:	697b      	ldr	r3, [r7, #20]
 8007d6e:	18d3      	adds	r3, r2, r3
 8007d70:	781b      	ldrb	r3, [r3, #0]
 8007d72:	b2db      	uxtb	r3, r3
 8007d74:	60bb      	str	r3, [r7, #8]
  /* ADCCLK clock frequency */
  RCC_Clocks->ADCCLK_Frequency = RCC_Clocks->PCLK2_Frequency / presc;
 8007d76:	687b      	ldr	r3, [r7, #4]
 8007d78:	68da      	ldr	r2, [r3, #12]
 8007d7a:	68bb      	ldr	r3, [r7, #8]
 8007d7c:	fbb2 f2f3 	udiv	r2, r2, r3
 8007d80:	687b      	ldr	r3, [r7, #4]
 8007d82:	611a      	str	r2, [r3, #16]
}
 8007d84:	f107 071c 	add.w	r7, r7, #28
 8007d88:	46bd      	mov	sp, r7
 8007d8a:	bc80      	pop	{r7}
 8007d8c:	4770      	bx	lr
 8007d8e:	bf00      	nop
 8007d90:	40021000 	.word	0x40021000
 8007d94:	007a1200 	.word	0x007a1200
 8007d98:	003d0900 	.word	0x003d0900
 8007d9c:	20000584 	.word	0x20000584
 8007da0:	20000594 	.word	0x20000594

08007da4 <RCC_APB2PeriphClockCmd>:
  * @param  NewState: new state of the specified peripheral clock.
  *   This parameter can be: ENABLE or DISABLE.
  * @retval None
  */
void RCC_APB2PeriphClockCmd(uint32_t RCC_APB2Periph, FunctionalState NewState)
{
 8007da4:	b480      	push	{r7}
 8007da6:	b083      	sub	sp, #12
 8007da8:	af00      	add	r7, sp, #0
 8007daa:	6078      	str	r0, [r7, #4]
 8007dac:	460b      	mov	r3, r1
 8007dae:	70fb      	strb	r3, [r7, #3]
  /* Check the parameters */
  assert_param(IS_RCC_APB2_PERIPH(RCC_APB2Periph));
  assert_param(IS_FUNCTIONAL_STATE(NewState));
  if (NewState != DISABLE)
 8007db0:	78fb      	ldrb	r3, [r7, #3]
 8007db2:	2b00      	cmp	r3, #0
 8007db4:	d006      	beq.n	8007dc4 <RCC_APB2PeriphClockCmd+0x20>
  {
    RCC->APB2ENR |= RCC_APB2Periph;
 8007db6:	4b0a      	ldr	r3, [pc, #40]	; (8007de0 <RCC_APB2PeriphClockCmd+0x3c>)
 8007db8:	4a09      	ldr	r2, [pc, #36]	; (8007de0 <RCC_APB2PeriphClockCmd+0x3c>)
 8007dba:	6991      	ldr	r1, [r2, #24]
 8007dbc:	687a      	ldr	r2, [r7, #4]
 8007dbe:	430a      	orrs	r2, r1
 8007dc0:	619a      	str	r2, [r3, #24]
 8007dc2:	e007      	b.n	8007dd4 <RCC_APB2PeriphClockCmd+0x30>
  }
  else
  {
    RCC->APB2ENR &= ~RCC_APB2Periph;
 8007dc4:	4b06      	ldr	r3, [pc, #24]	; (8007de0 <RCC_APB2PeriphClockCmd+0x3c>)
 8007dc6:	4a06      	ldr	r2, [pc, #24]	; (8007de0 <RCC_APB2PeriphClockCmd+0x3c>)
 8007dc8:	6991      	ldr	r1, [r2, #24]
 8007dca:	687a      	ldr	r2, [r7, #4]
 8007dcc:	ea6f 0202 	mvn.w	r2, r2
 8007dd0:	400a      	ands	r2, r1
 8007dd2:	619a      	str	r2, [r3, #24]
  }
}
 8007dd4:	f107 070c 	add.w	r7, r7, #12
 8007dd8:	46bd      	mov	sp, r7
 8007dda:	bc80      	pop	{r7}
 8007ddc:	4770      	bx	lr
 8007dde:	bf00      	nop
 8007de0:	40021000 	.word	0x40021000

08007de4 <USART_Init>:
  *         that contains the configuration information for the specified USART 
  *         peripheral.
  * @retval None
  */
void USART_Init(USART_TypeDef* USARTx, USART_InitTypeDef* USART_InitStruct)
{
 8007de4:	b580      	push	{r7, lr}
 8007de6:	b08c      	sub	sp, #48	; 0x30
 8007de8:	af00      	add	r7, sp, #0
 8007dea:	6078      	str	r0, [r7, #4]
 8007dec:	6039      	str	r1, [r7, #0]
  uint32_t tmpreg = 0x00, apbclock = 0x00;
 8007dee:	f04f 0300 	mov.w	r3, #0
 8007df2:	62fb      	str	r3, [r7, #44]	; 0x2c
 8007df4:	f04f 0300 	mov.w	r3, #0
 8007df8:	62bb      	str	r3, [r7, #40]	; 0x28
  uint32_t integerdivider = 0x00;
 8007dfa:	f04f 0300 	mov.w	r3, #0
 8007dfe:	627b      	str	r3, [r7, #36]	; 0x24
  uint32_t fractionaldivider = 0x00;
 8007e00:	f04f 0300 	mov.w	r3, #0
 8007e04:	623b      	str	r3, [r7, #32]
  uint32_t usartxbase = 0;
 8007e06:	f04f 0300 	mov.w	r3, #0
 8007e0a:	61fb      	str	r3, [r7, #28]
  if (USART_InitStruct->USART_HardwareFlowControl != USART_HardwareFlowControl_None)
  {
    assert_param(IS_USART_123_PERIPH(USARTx));
  }

  usartxbase = (uint32_t)USARTx;
 8007e0c:	687b      	ldr	r3, [r7, #4]
 8007e0e:	61fb      	str	r3, [r7, #28]

/*---------------------------- USART CR2 Configuration -----------------------*/
  tmpreg = USARTx->CR2;
 8007e10:	687b      	ldr	r3, [r7, #4]
 8007e12:	8a1b      	ldrh	r3, [r3, #16]
 8007e14:	b29b      	uxth	r3, r3
 8007e16:	62fb      	str	r3, [r7, #44]	; 0x2c
  /* Clear STOP[13:12] bits */
  tmpreg &= CR2_STOP_CLEAR_Mask;
 8007e18:	6afa      	ldr	r2, [r7, #44]	; 0x2c
 8007e1a:	f64c 73ff 	movw	r3, #53247	; 0xcfff
 8007e1e:	4013      	ands	r3, r2
 8007e20:	62fb      	str	r3, [r7, #44]	; 0x2c
  /* Configure the USART Stop Bits, Clock, CPOL, CPHA and LastBit ------------*/
  /* Set STOP[13:12] bits according to USART_StopBits value */
  tmpreg |= (uint32_t)USART_InitStruct->USART_StopBits;
 8007e22:	683b      	ldr	r3, [r7, #0]
 8007e24:	88db      	ldrh	r3, [r3, #6]
 8007e26:	6afa      	ldr	r2, [r7, #44]	; 0x2c
 8007e28:	4313      	orrs	r3, r2
 8007e2a:	62fb      	str	r3, [r7, #44]	; 0x2c
  
  /* Write to USART CR2 */
  USARTx->CR2 = (uint16_t)tmpreg;
 8007e2c:	6afb      	ldr	r3, [r7, #44]	; 0x2c
 8007e2e:	b29a      	uxth	r2, r3
 8007e30:	687b      	ldr	r3, [r7, #4]
 8007e32:	821a      	strh	r2, [r3, #16]

/*---------------------------- USART CR1 Configuration -----------------------*/
  tmpreg = USARTx->CR1;
 8007e34:	687b      	ldr	r3, [r7, #4]
 8007e36:	899b      	ldrh	r3, [r3, #12]
 8007e38:	b29b      	uxth	r3, r3
 8007e3a:	62fb      	str	r3, [r7, #44]	; 0x2c
  /* Clear M, PCE, PS, TE and RE bits */
  tmpreg &= CR1_CLEAR_Mask;
 8007e3c:	6afa      	ldr	r2, [r7, #44]	; 0x2c
 8007e3e:	f64e 13f3 	movw	r3, #59891	; 0xe9f3
 8007e42:	4013      	ands	r3, r2
 8007e44:	62fb      	str	r3, [r7, #44]	; 0x2c
  /* Configure the USART Word Length, Parity and mode ----------------------- */
  /* Set the M bits according to USART_WordLength value */
  /* Set PCE and PS bits according to USART_Parity value */
  /* Set TE and RE bits according to USART_Mode value */
  tmpreg |= (uint32_t)USART_InitStruct->USART_WordLength | USART_InitStruct->USART_Parity |
 8007e46:	683b      	ldr	r3, [r7, #0]
 8007e48:	889a      	ldrh	r2, [r3, #4]
 8007e4a:	683b      	ldr	r3, [r7, #0]
 8007e4c:	891b      	ldrh	r3, [r3, #8]
 8007e4e:	4313      	orrs	r3, r2
 8007e50:	b29a      	uxth	r2, r3
            USART_InitStruct->USART_Mode;
 8007e52:	683b      	ldr	r3, [r7, #0]
 8007e54:	895b      	ldrh	r3, [r3, #10]
  tmpreg &= CR1_CLEAR_Mask;
  /* Configure the USART Word Length, Parity and mode ----------------------- */
  /* Set the M bits according to USART_WordLength value */
  /* Set PCE and PS bits according to USART_Parity value */
  /* Set TE and RE bits according to USART_Mode value */
  tmpreg |= (uint32_t)USART_InitStruct->USART_WordLength | USART_InitStruct->USART_Parity |
 8007e56:	4313      	orrs	r3, r2
 8007e58:	b29b      	uxth	r3, r3
 8007e5a:	6afa      	ldr	r2, [r7, #44]	; 0x2c
 8007e5c:	4313      	orrs	r3, r2
 8007e5e:	62fb      	str	r3, [r7, #44]	; 0x2c
            USART_InitStruct->USART_Mode;
  /* Write to USART CR1 */
  USARTx->CR1 = (uint16_t)tmpreg;
 8007e60:	6afb      	ldr	r3, [r7, #44]	; 0x2c
 8007e62:	b29a      	uxth	r2, r3
 8007e64:	687b      	ldr	r3, [r7, #4]
 8007e66:	819a      	strh	r2, [r3, #12]

/*---------------------------- USART CR3 Configuration -----------------------*/  
  tmpreg = USARTx->CR3;
 8007e68:	687b      	ldr	r3, [r7, #4]
 8007e6a:	8a9b      	ldrh	r3, [r3, #20]
 8007e6c:	b29b      	uxth	r3, r3
 8007e6e:	62fb      	str	r3, [r7, #44]	; 0x2c
  /* Clear CTSE and RTSE bits */
  tmpreg &= CR3_CLEAR_Mask;
 8007e70:	6afa      	ldr	r2, [r7, #44]	; 0x2c
 8007e72:	f64f 43ff 	movw	r3, #64767	; 0xfcff
 8007e76:	4013      	ands	r3, r2
 8007e78:	62fb      	str	r3, [r7, #44]	; 0x2c
  /* Configure the USART HFC -------------------------------------------------*/
  /* Set CTSE and RTSE bits according to USART_HardwareFlowControl value */
  tmpreg |= USART_InitStruct->USART_HardwareFlowControl;
 8007e7a:	683b      	ldr	r3, [r7, #0]
 8007e7c:	899b      	ldrh	r3, [r3, #12]
 8007e7e:	6afa      	ldr	r2, [r7, #44]	; 0x2c
 8007e80:	4313      	orrs	r3, r2
 8007e82:	62fb      	str	r3, [r7, #44]	; 0x2c
  /* Write to USART CR3 */
  USARTx->CR3 = (uint16_t)tmpreg;
 8007e84:	6afb      	ldr	r3, [r7, #44]	; 0x2c
 8007e86:	b29a      	uxth	r2, r3
 8007e88:	687b      	ldr	r3, [r7, #4]
 8007e8a:	829a      	strh	r2, [r3, #20]

/*---------------------------- USART BRR Configuration -----------------------*/
  /* Configure the USART Baud Rate -------------------------------------------*/
  RCC_GetClocksFreq(&RCC_ClocksStatus);
 8007e8c:	f107 0308 	add.w	r3, r7, #8
 8007e90:	4618      	mov	r0, r3
 8007e92:	f7ff fec9 	bl	8007c28 <RCC_GetClocksFreq>
  if (usartxbase == USART1_BASE)
 8007e96:	69fa      	ldr	r2, [r7, #28]
 8007e98:	4b37      	ldr	r3, [pc, #220]	; (8007f78 <USART_Init+0x194>)
 8007e9a:	429a      	cmp	r2, r3
 8007e9c:	d102      	bne.n	8007ea4 <USART_Init+0xc0>
  {
    apbclock = RCC_ClocksStatus.PCLK2_Frequency;
 8007e9e:	697b      	ldr	r3, [r7, #20]
 8007ea0:	62bb      	str	r3, [r7, #40]	; 0x28
 8007ea2:	e001      	b.n	8007ea8 <USART_Init+0xc4>
  }
  else
  {
    apbclock = RCC_ClocksStatus.PCLK1_Frequency;
 8007ea4:	693b      	ldr	r3, [r7, #16]
 8007ea6:	62bb      	str	r3, [r7, #40]	; 0x28
  }
  
  /* Determine the integer part */
  if ((USARTx->CR1 & CR1_OVER8_Set) != 0)
 8007ea8:	687b      	ldr	r3, [r7, #4]
 8007eaa:	899b      	ldrh	r3, [r3, #12]
 8007eac:	b29b      	uxth	r3, r3
 8007eae:	b29b      	uxth	r3, r3
 8007eb0:	b21b      	sxth	r3, r3
 8007eb2:	2b00      	cmp	r3, #0
 8007eb4:	da0f      	bge.n	8007ed6 <USART_Init+0xf2>
  {
    /* Integer part computing in case Oversampling mode is 8 Samples */
    integerdivider = ((25 * apbclock) / (2 * (USART_InitStruct->USART_BaudRate)));    
 8007eb6:	6aba      	ldr	r2, [r7, #40]	; 0x28
 8007eb8:	4613      	mov	r3, r2
 8007eba:	ea4f 0383 	mov.w	r3, r3, lsl #2
 8007ebe:	189b      	adds	r3, r3, r2
 8007ec0:	ea4f 0283 	mov.w	r2, r3, lsl #2
 8007ec4:	189a      	adds	r2, r3, r2
 8007ec6:	683b      	ldr	r3, [r7, #0]
 8007ec8:	681b      	ldr	r3, [r3, #0]
 8007eca:	ea4f 0343 	mov.w	r3, r3, lsl #1
 8007ece:	fbb2 f3f3 	udiv	r3, r2, r3
 8007ed2:	627b      	str	r3, [r7, #36]	; 0x24
 8007ed4:	e00e      	b.n	8007ef4 <USART_Init+0x110>
  }
  else /* if ((USARTx->CR1 & CR1_OVER8_Set) == 0) */
  {
    /* Integer part computing in case Oversampling mode is 16 Samples */
    integerdivider = ((25 * apbclock) / (4 * (USART_InitStruct->USART_BaudRate)));    
 8007ed6:	6aba      	ldr	r2, [r7, #40]	; 0x28
 8007ed8:	4613      	mov	r3, r2
 8007eda:	ea4f 0383 	mov.w	r3, r3, lsl #2
 8007ede:	189b      	adds	r3, r3, r2
 8007ee0:	ea4f 0283 	mov.w	r2, r3, lsl #2
 8007ee4:	189a      	adds	r2, r3, r2
 8007ee6:	683b      	ldr	r3, [r7, #0]
 8007ee8:	681b      	ldr	r3, [r3, #0]
 8007eea:	ea4f 0383 	mov.w	r3, r3, lsl #2
 8007eee:	fbb2 f3f3 	udiv	r3, r2, r3
 8007ef2:	627b      	str	r3, [r7, #36]	; 0x24
  }
  tmpreg = (integerdivider / 100) << 4;
 8007ef4:	6a7a      	ldr	r2, [r7, #36]	; 0x24
 8007ef6:	4b21      	ldr	r3, [pc, #132]	; (8007f7c <USART_Init+0x198>)
 8007ef8:	fba3 1302 	umull	r1, r3, r3, r2
 8007efc:	ea4f 1353 	mov.w	r3, r3, lsr #5
 8007f00:	ea4f 1303 	mov.w	r3, r3, lsl #4
 8007f04:	62fb      	str	r3, [r7, #44]	; 0x2c

  /* Determine the fractional part */
  fractionaldivider = integerdivider - (100 * (tmpreg >> 4));
 8007f06:	6afb      	ldr	r3, [r7, #44]	; 0x2c
 8007f08:	ea4f 1313 	mov.w	r3, r3, lsr #4
 8007f0c:	f04f 0264 	mov.w	r2, #100	; 0x64
 8007f10:	fb02 f303 	mul.w	r3, r2, r3
 8007f14:	6a7a      	ldr	r2, [r7, #36]	; 0x24
 8007f16:	1ad3      	subs	r3, r2, r3
 8007f18:	623b      	str	r3, [r7, #32]

  /* Implement the fractional part in the register */
  if ((USARTx->CR1 & CR1_OVER8_Set) != 0)
 8007f1a:	687b      	ldr	r3, [r7, #4]
 8007f1c:	899b      	ldrh	r3, [r3, #12]
 8007f1e:	b29b      	uxth	r3, r3
 8007f20:	b29b      	uxth	r3, r3
 8007f22:	b21b      	sxth	r3, r3
 8007f24:	2b00      	cmp	r3, #0
 8007f26:	da0f      	bge.n	8007f48 <USART_Init+0x164>
  {
    tmpreg |= ((((fractionaldivider * 8) + 50) / 100)) & ((uint8_t)0x07);
 8007f28:	6a3b      	ldr	r3, [r7, #32]
 8007f2a:	ea4f 03c3 	mov.w	r3, r3, lsl #3
 8007f2e:	f103 0232 	add.w	r2, r3, #50	; 0x32
 8007f32:	4b12      	ldr	r3, [pc, #72]	; (8007f7c <USART_Init+0x198>)
 8007f34:	fba3 1302 	umull	r1, r3, r3, r2
 8007f38:	ea4f 1353 	mov.w	r3, r3, lsr #5
 8007f3c:	f003 0307 	and.w	r3, r3, #7
 8007f40:	6afa      	ldr	r2, [r7, #44]	; 0x2c
 8007f42:	4313      	orrs	r3, r2
 8007f44:	62fb      	str	r3, [r7, #44]	; 0x2c
 8007f46:	e00e      	b.n	8007f66 <USART_Init+0x182>
  }
  else /* if ((USARTx->CR1 & CR1_OVER8_Set) == 0) */
  {
    tmpreg |= ((((fractionaldivider * 16) + 50) / 100)) & ((uint8_t)0x0F);
 8007f48:	6a3b      	ldr	r3, [r7, #32]
 8007f4a:	ea4f 1303 	mov.w	r3, r3, lsl #4
 8007f4e:	f103 0232 	add.w	r2, r3, #50	; 0x32
 8007f52:	4b0a      	ldr	r3, [pc, #40]	; (8007f7c <USART_Init+0x198>)
 8007f54:	fba3 1302 	umull	r1, r3, r3, r2
 8007f58:	ea4f 1353 	mov.w	r3, r3, lsr #5
 8007f5c:	f003 030f 	and.w	r3, r3, #15
 8007f60:	6afa      	ldr	r2, [r7, #44]	; 0x2c
 8007f62:	4313      	orrs	r3, r2
 8007f64:	62fb      	str	r3, [r7, #44]	; 0x2c
  }
  
  /* Write to USART BRR */
  USARTx->BRR = (uint16_t)tmpreg;
 8007f66:	6afb      	ldr	r3, [r7, #44]	; 0x2c
 8007f68:	b29a      	uxth	r2, r3
 8007f6a:	687b      	ldr	r3, [r7, #4]
 8007f6c:	811a      	strh	r2, [r3, #8]
}
 8007f6e:	f107 0730 	add.w	r7, r7, #48	; 0x30
 8007f72:	46bd      	mov	sp, r7
 8007f74:	bd80      	pop	{r7, pc}
 8007f76:	bf00      	nop
 8007f78:	40013800 	.word	0x40013800
 8007f7c:	51eb851f 	.word	0x51eb851f

08007f80 <USART_StructInit>:
  * @param  USART_InitStruct: pointer to a USART_InitTypeDef structure
  *         which will be initialized.
  * @retval None
  */
void USART_StructInit(USART_InitTypeDef* USART_InitStruct)
{
 8007f80:	b480      	push	{r7}
 8007f82:	b083      	sub	sp, #12
 8007f84:	af00      	add	r7, sp, #0
 8007f86:	6078      	str	r0, [r7, #4]
  /* USART_InitStruct members default value */
  USART_InitStruct->USART_BaudRate = 9600;
 8007f88:	687b      	ldr	r3, [r7, #4]
 8007f8a:	f44f 5216 	mov.w	r2, #9600	; 0x2580
 8007f8e:	601a      	str	r2, [r3, #0]
  USART_InitStruct->USART_WordLength = USART_WordLength_8b;
 8007f90:	687b      	ldr	r3, [r7, #4]
 8007f92:	f04f 0200 	mov.w	r2, #0
 8007f96:	809a      	strh	r2, [r3, #4]
  USART_InitStruct->USART_StopBits = USART_StopBits_1;
 8007f98:	687b      	ldr	r3, [r7, #4]
 8007f9a:	f04f 0200 	mov.w	r2, #0
 8007f9e:	80da      	strh	r2, [r3, #6]
  USART_InitStruct->USART_Parity = USART_Parity_No ;
 8007fa0:	687b      	ldr	r3, [r7, #4]
 8007fa2:	f04f 0200 	mov.w	r2, #0
 8007fa6:	811a      	strh	r2, [r3, #8]
  USART_InitStruct->USART_Mode = USART_Mode_Rx | USART_Mode_Tx;
 8007fa8:	687b      	ldr	r3, [r7, #4]
 8007faa:	f04f 020c 	mov.w	r2, #12
 8007fae:	815a      	strh	r2, [r3, #10]
  USART_InitStruct->USART_HardwareFlowControl = USART_HardwareFlowControl_None;  
 8007fb0:	687b      	ldr	r3, [r7, #4]
 8007fb2:	f04f 0200 	mov.w	r2, #0
 8007fb6:	819a      	strh	r2, [r3, #12]
}
 8007fb8:	f107 070c 	add.w	r7, r7, #12
 8007fbc:	46bd      	mov	sp, r7
 8007fbe:	bc80      	pop	{r7}
 8007fc0:	4770      	bx	lr
 8007fc2:	bf00      	nop

08007fc4 <USART_Cmd>:
  * @param  NewState: new state of the USARTx peripheral.
  *         This parameter can be: ENABLE or DISABLE.
  * @retval None
  */
void USART_Cmd(USART_TypeDef* USARTx, FunctionalState NewState)
{
 8007fc4:	b480      	push	{r7}
 8007fc6:	b083      	sub	sp, #12
 8007fc8:	af00      	add	r7, sp, #0
 8007fca:	6078      	str	r0, [r7, #4]
 8007fcc:	460b      	mov	r3, r1
 8007fce:	70fb      	strb	r3, [r7, #3]
  /* Check the parameters */
  assert_param(IS_USART_ALL_PERIPH(USARTx));
  assert_param(IS_FUNCTIONAL_STATE(NewState));
  
  if (NewState != DISABLE)
 8007fd0:	78fb      	ldrb	r3, [r7, #3]
 8007fd2:	2b00      	cmp	r3, #0
 8007fd4:	d008      	beq.n	8007fe8 <USART_Cmd+0x24>
  {
    /* Enable the selected USART by setting the UE bit in the CR1 register */
    USARTx->CR1 |= CR1_UE_Set;
 8007fd6:	687b      	ldr	r3, [r7, #4]
 8007fd8:	899b      	ldrh	r3, [r3, #12]
 8007fda:	b29b      	uxth	r3, r3
 8007fdc:	f443 5300 	orr.w	r3, r3, #8192	; 0x2000
 8007fe0:	b29a      	uxth	r2, r3
 8007fe2:	687b      	ldr	r3, [r7, #4]
 8007fe4:	819a      	strh	r2, [r3, #12]
 8007fe6:	e007      	b.n	8007ff8 <USART_Cmd+0x34>
  }
  else
  {
    /* Disable the selected USART by clearing the UE bit in the CR1 register */
    USARTx->CR1 &= CR1_UE_Reset;
 8007fe8:	687b      	ldr	r3, [r7, #4]
 8007fea:	899b      	ldrh	r3, [r3, #12]
 8007fec:	b29b      	uxth	r3, r3
 8007fee:	f423 5300 	bic.w	r3, r3, #8192	; 0x2000
 8007ff2:	b29a      	uxth	r2, r3
 8007ff4:	687b      	ldr	r3, [r7, #4]
 8007ff6:	819a      	strh	r2, [r3, #12]
  }
}
 8007ff8:	f107 070c 	add.w	r7, r7, #12
 8007ffc:	46bd      	mov	sp, r7
 8007ffe:	bc80      	pop	{r7}
 8008000:	4770      	bx	lr
 8008002:	bf00      	nop

08008004 <USART_GetFlagStatus>:
  *     @arg USART_FLAG_FE:   Framing Error flag
  *     @arg USART_FLAG_PE:   Parity Error flag
  * @retval The new state of USART_FLAG (SET or RESET).
  */
FlagStatus USART_GetFlagStatus(USART_TypeDef* USARTx, uint16_t USART_FLAG)
{
 8008004:	b480      	push	{r7}
 8008006:	b085      	sub	sp, #20
 8008008:	af00      	add	r7, sp, #0
 800800a:	6078      	str	r0, [r7, #4]
 800800c:	460b      	mov	r3, r1
 800800e:	807b      	strh	r3, [r7, #2]
  FlagStatus bitstatus = RESET;
 8008010:	f04f 0300 	mov.w	r3, #0
 8008014:	73fb      	strb	r3, [r7, #15]
  if (USART_FLAG == USART_FLAG_CTS)
  {
    assert_param(IS_USART_123_PERIPH(USARTx));
  }  
  
  if ((USARTx->SR & USART_FLAG) != (uint16_t)RESET)
 8008016:	687b      	ldr	r3, [r7, #4]
 8008018:	881b      	ldrh	r3, [r3, #0]
 800801a:	b29a      	uxth	r2, r3
 800801c:	887b      	ldrh	r3, [r7, #2]
 800801e:	4013      	ands	r3, r2
 8008020:	b29b      	uxth	r3, r3
 8008022:	2b00      	cmp	r3, #0
 8008024:	d003      	beq.n	800802e <USART_GetFlagStatus+0x2a>
  {
    bitstatus = SET;
 8008026:	f04f 0301 	mov.w	r3, #1
 800802a:	73fb      	strb	r3, [r7, #15]
 800802c:	e002      	b.n	8008034 <USART_GetFlagStatus+0x30>
  }
  else
  {
    bitstatus = RESET;
 800802e:	f04f 0300 	mov.w	r3, #0
 8008032:	73fb      	strb	r3, [r7, #15]
  }
  return bitstatus;
 8008034:	7bfb      	ldrb	r3, [r7, #15]
}
 8008036:	4618      	mov	r0, r3
 8008038:	f107 0714 	add.w	r7, r7, #20
 800803c:	46bd      	mov	sp, r7
 800803e:	bc80      	pop	{r7}
 8008040:	4770      	bx	lr
 8008042:	bf00      	nop

08008044 <Reset_Handler>:
	.weak	Reset_Handler
	.type	Reset_Handler, %function
Reset_Handler:

/* Copy the data segment initializers from flash to SRAM */
  movs	r1, #0
 8008044:	2100      	movs	r1, #0
  b	LoopCopyDataInit
 8008046:	f000 b804 	b.w	8008052 <LoopCopyDataInit>

0800804a <CopyDataInit>:

CopyDataInit:
	ldr	r3, =_sidata
 800804a:	4b0d      	ldr	r3, [pc, #52]	; (8008080 <LoopFillZerobss+0x16>)
	ldr	r3, [r3, r1]
 800804c:	585b      	ldr	r3, [r3, r1]
	str	r3, [r0, r1]
 800804e:	5043      	str	r3, [r0, r1]
	adds	r1, r1, #4
 8008050:	3104      	adds	r1, #4

08008052 <LoopCopyDataInit>:

LoopCopyDataInit:
	ldr	r0, =_sdata
 8008052:	480c      	ldr	r0, [pc, #48]	; (8008084 <LoopFillZerobss+0x1a>)
	ldr	r3, =_edata
 8008054:	4b0c      	ldr	r3, [pc, #48]	; (8008088 <LoopFillZerobss+0x1e>)
	adds	r2, r0, r1
 8008056:	1842      	adds	r2, r0, r1
	cmp	r2, r3
 8008058:	429a      	cmp	r2, r3
	bcc	CopyDataInit
 800805a:	f4ff aff6 	bcc.w	800804a <CopyDataInit>
	ldr	r2, =_sbss
 800805e:	4a0b      	ldr	r2, [pc, #44]	; (800808c <LoopFillZerobss+0x22>)
	b	LoopFillZerobss
 8008060:	f000 b803 	b.w	800806a <LoopFillZerobss>

08008064 <FillZerobss>:
/* Zero fill the bss segment. */
FillZerobss:
	movs	r3, #0
 8008064:	2300      	movs	r3, #0
	str	r3, [r2], #4
 8008066:	f842 3b04 	str.w	r3, [r2], #4

0800806a <LoopFillZerobss>:

LoopFillZerobss:
	ldr	r3, = _ebss
 800806a:	4b09      	ldr	r3, [pc, #36]	; (8008090 <LoopFillZerobss+0x26>)
	cmp	r2, r3
 800806c:	429a      	cmp	r2, r3
	bcc	FillZerobss
 800806e:	f4ff aff9 	bcc.w	8008064 <FillZerobss>

/* Call the clock system intitialization function.*/
    bl  SystemInit
 8008072:	f7ff fc11 	bl	8007898 <SystemInit>
/* Call static constructors */
    bl __libc_init_array
 8008076:	f7f8 f8af 	bl	80001d8 <__libc_init_array>
/* Call the application's entry point.*/
	bl	main
 800807a:	f7ff fb15 	bl	80076a8 <main>
	bx	lr
 800807e:	4770      	bx	lr
/* Copy the data segment initializers from flash to SRAM */
  movs	r1, #0
  b	LoopCopyDataInit

CopyDataInit:
	ldr	r3, =_sidata
 8008080:	0800856c 	.word	0x0800856c
	ldr	r3, [r3, r1]
	str	r3, [r0, r1]
	adds	r1, r1, #4

LoopCopyDataInit:
	ldr	r0, =_sdata
 8008084:	20000000 	.word	0x20000000
	ldr	r3, =_edata
 8008088:	20000598 	.word	0x20000598
	adds	r2, r0, r1
	cmp	r2, r3
	bcc	CopyDataInit
	ldr	r2, =_sbss
 800808c:	20000598 	.word	0x20000598
FillZerobss:
	movs	r3, #0
	str	r3, [r2], #4

LoopFillZerobss:
	ldr	r3, = _ebss
 8008090:	200005f4 	.word	0x200005f4

08008094 <ADC1_2_IRQHandler>:
 * @retval : None
*/
    .section	.text.Default_Handler,"ax",%progbits
Default_Handler:
Infinite_Loop:
	b	Infinite_Loop
 8008094:	f7ff bffe 	b.w	8008094 <ADC1_2_IRQHandler>

08008098 <__get_MSP>:
 * Cortex processor register
 */
uint32_t __get_MSP(void) __attribute__( ( naked ) );
uint32_t __get_MSP(void)
{
	uint32_t result = 0;
 8008098:	f04f 0400 	mov.w	r4, #0

	__ASM volatile ("MRS %0, msp\n\t"
 800809c:	f3ef 8408 	mrs	r4, MSP
 80080a0:	4620      	mov	r0, r4
 80080a2:	4770      	bx	lr
			"MOV r0, %0 \n\t"
			"BX  lr     \n\t" : "=r" (result) );
	return (result);
 80080a4:	4623      	mov	r3, r4
}
 80080a6:	4618      	mov	r0, r3

080080a8 <_close>:
		;
	}
}

int _close(int file)
{
 80080a8:	b480      	push	{r7}
 80080aa:	b083      	sub	sp, #12
 80080ac:	af00      	add	r7, sp, #0
 80080ae:	6078      	str	r0, [r7, #4]
	return -1;
 80080b0:	f04f 33ff 	mov.w	r3, #4294967295
}
 80080b4:	4618      	mov	r0, r3
 80080b6:	f107 070c 	add.w	r7, r7, #12
 80080ba:	46bd      	mov	sp, r7
 80080bc:	bc80      	pop	{r7}
 80080be:	4770      	bx	lr

080080c0 <_fstat>:
 Status of an open file. For consistency with other minimal implementations in these examples,
 all files are regarded as character special devices.
 The `sys/stat.h' header file required is distributed in the `include' subdirectory for this C library.
 */
int _fstat(int file, struct stat *st)
{
 80080c0:	b480      	push	{r7}
 80080c2:	b083      	sub	sp, #12
 80080c4:	af00      	add	r7, sp, #0
 80080c6:	6078      	str	r0, [r7, #4]
 80080c8:	6039      	str	r1, [r7, #0]
	st->st_mode = S_IFCHR;
 80080ca:	683b      	ldr	r3, [r7, #0]
 80080cc:	f44f 5200 	mov.w	r2, #8192	; 0x2000
 80080d0:	605a      	str	r2, [r3, #4]
	return 0;
 80080d2:	f04f 0300 	mov.w	r3, #0
}
 80080d6:	4618      	mov	r0, r3
 80080d8:	f107 070c 	add.w	r7, r7, #12
 80080dc:	46bd      	mov	sp, r7
 80080de:	bc80      	pop	{r7}
 80080e0:	4770      	bx	lr
 80080e2:	bf00      	nop

080080e4 <_isatty>:
/*
 isatty
 Query whether output stream is a terminal. For consistency with the other minimal implementations,
 */
int _isatty(int file)
{
 80080e4:	b480      	push	{r7}
 80080e6:	b083      	sub	sp, #12
 80080e8:	af00      	add	r7, sp, #0
 80080ea:	6078      	str	r0, [r7, #4]
	switch (file)
 80080ec:	687b      	ldr	r3, [r7, #4]
 80080ee:	f103 0300 	add.w	r3, r3, #0
 80080f2:	2b02      	cmp	r3, #2
 80080f4:	d802      	bhi.n	80080fc <_isatty+0x18>
	{
	case STDOUT_FILENO:
	case STDERR_FILENO:
	case STDIN_FILENO:
		return 1;
 80080f6:	f04f 0301 	mov.w	r3, #1
 80080fa:	e005      	b.n	8008108 <_isatty+0x24>
	default:
		//errno = ENOTTY;
		errno = EBADF;
 80080fc:	4b05      	ldr	r3, [pc, #20]	; (8008114 <_isatty+0x30>)
 80080fe:	f04f 0209 	mov.w	r2, #9
 8008102:	601a      	str	r2, [r3, #0]
		return 0;
 8008104:	f04f 0300 	mov.w	r3, #0
	}
}
 8008108:	4618      	mov	r0, r3
 800810a:	f107 070c 	add.w	r7, r7, #12
 800810e:	46bd      	mov	sp, r7
 8008110:	bc80      	pop	{r7}
 8008112:	4770      	bx	lr
 8008114:	200005f0 	.word	0x200005f0

08008118 <_lseek>:
/*
 lseek
 Set position in a file. Minimal implementation:
 */
int _lseek(int file, int ptr, int dir)
{
 8008118:	b480      	push	{r7}
 800811a:	b085      	sub	sp, #20
 800811c:	af00      	add	r7, sp, #0
 800811e:	60f8      	str	r0, [r7, #12]
 8008120:	60b9      	str	r1, [r7, #8]
 8008122:	607a      	str	r2, [r7, #4]
	return 0;
 8008124:	f04f 0300 	mov.w	r3, #0
}
 8008128:	4618      	mov	r0, r3
 800812a:	f107 0714 	add.w	r7, r7, #20
 800812e:	46bd      	mov	sp, r7
 8008130:	bc80      	pop	{r7}
 8008132:	4770      	bx	lr

08008134 <_sbrk>:
 sbrk
 Increase program data space.
 Malloc and related functions depend on this
 */
caddr_t _sbrk(int incr)
{
 8008134:	b580      	push	{r7, lr}
 8008136:	b084      	sub	sp, #16
 8008138:	af00      	add	r7, sp, #0
 800813a:	6078      	str	r0, [r7, #4]

	extern char _ebss; // Defined by the linker
	static char *heap_end;
	char *prev_heap_end;

	if (heap_end == 0)
 800813c:	4b17      	ldr	r3, [pc, #92]	; (800819c <_sbrk+0x68>)
 800813e:	681b      	ldr	r3, [r3, #0]
 8008140:	2b00      	cmp	r3, #0
 8008142:	d102      	bne.n	800814a <_sbrk+0x16>
	{
		heap_end = &_ebss;
 8008144:	4b15      	ldr	r3, [pc, #84]	; (800819c <_sbrk+0x68>)
 8008146:	4a16      	ldr	r2, [pc, #88]	; (80081a0 <_sbrk+0x6c>)
 8008148:	601a      	str	r2, [r3, #0]
	}
	prev_heap_end = heap_end;
 800814a:	4b14      	ldr	r3, [pc, #80]	; (800819c <_sbrk+0x68>)
 800814c:	681b      	ldr	r3, [r3, #0]
 800814e:	60fb      	str	r3, [r7, #12]

	char * stack = (char*) __get_MSP();
 8008150:	f7ff ffa2 	bl	8008098 <__get_MSP>
 8008154:	4603      	mov	r3, r0
 8008156:	60bb      	str	r3, [r7, #8]
	if (heap_end + incr > stack)
 8008158:	4b10      	ldr	r3, [pc, #64]	; (800819c <_sbrk+0x68>)
 800815a:	681a      	ldr	r2, [r3, #0]
 800815c:	687b      	ldr	r3, [r7, #4]
 800815e:	18d2      	adds	r2, r2, r3
 8008160:	68bb      	ldr	r3, [r7, #8]
 8008162:	429a      	cmp	r2, r3
 8008164:	d90d      	bls.n	8008182 <_sbrk+0x4e>
	{
		_write(STDERR_FILENO, "Heap and stack collision\n", 25);
 8008166:	f04f 0002 	mov.w	r0, #2
 800816a:	490e      	ldr	r1, [pc, #56]	; (80081a4 <_sbrk+0x70>)
 800816c:	f04f 0219 	mov.w	r2, #25
 8008170:	f000 f85e 	bl	8008230 <_write>
		errno = ENOMEM;
 8008174:	4b0c      	ldr	r3, [pc, #48]	; (80081a8 <_sbrk+0x74>)
 8008176:	f04f 020c 	mov.w	r2, #12
 800817a:	601a      	str	r2, [r3, #0]
		return (caddr_t) -1;
 800817c:	f04f 33ff 	mov.w	r3, #4294967295
 8008180:	e006      	b.n	8008190 <_sbrk+0x5c>
		//abort ();
	}

	heap_end += incr;
 8008182:	4b06      	ldr	r3, [pc, #24]	; (800819c <_sbrk+0x68>)
 8008184:	681a      	ldr	r2, [r3, #0]
 8008186:	687b      	ldr	r3, [r7, #4]
 8008188:	18d2      	adds	r2, r2, r3
 800818a:	4b04      	ldr	r3, [pc, #16]	; (800819c <_sbrk+0x68>)
 800818c:	601a      	str	r2, [r3, #0]
	return (caddr_t) prev_heap_end;
 800818e:	68fb      	ldr	r3, [r7, #12]

}
 8008190:	4618      	mov	r0, r3
 8008192:	f107 0710 	add.w	r7, r7, #16
 8008196:	46bd      	mov	sp, r7
 8008198:	bd80      	pop	{r7, pc}
 800819a:	bf00      	nop
 800819c:	200005e8 	.word	0x200005e8
 80081a0:	200005f4 	.word	0x200005f4
 80081a4:	080082f8 	.word	0x080082f8
 80081a8:	200005f0 	.word	0x200005f0

080081ac <_read>:
 Read a character to a file. `libc' subroutines will use this system routine for input from all files, including stdin
 Returns -1 on error or blocks until the number of characters have been read.
 */

int _read(int file, char *ptr, int len)
{
 80081ac:	b480      	push	{r7}
 80081ae:	b089      	sub	sp, #36	; 0x24
 80081b0:	af00      	add	r7, sp, #0
 80081b2:	60f8      	str	r0, [r7, #12]
 80081b4:	60b9      	str	r1, [r7, #8]
 80081b6:	607a      	str	r2, [r7, #4]
	int n;
	int num = 0;
 80081b8:	f04f 0300 	mov.w	r3, #0
 80081bc:	61bb      	str	r3, [r7, #24]
	switch (file)
 80081be:	68fb      	ldr	r3, [r7, #12]
 80081c0:	2b00      	cmp	r3, #0
 80081c2:	d123      	bne.n	800820c <_read+0x60>
	{
	case STDIN_FILENO:
		for (n = 0; n < len; n++)
 80081c4:	f04f 0300 	mov.w	r3, #0
 80081c8:	61fb      	str	r3, [r7, #28]
 80081ca:	e01a      	b.n	8008202 <_read+0x56>
		{
#if   STDIN_USART == 1
			while ((USART1->SR & USART_FLAG_RXNE) == (uint16_t) RESET);
			char c = (char)(USART1->DR & (uint16_t)0x01FF);
#elif STDIN_USART == 2
			while ((USART2 ->SR & USART_FLAG_RXNE )== (uint16_t) RESET);
 80081cc:	bf00      	nop
 80081ce:	4b16      	ldr	r3, [pc, #88]	; (8008228 <_read+0x7c>)
 80081d0:	881b      	ldrh	r3, [r3, #0]
 80081d2:	b29b      	uxth	r3, r3
 80081d4:	f003 0320 	and.w	r3, r3, #32
 80081d8:	2b00      	cmp	r3, #0
 80081da:	d0f8      	beq.n	80081ce <_read+0x22>
			char c = (char) (USART2->DR & (uint16_t) 0x01FF);
 80081dc:	4b12      	ldr	r3, [pc, #72]	; (8008228 <_read+0x7c>)
 80081de:	889b      	ldrh	r3, [r3, #4]
 80081e0:	b29b      	uxth	r3, r3
 80081e2:	75fb      	strb	r3, [r7, #23]
#elif STDIN_USART == 3
					while ((USART3->SR & USART_FLAG_RXNE) == (uint16_t) RESET);
					char c = (char)(USART3->DR & (uint16_t)0x01FF);
#endif
					*ptr++ = c;
 80081e4:	68bb      	ldr	r3, [r7, #8]
 80081e6:	7dfa      	ldrb	r2, [r7, #23]
 80081e8:	701a      	strb	r2, [r3, #0]
 80081ea:	68bb      	ldr	r3, [r7, #8]
 80081ec:	f103 0301 	add.w	r3, r3, #1
 80081f0:	60bb      	str	r3, [r7, #8]
					num++;
 80081f2:	69bb      	ldr	r3, [r7, #24]
 80081f4:	f103 0301 	add.w	r3, r3, #1
 80081f8:	61bb      	str	r3, [r7, #24]
	int n;
	int num = 0;
	switch (file)
	{
	case STDIN_FILENO:
		for (n = 0; n < len; n++)
 80081fa:	69fb      	ldr	r3, [r7, #28]
 80081fc:	f103 0301 	add.w	r3, r3, #1
 8008200:	61fb      	str	r3, [r7, #28]
 8008202:	69fa      	ldr	r2, [r7, #28]
 8008204:	687b      	ldr	r3, [r7, #4]
 8008206:	429a      	cmp	r2, r3
 8008208:	dbe0      	blt.n	80081cc <_read+0x20>
					char c = (char)(USART3->DR & (uint16_t)0x01FF);
#endif
					*ptr++ = c;
					num++;
				}
				break;
 800820a:	e006      	b.n	800821a <_read+0x6e>
				default:
				errno = EBADF;
 800820c:	4b07      	ldr	r3, [pc, #28]	; (800822c <_read+0x80>)
 800820e:	f04f 0209 	mov.w	r2, #9
 8008212:	601a      	str	r2, [r3, #0]
				return -1;
 8008214:	f04f 33ff 	mov.w	r3, #4294967295
 8008218:	e000      	b.n	800821c <_read+0x70>
			}
	return num;
 800821a:	69bb      	ldr	r3, [r7, #24]
}
 800821c:	4618      	mov	r0, r3
 800821e:	f107 0724 	add.w	r7, r7, #36	; 0x24
 8008222:	46bd      	mov	sp, r7
 8008224:	bc80      	pop	{r7}
 8008226:	4770      	bx	lr
 8008228:	40004400 	.word	0x40004400
 800822c:	200005f0 	.word	0x200005f0

08008230 <_write>:
 write
 Write a character to a file. `libc' subroutines will use this system routine for output to all files, including stdout
 Returns -1 on error or number of bytes sent
 */
int _write(int file, char *ptr, int len)
{
 8008230:	b480      	push	{r7}
 8008232:	b087      	sub	sp, #28
 8008234:	af00      	add	r7, sp, #0
 8008236:	60f8      	str	r0, [r7, #12]
 8008238:	60b9      	str	r1, [r7, #8]
 800823a:	607a      	str	r2, [r7, #4]
	int n;
	switch (file)
 800823c:	68fb      	ldr	r3, [r7, #12]
 800823e:	2b01      	cmp	r3, #1
 8008240:	d002      	beq.n	8008248 <_write+0x18>
 8008242:	2b02      	cmp	r3, #2
 8008244:	d01d      	beq.n	8008282 <_write+0x52>
 8008246:	e039      	b.n	80082bc <_write+0x8c>
	{
	case STDOUT_FILENO: /*stdout*/
		for (n = 0; n < len; n++)
 8008248:	f04f 0300 	mov.w	r3, #0
 800824c:	617b      	str	r3, [r7, #20]
 800824e:	e013      	b.n	8008278 <_write+0x48>
		{
#if STDOUT_USART == 1
			while ((USART1 ->SR & USART_FLAG_TC )== (uint16_t) RESET);
 8008250:	bf00      	nop
 8008252:	4b21      	ldr	r3, [pc, #132]	; (80082d8 <_write+0xa8>)
 8008254:	881b      	ldrh	r3, [r3, #0]
 8008256:	b29b      	uxth	r3, r3
 8008258:	f003 0340 	and.w	r3, r3, #64	; 0x40
 800825c:	2b00      	cmp	r3, #0
 800825e:	d0f8      	beq.n	8008252 <_write+0x22>
			USART1->DR = (*ptr++ & (uint16_t)0x01FF);
 8008260:	4b1d      	ldr	r3, [pc, #116]	; (80082d8 <_write+0xa8>)
 8008262:	68ba      	ldr	r2, [r7, #8]
 8008264:	7812      	ldrb	r2, [r2, #0]
 8008266:	809a      	strh	r2, [r3, #4]
 8008268:	68bb      	ldr	r3, [r7, #8]
 800826a:	f103 0301 	add.w	r3, r3, #1
 800826e:	60bb      	str	r3, [r7, #8]
{
	int n;
	switch (file)
	{
	case STDOUT_FILENO: /*stdout*/
		for (n = 0; n < len; n++)
 8008270:	697b      	ldr	r3, [r7, #20]
 8008272:	f103 0301 	add.w	r3, r3, #1
 8008276:	617b      	str	r3, [r7, #20]
 8008278:	697a      	ldr	r2, [r7, #20]
 800827a:	687b      	ldr	r3, [r7, #4]
 800827c:	429a      	cmp	r2, r3
 800827e:	dbe7      	blt.n	8008250 <_write+0x20>
#elif  STDOUT_USART == 3
					while ((USART3->SR & USART_FLAG_TC) == (uint16_t) RESET);
					USART3->DR = (*ptr++ & (uint16_t)0x01FF);
#endif
				}
				break;
 8008280:	e023      	b.n	80082ca <_write+0x9a>
				case STDERR_FILENO: /* stderr */
				for (n = 0; n < len; n++)
 8008282:	f04f 0300 	mov.w	r3, #0
 8008286:	617b      	str	r3, [r7, #20]
 8008288:	e013      	b.n	80082b2 <_write+0x82>
				{
#if STDERR_USART == 1
					while ((USART1->SR & USART_FLAG_TC) == (uint16_t) RESET);
					USART1->DR = (*ptr++ & (uint16_t)0x01FF);
#elif  STDERR_USART == 2
					while ((USART2->SR & USART_FLAG_TC) == (uint16_t) RESET);
 800828a:	bf00      	nop
 800828c:	4b13      	ldr	r3, [pc, #76]	; (80082dc <_write+0xac>)
 800828e:	881b      	ldrh	r3, [r3, #0]
 8008290:	b29b      	uxth	r3, r3
 8008292:	f003 0340 	and.w	r3, r3, #64	; 0x40
 8008296:	2b00      	cmp	r3, #0
 8008298:	d0f8      	beq.n	800828c <_write+0x5c>
					USART2->DR = (*ptr++ & (uint16_t) 0x01FF);
 800829a:	4b10      	ldr	r3, [pc, #64]	; (80082dc <_write+0xac>)
 800829c:	68ba      	ldr	r2, [r7, #8]
 800829e:	7812      	ldrb	r2, [r2, #0]
 80082a0:	809a      	strh	r2, [r3, #4]
 80082a2:	68bb      	ldr	r3, [r7, #8]
 80082a4:	f103 0301 	add.w	r3, r3, #1
 80082a8:	60bb      	str	r3, [r7, #8]
					USART3->DR = (*ptr++ & (uint16_t)0x01FF);
#endif
				}
				break;
				case STDERR_FILENO: /* stderr */
				for (n = 0; n < len; n++)
 80082aa:	697b      	ldr	r3, [r7, #20]
 80082ac:	f103 0301 	add.w	r3, r3, #1
 80082b0:	617b      	str	r3, [r7, #20]
 80082b2:	697a      	ldr	r2, [r7, #20]
 80082b4:	687b      	ldr	r3, [r7, #4]
 80082b6:	429a      	cmp	r2, r3
 80082b8:	dbe7      	blt.n	800828a <_write+0x5a>
#elif  STDERR_USART == 3
					while ((USART3->SR & USART_FLAG_TC) == (uint16_t) RESET);
					USART3->DR = (*ptr++ & (uint16_t)0x01FF);
#endif
				}
				break;
 80082ba:	e006      	b.n	80082ca <_write+0x9a>
				default:
				errno = EBADF;
 80082bc:	4b08      	ldr	r3, [pc, #32]	; (80082e0 <_write+0xb0>)
 80082be:	f04f 0209 	mov.w	r2, #9
 80082c2:	601a      	str	r2, [r3, #0]
				return -1;
 80082c4:	f04f 33ff 	mov.w	r3, #4294967295
 80082c8:	e000      	b.n	80082cc <_write+0x9c>
			}
	return len;
 80082ca:	687b      	ldr	r3, [r7, #4]
}
 80082cc:	4618      	mov	r0, r3
 80082ce:	f107 071c 	add.w	r7, r7, #28
 80082d2:	46bd      	mov	sp, r7
 80082d4:	bc80      	pop	{r7}
 80082d6:	4770      	bx	lr
 80082d8:	40013800 	.word	0x40013800
 80082dc:	40004400 	.word	0x40004400
 80082e0:	200005f0 	.word	0x200005f0
 80082e4:	2d2d4b4f 	.word	0x2d2d4b4f
 80082e8:	0a64253e 	.word	0x0a64253e
 80082ec:	0000000d 	.word	0x0000000d
 80082f0:	74697865 	.word	0x74697865
 80082f4:	00000000 	.word	0x00000000
 80082f8:	70616548 	.word	0x70616548
 80082fc:	646e6120 	.word	0x646e6120
 8008300:	61747320 	.word	0x61747320
 8008304:	63206b63 	.word	0x63206b63
 8008308:	696c6c6f 	.word	0x696c6c6f
 800830c:	6e6f6973 	.word	0x6e6f6973
 8008310:	0000000a 	.word	0x0000000a

08008314 <_global_impure_ptr>:
 8008314:	20000004                                ... 

08008318 <blanks.6750>:
 8008318:	20202020 20202020 20202020 20202020                     

08008328 <zeroes.6751>:
 8008328:	30303030 30303030 30303030 30303030     0000000000000000

08008338 <__sf_fake_stderr>:
	...

08008358 <__sf_fake_stdout>:
	...

08008378 <__sf_fake_stdin>:
	...

08008398 <p05.5261>:
 8008398:	00000005 00000019 0000007d 00000000     ........}.......

080083a8 <__mprec_tens>:
 80083a8:	00000000 3ff00000 00000000 40240000     .......?......$@
 80083b8:	00000000 40590000 00000000 408f4000     ......Y@.....@.@
 80083c8:	00000000 40c38800 00000000 40f86a00     .......@.....j.@
 80083d8:	00000000 412e8480 00000000 416312d0     .......A......cA
 80083e8:	00000000 4197d784 00000000 41cdcd65     .......A....e..A
 80083f8:	20000000 4202a05f e8000000 42374876     ... _..B....vH7B
 8008408:	a2000000 426d1a94 e5400000 42a2309c     ......mB..@..0.B
 8008418:	1e900000 42d6bcc4 26340000 430c6bf5     .......B..4&.k.C
 8008428:	37e08000 4341c379 85d8a000 43763457     ...7y.AC....W4vC
 8008438:	674ec800 43abc16d 60913d00 43e158e4     ..Ngm..C.=.`.X.C
 8008448:	78b58c40 4415af1d d6e2ef50 444b1ae4     @..x...DP.....KD
 8008458:	064dd592 4480f0cf c7e14af6 44b52d02     ..M....D.J...-.D
 8008468:	79d99db4 44ea7843                       ...yCx.D

08008470 <__mprec_tinytens>:
 8008470:	97d889bc 3c9cd2b2 d5a8a733 3949f623     .......<3...#.I9
 8008480:	44f4a73d 32a50ffd cf8c979d 255bba08     =..D...2......[%
 8008490:	64ac6f43 0ac80628                       Co.d(...

08008498 <__mprec_bigtens>:
 8008498:	37e08000 4341c379 b5056e17 4693b8b5     ...7y.AC.n.....F
 80084a8:	e93ff9f5 4d384f03 f9301d32 5a827748     ..?..O8M2.0.Hw.Z
 80084b8:	7f73bf3c 75154fdd                       <.s..O.u

080084c0 <blanks.6693>:
 80084c0:	20202020 20202020 20202020 20202020                     

080084d0 <zeroes.6694>:
 80084d0:	30303030 30303030 30303030 30303030     0000000000000000
 80084e0:	00000043 00464e49 00666e69 004e414e     C...INF.inf.NAN.
 80084f0:	006e616e 33323130 37363534 42413938     nan.0123456789AB
 8008500:	46454443 00000000 33323130 37363534     CDEF....01234567
 8008510:	62613938 66656463 00000000 6c756e28     89abcdef....(nul
 8008520:	0000296c 00000030 69666e49 7974696e     l)..0...Infinity
 8008530:	00000000 004e614e 49534f50 00000058     ....NaN.POSIX...
 8008540:	0000002e                                ....

08008544 <_init>:
 8008544:	b5f8      	push	{r3, r4, r5, r6, r7, lr}
 8008546:	bf00      	nop
 8008548:	bcf8      	pop	{r3, r4, r5, r6, r7}
 800854a:	bc08      	pop	{r3}
 800854c:	469e      	mov	lr, r3
 800854e:	4770      	bx	lr

08008550 <_fini>:
 8008550:	b5f8      	push	{r3, r4, r5, r6, r7, lr}
 8008552:	bf00      	nop
 8008554:	bcf8      	pop	{r3, r4, r5, r6, r7}
 8008556:	bc08      	pop	{r3}
 8008558:	469e      	mov	lr, r3
 800855a:	4770      	bx	lr
