   1              		.syntax unified
   2              		.cpu cortex-m3
   3              		.fpu softvfp
   4              		.eabi_attribute 20, 1
   5              		.eabi_attribute 21, 1
   6              		.eabi_attribute 23, 3
   7              		.eabi_attribute 24, 1
   8              		.eabi_attribute 25, 1
   9              		.eabi_attribute 26, 1
  10              		.eabi_attribute 30, 4
  11              		.eabi_attribute 34, 1
  12              		.eabi_attribute 18, 4
  13              		.thumb
  14              		.file	"stm32f10x_flash.c"
  15              		.section	.text.FLASH_SetLatency,"ax",%progbits
  16              		.align	1
  17              		.global	FLASH_SetLatency
  18              		.thumb
  19              		.thumb_func
  21              	FLASH_SetLatency:
  22              		@ args = 0, pretend = 0, frame = 0
  23              		@ frame_needed = 0, uses_anonymous_args = 0
  24              		@ link register save eliminated.
  25 0000 034B     		ldr	r3, .L2
  26 0002 1A68     		ldr	r2, [r3, #0]
  27 0004 02F03802 		and	r2, r2, #56
  28 0008 1043     		orrs	r0, r0, r2
  29 000a 1860     		str	r0, [r3, #0]
  30 000c 7047     		bx	lr
  31              	.L3:
  32 000e 00BF     		.align	2
  33              	.L2:
  34 0010 00200240 		.word	1073881088
  36              		.section	.text.FLASH_HalfCycleAccessCmd,"ax",%progbits
  37              		.align	1
  38              		.global	FLASH_HalfCycleAccessCmd
  39              		.thumb
  40              		.thumb_func
  42              	FLASH_HalfCycleAccessCmd:
  43              		@ args = 0, pretend = 0, frame = 0
  44              		@ frame_needed = 0, uses_anonymous_args = 0
  45              		@ link register save eliminated.
  46 0000 044B     		ldr	r3, .L5
  47 0002 1A68     		ldr	r2, [r3, #0]
  48 0004 22F00802 		bic	r2, r2, #8
  49 0008 1A60     		str	r2, [r3, #0]
  50 000a 1A68     		ldr	r2, [r3, #0]
  51 000c 1043     		orrs	r0, r0, r2
  52 000e 1860     		str	r0, [r3, #0]
  53 0010 7047     		bx	lr
  54              	.L6:
  55 0012 00BF     		.align	2
  56              	.L5:
  57 0014 00200240 		.word	1073881088
  59              		.section	.text.FLASH_PrefetchBufferCmd,"ax",%progbits
  60              		.align	1
  61              		.global	FLASH_PrefetchBufferCmd
  62              		.thumb
  63              		.thumb_func
  65              	FLASH_PrefetchBufferCmd:
  66              		@ args = 0, pretend = 0, frame = 0
  67              		@ frame_needed = 0, uses_anonymous_args = 0
  68              		@ link register save eliminated.
  69 0000 044B     		ldr	r3, .L8
  70 0002 1A68     		ldr	r2, [r3, #0]
  71 0004 22F01002 		bic	r2, r2, #16
  72 0008 1A60     		str	r2, [r3, #0]
  73 000a 1A68     		ldr	r2, [r3, #0]
  74 000c 1043     		orrs	r0, r0, r2
  75 000e 1860     		str	r0, [r3, #0]
  76 0010 7047     		bx	lr
  77              	.L9:
  78 0012 00BF     		.align	2
  79              	.L8:
  80 0014 00200240 		.word	1073881088
  82              		.section	.text.FLASH_Unlock,"ax",%progbits
  83              		.align	1
  84              		.global	FLASH_Unlock
  85              		.thumb
  86              		.thumb_func
  88              	FLASH_Unlock:
  89              		@ args = 0, pretend = 0, frame = 0
  90              		@ frame_needed = 0, uses_anonymous_args = 0
  91              		@ link register save eliminated.
  92 0000 034B     		ldr	r3, .L11
  93 0002 044A     		ldr	r2, .L11+4
  94 0004 5A60     		str	r2, [r3, #4]
  95 0006 02F18832 		add	r2, r2, #-2004318072
  96 000a 5A60     		str	r2, [r3, #4]
  97 000c 7047     		bx	lr
  98              	.L12:
  99 000e 00BF     		.align	2
 100              	.L11:
 101 0010 00200240 		.word	1073881088
 102 0014 23016745 		.word	1164378403
 104              		.section	.text.FLASH_UnlockBank1,"ax",%progbits
 105              		.align	1
 106              		.global	FLASH_UnlockBank1
 107              		.thumb
 108              		.thumb_func
 110              	FLASH_UnlockBank1:
 111              		@ args = 0, pretend = 0, frame = 0
 112              		@ frame_needed = 0, uses_anonymous_args = 0
 113              		@ link register save eliminated.
 114 0000 034B     		ldr	r3, .L14
 115 0002 044A     		ldr	r2, .L14+4
 116 0004 5A60     		str	r2, [r3, #4]
 117 0006 02F18832 		add	r2, r2, #-2004318072
 118 000a 5A60     		str	r2, [r3, #4]
 119 000c 7047     		bx	lr
 120              	.L15:
 121 000e 00BF     		.align	2
 122              	.L14:
 123 0010 00200240 		.word	1073881088
 124 0014 23016745 		.word	1164378403
 126              		.section	.text.FLASH_Lock,"ax",%progbits
 127              		.align	1
 128              		.global	FLASH_Lock
 129              		.thumb
 130              		.thumb_func
 132              	FLASH_Lock:
 133              		@ args = 0, pretend = 0, frame = 0
 134              		@ frame_needed = 0, uses_anonymous_args = 0
 135              		@ link register save eliminated.
 136 0000 024B     		ldr	r3, .L17
 137 0002 1A69     		ldr	r2, [r3, #16]
 138 0004 42F08002 		orr	r2, r2, #128
 139 0008 1A61     		str	r2, [r3, #16]
 140 000a 7047     		bx	lr
 141              	.L18:
 142              		.align	2
 143              	.L17:
 144 000c 00200240 		.word	1073881088
 146              		.section	.text.FLASH_LockBank1,"ax",%progbits
 147              		.align	1
 148              		.global	FLASH_LockBank1
 149              		.thumb
 150              		.thumb_func
 152              	FLASH_LockBank1:
 153              		@ args = 0, pretend = 0, frame = 0
 154              		@ frame_needed = 0, uses_anonymous_args = 0
 155              		@ link register save eliminated.
 156 0000 024B     		ldr	r3, .L20
 157 0002 1A69     		ldr	r2, [r3, #16]
 158 0004 42F08002 		orr	r2, r2, #128
 159 0008 1A61     		str	r2, [r3, #16]
 160 000a 7047     		bx	lr
 161              	.L21:
 162              		.align	2
 163              	.L20:
 164 000c 00200240 		.word	1073881088
 166              		.section	.text.FLASH_GetUserOptionByte,"ax",%progbits
 167              		.align	1
 168              		.global	FLASH_GetUserOptionByte
 169              		.thumb
 170              		.thumb_func
 172              	FLASH_GetUserOptionByte:
 173              		@ args = 0, pretend = 0, frame = 0
 174              		@ frame_needed = 0, uses_anonymous_args = 0
 175              		@ link register save eliminated.
 176 0000 014B     		ldr	r3, .L23
 177 0002 D869     		ldr	r0, [r3, #28]
 178 0004 8008     		lsrs	r0, r0, #2
 179 0006 7047     		bx	lr
 180              	.L24:
 181              		.align	2
 182              	.L23:
 183 0008 00200240 		.word	1073881088
 185              		.section	.text.FLASH_GetWriteProtectionOptionByte,"ax",%progbits
 186              		.align	1
 187              		.global	FLASH_GetWriteProtectionOptionByte
 188              		.thumb
 189              		.thumb_func
 191              	FLASH_GetWriteProtectionOptionByte:
 192              		@ args = 0, pretend = 0, frame = 0
 193              		@ frame_needed = 0, uses_anonymous_args = 0
 194              		@ link register save eliminated.
 195 0000 014B     		ldr	r3, .L26
 196 0002 186A     		ldr	r0, [r3, #32]
 197 0004 7047     		bx	lr
 198              	.L27:
 199 0006 00BF     		.align	2
 200              	.L26:
 201 0008 00200240 		.word	1073881088
 203              		.section	.text.FLASH_GetReadOutProtectionStatus,"ax",%progbits
 204              		.align	1
 205              		.global	FLASH_GetReadOutProtectionStatus
 206              		.thumb
 207              		.thumb_func
 209              	FLASH_GetReadOutProtectionStatus:
 210              		@ args = 0, pretend = 0, frame = 0
 211              		@ frame_needed = 0, uses_anonymous_args = 0
 212              		@ link register save eliminated.
 213 0000 024B     		ldr	r3, .L29
 214 0002 D869     		ldr	r0, [r3, #28]
 215 0004 C0F34000 		ubfx	r0, r0, #1, #1
 216 0008 7047     		bx	lr
 217              	.L30:
 218 000a 00BF     		.align	2
 219              	.L29:
 220 000c 00200240 		.word	1073881088
 222              		.section	.text.FLASH_GetPrefetchBufferStatus,"ax",%progbits
 223              		.align	1
 224              		.global	FLASH_GetPrefetchBufferStatus
 225              		.thumb
 226              		.thumb_func
 228              	FLASH_GetPrefetchBufferStatus:
 229              		@ args = 0, pretend = 0, frame = 0
 230              		@ frame_needed = 0, uses_anonymous_args = 0
 231              		@ link register save eliminated.
 232 0000 024B     		ldr	r3, .L32
 233 0002 1868     		ldr	r0, [r3, #0]
 234 0004 C0F34010 		ubfx	r0, r0, #5, #1
 235 0008 7047     		bx	lr
 236              	.L33:
 237 000a 00BF     		.align	2
 238              	.L32:
 239 000c 00200240 		.word	1073881088
 241              		.section	.text.FLASH_ITConfig,"ax",%progbits
 242              		.align	1
 243              		.global	FLASH_ITConfig
 244              		.thumb
 245              		.thumb_func
 247              	FLASH_ITConfig:
 248              		@ args = 0, pretend = 0, frame = 0
 249              		@ frame_needed = 0, uses_anonymous_args = 0
 250              		@ link register save eliminated.
 251 0000 044B     		ldr	r3, .L38
 252 0002 1A69     		ldr	r2, [r3, #16]
 253 0004 09B1     		cbz	r1, .L35
 254 0006 1043     		orrs	r0, r0, r2
 255 0008 01E0     		b	.L37
 256              	.L35:
 257 000a 22EA0000 		bic	r0, r2, r0
 258              	.L37:
 259 000e 1861     		str	r0, [r3, #16]
 260 0010 7047     		bx	lr
 261              	.L39:
 262 0012 00BF     		.align	2
 263              	.L38:
 264 0014 00200240 		.word	1073881088
 266              		.section	.text.FLASH_GetFlagStatus,"ax",%progbits
 267              		.align	1
 268              		.global	FLASH_GetFlagStatus
 269              		.thumb
 270              		.thumb_func
 272              	FLASH_GetFlagStatus:
 273              		@ args = 0, pretend = 0, frame = 0
 274              		@ frame_needed = 0, uses_anonymous_args = 0
 275              		@ link register save eliminated.
 276 0000 0128     		cmp	r0, #1
 277 0002 064B     		ldr	r3, .L43
 278 0004 03D1     		bne	.L41
 279 0006 D869     		ldr	r0, [r3, #28]
 280 0008 00F00100 		and	r0, r0, #1
 281 000c 7047     		bx	lr
 282              	.L41:
 283 000e DB68     		ldr	r3, [r3, #12]
 284 0010 1842     		tst	r0, r3
 285 0012 0CBF     		ite	eq
 286 0014 0020     		moveq	r0, #0
 287 0016 0120     		movne	r0, #1
 288 0018 7047     		bx	lr
 289              	.L44:
 290 001a 00BF     		.align	2
 291              	.L43:
 292 001c 00200240 		.word	1073881088
 294              		.section	.text.FLASH_ClearFlag,"ax",%progbits
 295              		.align	1
 296              		.global	FLASH_ClearFlag
 297              		.thumb
 298              		.thumb_func
 300              	FLASH_ClearFlag:
 301              		@ args = 0, pretend = 0, frame = 0
 302              		@ frame_needed = 0, uses_anonymous_args = 0
 303              		@ link register save eliminated.
 304 0000 014B     		ldr	r3, .L46
 305 0002 D860     		str	r0, [r3, #12]
 306 0004 7047     		bx	lr
 307              	.L47:
 308 0006 00BF     		.align	2
 309              	.L46:
 310 0008 00200240 		.word	1073881088
 312              		.section	.text.FLASH_GetStatus,"ax",%progbits
 313              		.align	1
 314              		.global	FLASH_GetStatus
 315              		.thumb
 316              		.thumb_func
 318              	FLASH_GetStatus:
 319              		@ args = 0, pretend = 0, frame = 0
 320              		@ frame_needed = 0, uses_anonymous_args = 0
 321              		@ link register save eliminated.
 322 0000 084B     		ldr	r3, .L53
 323 0002 DA68     		ldr	r2, [r3, #12]
 324 0004 D107     		lsls	r1, r2, #31
 325 0006 09D4     		bmi	.L50
 326 0008 DA68     		ldr	r2, [r3, #12]
 327 000a 5207     		lsls	r2, r2, #29
 328 000c 08D4     		bmi	.L51
 329 000e DB68     		ldr	r3, [r3, #12]
 330 0010 13F0100F 		tst	r3, #16
 331 0014 0CBF     		ite	eq
 332 0016 0420     		moveq	r0, #4
 333 0018 0320     		movne	r0, #3
 334 001a 7047     		bx	lr
 335              	.L50:
 336 001c 0120     		movs	r0, #1
 337 001e 7047     		bx	lr
 338              	.L51:
 339 0020 0220     		movs	r0, #2
 340 0022 7047     		bx	lr
 341              	.L54:
 342              		.align	2
 343              	.L53:
 344 0024 00200240 		.word	1073881088
 346              		.section	.text.FLASH_GetBank1Status,"ax",%progbits
 347              		.align	1
 348              		.global	FLASH_GetBank1Status
 349              		.thumb
 350              		.thumb_func
 352              	FLASH_GetBank1Status:
 353              		@ args = 0, pretend = 0, frame = 0
 354              		@ frame_needed = 0, uses_anonymous_args = 0
 355              		@ link register save eliminated.
 356 0000 084B     		ldr	r3, .L61
 357 0002 DA68     		ldr	r2, [r3, #12]
 358 0004 D207     		lsls	r2, r2, #31
 359 0006 09D4     		bmi	.L58
 360 0008 DA68     		ldr	r2, [r3, #12]
 361 000a 5007     		lsls	r0, r2, #29
 362 000c 08D4     		bmi	.L59
 363 000e DB68     		ldr	r3, [r3, #12]
 364 0010 13F0100F 		tst	r3, #16
 365 0014 0CBF     		ite	eq
 366 0016 0420     		moveq	r0, #4
 367 0018 0320     		movne	r0, #3
 368 001a 7047     		bx	lr
 369              	.L58:
 370 001c 0120     		movs	r0, #1
 371 001e 7047     		bx	lr
 372              	.L59:
 373 0020 0220     		movs	r0, #2
 374 0022 7047     		bx	lr
 375              	.L62:
 376              		.align	2
 377              	.L61:
 378 0024 00200240 		.word	1073881088
 380              		.section	.text.FLASH_WaitForLastOperation,"ax",%progbits
 381              		.align	1
 382              		.global	FLASH_WaitForLastOperation
 383              		.thumb
 384              		.thumb_func
 386              	FLASH_WaitForLastOperation:
 387              		@ args = 0, pretend = 0, frame = 0
 388              		@ frame_needed = 0, uses_anonymous_args = 0
 389 0000 10B5     		push	{r4, lr}
 390 0002 0446     		mov	r4, r0
 391 0004 FFF7FEFF 		bl	FLASH_GetBank1Status
 392 0008 02E0     		b	.L64
 393              	.L66:
 394 000a FFF7FEFF 		bl	FLASH_GetBank1Status
 395 000e 013C     		subs	r4, r4, #1
 396              	.L64:
 397 0010 0128     		cmp	r0, #1
 398 0012 03D1     		bne	.L65
 399 0014 002C     		cmp	r4, #0
 400 0016 F8D1     		bne	.L66
 401 0018 0520     		movs	r0, #5
 402 001a 10BD     		pop	{r4, pc}
 403              	.L65:
 404 001c 002C     		cmp	r4, #0
 405 001e 08BF     		it	eq
 406 0020 0520     		moveq	r0, #5
 407 0022 10BD     		pop	{r4, pc}
 409              		.section	.text.FLASH_UserOptionByteConfig,"ax",%progbits
 410              		.align	1
 411              		.global	FLASH_UserOptionByteConfig
 412              		.thumb
 413              		.thumb_func
 415              	FLASH_UserOptionByteConfig:
 416              		@ args = 0, pretend = 0, frame = 0
 417              		@ frame_needed = 0, uses_anonymous_args = 0
 418 0000 F8B5     		push	{r3, r4, r5, r6, r7, lr}
 419 0002 124C     		ldr	r4, .L74
 420 0004 124B     		ldr	r3, .L74+4
 421 0006 0546     		mov	r5, r0
 422 0008 A360     		str	r3, [r4, #8]
 423 000a 03F18833 		add	r3, r3, #-2004318072
 424 000e A360     		str	r3, [r4, #8]
 425 0010 4FF40050 		mov	r0, #8192
 426 0014 0E46     		mov	r6, r1
 427 0016 1746     		mov	r7, r2
 428 0018 FFF7FEFF 		bl	FLASH_WaitForLastOperation
 429 001c 0428     		cmp	r0, #4
 430 001e 14D1     		bne	.L70
 431 0020 2369     		ldr	r3, [r4, #16]
 432 0022 45F0F805 		orr	r5, r5, #248
 433 0026 43F01003 		orr	r3, r3, #16
 434 002a 2361     		str	r3, [r4, #16]
 435 002c 2E43     		orrs	r6, r6, r5
 436 002e 094B     		ldr	r3, .L74+8
 437 0030 3743     		orrs	r7, r7, r6
 438 0032 5F80     		strh	r7, [r3, #2]	@ movhi
 439 0034 4FF40050 		mov	r0, #8192
 440 0038 FFF7FEFF 		bl	FLASH_WaitForLastOperation
 441 003c 0528     		cmp	r0, #5
 442 003e 04D0     		beq	.L70
 443 0040 2269     		ldr	r2, [r4, #16]
 444 0042 41F6EF73 		movw	r3, #8175
 445 0046 1340     		ands	r3, r3, r2
 446 0048 2361     		str	r3, [r4, #16]
 447              	.L70:
 448 004a F8BD     		pop	{r3, r4, r5, r6, r7, pc}
 449              	.L75:
 450              		.align	2
 451              	.L74:
 452 004c 00200240 		.word	1073881088
 453 0050 23016745 		.word	1164378403
 454 0054 00F8FF1F 		.word	536868864
 456              		.section	.text.FLASH_ReadOutProtection,"ax",%progbits
 457              		.align	1
 458              		.global	FLASH_ReadOutProtection
 459              		.thumb
 460              		.thumb_func
 462              	FLASH_ReadOutProtection:
 463              		@ args = 0, pretend = 0, frame = 0
 464              		@ frame_needed = 0, uses_anonymous_args = 0
 465 0000 38B5     		push	{r3, r4, r5, lr}
 466 0002 0546     		mov	r5, r0
 467 0004 4FF43020 		mov	r0, #720896
 468 0008 FFF7FEFF 		bl	FLASH_WaitForLastOperation
 469 000c 0428     		cmp	r0, #4
 470 000e 38D1     		bne	.L77
 471 0010 1C4C     		ldr	r4, .L87
 472 0012 1D4B     		ldr	r3, .L87+4
 473 0014 4FF43020 		mov	r0, #720896
 474 0018 A360     		str	r3, [r4, #8]
 475 001a 03F18833 		add	r3, r3, #-2004318072
 476 001e A360     		str	r3, [r4, #8]
 477 0020 2369     		ldr	r3, [r4, #16]
 478 0022 43F02003 		orr	r3, r3, #32
 479 0026 2361     		str	r3, [r4, #16]
 480 0028 2369     		ldr	r3, [r4, #16]
 481 002a 43F04003 		orr	r3, r3, #64
 482 002e 2361     		str	r3, [r4, #16]
 483 0030 FFF7FEFF 		bl	FLASH_WaitForLastOperation
 484 0034 0428     		cmp	r0, #4
 485 0036 1DD1     		bne	.L78
 486 0038 2269     		ldr	r2, [r4, #16]
 487 003a 41F6DF73 		movw	r3, #8159
 488 003e 1340     		ands	r3, r3, r2
 489 0040 2361     		str	r3, [r4, #16]
 490 0042 2369     		ldr	r3, [r4, #16]
 491 0044 43F01003 		orr	r3, r3, #16
 492 0048 2361     		str	r3, [r4, #16]
 493 004a 104B     		ldr	r3, .L87+8
 494 004c 0DB1     		cbz	r5, .L79
 495 004e 0022     		movs	r2, #0
 496 0050 00E0     		b	.L86
 497              	.L79:
 498 0052 A522     		movs	r2, #165
 499              	.L86:
 500 0054 1A80     		strh	r2, [r3, #0]	@ movhi
 501 0056 4FF43020 		mov	r0, #720896
 502 005a FFF7FEFF 		bl	FLASH_WaitForLastOperation
 503 005e 0528     		cmp	r0, #5
 504 0060 01D1     		bne	.L81
 505              	.L82:
 506 0062 0520     		movs	r0, #5
 507 0064 38BD     		pop	{r3, r4, r5, pc}
 508              	.L81:
 509 0066 074A     		ldr	r2, .L87
 510 0068 41F6EF73 		movw	r3, #8175
 511 006c 1169     		ldr	r1, [r2, #16]
 512 006e 0B40     		ands	r3, r3, r1
 513 0070 1361     		str	r3, [r2, #16]
 514 0072 38BD     		pop	{r3, r4, r5, pc}
 515              	.L78:
 516 0074 0528     		cmp	r0, #5
 517 0076 F4D0     		beq	.L82
 518 0078 2269     		ldr	r2, [r4, #16]
 519 007a 41F6DF73 		movw	r3, #8159
 520 007e 1340     		ands	r3, r3, r2
 521 0080 2361     		str	r3, [r4, #16]
 522              	.L77:
 523 0082 38BD     		pop	{r3, r4, r5, pc}
 524              	.L88:
 525              		.align	2
 526              	.L87:
 527 0084 00200240 		.word	1073881088
 528 0088 23016745 		.word	1164378403
 529 008c 00F8FF1F 		.word	536868864
 531              		.section	.text.FLASH_EnableWriteProtection,"ax",%progbits
 532              		.align	1
 533              		.global	FLASH_EnableWriteProtection
 534              		.thumb
 535              		.thumb_func
 537              	FLASH_EnableWriteProtection:
 538              		@ args = 0, pretend = 0, frame = 0
 539              		@ frame_needed = 0, uses_anonymous_args = 0
 540 0000 10B5     		push	{r4, lr}
 541 0002 0446     		mov	r4, r0
 542 0004 4FF40050 		mov	r0, #8192
 543 0008 FFF7FEFF 		bl	FLASH_WaitForLastOperation
 544 000c 0428     		cmp	r0, #4
 545 000e 45D1     		bne	.L90
 546 0010 234B     		ldr	r3, .L114
 547 0012 2449     		ldr	r1, .L114+4
 548 0014 E443     		mvns	r4, r4
 549 0016 9960     		str	r1, [r3, #8]
 550 0018 01F18831 		add	r1, r1, #-2004318072
 551 001c 9960     		str	r1, [r3, #8]
 552 001e 1969     		ldr	r1, [r3, #16]
 553 0020 E2B2     		uxtb	r2, r4
 554 0022 41F01001 		orr	r1, r1, #16
 555 0026 FF2A     		cmp	r2, #255
 556 0028 1961     		str	r1, [r3, #16]
 557 002a 04D1     		bne	.L91
 558              	.L94:
 559 002c C4F30723 		ubfx	r3, r4, #8, #8
 560 0030 FF2B     		cmp	r3, #255
 561 0032 0ED1     		bne	.L92
 562 0034 08E0     		b	.L93
 563              	.L91:
 564 0036 1C4B     		ldr	r3, .L114+8
 565 0038 4FF40050 		mov	r0, #8192
 566 003c 1A81     		strh	r2, [r3, #8]	@ movhi
 567 003e FFF7FEFF 		bl	FLASH_WaitForLastOperation
 568 0042 0428     		cmp	r0, #4
 569 0044 22D1     		bne	.L100
 570 0046 F1E7     		b	.L94
 571              	.L93:
 572 0048 C4F30743 		ubfx	r3, r4, #16, #8
 573 004c FF2B     		cmp	r3, #255
 574 004e 0ED1     		bne	.L96
 575 0050 08E0     		b	.L97
 576              	.L92:
 577 0052 154A     		ldr	r2, .L114+8
 578 0054 4FF40050 		mov	r0, #8192
 579 0058 5381     		strh	r3, [r2, #10]	@ movhi
 580 005a FFF7FEFF 		bl	FLASH_WaitForLastOperation
 581 005e 0428     		cmp	r0, #4
 582 0060 F2D0     		beq	.L93
 583 0062 13E0     		b	.L100
 584              	.L97:
 585 0064 240E     		lsrs	r4, r4, #24
 586 0066 FF2C     		cmp	r4, #255
 587 0068 0AD1     		bne	.L98
 588 006a 0420     		movs	r0, #4
 589 006c 10E0     		b	.L99
 590              	.L96:
 591 006e 0E4A     		ldr	r2, .L114+8
 592 0070 4FF40050 		mov	r0, #8192
 593 0074 9381     		strh	r3, [r2, #12]	@ movhi
 594 0076 FFF7FEFF 		bl	FLASH_WaitForLastOperation
 595 007a 0428     		cmp	r0, #4
 596 007c F2D0     		beq	.L97
 597 007e 05E0     		b	.L100
 598              	.L98:
 599 0080 094B     		ldr	r3, .L114+8
 600 0082 4FF40050 		mov	r0, #8192
 601 0086 DC81     		strh	r4, [r3, #14]	@ movhi
 602 0088 FFF7FEFF 		bl	FLASH_WaitForLastOperation
 603              	.L100:
 604 008c 0528     		cmp	r0, #5
 605 008e 05D0     		beq	.L90
 606              	.L99:
 607 0090 034A     		ldr	r2, .L114
 608 0092 41F6EF73 		movw	r3, #8175
 609 0096 1169     		ldr	r1, [r2, #16]
 610 0098 0B40     		ands	r3, r3, r1
 611 009a 1361     		str	r3, [r2, #16]
 612              	.L90:
 613 009c 10BD     		pop	{r4, pc}
 614              	.L115:
 615 009e 00BF     		.align	2
 616              	.L114:
 617 00a0 00200240 		.word	1073881088
 618 00a4 23016745 		.word	1164378403
 619 00a8 00F8FF1F 		.word	536868864
 621              		.section	.text.FLASH_ProgramOptionByteData,"ax",%progbits
 622              		.align	1
 623              		.global	FLASH_ProgramOptionByteData
 624              		.thumb
 625              		.thumb_func
 627              	FLASH_ProgramOptionByteData:
 628              		@ args = 0, pretend = 0, frame = 0
 629              		@ frame_needed = 0, uses_anonymous_args = 0
 630 0000 70B5     		push	{r4, r5, r6, lr}
 631 0002 0546     		mov	r5, r0
 632 0004 4FF40050 		mov	r0, #8192
 633 0008 0E46     		mov	r6, r1
 634 000a FFF7FEFF 		bl	FLASH_WaitForLastOperation
 635 000e 0428     		cmp	r0, #4
 636 0010 15D1     		bne	.L117
 637 0012 0B4C     		ldr	r4, .L121
 638 0014 0B4B     		ldr	r3, .L121+4
 639 0016 4FF40050 		mov	r0, #8192
 640 001a A360     		str	r3, [r4, #8]
 641 001c 03F18833 		add	r3, r3, #-2004318072
 642 0020 A360     		str	r3, [r4, #8]
 643 0022 2369     		ldr	r3, [r4, #16]
 644 0024 43F01003 		orr	r3, r3, #16
 645 0028 2361     		str	r3, [r4, #16]
 646 002a 2E80     		strh	r6, [r5, #0]	@ movhi
 647 002c FFF7FEFF 		bl	FLASH_WaitForLastOperation
 648 0030 0528     		cmp	r0, #5
 649 0032 04D0     		beq	.L117
 650 0034 2269     		ldr	r2, [r4, #16]
 651 0036 41F6EF73 		movw	r3, #8175
 652 003a 1340     		ands	r3, r3, r2
 653 003c 2361     		str	r3, [r4, #16]
 654              	.L117:
 655 003e 70BD     		pop	{r4, r5, r6, pc}
 656              	.L122:
 657              		.align	2
 658              	.L121:
 659 0040 00200240 		.word	1073881088
 660 0044 23016745 		.word	1164378403
 662              		.section	.text.FLASH_ProgramHalfWord,"ax",%progbits
 663              		.align	1
 664              		.global	FLASH_ProgramHalfWord
 665              		.thumb
 666              		.thumb_func
 668              	FLASH_ProgramHalfWord:
 669              		@ args = 0, pretend = 0, frame = 0
 670              		@ frame_needed = 0, uses_anonymous_args = 0
 671 0000 70B5     		push	{r4, r5, r6, lr}
 672 0002 0546     		mov	r5, r0
 673 0004 4FF40050 		mov	r0, #8192
 674 0008 0E46     		mov	r6, r1
 675 000a FFF7FEFF 		bl	FLASH_WaitForLastOperation
 676 000e 0428     		cmp	r0, #4
 677 0010 0ED1     		bne	.L124
 678 0012 084C     		ldr	r4, .L125
 679 0014 4FF40050 		mov	r0, #8192
 680 0018 2369     		ldr	r3, [r4, #16]
 681 001a 43F00103 		orr	r3, r3, #1
 682 001e 2361     		str	r3, [r4, #16]
 683 0020 2E80     		strh	r6, [r5, #0]	@ movhi
 684 0022 FFF7FEFF 		bl	FLASH_WaitForLastOperation
 685 0026 2269     		ldr	r2, [r4, #16]
 686 0028 41F6FE73 		movw	r3, #8190
 687 002c 1340     		ands	r3, r3, r2
 688 002e 2361     		str	r3, [r4, #16]
 689              	.L124:
 690 0030 70BD     		pop	{r4, r5, r6, pc}
 691              	.L126:
 692 0032 00BF     		.align	2
 693              	.L125:
 694 0034 00200240 		.word	1073881088
 696              		.section	.text.FLASH_ProgramWord,"ax",%progbits
 697              		.align	1
 698              		.global	FLASH_ProgramWord
 699              		.thumb
 700              		.thumb_func
 702              	FLASH_ProgramWord:
 703              		@ args = 0, pretend = 0, frame = 8
 704              		@ frame_needed = 0, uses_anonymous_args = 0
 705 0000 73B5     		push	{r0, r1, r4, r5, r6, lr}
 706 0002 0023     		movs	r3, #0
 707 0004 0646     		mov	r6, r0
 708 0006 4FF40050 		mov	r0, #8192
 709 000a 0D46     		mov	r5, r1
 710 000c 0193     		str	r3, [sp, #4]
 711 000e FFF7FEFF 		bl	FLASH_WaitForLastOperation
 712 0012 0428     		cmp	r0, #4
 713 0014 19D1     		bne	.L128
 714 0016 0D4C     		ldr	r4, .L130
 715 0018 4FF40050 		mov	r0, #8192
 716 001c 2369     		ldr	r3, [r4, #16]
 717 001e 43F00103 		orr	r3, r3, #1
 718 0022 2361     		str	r3, [r4, #16]
 719 0024 3580     		strh	r5, [r6, #0]	@ movhi
 720 0026 FFF7FEFF 		bl	FLASH_WaitForLastOperation
 721 002a 0428     		cmp	r0, #4
 722 002c 08D1     		bne	.L129
 723 002e 0236     		adds	r6, r6, #2
 724 0030 0196     		str	r6, [sp, #4]
 725 0032 019B     		ldr	r3, [sp, #4]
 726 0034 2D0C     		lsrs	r5, r5, #16
 727 0036 1D80     		strh	r5, [r3, #0]	@ movhi
 728 0038 4FF40050 		mov	r0, #8192
 729 003c FFF7FEFF 		bl	FLASH_WaitForLastOperation
 730              	.L129:
 731 0040 2269     		ldr	r2, [r4, #16]
 732 0042 41F6FE73 		movw	r3, #8190
 733 0046 1340     		ands	r3, r3, r2
 734 0048 2361     		str	r3, [r4, #16]
 735              	.L128:
 736 004a 7CBD     		pop	{r2, r3, r4, r5, r6, pc}
 737              	.L131:
 738              		.align	2
 739              	.L130:
 740 004c 00200240 		.word	1073881088
 742              		.section	.text.FLASH_EraseOptionBytes,"ax",%progbits
 743              		.align	1
 744              		.global	FLASH_EraseOptionBytes
 745              		.thumb
 746              		.thumb_func
 748              	FLASH_EraseOptionBytes:
 749              		@ args = 0, pretend = 0, frame = 0
 750              		@ frame_needed = 0, uses_anonymous_args = 0
 751 0000 38B5     		push	{r3, r4, r5, lr}
 752 0002 FFF7FEFF 		bl	FLASH_GetReadOutProtectionStatus
 753 0006 0028     		cmp	r0, #0
 754 0008 0CBF     		ite	eq
 755 000a A525     		moveq	r5, #165
 756 000c 0025     		movne	r5, #0
 757 000e 4FF43020 		mov	r0, #720896
 758 0012 FFF7FEFF 		bl	FLASH_WaitForLastOperation
 759 0016 0428     		cmp	r0, #4
 760 0018 2BD1     		bne	.L134
 761 001a 164C     		ldr	r4, .L144
 762 001c 164B     		ldr	r3, .L144+4
 763 001e 4FF43020 		mov	r0, #720896
 764 0022 A360     		str	r3, [r4, #8]
 765 0024 03F18833 		add	r3, r3, #-2004318072
 766 0028 A360     		str	r3, [r4, #8]
 767 002a 2369     		ldr	r3, [r4, #16]
 768 002c 43F02003 		orr	r3, r3, #32
 769 0030 2361     		str	r3, [r4, #16]
 770 0032 2369     		ldr	r3, [r4, #16]
 771 0034 43F04003 		orr	r3, r3, #64
 772 0038 2361     		str	r3, [r4, #16]
 773 003a FFF7FEFF 		bl	FLASH_WaitForLastOperation
 774 003e 0428     		cmp	r0, #4
 775 0040 0ED1     		bne	.L143
 776 0042 2269     		ldr	r2, [r4, #16]
 777 0044 41F6DF73 		movw	r3, #8159
 778 0048 1340     		ands	r3, r3, r2
 779 004a 2361     		str	r3, [r4, #16]
 780 004c 2369     		ldr	r3, [r4, #16]
 781 004e 4FF40050 		mov	r0, #8192
 782 0052 43F01003 		orr	r3, r3, #16
 783 0056 2361     		str	r3, [r4, #16]
 784 0058 084B     		ldr	r3, .L144+8
 785 005a 1D80     		strh	r5, [r3, #0]	@ movhi
 786 005c FFF7FEFF 		bl	FLASH_WaitForLastOperation
 787              	.L143:
 788 0060 0528     		cmp	r0, #5
 789 0062 01D1     		bne	.L142
 790 0064 0520     		movs	r0, #5
 791 0066 38BD     		pop	{r3, r4, r5, pc}
 792              	.L142:
 793 0068 2269     		ldr	r2, [r4, #16]
 794 006a 41F6EF73 		movw	r3, #8175
 795 006e 1340     		ands	r3, r3, r2
 796 0070 2361     		str	r3, [r4, #16]
 797              	.L134:
 798 0072 38BD     		pop	{r3, r4, r5, pc}
 799              	.L145:
 800              		.align	2
 801              	.L144:
 802 0074 00200240 		.word	1073881088
 803 0078 23016745 		.word	1164378403
 804 007c 00F8FF1F 		.word	536868864
 806              		.section	.text.FLASH_EraseAllPages,"ax",%progbits
 807              		.align	1
 808              		.global	FLASH_EraseAllPages
 809              		.thumb
 810              		.thumb_func
 812              	FLASH_EraseAllPages:
 813              		@ args = 0, pretend = 0, frame = 0
 814              		@ frame_needed = 0, uses_anonymous_args = 0
 815 0000 10B5     		push	{r4, lr}
 816 0002 4FF43020 		mov	r0, #720896
 817 0006 FFF7FEFF 		bl	FLASH_WaitForLastOperation
 818 000a 0428     		cmp	r0, #4
 819 000c 11D1     		bne	.L147
 820 000e 094C     		ldr	r4, .L148
 821 0010 4FF43020 		mov	r0, #720896
 822 0014 2369     		ldr	r3, [r4, #16]
 823 0016 43F00403 		orr	r3, r3, #4
 824 001a 2361     		str	r3, [r4, #16]
 825 001c 2369     		ldr	r3, [r4, #16]
 826 001e 43F04003 		orr	r3, r3, #64
 827 0022 2361     		str	r3, [r4, #16]
 828 0024 FFF7FEFF 		bl	FLASH_WaitForLastOperation
 829 0028 2269     		ldr	r2, [r4, #16]
 830 002a 41F6FB73 		movw	r3, #8187
 831 002e 1340     		ands	r3, r3, r2
 832 0030 2361     		str	r3, [r4, #16]
 833              	.L147:
 834 0032 10BD     		pop	{r4, pc}
 835              	.L149:
 836              		.align	2
 837              	.L148:
 838 0034 00200240 		.word	1073881088
 840              		.section	.text.FLASH_ErasePage,"ax",%progbits
 841              		.align	1
 842              		.global	FLASH_ErasePage
 843              		.thumb
 844              		.thumb_func
 846              	FLASH_ErasePage:
 847              		@ args = 0, pretend = 0, frame = 0
 848              		@ frame_needed = 0, uses_anonymous_args = 0
 849 0000 38B5     		push	{r3, r4, r5, lr}
 850 0002 0546     		mov	r5, r0
 851 0004 4FF43020 		mov	r0, #720896
 852 0008 FFF7FEFF 		bl	FLASH_WaitForLastOperation
 853 000c 0428     		cmp	r0, #4
 854 000e 12D1     		bne	.L151
 855 0010 094C     		ldr	r4, .L152
 856 0012 4FF43020 		mov	r0, #720896
 857 0016 2369     		ldr	r3, [r4, #16]
 858 0018 43F00203 		orr	r3, r3, #2
 859 001c 2361     		str	r3, [r4, #16]
 860 001e 6561     		str	r5, [r4, #20]
 861 0020 2369     		ldr	r3, [r4, #16]
 862 0022 43F04003 		orr	r3, r3, #64
 863 0026 2361     		str	r3, [r4, #16]
 864 0028 FFF7FEFF 		bl	FLASH_WaitForLastOperation
 865 002c 2269     		ldr	r2, [r4, #16]
 866 002e 41F6FD73 		movw	r3, #8189
 867 0032 1340     		ands	r3, r3, r2
 868 0034 2361     		str	r3, [r4, #16]
 869              	.L151:
 870 0036 38BD     		pop	{r3, r4, r5, pc}
 871              	.L153:
 872              		.align	2
 873              	.L152:
 874 0038 00200240 		.word	1073881088
 876              		.section	.text.FLASH_WaitForLastBank1Operation,"ax",%progbits
 877              		.align	1
 878              		.global	FLASH_WaitForLastBank1Operation
 879              		.thumb
 880              		.thumb_func
 882              	FLASH_WaitForLastBank1Operation:
 883              		@ args = 0, pretend = 0, frame = 0
 884              		@ frame_needed = 0, uses_anonymous_args = 0
 885 0000 10B5     		push	{r4, lr}
 886 0002 0446     		mov	r4, r0
 887 0004 FFF7FEFF 		bl	FLASH_GetBank1Status
 888 0008 02E0     		b	.L155
 889              	.L157:
 890 000a FFF7FEFF 		bl	FLASH_GetBank1Status
 891 000e 013C     		subs	r4, r4, #1
 892              	.L155:
 893 0010 0128     		cmp	r0, #1
 894 0012 03D1     		bne	.L156
 895 0014 002C     		cmp	r4, #0
 896 0016 F8D1     		bne	.L157
 897 0018 0520     		movs	r0, #5
 898 001a 10BD     		pop	{r4, pc}
 899              	.L156:
 900 001c 002C     		cmp	r4, #0
 901 001e 08BF     		it	eq
 902 0020 0520     		moveq	r0, #5
 903 0022 10BD     		pop	{r4, pc}
 905              		.section	.text.FLASH_EraseAllBank1Pages,"ax",%progbits
 906              		.align	1
 907              		.global	FLASH_EraseAllBank1Pages
 908              		.thumb
 909              		.thumb_func
 911              	FLASH_EraseAllBank1Pages:
 912              		@ args = 0, pretend = 0, frame = 0
 913              		@ frame_needed = 0, uses_anonymous_args = 0
 914 0000 10B5     		push	{r4, lr}
 915 0002 4FF43020 		mov	r0, #720896
 916 0006 FFF7FEFF 		bl	FLASH_WaitForLastBank1Operation
 917 000a 0428     		cmp	r0, #4
 918 000c 11D1     		bne	.L161
 919 000e 094C     		ldr	r4, .L162
 920 0010 4FF43020 		mov	r0, #720896
 921 0014 2369     		ldr	r3, [r4, #16]
 922 0016 43F00403 		orr	r3, r3, #4
 923 001a 2361     		str	r3, [r4, #16]
 924 001c 2369     		ldr	r3, [r4, #16]
 925 001e 43F04003 		orr	r3, r3, #64
 926 0022 2361     		str	r3, [r4, #16]
 927 0024 FFF7FEFF 		bl	FLASH_WaitForLastBank1Operation
 928 0028 2269     		ldr	r2, [r4, #16]
 929 002a 41F6FB73 		movw	r3, #8187
 930 002e 1340     		ands	r3, r3, r2
 931 0030 2361     		str	r3, [r4, #16]
 932              	.L161:
 933 0032 10BD     		pop	{r4, pc}
 934              	.L163:
 935              		.align	2
 936              	.L162:
 937 0034 00200240 		.word	1073881088
 939              		.ident	"GCC: (Sourcery CodeBench Lite 2013.05-23) 4.7.3"