   1              		.syntax unified
   2              		.cpu cortex-m3
   3              		.fpu softvfp
   4              		.eabi_attribute 20, 1
   5              		.eabi_attribute 21, 1
   6              		.eabi_attribute 23, 3
   7              		.eabi_attribute 24, 1
   8              		.eabi_attribute 25, 1
   9              		.eabi_attribute 26, 1
  10              		.eabi_attribute 30, 6
  11              		.eabi_attribute 34, 1
  12              		.eabi_attribute 18, 4
  13              		.thumb
  14              		.file	"stm32f10x_can.c"
  15              		.text
  16              	.Ltext0:
  17              		.cfi_sections	.debug_frame
  18              		.section	.text.CAN_DeInit,"ax",%progbits
  19              		.align	2
  20              		.global	CAN_DeInit
  21              		.thumb
  22              		.thumb_func
  24              	CAN_DeInit:
  25              	.LFB29:
  26              		.file 1 "../STM32F10x_StdPeriph_Lib_V3.5.0/Libraries/STM32F10x_StdPeriph_Driver/src/stm32f10x_can.
   1:../STM32F10x_StdPeriph_Lib_V3.5.0/Libraries/STM32F10x_StdPeriph_Driver/src/stm32f10x_can.c **** /**
   2:../STM32F10x_StdPeriph_Lib_V3.5.0/Libraries/STM32F10x_StdPeriph_Driver/src/stm32f10x_can.c ****   ******************************************************************************
   3:../STM32F10x_StdPeriph_Lib_V3.5.0/Libraries/STM32F10x_StdPeriph_Driver/src/stm32f10x_can.c ****   * @file    stm32f10x_can.c
   4:../STM32F10x_StdPeriph_Lib_V3.5.0/Libraries/STM32F10x_StdPeriph_Driver/src/stm32f10x_can.c ****   * @author  MCD Application Team
   5:../STM32F10x_StdPeriph_Lib_V3.5.0/Libraries/STM32F10x_StdPeriph_Driver/src/stm32f10x_can.c ****   * @version V3.5.0
   6:../STM32F10x_StdPeriph_Lib_V3.5.0/Libraries/STM32F10x_StdPeriph_Driver/src/stm32f10x_can.c ****   * @date    11-March-2011
   7:../STM32F10x_StdPeriph_Lib_V3.5.0/Libraries/STM32F10x_StdPeriph_Driver/src/stm32f10x_can.c ****   * @brief   This file provides all the CAN firmware functions.
   8:../STM32F10x_StdPeriph_Lib_V3.5.0/Libraries/STM32F10x_StdPeriph_Driver/src/stm32f10x_can.c ****   ******************************************************************************
   9:../STM32F10x_StdPeriph_Lib_V3.5.0/Libraries/STM32F10x_StdPeriph_Driver/src/stm32f10x_can.c ****   * @attention
  10:../STM32F10x_StdPeriph_Lib_V3.5.0/Libraries/STM32F10x_StdPeriph_Driver/src/stm32f10x_can.c ****   *
  11:../STM32F10x_StdPeriph_Lib_V3.5.0/Libraries/STM32F10x_StdPeriph_Driver/src/stm32f10x_can.c ****   * THE PRESENT FIRMWARE WHICH IS FOR GUIDANCE ONLY AIMS AT PROVIDING CUSTOMERS
  12:../STM32F10x_StdPeriph_Lib_V3.5.0/Libraries/STM32F10x_StdPeriph_Driver/src/stm32f10x_can.c ****   * WITH CODING INFORMATION REGARDING THEIR PRODUCTS IN ORDER FOR THEM TO SAVE
  13:../STM32F10x_StdPeriph_Lib_V3.5.0/Libraries/STM32F10x_StdPeriph_Driver/src/stm32f10x_can.c ****   * TIME. AS A RESULT, STMICROELECTRONICS SHALL NOT BE HELD LIABLE FOR ANY
  14:../STM32F10x_StdPeriph_Lib_V3.5.0/Libraries/STM32F10x_StdPeriph_Driver/src/stm32f10x_can.c ****   * DIRECT, INDIRECT OR CONSEQUENTIAL DAMAGES WITH RESPECT TO ANY CLAIMS ARISING
  15:../STM32F10x_StdPeriph_Lib_V3.5.0/Libraries/STM32F10x_StdPeriph_Driver/src/stm32f10x_can.c ****   * FROM THE CONTENT OF SUCH FIRMWARE AND/OR THE USE MADE BY CUSTOMERS OF THE
  16:../STM32F10x_StdPeriph_Lib_V3.5.0/Libraries/STM32F10x_StdPeriph_Driver/src/stm32f10x_can.c ****   * CODING INFORMATION CONTAINED HEREIN IN CONNECTION WITH THEIR PRODUCTS.
  17:../STM32F10x_StdPeriph_Lib_V3.5.0/Libraries/STM32F10x_StdPeriph_Driver/src/stm32f10x_can.c ****   *
  18:../STM32F10x_StdPeriph_Lib_V3.5.0/Libraries/STM32F10x_StdPeriph_Driver/src/stm32f10x_can.c ****   * <h2><center>&copy; COPYRIGHT 2011 STMicroelectronics</center></h2>
  19:../STM32F10x_StdPeriph_Lib_V3.5.0/Libraries/STM32F10x_StdPeriph_Driver/src/stm32f10x_can.c ****   ******************************************************************************
  20:../STM32F10x_StdPeriph_Lib_V3.5.0/Libraries/STM32F10x_StdPeriph_Driver/src/stm32f10x_can.c ****   */
  21:../STM32F10x_StdPeriph_Lib_V3.5.0/Libraries/STM32F10x_StdPeriph_Driver/src/stm32f10x_can.c **** 
  22:../STM32F10x_StdPeriph_Lib_V3.5.0/Libraries/STM32F10x_StdPeriph_Driver/src/stm32f10x_can.c **** /* Includes ------------------------------------------------------------------*/
  23:../STM32F10x_StdPeriph_Lib_V3.5.0/Libraries/STM32F10x_StdPeriph_Driver/src/stm32f10x_can.c **** #include "stm32f10x_can.h"
  24:../STM32F10x_StdPeriph_Lib_V3.5.0/Libraries/STM32F10x_StdPeriph_Driver/src/stm32f10x_can.c **** #include "stm32f10x_rcc.h"
  25:../STM32F10x_StdPeriph_Lib_V3.5.0/Libraries/STM32F10x_StdPeriph_Driver/src/stm32f10x_can.c **** 
  26:../STM32F10x_StdPeriph_Lib_V3.5.0/Libraries/STM32F10x_StdPeriph_Driver/src/stm32f10x_can.c **** /** @addtogroup STM32F10x_StdPeriph_Driver
  27:../STM32F10x_StdPeriph_Lib_V3.5.0/Libraries/STM32F10x_StdPeriph_Driver/src/stm32f10x_can.c ****   * @{
  28:../STM32F10x_StdPeriph_Lib_V3.5.0/Libraries/STM32F10x_StdPeriph_Driver/src/stm32f10x_can.c ****   */
  29:../STM32F10x_StdPeriph_Lib_V3.5.0/Libraries/STM32F10x_StdPeriph_Driver/src/stm32f10x_can.c **** 
  30:../STM32F10x_StdPeriph_Lib_V3.5.0/Libraries/STM32F10x_StdPeriph_Driver/src/stm32f10x_can.c **** /** @defgroup CAN 
  31:../STM32F10x_StdPeriph_Lib_V3.5.0/Libraries/STM32F10x_StdPeriph_Driver/src/stm32f10x_can.c ****   * @brief CAN driver modules
  32:../STM32F10x_StdPeriph_Lib_V3.5.0/Libraries/STM32F10x_StdPeriph_Driver/src/stm32f10x_can.c ****   * @{
  33:../STM32F10x_StdPeriph_Lib_V3.5.0/Libraries/STM32F10x_StdPeriph_Driver/src/stm32f10x_can.c ****   */ 
  34:../STM32F10x_StdPeriph_Lib_V3.5.0/Libraries/STM32F10x_StdPeriph_Driver/src/stm32f10x_can.c **** 
  35:../STM32F10x_StdPeriph_Lib_V3.5.0/Libraries/STM32F10x_StdPeriph_Driver/src/stm32f10x_can.c **** /** @defgroup CAN_Private_TypesDefinitions
  36:../STM32F10x_StdPeriph_Lib_V3.5.0/Libraries/STM32F10x_StdPeriph_Driver/src/stm32f10x_can.c ****   * @{
  37:../STM32F10x_StdPeriph_Lib_V3.5.0/Libraries/STM32F10x_StdPeriph_Driver/src/stm32f10x_can.c ****   */
  38:../STM32F10x_StdPeriph_Lib_V3.5.0/Libraries/STM32F10x_StdPeriph_Driver/src/stm32f10x_can.c **** 
  39:../STM32F10x_StdPeriph_Lib_V3.5.0/Libraries/STM32F10x_StdPeriph_Driver/src/stm32f10x_can.c **** /**
  40:../STM32F10x_StdPeriph_Lib_V3.5.0/Libraries/STM32F10x_StdPeriph_Driver/src/stm32f10x_can.c ****   * @}
  41:../STM32F10x_StdPeriph_Lib_V3.5.0/Libraries/STM32F10x_StdPeriph_Driver/src/stm32f10x_can.c ****   */
  42:../STM32F10x_StdPeriph_Lib_V3.5.0/Libraries/STM32F10x_StdPeriph_Driver/src/stm32f10x_can.c **** 
  43:../STM32F10x_StdPeriph_Lib_V3.5.0/Libraries/STM32F10x_StdPeriph_Driver/src/stm32f10x_can.c **** /** @defgroup CAN_Private_Defines
  44:../STM32F10x_StdPeriph_Lib_V3.5.0/Libraries/STM32F10x_StdPeriph_Driver/src/stm32f10x_can.c ****   * @{
  45:../STM32F10x_StdPeriph_Lib_V3.5.0/Libraries/STM32F10x_StdPeriph_Driver/src/stm32f10x_can.c ****   */
  46:../STM32F10x_StdPeriph_Lib_V3.5.0/Libraries/STM32F10x_StdPeriph_Driver/src/stm32f10x_can.c **** 
  47:../STM32F10x_StdPeriph_Lib_V3.5.0/Libraries/STM32F10x_StdPeriph_Driver/src/stm32f10x_can.c **** /* CAN Master Control Register bits */
  48:../STM32F10x_StdPeriph_Lib_V3.5.0/Libraries/STM32F10x_StdPeriph_Driver/src/stm32f10x_can.c **** 
  49:../STM32F10x_StdPeriph_Lib_V3.5.0/Libraries/STM32F10x_StdPeriph_Driver/src/stm32f10x_can.c **** #define MCR_DBF      ((uint32_t)0x00010000) /* software master reset */
  50:../STM32F10x_StdPeriph_Lib_V3.5.0/Libraries/STM32F10x_StdPeriph_Driver/src/stm32f10x_can.c **** 
  51:../STM32F10x_StdPeriph_Lib_V3.5.0/Libraries/STM32F10x_StdPeriph_Driver/src/stm32f10x_can.c **** /* CAN Mailbox Transmit Request */
  52:../STM32F10x_StdPeriph_Lib_V3.5.0/Libraries/STM32F10x_StdPeriph_Driver/src/stm32f10x_can.c **** #define TMIDxR_TXRQ  ((uint32_t)0x00000001) /* Transmit mailbox request */
  53:../STM32F10x_StdPeriph_Lib_V3.5.0/Libraries/STM32F10x_StdPeriph_Driver/src/stm32f10x_can.c **** 
  54:../STM32F10x_StdPeriph_Lib_V3.5.0/Libraries/STM32F10x_StdPeriph_Driver/src/stm32f10x_can.c **** /* CAN Filter Master Register bits */
  55:../STM32F10x_StdPeriph_Lib_V3.5.0/Libraries/STM32F10x_StdPeriph_Driver/src/stm32f10x_can.c **** #define FMR_FINIT    ((uint32_t)0x00000001) /* Filter init mode */
  56:../STM32F10x_StdPeriph_Lib_V3.5.0/Libraries/STM32F10x_StdPeriph_Driver/src/stm32f10x_can.c **** 
  57:../STM32F10x_StdPeriph_Lib_V3.5.0/Libraries/STM32F10x_StdPeriph_Driver/src/stm32f10x_can.c **** /* Time out for INAK bit */
  58:../STM32F10x_StdPeriph_Lib_V3.5.0/Libraries/STM32F10x_StdPeriph_Driver/src/stm32f10x_can.c **** #define INAK_TIMEOUT        ((uint32_t)0x0000FFFF)
  59:../STM32F10x_StdPeriph_Lib_V3.5.0/Libraries/STM32F10x_StdPeriph_Driver/src/stm32f10x_can.c **** /* Time out for SLAK bit */
  60:../STM32F10x_StdPeriph_Lib_V3.5.0/Libraries/STM32F10x_StdPeriph_Driver/src/stm32f10x_can.c **** #define SLAK_TIMEOUT        ((uint32_t)0x0000FFFF)
  61:../STM32F10x_StdPeriph_Lib_V3.5.0/Libraries/STM32F10x_StdPeriph_Driver/src/stm32f10x_can.c **** 
  62:../STM32F10x_StdPeriph_Lib_V3.5.0/Libraries/STM32F10x_StdPeriph_Driver/src/stm32f10x_can.c **** 
  63:../STM32F10x_StdPeriph_Lib_V3.5.0/Libraries/STM32F10x_StdPeriph_Driver/src/stm32f10x_can.c **** 
  64:../STM32F10x_StdPeriph_Lib_V3.5.0/Libraries/STM32F10x_StdPeriph_Driver/src/stm32f10x_can.c **** /* Flags in TSR register */
  65:../STM32F10x_StdPeriph_Lib_V3.5.0/Libraries/STM32F10x_StdPeriph_Driver/src/stm32f10x_can.c **** #define CAN_FLAGS_TSR              ((uint32_t)0x08000000) 
  66:../STM32F10x_StdPeriph_Lib_V3.5.0/Libraries/STM32F10x_StdPeriph_Driver/src/stm32f10x_can.c **** /* Flags in RF1R register */
  67:../STM32F10x_StdPeriph_Lib_V3.5.0/Libraries/STM32F10x_StdPeriph_Driver/src/stm32f10x_can.c **** #define CAN_FLAGS_RF1R             ((uint32_t)0x04000000) 
  68:../STM32F10x_StdPeriph_Lib_V3.5.0/Libraries/STM32F10x_StdPeriph_Driver/src/stm32f10x_can.c **** /* Flags in RF0R register */
  69:../STM32F10x_StdPeriph_Lib_V3.5.0/Libraries/STM32F10x_StdPeriph_Driver/src/stm32f10x_can.c **** #define CAN_FLAGS_RF0R             ((uint32_t)0x02000000) 
  70:../STM32F10x_StdPeriph_Lib_V3.5.0/Libraries/STM32F10x_StdPeriph_Driver/src/stm32f10x_can.c **** /* Flags in MSR register */
  71:../STM32F10x_StdPeriph_Lib_V3.5.0/Libraries/STM32F10x_StdPeriph_Driver/src/stm32f10x_can.c **** #define CAN_FLAGS_MSR              ((uint32_t)0x01000000) 
  72:../STM32F10x_StdPeriph_Lib_V3.5.0/Libraries/STM32F10x_StdPeriph_Driver/src/stm32f10x_can.c **** /* Flags in ESR register */
  73:../STM32F10x_StdPeriph_Lib_V3.5.0/Libraries/STM32F10x_StdPeriph_Driver/src/stm32f10x_can.c **** #define CAN_FLAGS_ESR              ((uint32_t)0x00F00000) 
  74:../STM32F10x_StdPeriph_Lib_V3.5.0/Libraries/STM32F10x_StdPeriph_Driver/src/stm32f10x_can.c **** 
  75:../STM32F10x_StdPeriph_Lib_V3.5.0/Libraries/STM32F10x_StdPeriph_Driver/src/stm32f10x_can.c **** /* Mailboxes definition */
  76:../STM32F10x_StdPeriph_Lib_V3.5.0/Libraries/STM32F10x_StdPeriph_Driver/src/stm32f10x_can.c **** #define CAN_TXMAILBOX_0                   ((uint8_t)0x00)
  77:../STM32F10x_StdPeriph_Lib_V3.5.0/Libraries/STM32F10x_StdPeriph_Driver/src/stm32f10x_can.c **** #define CAN_TXMAILBOX_1                   ((uint8_t)0x01)
  78:../STM32F10x_StdPeriph_Lib_V3.5.0/Libraries/STM32F10x_StdPeriph_Driver/src/stm32f10x_can.c **** #define CAN_TXMAILBOX_2                   ((uint8_t)0x02) 
  79:../STM32F10x_StdPeriph_Lib_V3.5.0/Libraries/STM32F10x_StdPeriph_Driver/src/stm32f10x_can.c **** 
  80:../STM32F10x_StdPeriph_Lib_V3.5.0/Libraries/STM32F10x_StdPeriph_Driver/src/stm32f10x_can.c **** 
  81:../STM32F10x_StdPeriph_Lib_V3.5.0/Libraries/STM32F10x_StdPeriph_Driver/src/stm32f10x_can.c **** 
  82:../STM32F10x_StdPeriph_Lib_V3.5.0/Libraries/STM32F10x_StdPeriph_Driver/src/stm32f10x_can.c **** #define CAN_MODE_MASK              ((uint32_t) 0x00000003)
  83:../STM32F10x_StdPeriph_Lib_V3.5.0/Libraries/STM32F10x_StdPeriph_Driver/src/stm32f10x_can.c **** /**
  84:../STM32F10x_StdPeriph_Lib_V3.5.0/Libraries/STM32F10x_StdPeriph_Driver/src/stm32f10x_can.c ****   * @}
  85:../STM32F10x_StdPeriph_Lib_V3.5.0/Libraries/STM32F10x_StdPeriph_Driver/src/stm32f10x_can.c ****   */
  86:../STM32F10x_StdPeriph_Lib_V3.5.0/Libraries/STM32F10x_StdPeriph_Driver/src/stm32f10x_can.c **** 
  87:../STM32F10x_StdPeriph_Lib_V3.5.0/Libraries/STM32F10x_StdPeriph_Driver/src/stm32f10x_can.c **** /** @defgroup CAN_Private_Macros
  88:../STM32F10x_StdPeriph_Lib_V3.5.0/Libraries/STM32F10x_StdPeriph_Driver/src/stm32f10x_can.c ****   * @{
  89:../STM32F10x_StdPeriph_Lib_V3.5.0/Libraries/STM32F10x_StdPeriph_Driver/src/stm32f10x_can.c ****   */
  90:../STM32F10x_StdPeriph_Lib_V3.5.0/Libraries/STM32F10x_StdPeriph_Driver/src/stm32f10x_can.c **** 
  91:../STM32F10x_StdPeriph_Lib_V3.5.0/Libraries/STM32F10x_StdPeriph_Driver/src/stm32f10x_can.c **** /**
  92:../STM32F10x_StdPeriph_Lib_V3.5.0/Libraries/STM32F10x_StdPeriph_Driver/src/stm32f10x_can.c ****   * @}
  93:../STM32F10x_StdPeriph_Lib_V3.5.0/Libraries/STM32F10x_StdPeriph_Driver/src/stm32f10x_can.c ****   */
  94:../STM32F10x_StdPeriph_Lib_V3.5.0/Libraries/STM32F10x_StdPeriph_Driver/src/stm32f10x_can.c **** 
  95:../STM32F10x_StdPeriph_Lib_V3.5.0/Libraries/STM32F10x_StdPeriph_Driver/src/stm32f10x_can.c **** /** @defgroup CAN_Private_Variables
  96:../STM32F10x_StdPeriph_Lib_V3.5.0/Libraries/STM32F10x_StdPeriph_Driver/src/stm32f10x_can.c ****   * @{
  97:../STM32F10x_StdPeriph_Lib_V3.5.0/Libraries/STM32F10x_StdPeriph_Driver/src/stm32f10x_can.c ****   */
  98:../STM32F10x_StdPeriph_Lib_V3.5.0/Libraries/STM32F10x_StdPeriph_Driver/src/stm32f10x_can.c **** 
  99:../STM32F10x_StdPeriph_Lib_V3.5.0/Libraries/STM32F10x_StdPeriph_Driver/src/stm32f10x_can.c **** /**
 100:../STM32F10x_StdPeriph_Lib_V3.5.0/Libraries/STM32F10x_StdPeriph_Driver/src/stm32f10x_can.c ****   * @}
 101:../STM32F10x_StdPeriph_Lib_V3.5.0/Libraries/STM32F10x_StdPeriph_Driver/src/stm32f10x_can.c ****   */
 102:../STM32F10x_StdPeriph_Lib_V3.5.0/Libraries/STM32F10x_StdPeriph_Driver/src/stm32f10x_can.c **** 
 103:../STM32F10x_StdPeriph_Lib_V3.5.0/Libraries/STM32F10x_StdPeriph_Driver/src/stm32f10x_can.c **** /** @defgroup CAN_Private_FunctionPrototypes
 104:../STM32F10x_StdPeriph_Lib_V3.5.0/Libraries/STM32F10x_StdPeriph_Driver/src/stm32f10x_can.c ****   * @{
 105:../STM32F10x_StdPeriph_Lib_V3.5.0/Libraries/STM32F10x_StdPeriph_Driver/src/stm32f10x_can.c ****   */
 106:../STM32F10x_StdPeriph_Lib_V3.5.0/Libraries/STM32F10x_StdPeriph_Driver/src/stm32f10x_can.c **** 
 107:../STM32F10x_StdPeriph_Lib_V3.5.0/Libraries/STM32F10x_StdPeriph_Driver/src/stm32f10x_can.c **** static ITStatus CheckITStatus(uint32_t CAN_Reg, uint32_t It_Bit);
 108:../STM32F10x_StdPeriph_Lib_V3.5.0/Libraries/STM32F10x_StdPeriph_Driver/src/stm32f10x_can.c **** 
 109:../STM32F10x_StdPeriph_Lib_V3.5.0/Libraries/STM32F10x_StdPeriph_Driver/src/stm32f10x_can.c **** /**
 110:../STM32F10x_StdPeriph_Lib_V3.5.0/Libraries/STM32F10x_StdPeriph_Driver/src/stm32f10x_can.c ****   * @}
 111:../STM32F10x_StdPeriph_Lib_V3.5.0/Libraries/STM32F10x_StdPeriph_Driver/src/stm32f10x_can.c ****   */
 112:../STM32F10x_StdPeriph_Lib_V3.5.0/Libraries/STM32F10x_StdPeriph_Driver/src/stm32f10x_can.c **** 
 113:../STM32F10x_StdPeriph_Lib_V3.5.0/Libraries/STM32F10x_StdPeriph_Driver/src/stm32f10x_can.c **** /** @defgroup CAN_Private_Functions
 114:../STM32F10x_StdPeriph_Lib_V3.5.0/Libraries/STM32F10x_StdPeriph_Driver/src/stm32f10x_can.c ****   * @{
 115:../STM32F10x_StdPeriph_Lib_V3.5.0/Libraries/STM32F10x_StdPeriph_Driver/src/stm32f10x_can.c ****   */
 116:../STM32F10x_StdPeriph_Lib_V3.5.0/Libraries/STM32F10x_StdPeriph_Driver/src/stm32f10x_can.c **** 
 117:../STM32F10x_StdPeriph_Lib_V3.5.0/Libraries/STM32F10x_StdPeriph_Driver/src/stm32f10x_can.c **** /**
 118:../STM32F10x_StdPeriph_Lib_V3.5.0/Libraries/STM32F10x_StdPeriph_Driver/src/stm32f10x_can.c ****   * @brief  Deinitializes the CAN peripheral registers to their default reset values.
 119:../STM32F10x_StdPeriph_Lib_V3.5.0/Libraries/STM32F10x_StdPeriph_Driver/src/stm32f10x_can.c ****   * @param  CANx: where x can be 1 or 2 to select the CAN peripheral.
 120:../STM32F10x_StdPeriph_Lib_V3.5.0/Libraries/STM32F10x_StdPeriph_Driver/src/stm32f10x_can.c ****   * @retval None.
 121:../STM32F10x_StdPeriph_Lib_V3.5.0/Libraries/STM32F10x_StdPeriph_Driver/src/stm32f10x_can.c ****   */
 122:../STM32F10x_StdPeriph_Lib_V3.5.0/Libraries/STM32F10x_StdPeriph_Driver/src/stm32f10x_can.c **** void CAN_DeInit(CAN_TypeDef* CANx)
 123:../STM32F10x_StdPeriph_Lib_V3.5.0/Libraries/STM32F10x_StdPeriph_Driver/src/stm32f10x_can.c **** {
  27              		.loc 1 123 0
  28              		.cfi_startproc
  29              		@ args = 0, pretend = 0, frame = 8
  30              		@ frame_needed = 1, uses_anonymous_args = 0
  31 0000 80B5     		push	{r7, lr}
  32              	.LCFI0:
  33              		.cfi_def_cfa_offset 8
  34              		.cfi_offset 7, -8
  35              		.cfi_offset 14, -4
  36 0002 82B0     		sub	sp, sp, #8
  37              	.LCFI1:
  38              		.cfi_def_cfa_offset 16
  39 0004 00AF     		add	r7, sp, #0
  40              	.LCFI2:
  41              		.cfi_def_cfa_register 7
  42 0006 7860     		str	r0, [r7, #4]
 124:../STM32F10x_StdPeriph_Lib_V3.5.0/Libraries/STM32F10x_StdPeriph_Driver/src/stm32f10x_can.c ****   /* Check the parameters */
 125:../STM32F10x_StdPeriph_Lib_V3.5.0/Libraries/STM32F10x_StdPeriph_Driver/src/stm32f10x_can.c ****   assert_param(IS_CAN_ALL_PERIPH(CANx));
 126:../STM32F10x_StdPeriph_Lib_V3.5.0/Libraries/STM32F10x_StdPeriph_Driver/src/stm32f10x_can.c ****  
 127:../STM32F10x_StdPeriph_Lib_V3.5.0/Libraries/STM32F10x_StdPeriph_Driver/src/stm32f10x_can.c ****   if (CANx == CAN1)
  43              		.loc 1 127 0
  44 0008 7A68     		ldr	r2, [r7, #4]
  45 000a 104B     		ldr	r3, .L4
  46 000c 9A42     		cmp	r2, r3
  47 000e 0CD1     		bne	.L2
 128:../STM32F10x_StdPeriph_Lib_V3.5.0/Libraries/STM32F10x_StdPeriph_Driver/src/stm32f10x_can.c ****   {
 129:../STM32F10x_StdPeriph_Lib_V3.5.0/Libraries/STM32F10x_StdPeriph_Driver/src/stm32f10x_can.c ****     /* Enable CAN1 reset state */
 130:../STM32F10x_StdPeriph_Lib_V3.5.0/Libraries/STM32F10x_StdPeriph_Driver/src/stm32f10x_can.c ****     RCC_APB1PeriphResetCmd(RCC_APB1Periph_CAN1, ENABLE);
  48              		.loc 1 130 0
  49 0010 4FF00070 		mov	r0, #33554432
  50 0014 4FF00101 		mov	r1, #1
  51 0018 FFF7FEFF 		bl	RCC_APB1PeriphResetCmd
 131:../STM32F10x_StdPeriph_Lib_V3.5.0/Libraries/STM32F10x_StdPeriph_Driver/src/stm32f10x_can.c ****     /* Release CAN1 from reset state */
 132:../STM32F10x_StdPeriph_Lib_V3.5.0/Libraries/STM32F10x_StdPeriph_Driver/src/stm32f10x_can.c ****     RCC_APB1PeriphResetCmd(RCC_APB1Periph_CAN1, DISABLE);
  52              		.loc 1 132 0
  53 001c 4FF00070 		mov	r0, #33554432
  54 0020 4FF00001 		mov	r1, #0
  55 0024 FFF7FEFF 		bl	RCC_APB1PeriphResetCmd
  56 0028 0BE0     		b	.L1
  57              	.L2:
 133:../STM32F10x_StdPeriph_Lib_V3.5.0/Libraries/STM32F10x_StdPeriph_Driver/src/stm32f10x_can.c ****   }
 134:../STM32F10x_StdPeriph_Lib_V3.5.0/Libraries/STM32F10x_StdPeriph_Driver/src/stm32f10x_can.c ****   else
 135:../STM32F10x_StdPeriph_Lib_V3.5.0/Libraries/STM32F10x_StdPeriph_Driver/src/stm32f10x_can.c ****   {  
 136:../STM32F10x_StdPeriph_Lib_V3.5.0/Libraries/STM32F10x_StdPeriph_Driver/src/stm32f10x_can.c ****     /* Enable CAN2 reset state */
 137:../STM32F10x_StdPeriph_Lib_V3.5.0/Libraries/STM32F10x_StdPeriph_Driver/src/stm32f10x_can.c ****     RCC_APB1PeriphResetCmd(RCC_APB1Periph_CAN2, ENABLE);
  58              		.loc 1 137 0
  59 002a 4FF08060 		mov	r0, #67108864
  60 002e 4FF00101 		mov	r1, #1
  61 0032 FFF7FEFF 		bl	RCC_APB1PeriphResetCmd
 138:../STM32F10x_StdPeriph_Lib_V3.5.0/Libraries/STM32F10x_StdPeriph_Driver/src/stm32f10x_can.c ****     /* Release CAN2 from reset state */
 139:../STM32F10x_StdPeriph_Lib_V3.5.0/Libraries/STM32F10x_StdPeriph_Driver/src/stm32f10x_can.c ****     RCC_APB1PeriphResetCmd(RCC_APB1Periph_CAN2, DISABLE);
  62              		.loc 1 139 0
  63 0036 4FF08060 		mov	r0, #67108864
  64 003a 4FF00001 		mov	r1, #0
  65 003e FFF7FEFF 		bl	RCC_APB1PeriphResetCmd
  66              	.L1:
 140:../STM32F10x_StdPeriph_Lib_V3.5.0/Libraries/STM32F10x_StdPeriph_Driver/src/stm32f10x_can.c ****   }
 141:../STM32F10x_StdPeriph_Lib_V3.5.0/Libraries/STM32F10x_StdPeriph_Driver/src/stm32f10x_can.c **** }
  67              		.loc 1 141 0
  68 0042 07F10807 		add	r7, r7, #8
  69 0046 BD46     		mov	sp, r7
  70 0048 80BD     		pop	{r7, pc}
  71              	.L5:
  72 004a 00BF     		.align	2
  73              	.L4:
  74 004c 00640040 		.word	1073767424
  75              		.cfi_endproc
  76              	.LFE29:
  78              		.section	.text.CAN_Init,"ax",%progbits
  79              		.align	2
  80              		.global	CAN_Init
  81              		.thumb
  82              		.thumb_func
  84              	CAN_Init:
  85              	.LFB30:
 142:../STM32F10x_StdPeriph_Lib_V3.5.0/Libraries/STM32F10x_StdPeriph_Driver/src/stm32f10x_can.c **** 
 143:../STM32F10x_StdPeriph_Lib_V3.5.0/Libraries/STM32F10x_StdPeriph_Driver/src/stm32f10x_can.c **** /**
 144:../STM32F10x_StdPeriph_Lib_V3.5.0/Libraries/STM32F10x_StdPeriph_Driver/src/stm32f10x_can.c ****   * @brief  Initializes the CAN peripheral according to the specified
 145:../STM32F10x_StdPeriph_Lib_V3.5.0/Libraries/STM32F10x_StdPeriph_Driver/src/stm32f10x_can.c ****   *         parameters in the CAN_InitStruct.
 146:../STM32F10x_StdPeriph_Lib_V3.5.0/Libraries/STM32F10x_StdPeriph_Driver/src/stm32f10x_can.c ****   * @param  CANx:           where x can be 1 or 2 to to select the CAN 
 147:../STM32F10x_StdPeriph_Lib_V3.5.0/Libraries/STM32F10x_StdPeriph_Driver/src/stm32f10x_can.c ****   *                         peripheral.
 148:../STM32F10x_StdPeriph_Lib_V3.5.0/Libraries/STM32F10x_StdPeriph_Driver/src/stm32f10x_can.c ****   * @param  CAN_InitStruct: pointer to a CAN_InitTypeDef structure that
 149:../STM32F10x_StdPeriph_Lib_V3.5.0/Libraries/STM32F10x_StdPeriph_Driver/src/stm32f10x_can.c ****   *                         contains the configuration information for the 
 150:../STM32F10x_StdPeriph_Lib_V3.5.0/Libraries/STM32F10x_StdPeriph_Driver/src/stm32f10x_can.c ****   *                         CAN peripheral.
 151:../STM32F10x_StdPeriph_Lib_V3.5.0/Libraries/STM32F10x_StdPeriph_Driver/src/stm32f10x_can.c ****   * @retval Constant indicates initialization succeed which will be 
 152:../STM32F10x_StdPeriph_Lib_V3.5.0/Libraries/STM32F10x_StdPeriph_Driver/src/stm32f10x_can.c ****   *         CAN_InitStatus_Failed or CAN_InitStatus_Success.
 153:../STM32F10x_StdPeriph_Lib_V3.5.0/Libraries/STM32F10x_StdPeriph_Driver/src/stm32f10x_can.c ****   */
 154:../STM32F10x_StdPeriph_Lib_V3.5.0/Libraries/STM32F10x_StdPeriph_Driver/src/stm32f10x_can.c **** uint8_t CAN_Init(CAN_TypeDef* CANx, CAN_InitTypeDef* CAN_InitStruct)
 155:../STM32F10x_StdPeriph_Lib_V3.5.0/Libraries/STM32F10x_StdPeriph_Driver/src/stm32f10x_can.c **** {
  86              		.loc 1 155 0
  87              		.cfi_startproc
  88              		@ args = 0, pretend = 0, frame = 16
  89              		@ frame_needed = 1, uses_anonymous_args = 0
  90              		@ link register save eliminated.
  91 0000 80B4     		push	{r7}
  92              	.LCFI3:
  93              		.cfi_def_cfa_offset 4
  94              		.cfi_offset 7, -4
  95 0002 85B0     		sub	sp, sp, #20
  96              	.LCFI4:
  97              		.cfi_def_cfa_offset 24
  98 0004 00AF     		add	r7, sp, #0
  99              	.LCFI5:
 100              		.cfi_def_cfa_register 7
 101 0006 7860     		str	r0, [r7, #4]
 102 0008 3960     		str	r1, [r7, #0]
 156:../STM32F10x_StdPeriph_Lib_V3.5.0/Libraries/STM32F10x_StdPeriph_Driver/src/stm32f10x_can.c ****   uint8_t InitStatus = CAN_InitStatus_Failed;
 103              		.loc 1 156 0
 104 000a 4FF00003 		mov	r3, #0
 105 000e FB73     		strb	r3, [r7, #15]
 157:../STM32F10x_StdPeriph_Lib_V3.5.0/Libraries/STM32F10x_StdPeriph_Driver/src/stm32f10x_can.c ****   uint32_t wait_ack = 0x00000000;
 106              		.loc 1 157 0
 107 0010 4FF00003 		mov	r3, #0
 108 0014 BB60     		str	r3, [r7, #8]
 158:../STM32F10x_StdPeriph_Lib_V3.5.0/Libraries/STM32F10x_StdPeriph_Driver/src/stm32f10x_can.c ****   /* Check the parameters */
 159:../STM32F10x_StdPeriph_Lib_V3.5.0/Libraries/STM32F10x_StdPeriph_Driver/src/stm32f10x_can.c ****   assert_param(IS_CAN_ALL_PERIPH(CANx));
 160:../STM32F10x_StdPeriph_Lib_V3.5.0/Libraries/STM32F10x_StdPeriph_Driver/src/stm32f10x_can.c ****   assert_param(IS_FUNCTIONAL_STATE(CAN_InitStruct->CAN_TTCM));
 161:../STM32F10x_StdPeriph_Lib_V3.5.0/Libraries/STM32F10x_StdPeriph_Driver/src/stm32f10x_can.c ****   assert_param(IS_FUNCTIONAL_STATE(CAN_InitStruct->CAN_ABOM));
 162:../STM32F10x_StdPeriph_Lib_V3.5.0/Libraries/STM32F10x_StdPeriph_Driver/src/stm32f10x_can.c ****   assert_param(IS_FUNCTIONAL_STATE(CAN_InitStruct->CAN_AWUM));
 163:../STM32F10x_StdPeriph_Lib_V3.5.0/Libraries/STM32F10x_StdPeriph_Driver/src/stm32f10x_can.c ****   assert_param(IS_FUNCTIONAL_STATE(CAN_InitStruct->CAN_NART));
 164:../STM32F10x_StdPeriph_Lib_V3.5.0/Libraries/STM32F10x_StdPeriph_Driver/src/stm32f10x_can.c ****   assert_param(IS_FUNCTIONAL_STATE(CAN_InitStruct->CAN_RFLM));
 165:../STM32F10x_StdPeriph_Lib_V3.5.0/Libraries/STM32F10x_StdPeriph_Driver/src/stm32f10x_can.c ****   assert_param(IS_FUNCTIONAL_STATE(CAN_InitStruct->CAN_TXFP));
 166:../STM32F10x_StdPeriph_Lib_V3.5.0/Libraries/STM32F10x_StdPeriph_Driver/src/stm32f10x_can.c ****   assert_param(IS_CAN_MODE(CAN_InitStruct->CAN_Mode));
 167:../STM32F10x_StdPeriph_Lib_V3.5.0/Libraries/STM32F10x_StdPeriph_Driver/src/stm32f10x_can.c ****   assert_param(IS_CAN_SJW(CAN_InitStruct->CAN_SJW));
 168:../STM32F10x_StdPeriph_Lib_V3.5.0/Libraries/STM32F10x_StdPeriph_Driver/src/stm32f10x_can.c ****   assert_param(IS_CAN_BS1(CAN_InitStruct->CAN_BS1));
 169:../STM32F10x_StdPeriph_Lib_V3.5.0/Libraries/STM32F10x_StdPeriph_Driver/src/stm32f10x_can.c ****   assert_param(IS_CAN_BS2(CAN_InitStruct->CAN_BS2));
 170:../STM32F10x_StdPeriph_Lib_V3.5.0/Libraries/STM32F10x_StdPeriph_Driver/src/stm32f10x_can.c ****   assert_param(IS_CAN_PRESCALER(CAN_InitStruct->CAN_Prescaler));
 171:../STM32F10x_StdPeriph_Lib_V3.5.0/Libraries/STM32F10x_StdPeriph_Driver/src/stm32f10x_can.c **** 
 172:../STM32F10x_StdPeriph_Lib_V3.5.0/Libraries/STM32F10x_StdPeriph_Driver/src/stm32f10x_can.c ****   /* Exit from sleep mode */
 173:../STM32F10x_StdPeriph_Lib_V3.5.0/Libraries/STM32F10x_StdPeriph_Driver/src/stm32f10x_can.c ****   CANx->MCR &= (~(uint32_t)CAN_MCR_SLEEP);
 109              		.loc 1 173 0
 110 0016 7B68     		ldr	r3, [r7, #4]
 111 0018 1B68     		ldr	r3, [r3, #0]
 112 001a 23F00202 		bic	r2, r3, #2
 113 001e 7B68     		ldr	r3, [r7, #4]
 114 0020 1A60     		str	r2, [r3, #0]
 174:../STM32F10x_StdPeriph_Lib_V3.5.0/Libraries/STM32F10x_StdPeriph_Driver/src/stm32f10x_can.c **** 
 175:../STM32F10x_StdPeriph_Lib_V3.5.0/Libraries/STM32F10x_StdPeriph_Driver/src/stm32f10x_can.c ****   /* Request initialisation */
 176:../STM32F10x_StdPeriph_Lib_V3.5.0/Libraries/STM32F10x_StdPeriph_Driver/src/stm32f10x_can.c ****   CANx->MCR |= CAN_MCR_INRQ ;
 115              		.loc 1 176 0
 116 0022 7B68     		ldr	r3, [r7, #4]
 117 0024 1B68     		ldr	r3, [r3, #0]
 118 0026 43F00102 		orr	r2, r3, #1
 119 002a 7B68     		ldr	r3, [r7, #4]
 120 002c 1A60     		str	r2, [r3, #0]
 177:../STM32F10x_StdPeriph_Lib_V3.5.0/Libraries/STM32F10x_StdPeriph_Driver/src/stm32f10x_can.c **** 
 178:../STM32F10x_StdPeriph_Lib_V3.5.0/Libraries/STM32F10x_StdPeriph_Driver/src/stm32f10x_can.c ****   /* Wait the acknowledge */
 179:../STM32F10x_StdPeriph_Lib_V3.5.0/Libraries/STM32F10x_StdPeriph_Driver/src/stm32f10x_can.c ****   while (((CANx->MSR & CAN_MSR_INAK) != CAN_MSR_INAK) && (wait_ack != INAK_TIMEOUT))
 121              		.loc 1 179 0
 122 002e 03E0     		b	.L7
 123              	.L9:
 180:../STM32F10x_StdPeriph_Lib_V3.5.0/Libraries/STM32F10x_StdPeriph_Driver/src/stm32f10x_can.c ****   {
 181:../STM32F10x_StdPeriph_Lib_V3.5.0/Libraries/STM32F10x_StdPeriph_Driver/src/stm32f10x_can.c ****     wait_ack++;
 124              		.loc 1 181 0
 125 0030 BB68     		ldr	r3, [r7, #8]
 126 0032 03F10103 		add	r3, r3, #1
 127 0036 BB60     		str	r3, [r7, #8]
 128              	.L7:
 179:../STM32F10x_StdPeriph_Lib_V3.5.0/Libraries/STM32F10x_StdPeriph_Driver/src/stm32f10x_can.c ****   while (((CANx->MSR & CAN_MSR_INAK) != CAN_MSR_INAK) && (wait_ack != INAK_TIMEOUT))
 129              		.loc 1 179 0 discriminator 1
 130 0038 7B68     		ldr	r3, [r7, #4]
 131 003a 5B68     		ldr	r3, [r3, #4]
 132 003c 03F00103 		and	r3, r3, #1
 133 0040 002B     		cmp	r3, #0
 134 0042 04D1     		bne	.L8
 179:../STM32F10x_StdPeriph_Lib_V3.5.0/Libraries/STM32F10x_StdPeriph_Driver/src/stm32f10x_can.c ****   while (((CANx->MSR & CAN_MSR_INAK) != CAN_MSR_INAK) && (wait_ack != INAK_TIMEOUT))
 135              		.loc 1 179 0 is_stmt 0 discriminator 2
 136 0044 BA68     		ldr	r2, [r7, #8]
 137 0046 4FF6FF73 		movw	r3, #65535
 138 004a 9A42     		cmp	r2, r3
 139 004c F0D1     		bne	.L9
 140              	.L8:
 182:../STM32F10x_StdPeriph_Lib_V3.5.0/Libraries/STM32F10x_StdPeriph_Driver/src/stm32f10x_can.c ****   }
 183:../STM32F10x_StdPeriph_Lib_V3.5.0/Libraries/STM32F10x_StdPeriph_Driver/src/stm32f10x_can.c **** 
 184:../STM32F10x_StdPeriph_Lib_V3.5.0/Libraries/STM32F10x_StdPeriph_Driver/src/stm32f10x_can.c ****   /* Check acknowledge */
 185:../STM32F10x_StdPeriph_Lib_V3.5.0/Libraries/STM32F10x_StdPeriph_Driver/src/stm32f10x_can.c ****   if ((CANx->MSR & CAN_MSR_INAK) != CAN_MSR_INAK)
 141              		.loc 1 185 0 is_stmt 1
 142 004e 7B68     		ldr	r3, [r7, #4]
 143 0050 5B68     		ldr	r3, [r3, #4]
 144 0052 03F00103 		and	r3, r3, #1
 145 0056 002B     		cmp	r3, #0
 146 0058 03D1     		bne	.L10
 186:../STM32F10x_StdPeriph_Lib_V3.5.0/Libraries/STM32F10x_StdPeriph_Driver/src/stm32f10x_can.c ****   {
 187:../STM32F10x_StdPeriph_Lib_V3.5.0/Libraries/STM32F10x_StdPeriph_Driver/src/stm32f10x_can.c ****     InitStatus = CAN_InitStatus_Failed;
 147              		.loc 1 187 0
 148 005a 4FF00003 		mov	r3, #0
 149 005e FB73     		strb	r3, [r7, #15]
 150 0060 A5E0     		b	.L11
 151              	.L10:
 188:../STM32F10x_StdPeriph_Lib_V3.5.0/Libraries/STM32F10x_StdPeriph_Driver/src/stm32f10x_can.c ****   }
 189:../STM32F10x_StdPeriph_Lib_V3.5.0/Libraries/STM32F10x_StdPeriph_Driver/src/stm32f10x_can.c ****   else 
 190:../STM32F10x_StdPeriph_Lib_V3.5.0/Libraries/STM32F10x_StdPeriph_Driver/src/stm32f10x_can.c ****   {
 191:../STM32F10x_StdPeriph_Lib_V3.5.0/Libraries/STM32F10x_StdPeriph_Driver/src/stm32f10x_can.c ****     /* Set the time triggered communication mode */
 192:../STM32F10x_StdPeriph_Lib_V3.5.0/Libraries/STM32F10x_StdPeriph_Driver/src/stm32f10x_can.c ****     if (CAN_InitStruct->CAN_TTCM == ENABLE)
 152              		.loc 1 192 0
 153 0062 3B68     		ldr	r3, [r7, #0]
 154 0064 9B79     		ldrb	r3, [r3, #6]	@ zero_extendqisi2
 155 0066 012B     		cmp	r3, #1
 156 0068 06D1     		bne	.L12
 193:../STM32F10x_StdPeriph_Lib_V3.5.0/Libraries/STM32F10x_StdPeriph_Driver/src/stm32f10x_can.c ****     {
 194:../STM32F10x_StdPeriph_Lib_V3.5.0/Libraries/STM32F10x_StdPeriph_Driver/src/stm32f10x_can.c ****       CANx->MCR |= CAN_MCR_TTCM;
 157              		.loc 1 194 0
 158 006a 7B68     		ldr	r3, [r7, #4]
 159 006c 1B68     		ldr	r3, [r3, #0]
 160 006e 43F08002 		orr	r2, r3, #128
 161 0072 7B68     		ldr	r3, [r7, #4]
 162 0074 1A60     		str	r2, [r3, #0]
 163 0076 05E0     		b	.L13
 164              	.L12:
 195:../STM32F10x_StdPeriph_Lib_V3.5.0/Libraries/STM32F10x_StdPeriph_Driver/src/stm32f10x_can.c ****     }
 196:../STM32F10x_StdPeriph_Lib_V3.5.0/Libraries/STM32F10x_StdPeriph_Driver/src/stm32f10x_can.c ****     else
 197:../STM32F10x_StdPeriph_Lib_V3.5.0/Libraries/STM32F10x_StdPeriph_Driver/src/stm32f10x_can.c ****     {
 198:../STM32F10x_StdPeriph_Lib_V3.5.0/Libraries/STM32F10x_StdPeriph_Driver/src/stm32f10x_can.c ****       CANx->MCR &= ~(uint32_t)CAN_MCR_TTCM;
 165              		.loc 1 198 0
 166 0078 7B68     		ldr	r3, [r7, #4]
 167 007a 1B68     		ldr	r3, [r3, #0]
 168 007c 23F08002 		bic	r2, r3, #128
 169 0080 7B68     		ldr	r3, [r7, #4]
 170 0082 1A60     		str	r2, [r3, #0]
 171              	.L13:
 199:../STM32F10x_StdPeriph_Lib_V3.5.0/Libraries/STM32F10x_StdPeriph_Driver/src/stm32f10x_can.c ****     }
 200:../STM32F10x_StdPeriph_Lib_V3.5.0/Libraries/STM32F10x_StdPeriph_Driver/src/stm32f10x_can.c **** 
 201:../STM32F10x_StdPeriph_Lib_V3.5.0/Libraries/STM32F10x_StdPeriph_Driver/src/stm32f10x_can.c ****     /* Set the automatic bus-off management */
 202:../STM32F10x_StdPeriph_Lib_V3.5.0/Libraries/STM32F10x_StdPeriph_Driver/src/stm32f10x_can.c ****     if (CAN_InitStruct->CAN_ABOM == ENABLE)
 172              		.loc 1 202 0
 173 0084 3B68     		ldr	r3, [r7, #0]
 174 0086 DB79     		ldrb	r3, [r3, #7]	@ zero_extendqisi2
 175 0088 012B     		cmp	r3, #1
 176 008a 06D1     		bne	.L14
 203:../STM32F10x_StdPeriph_Lib_V3.5.0/Libraries/STM32F10x_StdPeriph_Driver/src/stm32f10x_can.c ****     {
 204:../STM32F10x_StdPeriph_Lib_V3.5.0/Libraries/STM32F10x_StdPeriph_Driver/src/stm32f10x_can.c ****       CANx->MCR |= CAN_MCR_ABOM;
 177              		.loc 1 204 0
 178 008c 7B68     		ldr	r3, [r7, #4]
 179 008e 1B68     		ldr	r3, [r3, #0]
 180 0090 43F04002 		orr	r2, r3, #64
 181 0094 7B68     		ldr	r3, [r7, #4]
 182 0096 1A60     		str	r2, [r3, #0]
 183 0098 05E0     		b	.L15
 184              	.L14:
 205:../STM32F10x_StdPeriph_Lib_V3.5.0/Libraries/STM32F10x_StdPeriph_Driver/src/stm32f10x_can.c ****     }
 206:../STM32F10x_StdPeriph_Lib_V3.5.0/Libraries/STM32F10x_StdPeriph_Driver/src/stm32f10x_can.c ****     else
 207:../STM32F10x_StdPeriph_Lib_V3.5.0/Libraries/STM32F10x_StdPeriph_Driver/src/stm32f10x_can.c ****     {
 208:../STM32F10x_StdPeriph_Lib_V3.5.0/Libraries/STM32F10x_StdPeriph_Driver/src/stm32f10x_can.c ****       CANx->MCR &= ~(uint32_t)CAN_MCR_ABOM;
 185              		.loc 1 208 0
 186 009a 7B68     		ldr	r3, [r7, #4]
 187 009c 1B68     		ldr	r3, [r3, #0]
 188 009e 23F04002 		bic	r2, r3, #64
 189 00a2 7B68     		ldr	r3, [r7, #4]
 190 00a4 1A60     		str	r2, [r3, #0]
 191              	.L15:
 209:../STM32F10x_StdPeriph_Lib_V3.5.0/Libraries/STM32F10x_StdPeriph_Driver/src/stm32f10x_can.c ****     }
 210:../STM32F10x_StdPeriph_Lib_V3.5.0/Libraries/STM32F10x_StdPeriph_Driver/src/stm32f10x_can.c **** 
 211:../STM32F10x_StdPeriph_Lib_V3.5.0/Libraries/STM32F10x_StdPeriph_Driver/src/stm32f10x_can.c ****     /* Set the automatic wake-up mode */
 212:../STM32F10x_StdPeriph_Lib_V3.5.0/Libraries/STM32F10x_StdPeriph_Driver/src/stm32f10x_can.c ****     if (CAN_InitStruct->CAN_AWUM == ENABLE)
 192              		.loc 1 212 0
 193 00a6 3B68     		ldr	r3, [r7, #0]
 194 00a8 1B7A     		ldrb	r3, [r3, #8]	@ zero_extendqisi2
 195 00aa 012B     		cmp	r3, #1
 196 00ac 06D1     		bne	.L16
 213:../STM32F10x_StdPeriph_Lib_V3.5.0/Libraries/STM32F10x_StdPeriph_Driver/src/stm32f10x_can.c ****     {
 214:../STM32F10x_StdPeriph_Lib_V3.5.0/Libraries/STM32F10x_StdPeriph_Driver/src/stm32f10x_can.c ****       CANx->MCR |= CAN_MCR_AWUM;
 197              		.loc 1 214 0
 198 00ae 7B68     		ldr	r3, [r7, #4]
 199 00b0 1B68     		ldr	r3, [r3, #0]
 200 00b2 43F02002 		orr	r2, r3, #32
 201 00b6 7B68     		ldr	r3, [r7, #4]
 202 00b8 1A60     		str	r2, [r3, #0]
 203 00ba 05E0     		b	.L17
 204              	.L16:
 215:../STM32F10x_StdPeriph_Lib_V3.5.0/Libraries/STM32F10x_StdPeriph_Driver/src/stm32f10x_can.c ****     }
 216:../STM32F10x_StdPeriph_Lib_V3.5.0/Libraries/STM32F10x_StdPeriph_Driver/src/stm32f10x_can.c ****     else
 217:../STM32F10x_StdPeriph_Lib_V3.5.0/Libraries/STM32F10x_StdPeriph_Driver/src/stm32f10x_can.c ****     {
 218:../STM32F10x_StdPeriph_Lib_V3.5.0/Libraries/STM32F10x_StdPeriph_Driver/src/stm32f10x_can.c ****       CANx->MCR &= ~(uint32_t)CAN_MCR_AWUM;
 205              		.loc 1 218 0
 206 00bc 7B68     		ldr	r3, [r7, #4]
 207 00be 1B68     		ldr	r3, [r3, #0]
 208 00c0 23F02002 		bic	r2, r3, #32
 209 00c4 7B68     		ldr	r3, [r7, #4]
 210 00c6 1A60     		str	r2, [r3, #0]
 211              	.L17:
 219:../STM32F10x_StdPeriph_Lib_V3.5.0/Libraries/STM32F10x_StdPeriph_Driver/src/stm32f10x_can.c ****     }
 220:../STM32F10x_StdPeriph_Lib_V3.5.0/Libraries/STM32F10x_StdPeriph_Driver/src/stm32f10x_can.c **** 
 221:../STM32F10x_StdPeriph_Lib_V3.5.0/Libraries/STM32F10x_StdPeriph_Driver/src/stm32f10x_can.c ****     /* Set the no automatic retransmission */
 222:../STM32F10x_StdPeriph_Lib_V3.5.0/Libraries/STM32F10x_StdPeriph_Driver/src/stm32f10x_can.c ****     if (CAN_InitStruct->CAN_NART == ENABLE)
 212              		.loc 1 222 0
 213 00c8 3B68     		ldr	r3, [r7, #0]
 214 00ca 5B7A     		ldrb	r3, [r3, #9]	@ zero_extendqisi2
 215 00cc 012B     		cmp	r3, #1
 216 00ce 06D1     		bne	.L18
 223:../STM32F10x_StdPeriph_Lib_V3.5.0/Libraries/STM32F10x_StdPeriph_Driver/src/stm32f10x_can.c ****     {
 224:../STM32F10x_StdPeriph_Lib_V3.5.0/Libraries/STM32F10x_StdPeriph_Driver/src/stm32f10x_can.c ****       CANx->MCR |= CAN_MCR_NART;
 217              		.loc 1 224 0
 218 00d0 7B68     		ldr	r3, [r7, #4]
 219 00d2 1B68     		ldr	r3, [r3, #0]
 220 00d4 43F01002 		orr	r2, r3, #16
 221 00d8 7B68     		ldr	r3, [r7, #4]
 222 00da 1A60     		str	r2, [r3, #0]
 223 00dc 05E0     		b	.L19
 224              	.L18:
 225:../STM32F10x_StdPeriph_Lib_V3.5.0/Libraries/STM32F10x_StdPeriph_Driver/src/stm32f10x_can.c ****     }
 226:../STM32F10x_StdPeriph_Lib_V3.5.0/Libraries/STM32F10x_StdPeriph_Driver/src/stm32f10x_can.c ****     else
 227:../STM32F10x_StdPeriph_Lib_V3.5.0/Libraries/STM32F10x_StdPeriph_Driver/src/stm32f10x_can.c ****     {
 228:../STM32F10x_StdPeriph_Lib_V3.5.0/Libraries/STM32F10x_StdPeriph_Driver/src/stm32f10x_can.c ****       CANx->MCR &= ~(uint32_t)CAN_MCR_NART;
 225              		.loc 1 228 0
 226 00de 7B68     		ldr	r3, [r7, #4]
 227 00e0 1B68     		ldr	r3, [r3, #0]
 228 00e2 23F01002 		bic	r2, r3, #16
 229 00e6 7B68     		ldr	r3, [r7, #4]
 230 00e8 1A60     		str	r2, [r3, #0]
 231              	.L19:
 229:../STM32F10x_StdPeriph_Lib_V3.5.0/Libraries/STM32F10x_StdPeriph_Driver/src/stm32f10x_can.c ****     }
 230:../STM32F10x_StdPeriph_Lib_V3.5.0/Libraries/STM32F10x_StdPeriph_Driver/src/stm32f10x_can.c **** 
 231:../STM32F10x_StdPeriph_Lib_V3.5.0/Libraries/STM32F10x_StdPeriph_Driver/src/stm32f10x_can.c ****     /* Set the receive FIFO locked mode */
 232:../STM32F10x_StdPeriph_Lib_V3.5.0/Libraries/STM32F10x_StdPeriph_Driver/src/stm32f10x_can.c ****     if (CAN_InitStruct->CAN_RFLM == ENABLE)
 232              		.loc 1 232 0
 233 00ea 3B68     		ldr	r3, [r7, #0]
 234 00ec 9B7A     		ldrb	r3, [r3, #10]	@ zero_extendqisi2
 235 00ee 012B     		cmp	r3, #1
 236 00f0 06D1     		bne	.L20
 233:../STM32F10x_StdPeriph_Lib_V3.5.0/Libraries/STM32F10x_StdPeriph_Driver/src/stm32f10x_can.c ****     {
 234:../STM32F10x_StdPeriph_Lib_V3.5.0/Libraries/STM32F10x_StdPeriph_Driver/src/stm32f10x_can.c ****       CANx->MCR |= CAN_MCR_RFLM;
 237              		.loc 1 234 0
 238 00f2 7B68     		ldr	r3, [r7, #4]
 239 00f4 1B68     		ldr	r3, [r3, #0]
 240 00f6 43F00802 		orr	r2, r3, #8
 241 00fa 7B68     		ldr	r3, [r7, #4]
 242 00fc 1A60     		str	r2, [r3, #0]
 243 00fe 05E0     		b	.L21
 244              	.L20:
 235:../STM32F10x_StdPeriph_Lib_V3.5.0/Libraries/STM32F10x_StdPeriph_Driver/src/stm32f10x_can.c ****     }
 236:../STM32F10x_StdPeriph_Lib_V3.5.0/Libraries/STM32F10x_StdPeriph_Driver/src/stm32f10x_can.c ****     else
 237:../STM32F10x_StdPeriph_Lib_V3.5.0/Libraries/STM32F10x_StdPeriph_Driver/src/stm32f10x_can.c ****     {
 238:../STM32F10x_StdPeriph_Lib_V3.5.0/Libraries/STM32F10x_StdPeriph_Driver/src/stm32f10x_can.c ****       CANx->MCR &= ~(uint32_t)CAN_MCR_RFLM;
 245              		.loc 1 238 0
 246 0100 7B68     		ldr	r3, [r7, #4]
 247 0102 1B68     		ldr	r3, [r3, #0]
 248 0104 23F00802 		bic	r2, r3, #8
 249 0108 7B68     		ldr	r3, [r7, #4]
 250 010a 1A60     		str	r2, [r3, #0]
 251              	.L21:
 239:../STM32F10x_StdPeriph_Lib_V3.5.0/Libraries/STM32F10x_StdPeriph_Driver/src/stm32f10x_can.c ****     }
 240:../STM32F10x_StdPeriph_Lib_V3.5.0/Libraries/STM32F10x_StdPeriph_Driver/src/stm32f10x_can.c **** 
 241:../STM32F10x_StdPeriph_Lib_V3.5.0/Libraries/STM32F10x_StdPeriph_Driver/src/stm32f10x_can.c ****     /* Set the transmit FIFO priority */
 242:../STM32F10x_StdPeriph_Lib_V3.5.0/Libraries/STM32F10x_StdPeriph_Driver/src/stm32f10x_can.c ****     if (CAN_InitStruct->CAN_TXFP == ENABLE)
 252              		.loc 1 242 0
 253 010c 3B68     		ldr	r3, [r7, #0]
 254 010e DB7A     		ldrb	r3, [r3, #11]	@ zero_extendqisi2
 255 0110 012B     		cmp	r3, #1
 256 0112 06D1     		bne	.L22
 243:../STM32F10x_StdPeriph_Lib_V3.5.0/Libraries/STM32F10x_StdPeriph_Driver/src/stm32f10x_can.c ****     {
 244:../STM32F10x_StdPeriph_Lib_V3.5.0/Libraries/STM32F10x_StdPeriph_Driver/src/stm32f10x_can.c ****       CANx->MCR |= CAN_MCR_TXFP;
 257              		.loc 1 244 0
 258 0114 7B68     		ldr	r3, [r7, #4]
 259 0116 1B68     		ldr	r3, [r3, #0]
 260 0118 43F00402 		orr	r2, r3, #4
 261 011c 7B68     		ldr	r3, [r7, #4]
 262 011e 1A60     		str	r2, [r3, #0]
 263 0120 05E0     		b	.L23
 264              	.L22:
 245:../STM32F10x_StdPeriph_Lib_V3.5.0/Libraries/STM32F10x_StdPeriph_Driver/src/stm32f10x_can.c ****     }
 246:../STM32F10x_StdPeriph_Lib_V3.5.0/Libraries/STM32F10x_StdPeriph_Driver/src/stm32f10x_can.c ****     else
 247:../STM32F10x_StdPeriph_Lib_V3.5.0/Libraries/STM32F10x_StdPeriph_Driver/src/stm32f10x_can.c ****     {
 248:../STM32F10x_StdPeriph_Lib_V3.5.0/Libraries/STM32F10x_StdPeriph_Driver/src/stm32f10x_can.c ****       CANx->MCR &= ~(uint32_t)CAN_MCR_TXFP;
 265              		.loc 1 248 0
 266 0122 7B68     		ldr	r3, [r7, #4]
 267 0124 1B68     		ldr	r3, [r3, #0]
 268 0126 23F00402 		bic	r2, r3, #4
 269 012a 7B68     		ldr	r3, [r7, #4]
 270 012c 1A60     		str	r2, [r3, #0]
 271              	.L23:
 249:../STM32F10x_StdPeriph_Lib_V3.5.0/Libraries/STM32F10x_StdPeriph_Driver/src/stm32f10x_can.c ****     }
 250:../STM32F10x_StdPeriph_Lib_V3.5.0/Libraries/STM32F10x_StdPeriph_Driver/src/stm32f10x_can.c **** 
 251:../STM32F10x_StdPeriph_Lib_V3.5.0/Libraries/STM32F10x_StdPeriph_Driver/src/stm32f10x_can.c ****     /* Set the bit timing register */
 252:../STM32F10x_StdPeriph_Lib_V3.5.0/Libraries/STM32F10x_StdPeriph_Driver/src/stm32f10x_can.c ****     CANx->BTR = (uint32_t)((uint32_t)CAN_InitStruct->CAN_Mode << 30) | \
 272              		.loc 1 252 0
 273 012e 3B68     		ldr	r3, [r7, #0]
 274 0130 9B78     		ldrb	r3, [r3, #2]	@ zero_extendqisi2
 275 0132 4FEA8372 		lsl	r2, r3, #30
 253:../STM32F10x_StdPeriph_Lib_V3.5.0/Libraries/STM32F10x_StdPeriph_Driver/src/stm32f10x_can.c ****                 ((uint32_t)CAN_InitStruct->CAN_SJW << 24) | \
 276              		.loc 1 253 0
 277 0136 3B68     		ldr	r3, [r7, #0]
 278 0138 DB78     		ldrb	r3, [r3, #3]	@ zero_extendqisi2
 279 013a 4FEA0363 		lsl	r3, r3, #24
 252:../STM32F10x_StdPeriph_Lib_V3.5.0/Libraries/STM32F10x_StdPeriph_Driver/src/stm32f10x_can.c ****     CANx->BTR = (uint32_t)((uint32_t)CAN_InitStruct->CAN_Mode << 30) | \
 280              		.loc 1 252 0
 281 013e 1A43     		orrs	r2, r2, r3
 254:../STM32F10x_StdPeriph_Lib_V3.5.0/Libraries/STM32F10x_StdPeriph_Driver/src/stm32f10x_can.c ****                 ((uint32_t)CAN_InitStruct->CAN_BS1 << 16) | \
 282              		.loc 1 254 0
 283 0140 3B68     		ldr	r3, [r7, #0]
 284 0142 1B79     		ldrb	r3, [r3, #4]	@ zero_extendqisi2
 285 0144 4FEA0343 		lsl	r3, r3, #16
 253:../STM32F10x_StdPeriph_Lib_V3.5.0/Libraries/STM32F10x_StdPeriph_Driver/src/stm32f10x_can.c ****                 ((uint32_t)CAN_InitStruct->CAN_SJW << 24) | \
 286              		.loc 1 253 0
 287 0148 1A43     		orrs	r2, r2, r3
 255:../STM32F10x_StdPeriph_Lib_V3.5.0/Libraries/STM32F10x_StdPeriph_Driver/src/stm32f10x_can.c ****                 ((uint32_t)CAN_InitStruct->CAN_BS2 << 20) | \
 288              		.loc 1 255 0
 289 014a 3B68     		ldr	r3, [r7, #0]
 290 014c 5B79     		ldrb	r3, [r3, #5]	@ zero_extendqisi2
 291 014e 4FEA0353 		lsl	r3, r3, #20
 254:../STM32F10x_StdPeriph_Lib_V3.5.0/Libraries/STM32F10x_StdPeriph_Driver/src/stm32f10x_can.c ****                 ((uint32_t)CAN_InitStruct->CAN_BS1 << 16) | \
 292              		.loc 1 254 0
 293 0152 1A43     		orrs	r2, r2, r3
 256:../STM32F10x_StdPeriph_Lib_V3.5.0/Libraries/STM32F10x_StdPeriph_Driver/src/stm32f10x_can.c ****                ((uint32_t)CAN_InitStruct->CAN_Prescaler - 1);
 294              		.loc 1 256 0
 295 0154 3B68     		ldr	r3, [r7, #0]
 296 0156 1B88     		ldrh	r3, [r3, #0]
 297 0158 03F1FF33 		add	r3, r3, #-1
 255:../STM32F10x_StdPeriph_Lib_V3.5.0/Libraries/STM32F10x_StdPeriph_Driver/src/stm32f10x_can.c ****                 ((uint32_t)CAN_InitStruct->CAN_BS2 << 20) | \
 298              		.loc 1 255 0
 299 015c 1A43     		orrs	r2, r2, r3
 252:../STM32F10x_StdPeriph_Lib_V3.5.0/Libraries/STM32F10x_StdPeriph_Driver/src/stm32f10x_can.c ****     CANx->BTR = (uint32_t)((uint32_t)CAN_InitStruct->CAN_Mode << 30) | \
 300              		.loc 1 252 0
 301 015e 7B68     		ldr	r3, [r7, #4]
 302 0160 DA61     		str	r2, [r3, #28]
 257:../STM32F10x_StdPeriph_Lib_V3.5.0/Libraries/STM32F10x_StdPeriph_Driver/src/stm32f10x_can.c **** 
 258:../STM32F10x_StdPeriph_Lib_V3.5.0/Libraries/STM32F10x_StdPeriph_Driver/src/stm32f10x_can.c ****     /* Request leave initialisation */
 259:../STM32F10x_StdPeriph_Lib_V3.5.0/Libraries/STM32F10x_StdPeriph_Driver/src/stm32f10x_can.c ****     CANx->MCR &= ~(uint32_t)CAN_MCR_INRQ;
 303              		.loc 1 259 0
 304 0162 7B68     		ldr	r3, [r7, #4]
 305 0164 1B68     		ldr	r3, [r3, #0]
 306 0166 23F00102 		bic	r2, r3, #1
 307 016a 7B68     		ldr	r3, [r7, #4]
 308 016c 1A60     		str	r2, [r3, #0]
 260:../STM32F10x_StdPeriph_Lib_V3.5.0/Libraries/STM32F10x_StdPeriph_Driver/src/stm32f10x_can.c **** 
 261:../STM32F10x_StdPeriph_Lib_V3.5.0/Libraries/STM32F10x_StdPeriph_Driver/src/stm32f10x_can.c ****    /* Wait the acknowledge */
 262:../STM32F10x_StdPeriph_Lib_V3.5.0/Libraries/STM32F10x_StdPeriph_Driver/src/stm32f10x_can.c ****    wait_ack = 0;
 309              		.loc 1 262 0
 310 016e 4FF00003 		mov	r3, #0
 311 0172 BB60     		str	r3, [r7, #8]
 263:../STM32F10x_StdPeriph_Lib_V3.5.0/Libraries/STM32F10x_StdPeriph_Driver/src/stm32f10x_can.c **** 
 264:../STM32F10x_StdPeriph_Lib_V3.5.0/Libraries/STM32F10x_StdPeriph_Driver/src/stm32f10x_can.c ****    while (((CANx->MSR & CAN_MSR_INAK) == CAN_MSR_INAK) && (wait_ack != INAK_TIMEOUT))
 312              		.loc 1 264 0
 313 0174 03E0     		b	.L24
 314              	.L26:
 265:../STM32F10x_StdPeriph_Lib_V3.5.0/Libraries/STM32F10x_StdPeriph_Driver/src/stm32f10x_can.c ****    {
 266:../STM32F10x_StdPeriph_Lib_V3.5.0/Libraries/STM32F10x_StdPeriph_Driver/src/stm32f10x_can.c ****      wait_ack++;
 315              		.loc 1 266 0
 316 0176 BB68     		ldr	r3, [r7, #8]
 317 0178 03F10103 		add	r3, r3, #1
 318 017c BB60     		str	r3, [r7, #8]
 319              	.L24:
 264:../STM32F10x_StdPeriph_Lib_V3.5.0/Libraries/STM32F10x_StdPeriph_Driver/src/stm32f10x_can.c ****    while (((CANx->MSR & CAN_MSR_INAK) == CAN_MSR_INAK) && (wait_ack != INAK_TIMEOUT))
 320              		.loc 1 264 0 discriminator 1
 321 017e 7B68     		ldr	r3, [r7, #4]
 322 0180 5B68     		ldr	r3, [r3, #4]
 323 0182 03F00103 		and	r3, r3, #1
 324 0186 002B     		cmp	r3, #0
 325 0188 04D0     		beq	.L25
 264:../STM32F10x_StdPeriph_Lib_V3.5.0/Libraries/STM32F10x_StdPeriph_Driver/src/stm32f10x_can.c ****    while (((CANx->MSR & CAN_MSR_INAK) == CAN_MSR_INAK) && (wait_ack != INAK_TIMEOUT))
 326              		.loc 1 264 0 is_stmt 0 discriminator 2
 327 018a BA68     		ldr	r2, [r7, #8]
 328 018c 4FF6FF73 		movw	r3, #65535
 329 0190 9A42     		cmp	r2, r3
 330 0192 F0D1     		bne	.L26
 331              	.L25:
 267:../STM32F10x_StdPeriph_Lib_V3.5.0/Libraries/STM32F10x_StdPeriph_Driver/src/stm32f10x_can.c ****    }
 268:../STM32F10x_StdPeriph_Lib_V3.5.0/Libraries/STM32F10x_StdPeriph_Driver/src/stm32f10x_can.c **** 
 269:../STM32F10x_StdPeriph_Lib_V3.5.0/Libraries/STM32F10x_StdPeriph_Driver/src/stm32f10x_can.c ****     /* ...and check acknowledged */
 270:../STM32F10x_StdPeriph_Lib_V3.5.0/Libraries/STM32F10x_StdPeriph_Driver/src/stm32f10x_can.c ****     if ((CANx->MSR & CAN_MSR_INAK) == CAN_MSR_INAK)
 332              		.loc 1 270 0 is_stmt 1
 333 0194 7B68     		ldr	r3, [r7, #4]
 334 0196 5B68     		ldr	r3, [r3, #4]
 335 0198 03F00103 		and	r3, r3, #1
 336 019c 002B     		cmp	r3, #0
 337 019e 03D0     		beq	.L27
 271:../STM32F10x_StdPeriph_Lib_V3.5.0/Libraries/STM32F10x_StdPeriph_Driver/src/stm32f10x_can.c ****     {
 272:../STM32F10x_StdPeriph_Lib_V3.5.0/Libraries/STM32F10x_StdPeriph_Driver/src/stm32f10x_can.c ****       InitStatus = CAN_InitStatus_Failed;
 338              		.loc 1 272 0
 339 01a0 4FF00003 		mov	r3, #0
 340 01a4 FB73     		strb	r3, [r7, #15]
 341 01a6 02E0     		b	.L11
 342              	.L27:
 273:../STM32F10x_StdPeriph_Lib_V3.5.0/Libraries/STM32F10x_StdPeriph_Driver/src/stm32f10x_can.c ****     }
 274:../STM32F10x_StdPeriph_Lib_V3.5.0/Libraries/STM32F10x_StdPeriph_Driver/src/stm32f10x_can.c ****     else
 275:../STM32F10x_StdPeriph_Lib_V3.5.0/Libraries/STM32F10x_StdPeriph_Driver/src/stm32f10x_can.c ****     {
 276:../STM32F10x_StdPeriph_Lib_V3.5.0/Libraries/STM32F10x_StdPeriph_Driver/src/stm32f10x_can.c ****       InitStatus = CAN_InitStatus_Success ;
 343              		.loc 1 276 0
 344 01a8 4FF00103 		mov	r3, #1
 345 01ac FB73     		strb	r3, [r7, #15]
 346              	.L11:
 277:../STM32F10x_StdPeriph_Lib_V3.5.0/Libraries/STM32F10x_StdPeriph_Driver/src/stm32f10x_can.c ****     }
 278:../STM32F10x_StdPeriph_Lib_V3.5.0/Libraries/STM32F10x_StdPeriph_Driver/src/stm32f10x_can.c ****   }
 279:../STM32F10x_StdPeriph_Lib_V3.5.0/Libraries/STM32F10x_StdPeriph_Driver/src/stm32f10x_can.c **** 
 280:../STM32F10x_StdPeriph_Lib_V3.5.0/Libraries/STM32F10x_StdPeriph_Driver/src/stm32f10x_can.c ****   /* At this step, return the status of initialization */
 281:../STM32F10x_StdPeriph_Lib_V3.5.0/Libraries/STM32F10x_StdPeriph_Driver/src/stm32f10x_can.c ****   return InitStatus;
 347              		.loc 1 281 0
 348 01ae FB7B     		ldrb	r3, [r7, #15]	@ zero_extendqisi2
 282:../STM32F10x_StdPeriph_Lib_V3.5.0/Libraries/STM32F10x_StdPeriph_Driver/src/stm32f10x_can.c **** }
 349              		.loc 1 282 0
 350 01b0 1846     		mov	r0, r3
 351 01b2 07F11407 		add	r7, r7, #20
 352 01b6 BD46     		mov	sp, r7
 353 01b8 80BC     		pop	{r7}
 354 01ba 7047     		bx	lr
 355              		.cfi_endproc
 356              	.LFE30:
 358              		.section	.text.CAN_FilterInit,"ax",%progbits
 359              		.align	2
 360              		.global	CAN_FilterInit
 361              		.thumb
 362              		.thumb_func
 364              	CAN_FilterInit:
 365              	.LFB31:
 283:../STM32F10x_StdPeriph_Lib_V3.5.0/Libraries/STM32F10x_StdPeriph_Driver/src/stm32f10x_can.c **** 
 284:../STM32F10x_StdPeriph_Lib_V3.5.0/Libraries/STM32F10x_StdPeriph_Driver/src/stm32f10x_can.c **** /**
 285:../STM32F10x_StdPeriph_Lib_V3.5.0/Libraries/STM32F10x_StdPeriph_Driver/src/stm32f10x_can.c ****   * @brief  Initializes the CAN peripheral according to the specified
 286:../STM32F10x_StdPeriph_Lib_V3.5.0/Libraries/STM32F10x_StdPeriph_Driver/src/stm32f10x_can.c ****   *         parameters in the CAN_FilterInitStruct.
 287:../STM32F10x_StdPeriph_Lib_V3.5.0/Libraries/STM32F10x_StdPeriph_Driver/src/stm32f10x_can.c ****   * @param  CAN_FilterInitStruct: pointer to a CAN_FilterInitTypeDef
 288:../STM32F10x_StdPeriph_Lib_V3.5.0/Libraries/STM32F10x_StdPeriph_Driver/src/stm32f10x_can.c ****   *                               structure that contains the configuration 
 289:../STM32F10x_StdPeriph_Lib_V3.5.0/Libraries/STM32F10x_StdPeriph_Driver/src/stm32f10x_can.c ****   *                               information.
 290:../STM32F10x_StdPeriph_Lib_V3.5.0/Libraries/STM32F10x_StdPeriph_Driver/src/stm32f10x_can.c ****   * @retval None.
 291:../STM32F10x_StdPeriph_Lib_V3.5.0/Libraries/STM32F10x_StdPeriph_Driver/src/stm32f10x_can.c ****   */
 292:../STM32F10x_StdPeriph_Lib_V3.5.0/Libraries/STM32F10x_StdPeriph_Driver/src/stm32f10x_can.c **** void CAN_FilterInit(CAN_FilterInitTypeDef* CAN_FilterInitStruct)
 293:../STM32F10x_StdPeriph_Lib_V3.5.0/Libraries/STM32F10x_StdPeriph_Driver/src/stm32f10x_can.c **** {
 366              		.loc 1 293 0
 367              		.cfi_startproc
 368              		@ args = 0, pretend = 0, frame = 16
 369              		@ frame_needed = 1, uses_anonymous_args = 0
 370              		@ link register save eliminated.
 371 0000 80B4     		push	{r7}
 372              	.LCFI6:
 373              		.cfi_def_cfa_offset 4
 374              		.cfi_offset 7, -4
 375 0002 85B0     		sub	sp, sp, #20
 376              	.LCFI7:
 377              		.cfi_def_cfa_offset 24
 378 0004 00AF     		add	r7, sp, #0
 379              	.LCFI8:
 380              		.cfi_def_cfa_register 7
 381 0006 7860     		str	r0, [r7, #4]
 294:../STM32F10x_StdPeriph_Lib_V3.5.0/Libraries/STM32F10x_StdPeriph_Driver/src/stm32f10x_can.c ****   uint32_t filter_number_bit_pos = 0;
 382              		.loc 1 294 0
 383 0008 4FF00003 		mov	r3, #0
 384 000c FB60     		str	r3, [r7, #12]
 295:../STM32F10x_StdPeriph_Lib_V3.5.0/Libraries/STM32F10x_StdPeriph_Driver/src/stm32f10x_can.c ****   /* Check the parameters */
 296:../STM32F10x_StdPeriph_Lib_V3.5.0/Libraries/STM32F10x_StdPeriph_Driver/src/stm32f10x_can.c ****   assert_param(IS_CAN_FILTER_NUMBER(CAN_FilterInitStruct->CAN_FilterNumber));
 297:../STM32F10x_StdPeriph_Lib_V3.5.0/Libraries/STM32F10x_StdPeriph_Driver/src/stm32f10x_can.c ****   assert_param(IS_CAN_FILTER_MODE(CAN_FilterInitStruct->CAN_FilterMode));
 298:../STM32F10x_StdPeriph_Lib_V3.5.0/Libraries/STM32F10x_StdPeriph_Driver/src/stm32f10x_can.c ****   assert_param(IS_CAN_FILTER_SCALE(CAN_FilterInitStruct->CAN_FilterScale));
 299:../STM32F10x_StdPeriph_Lib_V3.5.0/Libraries/STM32F10x_StdPeriph_Driver/src/stm32f10x_can.c ****   assert_param(IS_CAN_FILTER_FIFO(CAN_FilterInitStruct->CAN_FilterFIFOAssignment));
 300:../STM32F10x_StdPeriph_Lib_V3.5.0/Libraries/STM32F10x_StdPeriph_Driver/src/stm32f10x_can.c ****   assert_param(IS_FUNCTIONAL_STATE(CAN_FilterInitStruct->CAN_FilterActivation));
 301:../STM32F10x_StdPeriph_Lib_V3.5.0/Libraries/STM32F10x_StdPeriph_Driver/src/stm32f10x_can.c **** 
 302:../STM32F10x_StdPeriph_Lib_V3.5.0/Libraries/STM32F10x_StdPeriph_Driver/src/stm32f10x_can.c ****   filter_number_bit_pos = ((uint32_t)1) << CAN_FilterInitStruct->CAN_FilterNumber;
 385              		.loc 1 302 0
 386 000e 7B68     		ldr	r3, [r7, #4]
 387 0010 9B7A     		ldrb	r3, [r3, #10]	@ zero_extendqisi2
 388 0012 4FF00102 		mov	r2, #1
 389 0016 02FA03F3 		lsl	r3, r2, r3
 390 001a FB60     		str	r3, [r7, #12]
 303:../STM32F10x_StdPeriph_Lib_V3.5.0/Libraries/STM32F10x_StdPeriph_Driver/src/stm32f10x_can.c **** 
 304:../STM32F10x_StdPeriph_Lib_V3.5.0/Libraries/STM32F10x_StdPeriph_Driver/src/stm32f10x_can.c ****   /* Initialisation mode for the filter */
 305:../STM32F10x_StdPeriph_Lib_V3.5.0/Libraries/STM32F10x_StdPeriph_Driver/src/stm32f10x_can.c ****   CAN1->FMR |= FMR_FINIT;
 391              		.loc 1 305 0
 392 001c 584B     		ldr	r3, .L37
 393 001e 584A     		ldr	r2, .L37
 394 0020 D2F80022 		ldr	r2, [r2, #512]
 395 0024 42F00102 		orr	r2, r2, #1
 396 0028 C3F80022 		str	r2, [r3, #512]
 306:../STM32F10x_StdPeriph_Lib_V3.5.0/Libraries/STM32F10x_StdPeriph_Driver/src/stm32f10x_can.c **** 
 307:../STM32F10x_StdPeriph_Lib_V3.5.0/Libraries/STM32F10x_StdPeriph_Driver/src/stm32f10x_can.c ****   /* Filter Deactivation */
 308:../STM32F10x_StdPeriph_Lib_V3.5.0/Libraries/STM32F10x_StdPeriph_Driver/src/stm32f10x_can.c ****   CAN1->FA1R &= ~(uint32_t)filter_number_bit_pos;
 397              		.loc 1 308 0
 398 002c 544B     		ldr	r3, .L37
 399 002e 544A     		ldr	r2, .L37
 400 0030 D2F81C12 		ldr	r1, [r2, #540]
 401 0034 FA68     		ldr	r2, [r7, #12]
 402 0036 6FEA0202 		mvn	r2, r2
 403 003a 0A40     		ands	r2, r2, r1
 404 003c C3F81C22 		str	r2, [r3, #540]
 309:../STM32F10x_StdPeriph_Lib_V3.5.0/Libraries/STM32F10x_StdPeriph_Driver/src/stm32f10x_can.c **** 
 310:../STM32F10x_StdPeriph_Lib_V3.5.0/Libraries/STM32F10x_StdPeriph_Driver/src/stm32f10x_can.c ****   /* Filter Scale */
 311:../STM32F10x_StdPeriph_Lib_V3.5.0/Libraries/STM32F10x_StdPeriph_Driver/src/stm32f10x_can.c ****   if (CAN_FilterInitStruct->CAN_FilterScale == CAN_FilterScale_16bit)
 405              		.loc 1 311 0
 406 0040 7B68     		ldr	r3, [r7, #4]
 407 0042 1B7B     		ldrb	r3, [r3, #12]	@ zero_extendqisi2
 408 0044 002B     		cmp	r3, #0
 409 0046 27D1     		bne	.L30
 312:../STM32F10x_StdPeriph_Lib_V3.5.0/Libraries/STM32F10x_StdPeriph_Driver/src/stm32f10x_can.c ****   {
 313:../STM32F10x_StdPeriph_Lib_V3.5.0/Libraries/STM32F10x_StdPeriph_Driver/src/stm32f10x_can.c ****     /* 16-bit scale for the filter */
 314:../STM32F10x_StdPeriph_Lib_V3.5.0/Libraries/STM32F10x_StdPeriph_Driver/src/stm32f10x_can.c ****     CAN1->FS1R &= ~(uint32_t)filter_number_bit_pos;
 410              		.loc 1 314 0
 411 0048 4D4B     		ldr	r3, .L37
 412 004a 4D4A     		ldr	r2, .L37
 413 004c D2F80C12 		ldr	r1, [r2, #524]
 414 0050 FA68     		ldr	r2, [r7, #12]
 415 0052 6FEA0202 		mvn	r2, r2
 416 0056 0A40     		ands	r2, r2, r1
 417 0058 C3F80C22 		str	r2, [r3, #524]
 315:../STM32F10x_StdPeriph_Lib_V3.5.0/Libraries/STM32F10x_StdPeriph_Driver/src/stm32f10x_can.c **** 
 316:../STM32F10x_StdPeriph_Lib_V3.5.0/Libraries/STM32F10x_StdPeriph_Driver/src/stm32f10x_can.c ****     /* First 16-bit identifier and First 16-bit mask */
 317:../STM32F10x_StdPeriph_Lib_V3.5.0/Libraries/STM32F10x_StdPeriph_Driver/src/stm32f10x_can.c ****     /* Or First 16-bit identifier and Second 16-bit identifier */
 318:../STM32F10x_StdPeriph_Lib_V3.5.0/Libraries/STM32F10x_StdPeriph_Driver/src/stm32f10x_can.c ****     CAN1->sFilterRegister[CAN_FilterInitStruct->CAN_FilterNumber].FR1 = 
 418              		.loc 1 318 0
 419 005c 484B     		ldr	r3, .L37
 420 005e 7A68     		ldr	r2, [r7, #4]
 421 0060 927A     		ldrb	r2, [r2, #10]	@ zero_extendqisi2
 319:../STM32F10x_StdPeriph_Lib_V3.5.0/Libraries/STM32F10x_StdPeriph_Driver/src/stm32f10x_can.c ****     ((0x0000FFFF & (uint32_t)CAN_FilterInitStruct->CAN_FilterMaskIdLow) << 16) |
 422              		.loc 1 319 0
 423 0062 7968     		ldr	r1, [r7, #4]
 424 0064 C988     		ldrh	r1, [r1, #6]
 425 0066 4FEA0140 		lsl	r0, r1, #16
 320:../STM32F10x_StdPeriph_Lib_V3.5.0/Libraries/STM32F10x_StdPeriph_Driver/src/stm32f10x_can.c ****         (0x0000FFFF & (uint32_t)CAN_FilterInitStruct->CAN_FilterIdLow);
 426              		.loc 1 320 0
 427 006a 7968     		ldr	r1, [r7, #4]
 428 006c 4988     		ldrh	r1, [r1, #2]
 319:../STM32F10x_StdPeriph_Lib_V3.5.0/Libraries/STM32F10x_StdPeriph_Driver/src/stm32f10x_can.c ****     ((0x0000FFFF & (uint32_t)CAN_FilterInitStruct->CAN_FilterMaskIdLow) << 16) |
 429              		.loc 1 319 0
 430 006e 0143     		orrs	r1, r1, r0
 318:../STM32F10x_StdPeriph_Lib_V3.5.0/Libraries/STM32F10x_StdPeriph_Driver/src/stm32f10x_can.c ****     CAN1->sFilterRegister[CAN_FilterInitStruct->CAN_FilterNumber].FR1 = 
 431              		.loc 1 318 0
 432 0070 02F14802 		add	r2, r2, #72
 433 0074 43F83210 		str	r1, [r3, r2, lsl #3]
 321:../STM32F10x_StdPeriph_Lib_V3.5.0/Libraries/STM32F10x_StdPeriph_Driver/src/stm32f10x_can.c **** 
 322:../STM32F10x_StdPeriph_Lib_V3.5.0/Libraries/STM32F10x_StdPeriph_Driver/src/stm32f10x_can.c ****     /* Second 16-bit identifier and Second 16-bit mask */
 323:../STM32F10x_StdPeriph_Lib_V3.5.0/Libraries/STM32F10x_StdPeriph_Driver/src/stm32f10x_can.c ****     /* Or Third 16-bit identifier and Fourth 16-bit identifier */
 324:../STM32F10x_StdPeriph_Lib_V3.5.0/Libraries/STM32F10x_StdPeriph_Driver/src/stm32f10x_can.c ****     CAN1->sFilterRegister[CAN_FilterInitStruct->CAN_FilterNumber].FR2 = 
 434              		.loc 1 324 0
 435 0078 4149     		ldr	r1, .L37
 436 007a 7B68     		ldr	r3, [r7, #4]
 437 007c 9B7A     		ldrb	r3, [r3, #10]	@ zero_extendqisi2
 325:../STM32F10x_StdPeriph_Lib_V3.5.0/Libraries/STM32F10x_StdPeriph_Driver/src/stm32f10x_can.c ****     ((0x0000FFFF & (uint32_t)CAN_FilterInitStruct->CAN_FilterMaskIdHigh) << 16) |
 438              		.loc 1 325 0
 439 007e 7A68     		ldr	r2, [r7, #4]
 440 0080 9288     		ldrh	r2, [r2, #4]
 441 0082 4FEA0240 		lsl	r0, r2, #16
 326:../STM32F10x_StdPeriph_Lib_V3.5.0/Libraries/STM32F10x_StdPeriph_Driver/src/stm32f10x_can.c ****         (0x0000FFFF & (uint32_t)CAN_FilterInitStruct->CAN_FilterIdHigh);
 442              		.loc 1 326 0
 443 0086 7A68     		ldr	r2, [r7, #4]
 444 0088 1288     		ldrh	r2, [r2, #0]
 325:../STM32F10x_StdPeriph_Lib_V3.5.0/Libraries/STM32F10x_StdPeriph_Driver/src/stm32f10x_can.c ****     ((0x0000FFFF & (uint32_t)CAN_FilterInitStruct->CAN_FilterMaskIdHigh) << 16) |
 445              		.loc 1 325 0
 446 008a 0243     		orrs	r2, r2, r0
 324:../STM32F10x_StdPeriph_Lib_V3.5.0/Libraries/STM32F10x_StdPeriph_Driver/src/stm32f10x_can.c ****     CAN1->sFilterRegister[CAN_FilterInitStruct->CAN_FilterNumber].FR2 = 
 447              		.loc 1 324 0
 448 008c 03F14803 		add	r3, r3, #72
 449 0090 4FEAC303 		lsl	r3, r3, #3
 450 0094 CB18     		adds	r3, r1, r3
 451 0096 5A60     		str	r2, [r3, #4]
 452              	.L30:
 327:../STM32F10x_StdPeriph_Lib_V3.5.0/Libraries/STM32F10x_StdPeriph_Driver/src/stm32f10x_can.c ****   }
 328:../STM32F10x_StdPeriph_Lib_V3.5.0/Libraries/STM32F10x_StdPeriph_Driver/src/stm32f10x_can.c **** 
 329:../STM32F10x_StdPeriph_Lib_V3.5.0/Libraries/STM32F10x_StdPeriph_Driver/src/stm32f10x_can.c ****   if (CAN_FilterInitStruct->CAN_FilterScale == CAN_FilterScale_32bit)
 453              		.loc 1 329 0
 454 0098 7B68     		ldr	r3, [r7, #4]
 455 009a 1B7B     		ldrb	r3, [r3, #12]	@ zero_extendqisi2
 456 009c 012B     		cmp	r3, #1
 457 009e 25D1     		bne	.L31
 330:../STM32F10x_StdPeriph_Lib_V3.5.0/Libraries/STM32F10x_StdPeriph_Driver/src/stm32f10x_can.c ****   {
 331:../STM32F10x_StdPeriph_Lib_V3.5.0/Libraries/STM32F10x_StdPeriph_Driver/src/stm32f10x_can.c ****     /* 32-bit scale for the filter */
 332:../STM32F10x_StdPeriph_Lib_V3.5.0/Libraries/STM32F10x_StdPeriph_Driver/src/stm32f10x_can.c ****     CAN1->FS1R |= filter_number_bit_pos;
 458              		.loc 1 332 0
 459 00a0 374B     		ldr	r3, .L37
 460 00a2 374A     		ldr	r2, .L37
 461 00a4 D2F80C12 		ldr	r1, [r2, #524]
 462 00a8 FA68     		ldr	r2, [r7, #12]
 463 00aa 0A43     		orrs	r2, r2, r1
 464 00ac C3F80C22 		str	r2, [r3, #524]
 333:../STM32F10x_StdPeriph_Lib_V3.5.0/Libraries/STM32F10x_StdPeriph_Driver/src/stm32f10x_can.c ****     /* 32-bit identifier or First 32-bit identifier */
 334:../STM32F10x_StdPeriph_Lib_V3.5.0/Libraries/STM32F10x_StdPeriph_Driver/src/stm32f10x_can.c ****     CAN1->sFilterRegister[CAN_FilterInitStruct->CAN_FilterNumber].FR1 = 
 465              		.loc 1 334 0
 466 00b0 334B     		ldr	r3, .L37
 467 00b2 7A68     		ldr	r2, [r7, #4]
 468 00b4 927A     		ldrb	r2, [r2, #10]	@ zero_extendqisi2
 335:../STM32F10x_StdPeriph_Lib_V3.5.0/Libraries/STM32F10x_StdPeriph_Driver/src/stm32f10x_can.c ****     ((0x0000FFFF & (uint32_t)CAN_FilterInitStruct->CAN_FilterIdHigh) << 16) |
 469              		.loc 1 335 0
 470 00b6 7968     		ldr	r1, [r7, #4]
 471 00b8 0988     		ldrh	r1, [r1, #0]
 472 00ba 4FEA0140 		lsl	r0, r1, #16
 336:../STM32F10x_StdPeriph_Lib_V3.5.0/Libraries/STM32F10x_StdPeriph_Driver/src/stm32f10x_can.c ****         (0x0000FFFF & (uint32_t)CAN_FilterInitStruct->CAN_FilterIdLow);
 473              		.loc 1 336 0
 474 00be 7968     		ldr	r1, [r7, #4]
 475 00c0 4988     		ldrh	r1, [r1, #2]
 335:../STM32F10x_StdPeriph_Lib_V3.5.0/Libraries/STM32F10x_StdPeriph_Driver/src/stm32f10x_can.c ****     ((0x0000FFFF & (uint32_t)CAN_FilterInitStruct->CAN_FilterIdHigh) << 16) |
 476              		.loc 1 335 0
 477 00c2 0143     		orrs	r1, r1, r0
 334:../STM32F10x_StdPeriph_Lib_V3.5.0/Libraries/STM32F10x_StdPeriph_Driver/src/stm32f10x_can.c ****     CAN1->sFilterRegister[CAN_FilterInitStruct->CAN_FilterNumber].FR1 = 
 478              		.loc 1 334 0
 479 00c4 02F14802 		add	r2, r2, #72
 480 00c8 43F83210 		str	r1, [r3, r2, lsl #3]
 337:../STM32F10x_StdPeriph_Lib_V3.5.0/Libraries/STM32F10x_StdPeriph_Driver/src/stm32f10x_can.c ****     /* 32-bit mask or Second 32-bit identifier */
 338:../STM32F10x_StdPeriph_Lib_V3.5.0/Libraries/STM32F10x_StdPeriph_Driver/src/stm32f10x_can.c ****     CAN1->sFilterRegister[CAN_FilterInitStruct->CAN_FilterNumber].FR2 = 
 481              		.loc 1 338 0
 482 00cc 2C49     		ldr	r1, .L37
 483 00ce 7B68     		ldr	r3, [r7, #4]
 484 00d0 9B7A     		ldrb	r3, [r3, #10]	@ zero_extendqisi2
 339:../STM32F10x_StdPeriph_Lib_V3.5.0/Libraries/STM32F10x_StdPeriph_Driver/src/stm32f10x_can.c ****     ((0x0000FFFF & (uint32_t)CAN_FilterInitStruct->CAN_FilterMaskIdHigh) << 16) |
 485              		.loc 1 339 0
 486 00d2 7A68     		ldr	r2, [r7, #4]
 487 00d4 9288     		ldrh	r2, [r2, #4]
 488 00d6 4FEA0240 		lsl	r0, r2, #16
 340:../STM32F10x_StdPeriph_Lib_V3.5.0/Libraries/STM32F10x_StdPeriph_Driver/src/stm32f10x_can.c ****         (0x0000FFFF & (uint32_t)CAN_FilterInitStruct->CAN_FilterMaskIdLow);
 489              		.loc 1 340 0
 490 00da 7A68     		ldr	r2, [r7, #4]
 491 00dc D288     		ldrh	r2, [r2, #6]
 339:../STM32F10x_StdPeriph_Lib_V3.5.0/Libraries/STM32F10x_StdPeriph_Driver/src/stm32f10x_can.c ****     ((0x0000FFFF & (uint32_t)CAN_FilterInitStruct->CAN_FilterMaskIdHigh) << 16) |
 492              		.loc 1 339 0
 493 00de 0243     		orrs	r2, r2, r0
 338:../STM32F10x_StdPeriph_Lib_V3.5.0/Libraries/STM32F10x_StdPeriph_Driver/src/stm32f10x_can.c ****     CAN1->sFilterRegister[CAN_FilterInitStruct->CAN_FilterNumber].FR2 = 
 494              		.loc 1 338 0
 495 00e0 03F14803 		add	r3, r3, #72
 496 00e4 4FEAC303 		lsl	r3, r3, #3
 497 00e8 CB18     		adds	r3, r1, r3
 498 00ea 5A60     		str	r2, [r3, #4]
 499              	.L31:
 341:../STM32F10x_StdPeriph_Lib_V3.5.0/Libraries/STM32F10x_StdPeriph_Driver/src/stm32f10x_can.c ****   }
 342:../STM32F10x_StdPeriph_Lib_V3.5.0/Libraries/STM32F10x_StdPeriph_Driver/src/stm32f10x_can.c **** 
 343:../STM32F10x_StdPeriph_Lib_V3.5.0/Libraries/STM32F10x_StdPeriph_Driver/src/stm32f10x_can.c ****   /* Filter Mode */
 344:../STM32F10x_StdPeriph_Lib_V3.5.0/Libraries/STM32F10x_StdPeriph_Driver/src/stm32f10x_can.c ****   if (CAN_FilterInitStruct->CAN_FilterMode == CAN_FilterMode_IdMask)
 500              		.loc 1 344 0
 501 00ec 7B68     		ldr	r3, [r7, #4]
 502 00ee DB7A     		ldrb	r3, [r3, #11]	@ zero_extendqisi2
 503 00f0 002B     		cmp	r3, #0
 504 00f2 0AD1     		bne	.L32
 345:../STM32F10x_StdPeriph_Lib_V3.5.0/Libraries/STM32F10x_StdPeriph_Driver/src/stm32f10x_can.c ****   {
 346:../STM32F10x_StdPeriph_Lib_V3.5.0/Libraries/STM32F10x_StdPeriph_Driver/src/stm32f10x_can.c ****     /*Id/Mask mode for the filter*/
 347:../STM32F10x_StdPeriph_Lib_V3.5.0/Libraries/STM32F10x_StdPeriph_Driver/src/stm32f10x_can.c ****     CAN1->FM1R &= ~(uint32_t)filter_number_bit_pos;
 505              		.loc 1 347 0
 506 00f4 224B     		ldr	r3, .L37
 507 00f6 224A     		ldr	r2, .L37
 508 00f8 D2F80412 		ldr	r1, [r2, #516]
 509 00fc FA68     		ldr	r2, [r7, #12]
 510 00fe 6FEA0202 		mvn	r2, r2
 511 0102 0A40     		ands	r2, r2, r1
 512 0104 C3F80422 		str	r2, [r3, #516]
 513 0108 07E0     		b	.L33
 514              	.L32:
 348:../STM32F10x_StdPeriph_Lib_V3.5.0/Libraries/STM32F10x_StdPeriph_Driver/src/stm32f10x_can.c ****   }
 349:../STM32F10x_StdPeriph_Lib_V3.5.0/Libraries/STM32F10x_StdPeriph_Driver/src/stm32f10x_can.c ****   else /* CAN_FilterInitStruct->CAN_FilterMode == CAN_FilterMode_IdList */
 350:../STM32F10x_StdPeriph_Lib_V3.5.0/Libraries/STM32F10x_StdPeriph_Driver/src/stm32f10x_can.c ****   {
 351:../STM32F10x_StdPeriph_Lib_V3.5.0/Libraries/STM32F10x_StdPeriph_Driver/src/stm32f10x_can.c ****     /*Identifier list mode for the filter*/
 352:../STM32F10x_StdPeriph_Lib_V3.5.0/Libraries/STM32F10x_StdPeriph_Driver/src/stm32f10x_can.c ****     CAN1->FM1R |= (uint32_t)filter_number_bit_pos;
 515              		.loc 1 352 0
 516 010a 1D4B     		ldr	r3, .L37
 517 010c 1C4A     		ldr	r2, .L37
 518 010e D2F80412 		ldr	r1, [r2, #516]
 519 0112 FA68     		ldr	r2, [r7, #12]
 520 0114 0A43     		orrs	r2, r2, r1
 521 0116 C3F80422 		str	r2, [r3, #516]
 522              	.L33:
 353:../STM32F10x_StdPeriph_Lib_V3.5.0/Libraries/STM32F10x_StdPeriph_Driver/src/stm32f10x_can.c ****   }
 354:../STM32F10x_StdPeriph_Lib_V3.5.0/Libraries/STM32F10x_StdPeriph_Driver/src/stm32f10x_can.c **** 
 355:../STM32F10x_StdPeriph_Lib_V3.5.0/Libraries/STM32F10x_StdPeriph_Driver/src/stm32f10x_can.c ****   /* Filter FIFO assignment */
 356:../STM32F10x_StdPeriph_Lib_V3.5.0/Libraries/STM32F10x_StdPeriph_Driver/src/stm32f10x_can.c ****   if (CAN_FilterInitStruct->CAN_FilterFIFOAssignment == CAN_Filter_FIFO0)
 523              		.loc 1 356 0
 524 011a 7B68     		ldr	r3, [r7, #4]
 525 011c 1B89     		ldrh	r3, [r3, #8]
 526 011e 002B     		cmp	r3, #0
 527 0120 09D1     		bne	.L34
 357:../STM32F10x_StdPeriph_Lib_V3.5.0/Libraries/STM32F10x_StdPeriph_Driver/src/stm32f10x_can.c ****   {
 358:../STM32F10x_StdPeriph_Lib_V3.5.0/Libraries/STM32F10x_StdPeriph_Driver/src/stm32f10x_can.c ****     /* FIFO 0 assignation for the filter */
 359:../STM32F10x_StdPeriph_Lib_V3.5.0/Libraries/STM32F10x_StdPeriph_Driver/src/stm32f10x_can.c ****     CAN1->FFA1R &= ~(uint32_t)filter_number_bit_pos;
 528              		.loc 1 359 0
 529 0122 174B     		ldr	r3, .L37
 530 0124 164A     		ldr	r2, .L37
 531 0126 D2F81412 		ldr	r1, [r2, #532]
 532 012a FA68     		ldr	r2, [r7, #12]
 533 012c 6FEA0202 		mvn	r2, r2
 534 0130 0A40     		ands	r2, r2, r1
 535 0132 C3F81422 		str	r2, [r3, #532]
 536              	.L34:
 360:../STM32F10x_StdPeriph_Lib_V3.5.0/Libraries/STM32F10x_StdPeriph_Driver/src/stm32f10x_can.c ****   }
 361:../STM32F10x_StdPeriph_Lib_V3.5.0/Libraries/STM32F10x_StdPeriph_Driver/src/stm32f10x_can.c **** 
 362:../STM32F10x_StdPeriph_Lib_V3.5.0/Libraries/STM32F10x_StdPeriph_Driver/src/stm32f10x_can.c ****   if (CAN_FilterInitStruct->CAN_FilterFIFOAssignment == CAN_Filter_FIFO1)
 537              		.loc 1 362 0
 538 0136 7B68     		ldr	r3, [r7, #4]
 539 0138 1B89     		ldrh	r3, [r3, #8]
 540 013a 012B     		cmp	r3, #1
 541 013c 07D1     		bne	.L35
 363:../STM32F10x_StdPeriph_Lib_V3.5.0/Libraries/STM32F10x_StdPeriph_Driver/src/stm32f10x_can.c ****   {
 364:../STM32F10x_StdPeriph_Lib_V3.5.0/Libraries/STM32F10x_StdPeriph_Driver/src/stm32f10x_can.c ****     /* FIFO 1 assignation for the filter */
 365:../STM32F10x_StdPeriph_Lib_V3.5.0/Libraries/STM32F10x_StdPeriph_Driver/src/stm32f10x_can.c ****     CAN1->FFA1R |= (uint32_t)filter_number_bit_pos;
 542              		.loc 1 365 0
 543 013e 104B     		ldr	r3, .L37
 544 0140 0F4A     		ldr	r2, .L37
 545 0142 D2F81412 		ldr	r1, [r2, #532]
 546 0146 FA68     		ldr	r2, [r7, #12]
 547 0148 0A43     		orrs	r2, r2, r1
 548 014a C3F81422 		str	r2, [r3, #532]
 549              	.L35:
 366:../STM32F10x_StdPeriph_Lib_V3.5.0/Libraries/STM32F10x_StdPeriph_Driver/src/stm32f10x_can.c ****   }
 367:../STM32F10x_StdPeriph_Lib_V3.5.0/Libraries/STM32F10x_StdPeriph_Driver/src/stm32f10x_can.c ****   
 368:../STM32F10x_StdPeriph_Lib_V3.5.0/Libraries/STM32F10x_StdPeriph_Driver/src/stm32f10x_can.c ****   /* Filter activation */
 369:../STM32F10x_StdPeriph_Lib_V3.5.0/Libraries/STM32F10x_StdPeriph_Driver/src/stm32f10x_can.c ****   if (CAN_FilterInitStruct->CAN_FilterActivation == ENABLE)
 550              		.loc 1 369 0
 551 014e 7B68     		ldr	r3, [r7, #4]
 552 0150 5B7B     		ldrb	r3, [r3, #13]	@ zero_extendqisi2
 553 0152 012B     		cmp	r3, #1
 554 0154 07D1     		bne	.L36
 370:../STM32F10x_StdPeriph_Lib_V3.5.0/Libraries/STM32F10x_StdPeriph_Driver/src/stm32f10x_can.c ****   {
 371:../STM32F10x_StdPeriph_Lib_V3.5.0/Libraries/STM32F10x_StdPeriph_Driver/src/stm32f10x_can.c ****     CAN1->FA1R |= filter_number_bit_pos;
 555              		.loc 1 371 0
 556 0156 0A4B     		ldr	r3, .L37
 557 0158 094A     		ldr	r2, .L37
 558 015a D2F81C12 		ldr	r1, [r2, #540]
 559 015e FA68     		ldr	r2, [r7, #12]
 560 0160 0A43     		orrs	r2, r2, r1
 561 0162 C3F81C22 		str	r2, [r3, #540]
 562              	.L36:
 372:../STM32F10x_StdPeriph_Lib_V3.5.0/Libraries/STM32F10x_StdPeriph_Driver/src/stm32f10x_can.c ****   }
 373:../STM32F10x_StdPeriph_Lib_V3.5.0/Libraries/STM32F10x_StdPeriph_Driver/src/stm32f10x_can.c **** 
 374:../STM32F10x_StdPeriph_Lib_V3.5.0/Libraries/STM32F10x_StdPeriph_Driver/src/stm32f10x_can.c ****   /* Leave the initialisation mode for the filter */
 375:../STM32F10x_StdPeriph_Lib_V3.5.0/Libraries/STM32F10x_StdPeriph_Driver/src/stm32f10x_can.c ****   CAN1->FMR &= ~FMR_FINIT;
 563              		.loc 1 375 0
 564 0166 064B     		ldr	r3, .L37
 565 0168 054A     		ldr	r2, .L37
 566 016a D2F80022 		ldr	r2, [r2, #512]
 567 016e 22F00102 		bic	r2, r2, #1
 568 0172 C3F80022 		str	r2, [r3, #512]
 376:../STM32F10x_StdPeriph_Lib_V3.5.0/Libraries/STM32F10x_StdPeriph_Driver/src/stm32f10x_can.c **** }
 569              		.loc 1 376 0
 570 0176 07F11407 		add	r7, r7, #20
 571 017a BD46     		mov	sp, r7
 572 017c 80BC     		pop	{r7}
 573 017e 7047     		bx	lr
 574              	.L38:
 575              		.align	2
 576              	.L37:
 577 0180 00640040 		.word	1073767424
 578              		.cfi_endproc
 579              	.LFE31:
 581              		.section	.text.CAN_StructInit,"ax",%progbits
 582              		.align	2
 583              		.global	CAN_StructInit
 584              		.thumb
 585              		.thumb_func
 587              	CAN_StructInit:
 588              	.LFB32:
 377:../STM32F10x_StdPeriph_Lib_V3.5.0/Libraries/STM32F10x_StdPeriph_Driver/src/stm32f10x_can.c **** 
 378:../STM32F10x_StdPeriph_Lib_V3.5.0/Libraries/STM32F10x_StdPeriph_Driver/src/stm32f10x_can.c **** /**
 379:../STM32F10x_StdPeriph_Lib_V3.5.0/Libraries/STM32F10x_StdPeriph_Driver/src/stm32f10x_can.c ****   * @brief  Fills each CAN_InitStruct member with its default value.
 380:../STM32F10x_StdPeriph_Lib_V3.5.0/Libraries/STM32F10x_StdPeriph_Driver/src/stm32f10x_can.c ****   * @param  CAN_InitStruct: pointer to a CAN_InitTypeDef structure which
 381:../STM32F10x_StdPeriph_Lib_V3.5.0/Libraries/STM32F10x_StdPeriph_Driver/src/stm32f10x_can.c ****   *                         will be initialized.
 382:../STM32F10x_StdPeriph_Lib_V3.5.0/Libraries/STM32F10x_StdPeriph_Driver/src/stm32f10x_can.c ****   * @retval None.
 383:../STM32F10x_StdPeriph_Lib_V3.5.0/Libraries/STM32F10x_StdPeriph_Driver/src/stm32f10x_can.c ****   */
 384:../STM32F10x_StdPeriph_Lib_V3.5.0/Libraries/STM32F10x_StdPeriph_Driver/src/stm32f10x_can.c **** void CAN_StructInit(CAN_InitTypeDef* CAN_InitStruct)
 385:../STM32F10x_StdPeriph_Lib_V3.5.0/Libraries/STM32F10x_StdPeriph_Driver/src/stm32f10x_can.c **** {
 589              		.loc 1 385 0
 590              		.cfi_startproc
 591              		@ args = 0, pretend = 0, frame = 8
 592              		@ frame_needed = 1, uses_anonymous_args = 0
 593              		@ link register save eliminated.
 594 0000 80B4     		push	{r7}
 595              	.LCFI9:
 596              		.cfi_def_cfa_offset 4
 597              		.cfi_offset 7, -4
 598 0002 83B0     		sub	sp, sp, #12
 599              	.LCFI10:
 600              		.cfi_def_cfa_offset 16
 601 0004 00AF     		add	r7, sp, #0
 602              	.LCFI11:
 603              		.cfi_def_cfa_register 7
 604 0006 7860     		str	r0, [r7, #4]
 386:../STM32F10x_StdPeriph_Lib_V3.5.0/Libraries/STM32F10x_StdPeriph_Driver/src/stm32f10x_can.c ****   /* Reset CAN init structure parameters values */
 387:../STM32F10x_StdPeriph_Lib_V3.5.0/Libraries/STM32F10x_StdPeriph_Driver/src/stm32f10x_can.c ****   
 388:../STM32F10x_StdPeriph_Lib_V3.5.0/Libraries/STM32F10x_StdPeriph_Driver/src/stm32f10x_can.c ****   /* Initialize the time triggered communication mode */
 389:../STM32F10x_StdPeriph_Lib_V3.5.0/Libraries/STM32F10x_StdPeriph_Driver/src/stm32f10x_can.c ****   CAN_InitStruct->CAN_TTCM = DISABLE;
 605              		.loc 1 389 0
 606 0008 7B68     		ldr	r3, [r7, #4]
 607 000a 4FF00002 		mov	r2, #0
 608 000e 9A71     		strb	r2, [r3, #6]
 390:../STM32F10x_StdPeriph_Lib_V3.5.0/Libraries/STM32F10x_StdPeriph_Driver/src/stm32f10x_can.c ****   
 391:../STM32F10x_StdPeriph_Lib_V3.5.0/Libraries/STM32F10x_StdPeriph_Driver/src/stm32f10x_can.c ****   /* Initialize the automatic bus-off management */
 392:../STM32F10x_StdPeriph_Lib_V3.5.0/Libraries/STM32F10x_StdPeriph_Driver/src/stm32f10x_can.c ****   CAN_InitStruct->CAN_ABOM = DISABLE;
 609              		.loc 1 392 0
 610 0010 7B68     		ldr	r3, [r7, #4]
 611 0012 4FF00002 		mov	r2, #0
 612 0016 DA71     		strb	r2, [r3, #7]
 393:../STM32F10x_StdPeriph_Lib_V3.5.0/Libraries/STM32F10x_StdPeriph_Driver/src/stm32f10x_can.c ****   
 394:../STM32F10x_StdPeriph_Lib_V3.5.0/Libraries/STM32F10x_StdPeriph_Driver/src/stm32f10x_can.c ****   /* Initialize the automatic wake-up mode */
 395:../STM32F10x_StdPeriph_Lib_V3.5.0/Libraries/STM32F10x_StdPeriph_Driver/src/stm32f10x_can.c ****   CAN_InitStruct->CAN_AWUM = DISABLE;
 613              		.loc 1 395 0
 614 0018 7B68     		ldr	r3, [r7, #4]
 615 001a 4FF00002 		mov	r2, #0
 616 001e 1A72     		strb	r2, [r3, #8]
 396:../STM32F10x_StdPeriph_Lib_V3.5.0/Libraries/STM32F10x_StdPeriph_Driver/src/stm32f10x_can.c ****   
 397:../STM32F10x_StdPeriph_Lib_V3.5.0/Libraries/STM32F10x_StdPeriph_Driver/src/stm32f10x_can.c ****   /* Initialize the no automatic retransmission */
 398:../STM32F10x_StdPeriph_Lib_V3.5.0/Libraries/STM32F10x_StdPeriph_Driver/src/stm32f10x_can.c ****   CAN_InitStruct->CAN_NART = DISABLE;
 617              		.loc 1 398 0
 618 0020 7B68     		ldr	r3, [r7, #4]
 619 0022 4FF00002 		mov	r2, #0
 620 0026 5A72     		strb	r2, [r3, #9]
 399:../STM32F10x_StdPeriph_Lib_V3.5.0/Libraries/STM32F10x_StdPeriph_Driver/src/stm32f10x_can.c ****   
 400:../STM32F10x_StdPeriph_Lib_V3.5.0/Libraries/STM32F10x_StdPeriph_Driver/src/stm32f10x_can.c ****   /* Initialize the receive FIFO locked mode */
 401:../STM32F10x_StdPeriph_Lib_V3.5.0/Libraries/STM32F10x_StdPeriph_Driver/src/stm32f10x_can.c ****   CAN_InitStruct->CAN_RFLM = DISABLE;
 621              		.loc 1 401 0
 622 0028 7B68     		ldr	r3, [r7, #4]
 623 002a 4FF00002 		mov	r2, #0
 624 002e 9A72     		strb	r2, [r3, #10]
 402:../STM32F10x_StdPeriph_Lib_V3.5.0/Libraries/STM32F10x_StdPeriph_Driver/src/stm32f10x_can.c ****   
 403:../STM32F10x_StdPeriph_Lib_V3.5.0/Libraries/STM32F10x_StdPeriph_Driver/src/stm32f10x_can.c ****   /* Initialize the transmit FIFO priority */
 404:../STM32F10x_StdPeriph_Lib_V3.5.0/Libraries/STM32F10x_StdPeriph_Driver/src/stm32f10x_can.c ****   CAN_InitStruct->CAN_TXFP = DISABLE;
 625              		.loc 1 404 0
 626 0030 7B68     		ldr	r3, [r7, #4]
 627 0032 4FF00002 		mov	r2, #0
 628 0036 DA72     		strb	r2, [r3, #11]
 405:../STM32F10x_StdPeriph_Lib_V3.5.0/Libraries/STM32F10x_StdPeriph_Driver/src/stm32f10x_can.c ****   
 406:../STM32F10x_StdPeriph_Lib_V3.5.0/Libraries/STM32F10x_StdPeriph_Driver/src/stm32f10x_can.c ****   /* Initialize the CAN_Mode member */
 407:../STM32F10x_StdPeriph_Lib_V3.5.0/Libraries/STM32F10x_StdPeriph_Driver/src/stm32f10x_can.c ****   CAN_InitStruct->CAN_Mode = CAN_Mode_Normal;
 629              		.loc 1 407 0
 630 0038 7B68     		ldr	r3, [r7, #4]
 631 003a 4FF00002 		mov	r2, #0
 632 003e 9A70     		strb	r2, [r3, #2]
 408:../STM32F10x_StdPeriph_Lib_V3.5.0/Libraries/STM32F10x_StdPeriph_Driver/src/stm32f10x_can.c ****   
 409:../STM32F10x_StdPeriph_Lib_V3.5.0/Libraries/STM32F10x_StdPeriph_Driver/src/stm32f10x_can.c ****   /* Initialize the CAN_SJW member */
 410:../STM32F10x_StdPeriph_Lib_V3.5.0/Libraries/STM32F10x_StdPeriph_Driver/src/stm32f10x_can.c ****   CAN_InitStruct->CAN_SJW = CAN_SJW_1tq;
 633              		.loc 1 410 0
 634 0040 7B68     		ldr	r3, [r7, #4]
 635 0042 4FF00002 		mov	r2, #0
 636 0046 DA70     		strb	r2, [r3, #3]
 411:../STM32F10x_StdPeriph_Lib_V3.5.0/Libraries/STM32F10x_StdPeriph_Driver/src/stm32f10x_can.c ****   
 412:../STM32F10x_StdPeriph_Lib_V3.5.0/Libraries/STM32F10x_StdPeriph_Driver/src/stm32f10x_can.c ****   /* Initialize the CAN_BS1 member */
 413:../STM32F10x_StdPeriph_Lib_V3.5.0/Libraries/STM32F10x_StdPeriph_Driver/src/stm32f10x_can.c ****   CAN_InitStruct->CAN_BS1 = CAN_BS1_4tq;
 637              		.loc 1 413 0
 638 0048 7B68     		ldr	r3, [r7, #4]
 639 004a 4FF00302 		mov	r2, #3
 640 004e 1A71     		strb	r2, [r3, #4]
 414:../STM32F10x_StdPeriph_Lib_V3.5.0/Libraries/STM32F10x_StdPeriph_Driver/src/stm32f10x_can.c ****   
 415:../STM32F10x_StdPeriph_Lib_V3.5.0/Libraries/STM32F10x_StdPeriph_Driver/src/stm32f10x_can.c ****   /* Initialize the CAN_BS2 member */
 416:../STM32F10x_StdPeriph_Lib_V3.5.0/Libraries/STM32F10x_StdPeriph_Driver/src/stm32f10x_can.c ****   CAN_InitStruct->CAN_BS2 = CAN_BS2_3tq;
 641              		.loc 1 416 0
 642 0050 7B68     		ldr	r3, [r7, #4]
 643 0052 4FF00202 		mov	r2, #2
 644 0056 5A71     		strb	r2, [r3, #5]
 417:../STM32F10x_StdPeriph_Lib_V3.5.0/Libraries/STM32F10x_StdPeriph_Driver/src/stm32f10x_can.c ****   
 418:../STM32F10x_StdPeriph_Lib_V3.5.0/Libraries/STM32F10x_StdPeriph_Driver/src/stm32f10x_can.c ****   /* Initialize the CAN_Prescaler member */
 419:../STM32F10x_StdPeriph_Lib_V3.5.0/Libraries/STM32F10x_StdPeriph_Driver/src/stm32f10x_can.c ****   CAN_InitStruct->CAN_Prescaler = 1;
 645              		.loc 1 419 0
 646 0058 7B68     		ldr	r3, [r7, #4]
 647 005a 4FF00102 		mov	r2, #1
 648 005e 1A80     		strh	r2, [r3, #0]	@ movhi
 420:../STM32F10x_StdPeriph_Lib_V3.5.0/Libraries/STM32F10x_StdPeriph_Driver/src/stm32f10x_can.c **** }
 649              		.loc 1 420 0
 650 0060 07F10C07 		add	r7, r7, #12
 651 0064 BD46     		mov	sp, r7
 652 0066 80BC     		pop	{r7}
 653 0068 7047     		bx	lr
 654              		.cfi_endproc
 655              	.LFE32:
 657 006a 00BF     		.section	.text.CAN_SlaveStartBank,"ax",%progbits
 658              		.align	2
 659              		.global	CAN_SlaveStartBank
 660              		.thumb
 661              		.thumb_func
 663              	CAN_SlaveStartBank:
 664              	.LFB33:
 421:../STM32F10x_StdPeriph_Lib_V3.5.0/Libraries/STM32F10x_StdPeriph_Driver/src/stm32f10x_can.c **** 
 422:../STM32F10x_StdPeriph_Lib_V3.5.0/Libraries/STM32F10x_StdPeriph_Driver/src/stm32f10x_can.c **** /**
 423:../STM32F10x_StdPeriph_Lib_V3.5.0/Libraries/STM32F10x_StdPeriph_Driver/src/stm32f10x_can.c ****   * @brief  Select the start bank filter for slave CAN.
 424:../STM32F10x_StdPeriph_Lib_V3.5.0/Libraries/STM32F10x_StdPeriph_Driver/src/stm32f10x_can.c ****   * @note   This function applies only to STM32 Connectivity line devices.
 425:../STM32F10x_StdPeriph_Lib_V3.5.0/Libraries/STM32F10x_StdPeriph_Driver/src/stm32f10x_can.c ****   * @param  CAN_BankNumber: Select the start slave bank filter from 1..27.
 426:../STM32F10x_StdPeriph_Lib_V3.5.0/Libraries/STM32F10x_StdPeriph_Driver/src/stm32f10x_can.c ****   * @retval None.
 427:../STM32F10x_StdPeriph_Lib_V3.5.0/Libraries/STM32F10x_StdPeriph_Driver/src/stm32f10x_can.c ****   */
 428:../STM32F10x_StdPeriph_Lib_V3.5.0/Libraries/STM32F10x_StdPeriph_Driver/src/stm32f10x_can.c **** void CAN_SlaveStartBank(uint8_t CAN_BankNumber) 
 429:../STM32F10x_StdPeriph_Lib_V3.5.0/Libraries/STM32F10x_StdPeriph_Driver/src/stm32f10x_can.c **** {
 665              		.loc 1 429 0
 666              		.cfi_startproc
 667              		@ args = 0, pretend = 0, frame = 8
 668              		@ frame_needed = 1, uses_anonymous_args = 0
 669              		@ link register save eliminated.
 670 0000 80B4     		push	{r7}
 671              	.LCFI12:
 672              		.cfi_def_cfa_offset 4
 673              		.cfi_offset 7, -4
 674 0002 83B0     		sub	sp, sp, #12
 675              	.LCFI13:
 676              		.cfi_def_cfa_offset 16
 677 0004 00AF     		add	r7, sp, #0
 678              	.LCFI14:
 679              		.cfi_def_cfa_register 7
 680 0006 0346     		mov	r3, r0
 681 0008 FB71     		strb	r3, [r7, #7]
 430:../STM32F10x_StdPeriph_Lib_V3.5.0/Libraries/STM32F10x_StdPeriph_Driver/src/stm32f10x_can.c ****   /* Check the parameters */
 431:../STM32F10x_StdPeriph_Lib_V3.5.0/Libraries/STM32F10x_StdPeriph_Driver/src/stm32f10x_can.c ****   assert_param(IS_CAN_BANKNUMBER(CAN_BankNumber));
 432:../STM32F10x_StdPeriph_Lib_V3.5.0/Libraries/STM32F10x_StdPeriph_Driver/src/stm32f10x_can.c ****   
 433:../STM32F10x_StdPeriph_Lib_V3.5.0/Libraries/STM32F10x_StdPeriph_Driver/src/stm32f10x_can.c ****   /* Enter Initialisation mode for the filter */
 434:../STM32F10x_StdPeriph_Lib_V3.5.0/Libraries/STM32F10x_StdPeriph_Driver/src/stm32f10x_can.c ****   CAN1->FMR |= FMR_FINIT;
 682              		.loc 1 434 0
 683 000a 144B     		ldr	r3, .L41
 684 000c 134A     		ldr	r2, .L41
 685 000e D2F80022 		ldr	r2, [r2, #512]
 686 0012 42F00102 		orr	r2, r2, #1
 687 0016 C3F80022 		str	r2, [r3, #512]
 435:../STM32F10x_StdPeriph_Lib_V3.5.0/Libraries/STM32F10x_StdPeriph_Driver/src/stm32f10x_can.c ****   
 436:../STM32F10x_StdPeriph_Lib_V3.5.0/Libraries/STM32F10x_StdPeriph_Driver/src/stm32f10x_can.c ****   /* Select the start slave bank */
 437:../STM32F10x_StdPeriph_Lib_V3.5.0/Libraries/STM32F10x_StdPeriph_Driver/src/stm32f10x_can.c ****   CAN1->FMR &= (uint32_t)0xFFFFC0F1 ;
 688              		.loc 1 437 0
 689 001a 104A     		ldr	r2, .L41
 690 001c 0F4B     		ldr	r3, .L41
 691 001e D3F80032 		ldr	r3, [r3, #512]
 692 0022 23F47C53 		bic	r3, r3, #16128
 693 0026 23F00E03 		bic	r3, r3, #14
 694 002a C2F80032 		str	r3, [r2, #512]
 438:../STM32F10x_StdPeriph_Lib_V3.5.0/Libraries/STM32F10x_StdPeriph_Driver/src/stm32f10x_can.c ****   CAN1->FMR |= (uint32_t)(CAN_BankNumber)<<8;
 695              		.loc 1 438 0
 696 002e 0B4B     		ldr	r3, .L41
 697 0030 0A4A     		ldr	r2, .L41
 698 0032 D2F80012 		ldr	r1, [r2, #512]
 699 0036 FA79     		ldrb	r2, [r7, #7]	@ zero_extendqisi2
 700 0038 4FEA0222 		lsl	r2, r2, #8
 701 003c 0A43     		orrs	r2, r2, r1
 702 003e C3F80022 		str	r2, [r3, #512]
 439:../STM32F10x_StdPeriph_Lib_V3.5.0/Libraries/STM32F10x_StdPeriph_Driver/src/stm32f10x_can.c ****   
 440:../STM32F10x_StdPeriph_Lib_V3.5.0/Libraries/STM32F10x_StdPeriph_Driver/src/stm32f10x_can.c ****   /* Leave Initialisation mode for the filter */
 441:../STM32F10x_StdPeriph_Lib_V3.5.0/Libraries/STM32F10x_StdPeriph_Driver/src/stm32f10x_can.c ****   CAN1->FMR &= ~FMR_FINIT;
 703              		.loc 1 441 0
 704 0042 064B     		ldr	r3, .L41
 705 0044 054A     		ldr	r2, .L41
 706 0046 D2F80022 		ldr	r2, [r2, #512]
 707 004a 22F00102 		bic	r2, r2, #1
 708 004e C3F80022 		str	r2, [r3, #512]
 442:../STM32F10x_StdPeriph_Lib_V3.5.0/Libraries/STM32F10x_StdPeriph_Driver/src/stm32f10x_can.c **** }
 709              		.loc 1 442 0
 710 0052 07F10C07 		add	r7, r7, #12
 711 0056 BD46     		mov	sp, r7
 712 0058 80BC     		pop	{r7}
 713 005a 7047     		bx	lr
 714              	.L42:
 715              		.align	2
 716              	.L41:
 717 005c 00640040 		.word	1073767424
 718              		.cfi_endproc
 719              	.LFE33:
 721              		.section	.text.CAN_DBGFreeze,"ax",%progbits
 722              		.align	2
 723              		.global	CAN_DBGFreeze
 724              		.thumb
 725              		.thumb_func
 727              	CAN_DBGFreeze:
 728              	.LFB34:
 443:../STM32F10x_StdPeriph_Lib_V3.5.0/Libraries/STM32F10x_StdPeriph_Driver/src/stm32f10x_can.c **** 
 444:../STM32F10x_StdPeriph_Lib_V3.5.0/Libraries/STM32F10x_StdPeriph_Driver/src/stm32f10x_can.c **** /**
 445:../STM32F10x_StdPeriph_Lib_V3.5.0/Libraries/STM32F10x_StdPeriph_Driver/src/stm32f10x_can.c ****   * @brief  Enables or disables the DBG Freeze for CAN.
 446:../STM32F10x_StdPeriph_Lib_V3.5.0/Libraries/STM32F10x_StdPeriph_Driver/src/stm32f10x_can.c ****   * @param  CANx:     where x can be 1 or 2 to to select the CAN peripheral.
 447:../STM32F10x_StdPeriph_Lib_V3.5.0/Libraries/STM32F10x_StdPeriph_Driver/src/stm32f10x_can.c ****   * @param  NewState: new state of the CAN peripheral. This parameter can 
 448:../STM32F10x_StdPeriph_Lib_V3.5.0/Libraries/STM32F10x_StdPeriph_Driver/src/stm32f10x_can.c ****   *                   be: ENABLE or DISABLE.
 449:../STM32F10x_StdPeriph_Lib_V3.5.0/Libraries/STM32F10x_StdPeriph_Driver/src/stm32f10x_can.c ****   * @retval None.
 450:../STM32F10x_StdPeriph_Lib_V3.5.0/Libraries/STM32F10x_StdPeriph_Driver/src/stm32f10x_can.c ****   */
 451:../STM32F10x_StdPeriph_Lib_V3.5.0/Libraries/STM32F10x_StdPeriph_Driver/src/stm32f10x_can.c **** void CAN_DBGFreeze(CAN_TypeDef* CANx, FunctionalState NewState)
 452:../STM32F10x_StdPeriph_Lib_V3.5.0/Libraries/STM32F10x_StdPeriph_Driver/src/stm32f10x_can.c **** {
 729              		.loc 1 452 0
 730              		.cfi_startproc
 731              		@ args = 0, pretend = 0, frame = 8
 732              		@ frame_needed = 1, uses_anonymous_args = 0
 733              		@ link register save eliminated.
 734 0000 80B4     		push	{r7}
 735              	.LCFI15:
 736              		.cfi_def_cfa_offset 4
 737              		.cfi_offset 7, -4
 738 0002 83B0     		sub	sp, sp, #12
 739              	.LCFI16:
 740              		.cfi_def_cfa_offset 16
 741 0004 00AF     		add	r7, sp, #0
 742              	.LCFI17:
 743              		.cfi_def_cfa_register 7
 744 0006 7860     		str	r0, [r7, #4]
 745 0008 0B46     		mov	r3, r1
 746 000a FB70     		strb	r3, [r7, #3]
 453:../STM32F10x_StdPeriph_Lib_V3.5.0/Libraries/STM32F10x_StdPeriph_Driver/src/stm32f10x_can.c ****   /* Check the parameters */
 454:../STM32F10x_StdPeriph_Lib_V3.5.0/Libraries/STM32F10x_StdPeriph_Driver/src/stm32f10x_can.c ****   assert_param(IS_CAN_ALL_PERIPH(CANx));
 455:../STM32F10x_StdPeriph_Lib_V3.5.0/Libraries/STM32F10x_StdPeriph_Driver/src/stm32f10x_can.c ****   assert_param(IS_FUNCTIONAL_STATE(NewState));
 456:../STM32F10x_StdPeriph_Lib_V3.5.0/Libraries/STM32F10x_StdPeriph_Driver/src/stm32f10x_can.c ****   
 457:../STM32F10x_StdPeriph_Lib_V3.5.0/Libraries/STM32F10x_StdPeriph_Driver/src/stm32f10x_can.c ****   if (NewState != DISABLE)
 747              		.loc 1 457 0
 748 000c FB78     		ldrb	r3, [r7, #3]	@ zero_extendqisi2
 749 000e 002B     		cmp	r3, #0
 750 0010 06D0     		beq	.L44
 458:../STM32F10x_StdPeriph_Lib_V3.5.0/Libraries/STM32F10x_StdPeriph_Driver/src/stm32f10x_can.c ****   {
 459:../STM32F10x_StdPeriph_Lib_V3.5.0/Libraries/STM32F10x_StdPeriph_Driver/src/stm32f10x_can.c ****     /* Enable Debug Freeze  */
 460:../STM32F10x_StdPeriph_Lib_V3.5.0/Libraries/STM32F10x_StdPeriph_Driver/src/stm32f10x_can.c ****     CANx->MCR |= MCR_DBF;
 751              		.loc 1 460 0
 752 0012 7B68     		ldr	r3, [r7, #4]
 753 0014 1B68     		ldr	r3, [r3, #0]
 754 0016 43F48032 		orr	r2, r3, #65536
 755 001a 7B68     		ldr	r3, [r7, #4]
 756 001c 1A60     		str	r2, [r3, #0]
 757 001e 05E0     		b	.L43
 758              	.L44:
 461:../STM32F10x_StdPeriph_Lib_V3.5.0/Libraries/STM32F10x_StdPeriph_Driver/src/stm32f10x_can.c ****   }
 462:../STM32F10x_StdPeriph_Lib_V3.5.0/Libraries/STM32F10x_StdPeriph_Driver/src/stm32f10x_can.c ****   else
 463:../STM32F10x_StdPeriph_Lib_V3.5.0/Libraries/STM32F10x_StdPeriph_Driver/src/stm32f10x_can.c ****   {
 464:../STM32F10x_StdPeriph_Lib_V3.5.0/Libraries/STM32F10x_StdPeriph_Driver/src/stm32f10x_can.c ****     /* Disable Debug Freeze */
 465:../STM32F10x_StdPeriph_Lib_V3.5.0/Libraries/STM32F10x_StdPeriph_Driver/src/stm32f10x_can.c ****     CANx->MCR &= ~MCR_DBF;
 759              		.loc 1 465 0
 760 0020 7B68     		ldr	r3, [r7, #4]
 761 0022 1B68     		ldr	r3, [r3, #0]
 762 0024 23F48032 		bic	r2, r3, #65536
 763 0028 7B68     		ldr	r3, [r7, #4]
 764 002a 1A60     		str	r2, [r3, #0]
 765              	.L43:
 466:../STM32F10x_StdPeriph_Lib_V3.5.0/Libraries/STM32F10x_StdPeriph_Driver/src/stm32f10x_can.c ****   }
 467:../STM32F10x_StdPeriph_Lib_V3.5.0/Libraries/STM32F10x_StdPeriph_Driver/src/stm32f10x_can.c **** }
 766              		.loc 1 467 0
 767 002c 07F10C07 		add	r7, r7, #12
 768 0030 BD46     		mov	sp, r7
 769 0032 80BC     		pop	{r7}
 770 0034 7047     		bx	lr
 771              		.cfi_endproc
 772              	.LFE34:
 774 0036 00BF     		.section	.text.CAN_TTComModeCmd,"ax",%progbits
 775              		.align	2
 776              		.global	CAN_TTComModeCmd
 777              		.thumb
 778              		.thumb_func
 780              	CAN_TTComModeCmd:
 781              	.LFB35:
 468:../STM32F10x_StdPeriph_Lib_V3.5.0/Libraries/STM32F10x_StdPeriph_Driver/src/stm32f10x_can.c **** 
 469:../STM32F10x_StdPeriph_Lib_V3.5.0/Libraries/STM32F10x_StdPeriph_Driver/src/stm32f10x_can.c **** 
 470:../STM32F10x_StdPeriph_Lib_V3.5.0/Libraries/STM32F10x_StdPeriph_Driver/src/stm32f10x_can.c **** /**
 471:../STM32F10x_StdPeriph_Lib_V3.5.0/Libraries/STM32F10x_StdPeriph_Driver/src/stm32f10x_can.c ****   * @brief  Enables or disabes the CAN Time TriggerOperation communication mode.
 472:../STM32F10x_StdPeriph_Lib_V3.5.0/Libraries/STM32F10x_StdPeriph_Driver/src/stm32f10x_can.c ****   * @param  CANx:      where x can be 1 or 2 to to select the CAN peripheral.
 473:../STM32F10x_StdPeriph_Lib_V3.5.0/Libraries/STM32F10x_StdPeriph_Driver/src/stm32f10x_can.c ****   * @param  NewState : Mode new state , can be one of @ref FunctionalState.
 474:../STM32F10x_StdPeriph_Lib_V3.5.0/Libraries/STM32F10x_StdPeriph_Driver/src/stm32f10x_can.c ****   * @note   when enabled, Time stamp (TIME[15:0]) value is sent in the last 
 475:../STM32F10x_StdPeriph_Lib_V3.5.0/Libraries/STM32F10x_StdPeriph_Driver/src/stm32f10x_can.c ****   *         two data bytes of the 8-byte message: TIME[7:0] in data byte 6 
 476:../STM32F10x_StdPeriph_Lib_V3.5.0/Libraries/STM32F10x_StdPeriph_Driver/src/stm32f10x_can.c ****   *         and TIME[15:8] in data byte 7 
 477:../STM32F10x_StdPeriph_Lib_V3.5.0/Libraries/STM32F10x_StdPeriph_Driver/src/stm32f10x_can.c ****   * @note   DLC must be programmed as 8 in order Time Stamp (2 bytes) to be 
 478:../STM32F10x_StdPeriph_Lib_V3.5.0/Libraries/STM32F10x_StdPeriph_Driver/src/stm32f10x_can.c ****   *         sent over the CAN bus.  
 479:../STM32F10x_StdPeriph_Lib_V3.5.0/Libraries/STM32F10x_StdPeriph_Driver/src/stm32f10x_can.c ****   * @retval None
 480:../STM32F10x_StdPeriph_Lib_V3.5.0/Libraries/STM32F10x_StdPeriph_Driver/src/stm32f10x_can.c ****   */
 481:../STM32F10x_StdPeriph_Lib_V3.5.0/Libraries/STM32F10x_StdPeriph_Driver/src/stm32f10x_can.c **** void CAN_TTComModeCmd(CAN_TypeDef* CANx, FunctionalState NewState)
 482:../STM32F10x_StdPeriph_Lib_V3.5.0/Libraries/STM32F10x_StdPeriph_Driver/src/stm32f10x_can.c **** {
 782              		.loc 1 482 0
 783              		.cfi_startproc
 784              		@ args = 0, pretend = 0, frame = 8
 785              		@ frame_needed = 1, uses_anonymous_args = 0
 786              		@ link register save eliminated.
 787 0000 80B4     		push	{r7}
 788              	.LCFI18:
 789              		.cfi_def_cfa_offset 4
 790              		.cfi_offset 7, -4
 791 0002 83B0     		sub	sp, sp, #12
 792              	.LCFI19:
 793              		.cfi_def_cfa_offset 16
 794 0004 00AF     		add	r7, sp, #0
 795              	.LCFI20:
 796              		.cfi_def_cfa_register 7
 797 0006 7860     		str	r0, [r7, #4]
 798 0008 0B46     		mov	r3, r1
 799 000a FB70     		strb	r3, [r7, #3]
 483:../STM32F10x_StdPeriph_Lib_V3.5.0/Libraries/STM32F10x_StdPeriph_Driver/src/stm32f10x_can.c ****   /* Check the parameters */
 484:../STM32F10x_StdPeriph_Lib_V3.5.0/Libraries/STM32F10x_StdPeriph_Driver/src/stm32f10x_can.c ****   assert_param(IS_CAN_ALL_PERIPH(CANx));
 485:../STM32F10x_StdPeriph_Lib_V3.5.0/Libraries/STM32F10x_StdPeriph_Driver/src/stm32f10x_can.c ****   assert_param(IS_FUNCTIONAL_STATE(NewState));
 486:../STM32F10x_StdPeriph_Lib_V3.5.0/Libraries/STM32F10x_StdPeriph_Driver/src/stm32f10x_can.c ****   if (NewState != DISABLE)
 800              		.loc 1 486 0
 801 000c FB78     		ldrb	r3, [r7, #3]	@ zero_extendqisi2
 802 000e 002B     		cmp	r3, #0
 803 0010 1ED0     		beq	.L47
 487:../STM32F10x_StdPeriph_Lib_V3.5.0/Libraries/STM32F10x_StdPeriph_Driver/src/stm32f10x_can.c ****   {
 488:../STM32F10x_StdPeriph_Lib_V3.5.0/Libraries/STM32F10x_StdPeriph_Driver/src/stm32f10x_can.c ****     /* Enable the TTCM mode */
 489:../STM32F10x_StdPeriph_Lib_V3.5.0/Libraries/STM32F10x_StdPeriph_Driver/src/stm32f10x_can.c ****     CANx->MCR |= CAN_MCR_TTCM;
 804              		.loc 1 489 0
 805 0012 7B68     		ldr	r3, [r7, #4]
 806 0014 1B68     		ldr	r3, [r3, #0]
 807 0016 43F08002 		orr	r2, r3, #128
 808 001a 7B68     		ldr	r3, [r7, #4]
 809 001c 1A60     		str	r2, [r3, #0]
 490:../STM32F10x_StdPeriph_Lib_V3.5.0/Libraries/STM32F10x_StdPeriph_Driver/src/stm32f10x_can.c **** 
 491:../STM32F10x_StdPeriph_Lib_V3.5.0/Libraries/STM32F10x_StdPeriph_Driver/src/stm32f10x_can.c ****     /* Set TGT bits */
 492:../STM32F10x_StdPeriph_Lib_V3.5.0/Libraries/STM32F10x_StdPeriph_Driver/src/stm32f10x_can.c ****     CANx->sTxMailBox[0].TDTR |= ((uint32_t)CAN_TDT0R_TGT);
 810              		.loc 1 492 0
 811 001e 7B68     		ldr	r3, [r7, #4]
 812 0020 D3F88431 		ldr	r3, [r3, #388]
 813 0024 43F48072 		orr	r2, r3, #256
 814 0028 7B68     		ldr	r3, [r7, #4]
 815 002a C3F88421 		str	r2, [r3, #388]
 493:../STM32F10x_StdPeriph_Lib_V3.5.0/Libraries/STM32F10x_StdPeriph_Driver/src/stm32f10x_can.c ****     CANx->sTxMailBox[1].TDTR |= ((uint32_t)CAN_TDT1R_TGT);
 816              		.loc 1 493 0
 817 002e 7B68     		ldr	r3, [r7, #4]
 818 0030 D3F89431 		ldr	r3, [r3, #404]
 819 0034 43F48072 		orr	r2, r3, #256
 820 0038 7B68     		ldr	r3, [r7, #4]
 821 003a C3F89421 		str	r2, [r3, #404]
 494:../STM32F10x_StdPeriph_Lib_V3.5.0/Libraries/STM32F10x_StdPeriph_Driver/src/stm32f10x_can.c ****     CANx->sTxMailBox[2].TDTR |= ((uint32_t)CAN_TDT2R_TGT);
 822              		.loc 1 494 0
 823 003e 7B68     		ldr	r3, [r7, #4]
 824 0040 D3F8A431 		ldr	r3, [r3, #420]
 825 0044 43F48072 		orr	r2, r3, #256
 826 0048 7B68     		ldr	r3, [r7, #4]
 827 004a C3F8A421 		str	r2, [r3, #420]
 828 004e 1DE0     		b	.L46
 829              	.L47:
 495:../STM32F10x_StdPeriph_Lib_V3.5.0/Libraries/STM32F10x_StdPeriph_Driver/src/stm32f10x_can.c ****   }
 496:../STM32F10x_StdPeriph_Lib_V3.5.0/Libraries/STM32F10x_StdPeriph_Driver/src/stm32f10x_can.c ****   else
 497:../STM32F10x_StdPeriph_Lib_V3.5.0/Libraries/STM32F10x_StdPeriph_Driver/src/stm32f10x_can.c ****   {
 498:../STM32F10x_StdPeriph_Lib_V3.5.0/Libraries/STM32F10x_StdPeriph_Driver/src/stm32f10x_can.c ****     /* Disable the TTCM mode */
 499:../STM32F10x_StdPeriph_Lib_V3.5.0/Libraries/STM32F10x_StdPeriph_Driver/src/stm32f10x_can.c ****     CANx->MCR &= (uint32_t)(~(uint32_t)CAN_MCR_TTCM);
 830              		.loc 1 499 0
 831 0050 7B68     		ldr	r3, [r7, #4]
 832 0052 1B68     		ldr	r3, [r3, #0]
 833 0054 23F08002 		bic	r2, r3, #128
 834 0058 7B68     		ldr	r3, [r7, #4]
 835 005a 1A60     		str	r2, [r3, #0]
 500:../STM32F10x_StdPeriph_Lib_V3.5.0/Libraries/STM32F10x_StdPeriph_Driver/src/stm32f10x_can.c **** 
 501:../STM32F10x_StdPeriph_Lib_V3.5.0/Libraries/STM32F10x_StdPeriph_Driver/src/stm32f10x_can.c ****     /* Reset TGT bits */
 502:../STM32F10x_StdPeriph_Lib_V3.5.0/Libraries/STM32F10x_StdPeriph_Driver/src/stm32f10x_can.c ****     CANx->sTxMailBox[0].TDTR &= ((uint32_t)~CAN_TDT0R_TGT);
 836              		.loc 1 502 0
 837 005c 7B68     		ldr	r3, [r7, #4]
 838 005e D3F88431 		ldr	r3, [r3, #388]
 839 0062 23F48072 		bic	r2, r3, #256
 840 0066 7B68     		ldr	r3, [r7, #4]
 841 0068 C3F88421 		str	r2, [r3, #388]
 503:../STM32F10x_StdPeriph_Lib_V3.5.0/Libraries/STM32F10x_StdPeriph_Driver/src/stm32f10x_can.c ****     CANx->sTxMailBox[1].TDTR &= ((uint32_t)~CAN_TDT1R_TGT);
 842              		.loc 1 503 0
 843 006c 7B68     		ldr	r3, [r7, #4]
 844 006e D3F89431 		ldr	r3, [r3, #404]
 845 0072 23F48072 		bic	r2, r3, #256
 846 0076 7B68     		ldr	r3, [r7, #4]
 847 0078 C3F89421 		str	r2, [r3, #404]
 504:../STM32F10x_StdPeriph_Lib_V3.5.0/Libraries/STM32F10x_StdPeriph_Driver/src/stm32f10x_can.c ****     CANx->sTxMailBox[2].TDTR &= ((uint32_t)~CAN_TDT2R_TGT);
 848              		.loc 1 504 0
 849 007c 7B68     		ldr	r3, [r7, #4]
 850 007e D3F8A431 		ldr	r3, [r3, #420]
 851 0082 23F48072 		bic	r2, r3, #256
 852 0086 7B68     		ldr	r3, [r7, #4]
 853 0088 C3F8A421 		str	r2, [r3, #420]
 854              	.L46:
 505:../STM32F10x_StdPeriph_Lib_V3.5.0/Libraries/STM32F10x_StdPeriph_Driver/src/stm32f10x_can.c ****   }
 506:../STM32F10x_StdPeriph_Lib_V3.5.0/Libraries/STM32F10x_StdPeriph_Driver/src/stm32f10x_can.c **** }
 855              		.loc 1 506 0
 856 008c 07F10C07 		add	r7, r7, #12
 857 0090 BD46     		mov	sp, r7
 858 0092 80BC     		pop	{r7}
 859 0094 7047     		bx	lr
 860              		.cfi_endproc
 861              	.LFE35:
 863 0096 00BF     		.section	.text.CAN_Transmit,"ax",%progbits
 864              		.align	2
 865              		.global	CAN_Transmit
 866              		.thumb
 867              		.thumb_func
 869              	CAN_Transmit:
 870              	.LFB36:
 507:../STM32F10x_StdPeriph_Lib_V3.5.0/Libraries/STM32F10x_StdPeriph_Driver/src/stm32f10x_can.c **** /**
 508:../STM32F10x_StdPeriph_Lib_V3.5.0/Libraries/STM32F10x_StdPeriph_Driver/src/stm32f10x_can.c ****   * @brief  Initiates the transmission of a message.
 509:../STM32F10x_StdPeriph_Lib_V3.5.0/Libraries/STM32F10x_StdPeriph_Driver/src/stm32f10x_can.c ****   * @param  CANx:      where x can be 1 or 2 to to select the CAN peripheral.
 510:../STM32F10x_StdPeriph_Lib_V3.5.0/Libraries/STM32F10x_StdPeriph_Driver/src/stm32f10x_can.c ****   * @param  TxMessage: pointer to a structure which contains CAN Id, CAN
 511:../STM32F10x_StdPeriph_Lib_V3.5.0/Libraries/STM32F10x_StdPeriph_Driver/src/stm32f10x_can.c ****   *                    DLC and CAN data.
 512:../STM32F10x_StdPeriph_Lib_V3.5.0/Libraries/STM32F10x_StdPeriph_Driver/src/stm32f10x_can.c ****   * @retval The number of the mailbox that is used for transmission
 513:../STM32F10x_StdPeriph_Lib_V3.5.0/Libraries/STM32F10x_StdPeriph_Driver/src/stm32f10x_can.c ****   *                    or CAN_TxStatus_NoMailBox if there is no empty mailbox.
 514:../STM32F10x_StdPeriph_Lib_V3.5.0/Libraries/STM32F10x_StdPeriph_Driver/src/stm32f10x_can.c ****   */
 515:../STM32F10x_StdPeriph_Lib_V3.5.0/Libraries/STM32F10x_StdPeriph_Driver/src/stm32f10x_can.c **** uint8_t CAN_Transmit(CAN_TypeDef* CANx, CanTxMsg* TxMessage)
 516:../STM32F10x_StdPeriph_Lib_V3.5.0/Libraries/STM32F10x_StdPeriph_Driver/src/stm32f10x_can.c **** {
 871              		.loc 1 516 0
 872              		.cfi_startproc
 873              		@ args = 0, pretend = 0, frame = 16
 874              		@ frame_needed = 1, uses_anonymous_args = 0
 875              		@ link register save eliminated.
 876 0000 80B4     		push	{r7}
 877              	.LCFI21:
 878              		.cfi_def_cfa_offset 4
 879              		.cfi_offset 7, -4
 880 0002 85B0     		sub	sp, sp, #20
 881              	.LCFI22:
 882              		.cfi_def_cfa_offset 24
 883 0004 00AF     		add	r7, sp, #0
 884              	.LCFI23:
 885              		.cfi_def_cfa_register 7
 886 0006 7860     		str	r0, [r7, #4]
 887 0008 3960     		str	r1, [r7, #0]
 517:../STM32F10x_StdPeriph_Lib_V3.5.0/Libraries/STM32F10x_StdPeriph_Driver/src/stm32f10x_can.c ****   uint8_t transmit_mailbox = 0;
 888              		.loc 1 517 0
 889 000a 4FF00003 		mov	r3, #0
 890 000e FB73     		strb	r3, [r7, #15]
 518:../STM32F10x_StdPeriph_Lib_V3.5.0/Libraries/STM32F10x_StdPeriph_Driver/src/stm32f10x_can.c ****   /* Check the parameters */
 519:../STM32F10x_StdPeriph_Lib_V3.5.0/Libraries/STM32F10x_StdPeriph_Driver/src/stm32f10x_can.c ****   assert_param(IS_CAN_ALL_PERIPH(CANx));
 520:../STM32F10x_StdPeriph_Lib_V3.5.0/Libraries/STM32F10x_StdPeriph_Driver/src/stm32f10x_can.c ****   assert_param(IS_CAN_IDTYPE(TxMessage->IDE));
 521:../STM32F10x_StdPeriph_Lib_V3.5.0/Libraries/STM32F10x_StdPeriph_Driver/src/stm32f10x_can.c ****   assert_param(IS_CAN_RTR(TxMessage->RTR));
 522:../STM32F10x_StdPeriph_Lib_V3.5.0/Libraries/STM32F10x_StdPeriph_Driver/src/stm32f10x_can.c ****   assert_param(IS_CAN_DLC(TxMessage->DLC));
 523:../STM32F10x_StdPeriph_Lib_V3.5.0/Libraries/STM32F10x_StdPeriph_Driver/src/stm32f10x_can.c **** 
 524:../STM32F10x_StdPeriph_Lib_V3.5.0/Libraries/STM32F10x_StdPeriph_Driver/src/stm32f10x_can.c ****   /* Select one empty transmit mailbox */
 525:../STM32F10x_StdPeriph_Lib_V3.5.0/Libraries/STM32F10x_StdPeriph_Driver/src/stm32f10x_can.c ****   if ((CANx->TSR&CAN_TSR_TME0) == CAN_TSR_TME0)
 891              		.loc 1 525 0
 892 0010 7B68     		ldr	r3, [r7, #4]
 893 0012 9B68     		ldr	r3, [r3, #8]
 894 0014 03F08063 		and	r3, r3, #67108864
 895 0018 002B     		cmp	r3, #0
 896 001a 03D0     		beq	.L50
 526:../STM32F10x_StdPeriph_Lib_V3.5.0/Libraries/STM32F10x_StdPeriph_Driver/src/stm32f10x_can.c ****   {
 527:../STM32F10x_StdPeriph_Lib_V3.5.0/Libraries/STM32F10x_StdPeriph_Driver/src/stm32f10x_can.c ****     transmit_mailbox = 0;
 897              		.loc 1 527 0
 898 001c 4FF00003 		mov	r3, #0
 899 0020 FB73     		strb	r3, [r7, #15]
 900 0022 16E0     		b	.L51
 901              	.L50:
 528:../STM32F10x_StdPeriph_Lib_V3.5.0/Libraries/STM32F10x_StdPeriph_Driver/src/stm32f10x_can.c ****   }
 529:../STM32F10x_StdPeriph_Lib_V3.5.0/Libraries/STM32F10x_StdPeriph_Driver/src/stm32f10x_can.c ****   else if ((CANx->TSR&CAN_TSR_TME1) == CAN_TSR_TME1)
 902              		.loc 1 529 0
 903 0024 7B68     		ldr	r3, [r7, #4]
 904 0026 9B68     		ldr	r3, [r3, #8]
 905 0028 03F00063 		and	r3, r3, #134217728
 906 002c 002B     		cmp	r3, #0
 907 002e 03D0     		beq	.L52
 530:../STM32F10x_StdPeriph_Lib_V3.5.0/Libraries/STM32F10x_StdPeriph_Driver/src/stm32f10x_can.c ****   {
 531:../STM32F10x_StdPeriph_Lib_V3.5.0/Libraries/STM32F10x_StdPeriph_Driver/src/stm32f10x_can.c ****     transmit_mailbox = 1;
 908              		.loc 1 531 0
 909 0030 4FF00103 		mov	r3, #1
 910 0034 FB73     		strb	r3, [r7, #15]
 911 0036 0CE0     		b	.L51
 912              	.L52:
 532:../STM32F10x_StdPeriph_Lib_V3.5.0/Libraries/STM32F10x_StdPeriph_Driver/src/stm32f10x_can.c ****   }
 533:../STM32F10x_StdPeriph_Lib_V3.5.0/Libraries/STM32F10x_StdPeriph_Driver/src/stm32f10x_can.c ****   else if ((CANx->TSR&CAN_TSR_TME2) == CAN_TSR_TME2)
 913              		.loc 1 533 0
 914 0038 7B68     		ldr	r3, [r7, #4]
 915 003a 9B68     		ldr	r3, [r3, #8]
 916 003c 03F08053 		and	r3, r3, #268435456
 917 0040 002B     		cmp	r3, #0
 918 0042 03D0     		beq	.L53
 534:../STM32F10x_StdPeriph_Lib_V3.5.0/Libraries/STM32F10x_StdPeriph_Driver/src/stm32f10x_can.c ****   {
 535:../STM32F10x_StdPeriph_Lib_V3.5.0/Libraries/STM32F10x_StdPeriph_Driver/src/stm32f10x_can.c ****     transmit_mailbox = 2;
 919              		.loc 1 535 0
 920 0044 4FF00203 		mov	r3, #2
 921 0048 FB73     		strb	r3, [r7, #15]
 922 004a 02E0     		b	.L51
 923              	.L53:
 536:../STM32F10x_StdPeriph_Lib_V3.5.0/Libraries/STM32F10x_StdPeriph_Driver/src/stm32f10x_can.c ****   }
 537:../STM32F10x_StdPeriph_Lib_V3.5.0/Libraries/STM32F10x_StdPeriph_Driver/src/stm32f10x_can.c ****   else
 538:../STM32F10x_StdPeriph_Lib_V3.5.0/Libraries/STM32F10x_StdPeriph_Driver/src/stm32f10x_can.c ****   {
 539:../STM32F10x_StdPeriph_Lib_V3.5.0/Libraries/STM32F10x_StdPeriph_Driver/src/stm32f10x_can.c ****     transmit_mailbox = CAN_TxStatus_NoMailBox;
 924              		.loc 1 539 0
 925 004c 4FF00403 		mov	r3, #4
 926 0050 FB73     		strb	r3, [r7, #15]
 927              	.L51:
 540:../STM32F10x_StdPeriph_Lib_V3.5.0/Libraries/STM32F10x_StdPeriph_Driver/src/stm32f10x_can.c ****   }
 541:../STM32F10x_StdPeriph_Lib_V3.5.0/Libraries/STM32F10x_StdPeriph_Driver/src/stm32f10x_can.c **** 
 542:../STM32F10x_StdPeriph_Lib_V3.5.0/Libraries/STM32F10x_StdPeriph_Driver/src/stm32f10x_can.c ****   if (transmit_mailbox != CAN_TxStatus_NoMailBox)
 928              		.loc 1 542 0
 929 0052 FB7B     		ldrb	r3, [r7, #15]	@ zero_extendqisi2
 930 0054 042B     		cmp	r3, #4
 931 0056 00F0BA80 		beq	.L54
 543:../STM32F10x_StdPeriph_Lib_V3.5.0/Libraries/STM32F10x_StdPeriph_Driver/src/stm32f10x_can.c ****   {
 544:../STM32F10x_StdPeriph_Lib_V3.5.0/Libraries/STM32F10x_StdPeriph_Driver/src/stm32f10x_can.c ****     /* Set up the Id */
 545:../STM32F10x_StdPeriph_Lib_V3.5.0/Libraries/STM32F10x_StdPeriph_Driver/src/stm32f10x_can.c ****     CANx->sTxMailBox[transmit_mailbox].TIR &= TMIDxR_TXRQ;
 932              		.loc 1 545 0
 933 005a FB7B     		ldrb	r3, [r7, #15]	@ zero_extendqisi2
 934 005c FA7B     		ldrb	r2, [r7, #15]	@ zero_extendqisi2
 935 005e 7968     		ldr	r1, [r7, #4]
 936 0060 02F11802 		add	r2, r2, #24
 937 0064 4FEA0212 		lsl	r2, r2, #4
 938 0068 8A18     		adds	r2, r1, r2
 939 006a 1268     		ldr	r2, [r2, #0]
 940 006c 02F00102 		and	r2, r2, #1
 941 0070 7968     		ldr	r1, [r7, #4]
 942 0072 03F11803 		add	r3, r3, #24
 943 0076 4FEA0313 		lsl	r3, r3, #4
 944 007a CB18     		adds	r3, r1, r3
 945 007c 1A60     		str	r2, [r3, #0]
 546:../STM32F10x_StdPeriph_Lib_V3.5.0/Libraries/STM32F10x_StdPeriph_Driver/src/stm32f10x_can.c ****     if (TxMessage->IDE == CAN_Id_Standard)
 946              		.loc 1 546 0
 947 007e 3B68     		ldr	r3, [r7, #0]
 948 0080 1B7A     		ldrb	r3, [r3, #8]	@ zero_extendqisi2
 949 0082 002B     		cmp	r3, #0
 950 0084 18D1     		bne	.L55
 547:../STM32F10x_StdPeriph_Lib_V3.5.0/Libraries/STM32F10x_StdPeriph_Driver/src/stm32f10x_can.c ****     {
 548:../STM32F10x_StdPeriph_Lib_V3.5.0/Libraries/STM32F10x_StdPeriph_Driver/src/stm32f10x_can.c ****       assert_param(IS_CAN_STDID(TxMessage->StdId));  
 549:../STM32F10x_StdPeriph_Lib_V3.5.0/Libraries/STM32F10x_StdPeriph_Driver/src/stm32f10x_can.c ****       CANx->sTxMailBox[transmit_mailbox].TIR |= ((TxMessage->StdId << 21) | \
 951              		.loc 1 549 0
 952 0086 FB7B     		ldrb	r3, [r7, #15]	@ zero_extendqisi2
 953 0088 FA7B     		ldrb	r2, [r7, #15]	@ zero_extendqisi2
 954 008a 7968     		ldr	r1, [r7, #4]
 955 008c 02F11802 		add	r2, r2, #24
 956 0090 4FEA0212 		lsl	r2, r2, #4
 957 0094 8A18     		adds	r2, r1, r2
 958 0096 1168     		ldr	r1, [r2, #0]
 959 0098 3A68     		ldr	r2, [r7, #0]
 960 009a 1268     		ldr	r2, [r2, #0]
 961 009c 4FEA4250 		lsl	r0, r2, #21
 550:../STM32F10x_StdPeriph_Lib_V3.5.0/Libraries/STM32F10x_StdPeriph_Driver/src/stm32f10x_can.c ****                                                   TxMessage->RTR);
 962              		.loc 1 550 0
 963 00a0 3A68     		ldr	r2, [r7, #0]
 964 00a2 527A     		ldrb	r2, [r2, #9]	@ zero_extendqisi2
 549:../STM32F10x_StdPeriph_Lib_V3.5.0/Libraries/STM32F10x_StdPeriph_Driver/src/stm32f10x_can.c ****       CANx->sTxMailBox[transmit_mailbox].TIR |= ((TxMessage->StdId << 21) | \
 965              		.loc 1 549 0
 966 00a4 0243     		orrs	r2, r2, r0
 967 00a6 0A43     		orrs	r2, r2, r1
 968 00a8 7968     		ldr	r1, [r7, #4]
 969 00aa 03F11803 		add	r3, r3, #24
 970 00ae 4FEA0313 		lsl	r3, r3, #4
 971 00b2 CB18     		adds	r3, r1, r3
 972 00b4 1A60     		str	r2, [r3, #0]
 973 00b6 1AE0     		b	.L56
 974              	.L55:
 551:../STM32F10x_StdPeriph_Lib_V3.5.0/Libraries/STM32F10x_StdPeriph_Driver/src/stm32f10x_can.c ****     }
 552:../STM32F10x_StdPeriph_Lib_V3.5.0/Libraries/STM32F10x_StdPeriph_Driver/src/stm32f10x_can.c ****     else
 553:../STM32F10x_StdPeriph_Lib_V3.5.0/Libraries/STM32F10x_StdPeriph_Driver/src/stm32f10x_can.c ****     {
 554:../STM32F10x_StdPeriph_Lib_V3.5.0/Libraries/STM32F10x_StdPeriph_Driver/src/stm32f10x_can.c ****       assert_param(IS_CAN_EXTID(TxMessage->ExtId));
 555:../STM32F10x_StdPeriph_Lib_V3.5.0/Libraries/STM32F10x_StdPeriph_Driver/src/stm32f10x_can.c ****       CANx->sTxMailBox[transmit_mailbox].TIR |= ((TxMessage->ExtId << 3) | \
 975              		.loc 1 555 0
 976 00b8 FB7B     		ldrb	r3, [r7, #15]	@ zero_extendqisi2
 977 00ba FA7B     		ldrb	r2, [r7, #15]	@ zero_extendqisi2
 978 00bc 7968     		ldr	r1, [r7, #4]
 979 00be 02F11802 		add	r2, r2, #24
 980 00c2 4FEA0212 		lsl	r2, r2, #4
 981 00c6 8A18     		adds	r2, r1, r2
 982 00c8 1168     		ldr	r1, [r2, #0]
 983 00ca 3A68     		ldr	r2, [r7, #0]
 984 00cc 5268     		ldr	r2, [r2, #4]
 985 00ce 4FEAC200 		lsl	r0, r2, #3
 556:../STM32F10x_StdPeriph_Lib_V3.5.0/Libraries/STM32F10x_StdPeriph_Driver/src/stm32f10x_can.c ****                                                   TxMessage->IDE | \
 986              		.loc 1 556 0
 987 00d2 3A68     		ldr	r2, [r7, #0]
 988 00d4 127A     		ldrb	r2, [r2, #8]	@ zero_extendqisi2
 555:../STM32F10x_StdPeriph_Lib_V3.5.0/Libraries/STM32F10x_StdPeriph_Driver/src/stm32f10x_can.c ****       CANx->sTxMailBox[transmit_mailbox].TIR |= ((TxMessage->ExtId << 3) | \
 989              		.loc 1 555 0
 990 00d6 1043     		orrs	r0, r0, r2
 557:../STM32F10x_StdPeriph_Lib_V3.5.0/Libraries/STM32F10x_StdPeriph_Driver/src/stm32f10x_can.c ****                                                   TxMessage->RTR);
 991              		.loc 1 557 0
 992 00d8 3A68     		ldr	r2, [r7, #0]
 993 00da 527A     		ldrb	r2, [r2, #9]	@ zero_extendqisi2
 556:../STM32F10x_StdPeriph_Lib_V3.5.0/Libraries/STM32F10x_StdPeriph_Driver/src/stm32f10x_can.c ****                                                   TxMessage->IDE | \
 994              		.loc 1 556 0
 995 00dc 0243     		orrs	r2, r2, r0
 555:../STM32F10x_StdPeriph_Lib_V3.5.0/Libraries/STM32F10x_StdPeriph_Driver/src/stm32f10x_can.c ****       CANx->sTxMailBox[transmit_mailbox].TIR |= ((TxMessage->ExtId << 3) | \
 996              		.loc 1 555 0
 997 00de 0A43     		orrs	r2, r2, r1
 998 00e0 7968     		ldr	r1, [r7, #4]
 999 00e2 03F11803 		add	r3, r3, #24
 1000 00e6 4FEA0313 		lsl	r3, r3, #4
 1001 00ea CB18     		adds	r3, r1, r3
 1002 00ec 1A60     		str	r2, [r3, #0]
 1003              	.L56:
 558:../STM32F10x_StdPeriph_Lib_V3.5.0/Libraries/STM32F10x_StdPeriph_Driver/src/stm32f10x_can.c ****     }
 559:../STM32F10x_StdPeriph_Lib_V3.5.0/Libraries/STM32F10x_StdPeriph_Driver/src/stm32f10x_can.c ****     
 560:../STM32F10x_StdPeriph_Lib_V3.5.0/Libraries/STM32F10x_StdPeriph_Driver/src/stm32f10x_can.c ****     /* Set up the DLC */
 561:../STM32F10x_StdPeriph_Lib_V3.5.0/Libraries/STM32F10x_StdPeriph_Driver/src/stm32f10x_can.c ****     TxMessage->DLC &= (uint8_t)0x0000000F;
 1004              		.loc 1 561 0
 1005 00ee 3B68     		ldr	r3, [r7, #0]
 1006 00f0 9B7A     		ldrb	r3, [r3, #10]	@ zero_extendqisi2
 1007 00f2 03F00F03 		and	r3, r3, #15
 1008 00f6 DAB2     		uxtb	r2, r3
 1009 00f8 3B68     		ldr	r3, [r7, #0]
 1010 00fa 9A72     		strb	r2, [r3, #10]
 562:../STM32F10x_StdPeriph_Lib_V3.5.0/Libraries/STM32F10x_StdPeriph_Driver/src/stm32f10x_can.c ****     CANx->sTxMailBox[transmit_mailbox].TDTR &= (uint32_t)0xFFFFFFF0;
 1011              		.loc 1 562 0
 1012 00fc FB7B     		ldrb	r3, [r7, #15]	@ zero_extendqisi2
 1013 00fe FA7B     		ldrb	r2, [r7, #15]	@ zero_extendqisi2
 1014 0100 7968     		ldr	r1, [r7, #4]
 1015 0102 02F11802 		add	r2, r2, #24
 1016 0106 4FEA0212 		lsl	r2, r2, #4
 1017 010a 8A18     		adds	r2, r1, r2
 1018 010c 5268     		ldr	r2, [r2, #4]
 1019 010e 22F00F02 		bic	r2, r2, #15
 1020 0112 7968     		ldr	r1, [r7, #4]
 1021 0114 03F11803 		add	r3, r3, #24
 1022 0118 4FEA0313 		lsl	r3, r3, #4
 1023 011c CB18     		adds	r3, r1, r3
 1024 011e 5A60     		str	r2, [r3, #4]
 563:../STM32F10x_StdPeriph_Lib_V3.5.0/Libraries/STM32F10x_StdPeriph_Driver/src/stm32f10x_can.c ****     CANx->sTxMailBox[transmit_mailbox].TDTR |= TxMessage->DLC;
 1025              		.loc 1 563 0
 1026 0120 FB7B     		ldrb	r3, [r7, #15]	@ zero_extendqisi2
 1027 0122 FA7B     		ldrb	r2, [r7, #15]	@ zero_extendqisi2
 1028 0124 7968     		ldr	r1, [r7, #4]
 1029 0126 02F11802 		add	r2, r2, #24
 1030 012a 4FEA0212 		lsl	r2, r2, #4
 1031 012e 8A18     		adds	r2, r1, r2
 1032 0130 5168     		ldr	r1, [r2, #4]
 1033 0132 3A68     		ldr	r2, [r7, #0]
 1034 0134 927A     		ldrb	r2, [r2, #10]	@ zero_extendqisi2
 1035 0136 0A43     		orrs	r2, r2, r1
 1036 0138 7968     		ldr	r1, [r7, #4]
 1037 013a 03F11803 		add	r3, r3, #24
 1038 013e 4FEA0313 		lsl	r3, r3, #4
 1039 0142 CB18     		adds	r3, r1, r3
 1040 0144 5A60     		str	r2, [r3, #4]
 564:../STM32F10x_StdPeriph_Lib_V3.5.0/Libraries/STM32F10x_StdPeriph_Driver/src/stm32f10x_can.c **** 
 565:../STM32F10x_StdPeriph_Lib_V3.5.0/Libraries/STM32F10x_StdPeriph_Driver/src/stm32f10x_can.c ****     /* Set up the data field */
 566:../STM32F10x_StdPeriph_Lib_V3.5.0/Libraries/STM32F10x_StdPeriph_Driver/src/stm32f10x_can.c ****     CANx->sTxMailBox[transmit_mailbox].TDLR = (((uint32_t)TxMessage->Data[3] << 24) | 
 1041              		.loc 1 566 0
 1042 0146 FB7B     		ldrb	r3, [r7, #15]	@ zero_extendqisi2
 1043 0148 3A68     		ldr	r2, [r7, #0]
 1044 014a 927B     		ldrb	r2, [r2, #14]	@ zero_extendqisi2
 1045 014c 4FEA0261 		lsl	r1, r2, #24
 567:../STM32F10x_StdPeriph_Lib_V3.5.0/Libraries/STM32F10x_StdPeriph_Driver/src/stm32f10x_can.c ****                                              ((uint32_t)TxMessage->Data[2] << 16) |
 1046              		.loc 1 567 0
 1047 0150 3A68     		ldr	r2, [r7, #0]
 1048 0152 527B     		ldrb	r2, [r2, #13]	@ zero_extendqisi2
 1049 0154 4FEA0242 		lsl	r2, r2, #16
 566:../STM32F10x_StdPeriph_Lib_V3.5.0/Libraries/STM32F10x_StdPeriph_Driver/src/stm32f10x_can.c ****     CANx->sTxMailBox[transmit_mailbox].TDLR = (((uint32_t)TxMessage->Data[3] << 24) | 
 1050              		.loc 1 566 0
 1051 0158 1143     		orrs	r1, r1, r2
 568:../STM32F10x_StdPeriph_Lib_V3.5.0/Libraries/STM32F10x_StdPeriph_Driver/src/stm32f10x_can.c ****                                              ((uint32_t)TxMessage->Data[1] << 8) | 
 1052              		.loc 1 568 0
 1053 015a 3A68     		ldr	r2, [r7, #0]
 1054 015c 127B     		ldrb	r2, [r2, #12]	@ zero_extendqisi2
 1055 015e 4FEA0222 		lsl	r2, r2, #8
 567:../STM32F10x_StdPeriph_Lib_V3.5.0/Libraries/STM32F10x_StdPeriph_Driver/src/stm32f10x_can.c ****                                              ((uint32_t)TxMessage->Data[2] << 16) |
 1056              		.loc 1 567 0
 1057 0162 1143     		orrs	r1, r1, r2
 569:../STM32F10x_StdPeriph_Lib_V3.5.0/Libraries/STM32F10x_StdPeriph_Driver/src/stm32f10x_can.c ****                                              ((uint32_t)TxMessage->Data[0]));
 1058              		.loc 1 569 0
 1059 0164 3A68     		ldr	r2, [r7, #0]
 1060 0166 D27A     		ldrb	r2, [r2, #11]	@ zero_extendqisi2
 568:../STM32F10x_StdPeriph_Lib_V3.5.0/Libraries/STM32F10x_StdPeriph_Driver/src/stm32f10x_can.c ****                                              ((uint32_t)TxMessage->Data[1] << 8) | 
 1061              		.loc 1 568 0
 1062 0168 0A43     		orrs	r2, r2, r1
 566:../STM32F10x_StdPeriph_Lib_V3.5.0/Libraries/STM32F10x_StdPeriph_Driver/src/stm32f10x_can.c ****     CANx->sTxMailBox[transmit_mailbox].TDLR = (((uint32_t)TxMessage->Data[3] << 24) | 
 1063              		.loc 1 566 0
 1064 016a 7968     		ldr	r1, [r7, #4]
 1065 016c 4FEA0313 		lsl	r3, r3, #4
 1066 0170 CB18     		adds	r3, r1, r3
 1067 0172 03F5C473 		add	r3, r3, #392
 1068 0176 1A60     		str	r2, [r3, #0]
 570:../STM32F10x_StdPeriph_Lib_V3.5.0/Libraries/STM32F10x_StdPeriph_Driver/src/stm32f10x_can.c ****     CANx->sTxMailBox[transmit_mailbox].TDHR = (((uint32_t)TxMessage->Data[7] << 24) | 
 1069              		.loc 1 570 0
 1070 0178 FB7B     		ldrb	r3, [r7, #15]	@ zero_extendqisi2
 1071 017a 3A68     		ldr	r2, [r7, #0]
 1072 017c 927C     		ldrb	r2, [r2, #18]	@ zero_extendqisi2
 1073 017e 4FEA0261 		lsl	r1, r2, #24
 571:../STM32F10x_StdPeriph_Lib_V3.5.0/Libraries/STM32F10x_StdPeriph_Driver/src/stm32f10x_can.c ****                                              ((uint32_t)TxMessage->Data[6] << 16) |
 1074              		.loc 1 571 0
 1075 0182 3A68     		ldr	r2, [r7, #0]
 1076 0184 527C     		ldrb	r2, [r2, #17]	@ zero_extendqisi2
 1077 0186 4FEA0242 		lsl	r2, r2, #16
 570:../STM32F10x_StdPeriph_Lib_V3.5.0/Libraries/STM32F10x_StdPeriph_Driver/src/stm32f10x_can.c ****     CANx->sTxMailBox[transmit_mailbox].TDHR = (((uint32_t)TxMessage->Data[7] << 24) | 
 1078              		.loc 1 570 0
 1079 018a 1143     		orrs	r1, r1, r2
 572:../STM32F10x_StdPeriph_Lib_V3.5.0/Libraries/STM32F10x_StdPeriph_Driver/src/stm32f10x_can.c ****                                              ((uint32_t)TxMessage->Data[5] << 8) |
 1080              		.loc 1 572 0
 1081 018c 3A68     		ldr	r2, [r7, #0]
 1082 018e 127C     		ldrb	r2, [r2, #16]	@ zero_extendqisi2
 1083 0190 4FEA0222 		lsl	r2, r2, #8
 571:../STM32F10x_StdPeriph_Lib_V3.5.0/Libraries/STM32F10x_StdPeriph_Driver/src/stm32f10x_can.c ****                                              ((uint32_t)TxMessage->Data[6] << 16) |
 1084              		.loc 1 571 0
 1085 0194 1143     		orrs	r1, r1, r2
 573:../STM32F10x_StdPeriph_Lib_V3.5.0/Libraries/STM32F10x_StdPeriph_Driver/src/stm32f10x_can.c ****                                              ((uint32_t)TxMessage->Data[4]));
 1086              		.loc 1 573 0
 1087 0196 3A68     		ldr	r2, [r7, #0]
 1088 0198 D27B     		ldrb	r2, [r2, #15]	@ zero_extendqisi2
 572:../STM32F10x_StdPeriph_Lib_V3.5.0/Libraries/STM32F10x_StdPeriph_Driver/src/stm32f10x_can.c ****                                              ((uint32_t)TxMessage->Data[5] << 8) |
 1089              		.loc 1 572 0
 1090 019a 0A43     		orrs	r2, r2, r1
 570:../STM32F10x_StdPeriph_Lib_V3.5.0/Libraries/STM32F10x_StdPeriph_Driver/src/stm32f10x_can.c ****     CANx->sTxMailBox[transmit_mailbox].TDHR = (((uint32_t)TxMessage->Data[7] << 24) | 
 1091              		.loc 1 570 0
 1092 019c 7968     		ldr	r1, [r7, #4]
 1093 019e 4FEA0313 		lsl	r3, r3, #4
 1094 01a2 CB18     		adds	r3, r1, r3
 1095 01a4 03F5C473 		add	r3, r3, #392
 1096 01a8 5A60     		str	r2, [r3, #4]
 574:../STM32F10x_StdPeriph_Lib_V3.5.0/Libraries/STM32F10x_StdPeriph_Driver/src/stm32f10x_can.c ****     /* Request transmission */
 575:../STM32F10x_StdPeriph_Lib_V3.5.0/Libraries/STM32F10x_StdPeriph_Driver/src/stm32f10x_can.c ****     CANx->sTxMailBox[transmit_mailbox].TIR |= TMIDxR_TXRQ;
 1097              		.loc 1 575 0
 1098 01aa FB7B     		ldrb	r3, [r7, #15]	@ zero_extendqisi2
 1099 01ac FA7B     		ldrb	r2, [r7, #15]	@ zero_extendqisi2
 1100 01ae 7968     		ldr	r1, [r7, #4]
 1101 01b0 02F11802 		add	r2, r2, #24
 1102 01b4 4FEA0212 		lsl	r2, r2, #4
 1103 01b8 8A18     		adds	r2, r1, r2
 1104 01ba 1268     		ldr	r2, [r2, #0]
 1105 01bc 42F00102 		orr	r2, r2, #1
 1106 01c0 7968     		ldr	r1, [r7, #4]
 1107 01c2 03F11803 		add	r3, r3, #24
 1108 01c6 4FEA0313 		lsl	r3, r3, #4
 1109 01ca CB18     		adds	r3, r1, r3
 1110 01cc 1A60     		str	r2, [r3, #0]
 1111              	.L54:
 576:../STM32F10x_StdPeriph_Lib_V3.5.0/Libraries/STM32F10x_StdPeriph_Driver/src/stm32f10x_can.c ****   }
 577:../STM32F10x_StdPeriph_Lib_V3.5.0/Libraries/STM32F10x_StdPeriph_Driver/src/stm32f10x_can.c ****   return transmit_mailbox;
 1112              		.loc 1 577 0
 1113 01ce FB7B     		ldrb	r3, [r7, #15]	@ zero_extendqisi2
 578:../STM32F10x_StdPeriph_Lib_V3.5.0/Libraries/STM32F10x_StdPeriph_Driver/src/stm32f10x_can.c **** }
 1114              		.loc 1 578 0
 1115 01d0 1846     		mov	r0, r3
 1116 01d2 07F11407 		add	r7, r7, #20
 1117 01d6 BD46     		mov	sp, r7
 1118 01d8 80BC     		pop	{r7}
 1119 01da 7047     		bx	lr
 1120              		.cfi_endproc
 1121              	.LFE36:
 1123              		.section	.text.CAN_TransmitStatus,"ax",%progbits
 1124              		.align	2
 1125              		.global	CAN_TransmitStatus
 1126              		.thumb
 1127              		.thumb_func
 1129              	CAN_TransmitStatus:
 1130              	.LFB37:
 579:../STM32F10x_StdPeriph_Lib_V3.5.0/Libraries/STM32F10x_StdPeriph_Driver/src/stm32f10x_can.c **** 
 580:../STM32F10x_StdPeriph_Lib_V3.5.0/Libraries/STM32F10x_StdPeriph_Driver/src/stm32f10x_can.c **** /**
 581:../STM32F10x_StdPeriph_Lib_V3.5.0/Libraries/STM32F10x_StdPeriph_Driver/src/stm32f10x_can.c ****   * @brief  Checks the transmission of a message.
 582:../STM32F10x_StdPeriph_Lib_V3.5.0/Libraries/STM32F10x_StdPeriph_Driver/src/stm32f10x_can.c ****   * @param  CANx:            where x can be 1 or 2 to to select the 
 583:../STM32F10x_StdPeriph_Lib_V3.5.0/Libraries/STM32F10x_StdPeriph_Driver/src/stm32f10x_can.c ****   *                          CAN peripheral.
 584:../STM32F10x_StdPeriph_Lib_V3.5.0/Libraries/STM32F10x_StdPeriph_Driver/src/stm32f10x_can.c ****   * @param  TransmitMailbox: the number of the mailbox that is used for 
 585:../STM32F10x_StdPeriph_Lib_V3.5.0/Libraries/STM32F10x_StdPeriph_Driver/src/stm32f10x_can.c ****   *                          transmission.
 586:../STM32F10x_StdPeriph_Lib_V3.5.0/Libraries/STM32F10x_StdPeriph_Driver/src/stm32f10x_can.c ****   * @retval CAN_TxStatus_Ok if the CAN driver transmits the message, CAN_TxStatus_Failed 
 587:../STM32F10x_StdPeriph_Lib_V3.5.0/Libraries/STM32F10x_StdPeriph_Driver/src/stm32f10x_can.c ****   *         in an other case.
 588:../STM32F10x_StdPeriph_Lib_V3.5.0/Libraries/STM32F10x_StdPeriph_Driver/src/stm32f10x_can.c ****   */
 589:../STM32F10x_StdPeriph_Lib_V3.5.0/Libraries/STM32F10x_StdPeriph_Driver/src/stm32f10x_can.c **** uint8_t CAN_TransmitStatus(CAN_TypeDef* CANx, uint8_t TransmitMailbox)
 590:../STM32F10x_StdPeriph_Lib_V3.5.0/Libraries/STM32F10x_StdPeriph_Driver/src/stm32f10x_can.c **** {
 1131              		.loc 1 590 0
 1132              		.cfi_startproc
 1133              		@ args = 0, pretend = 0, frame = 16
 1134              		@ frame_needed = 1, uses_anonymous_args = 0
 1135              		@ link register save eliminated.
 1136 0000 80B4     		push	{r7}
 1137              	.LCFI24:
 1138              		.cfi_def_cfa_offset 4
 1139              		.cfi_offset 7, -4
 1140 0002 85B0     		sub	sp, sp, #20
 1141              	.LCFI25:
 1142              		.cfi_def_cfa_offset 24
 1143 0004 00AF     		add	r7, sp, #0
 1144              	.LCFI26:
 1145              		.cfi_def_cfa_register 7
 1146 0006 7860     		str	r0, [r7, #4]
 1147 0008 0B46     		mov	r3, r1
 1148 000a FB70     		strb	r3, [r7, #3]
 591:../STM32F10x_StdPeriph_Lib_V3.5.0/Libraries/STM32F10x_StdPeriph_Driver/src/stm32f10x_can.c ****   uint32_t state = 0;
 1149              		.loc 1 591 0
 1150 000c 4FF00003 		mov	r3, #0
 1151 0010 FB60     		str	r3, [r7, #12]
 592:../STM32F10x_StdPeriph_Lib_V3.5.0/Libraries/STM32F10x_StdPeriph_Driver/src/stm32f10x_can.c **** 
 593:../STM32F10x_StdPeriph_Lib_V3.5.0/Libraries/STM32F10x_StdPeriph_Driver/src/stm32f10x_can.c ****   /* Check the parameters */
 594:../STM32F10x_StdPeriph_Lib_V3.5.0/Libraries/STM32F10x_StdPeriph_Driver/src/stm32f10x_can.c ****   assert_param(IS_CAN_ALL_PERIPH(CANx));
 595:../STM32F10x_StdPeriph_Lib_V3.5.0/Libraries/STM32F10x_StdPeriph_Driver/src/stm32f10x_can.c ****   assert_param(IS_CAN_TRANSMITMAILBOX(TransmitMailbox));
 596:../STM32F10x_StdPeriph_Lib_V3.5.0/Libraries/STM32F10x_StdPeriph_Driver/src/stm32f10x_can.c ****  
 597:../STM32F10x_StdPeriph_Lib_V3.5.0/Libraries/STM32F10x_StdPeriph_Driver/src/stm32f10x_can.c ****   switch (TransmitMailbox)
 1152              		.loc 1 597 0
 1153 0012 FB78     		ldrb	r3, [r7, #3]	@ zero_extendqisi2
 1154 0014 012B     		cmp	r3, #1
 1155 0016 09D0     		beq	.L61
 1156 0018 022B     		cmp	r3, #2
 1157 001a 0DD0     		beq	.L62
 1158 001c 002B     		cmp	r3, #0
 1159 001e 11D1     		bne	.L75
 1160              	.L60:
 598:../STM32F10x_StdPeriph_Lib_V3.5.0/Libraries/STM32F10x_StdPeriph_Driver/src/stm32f10x_can.c ****   {
 599:../STM32F10x_StdPeriph_Lib_V3.5.0/Libraries/STM32F10x_StdPeriph_Driver/src/stm32f10x_can.c ****     case (CAN_TXMAILBOX_0): 
 600:../STM32F10x_StdPeriph_Lib_V3.5.0/Libraries/STM32F10x_StdPeriph_Driver/src/stm32f10x_can.c ****       state =   CANx->TSR &  (CAN_TSR_RQCP0 | CAN_TSR_TXOK0 | CAN_TSR_TME0);
 1161              		.loc 1 600 0
 1162 0020 7B68     		ldr	r3, [r7, #4]
 1163 0022 9A68     		ldr	r2, [r3, #8]
 1164 0024 2A4B     		ldr	r3, .L76
 1165 0026 1340     		ands	r3, r3, r2
 1166 0028 FB60     		str	r3, [r7, #12]
 601:../STM32F10x_StdPeriph_Lib_V3.5.0/Libraries/STM32F10x_StdPeriph_Driver/src/stm32f10x_can.c ****       break;
 1167              		.loc 1 601 0
 1168 002a 0FE0     		b	.L63
 1169              	.L61:
 602:../STM32F10x_StdPeriph_Lib_V3.5.0/Libraries/STM32F10x_StdPeriph_Driver/src/stm32f10x_can.c ****     case (CAN_TXMAILBOX_1): 
 603:../STM32F10x_StdPeriph_Lib_V3.5.0/Libraries/STM32F10x_StdPeriph_Driver/src/stm32f10x_can.c ****       state =   CANx->TSR &  (CAN_TSR_RQCP1 | CAN_TSR_TXOK1 | CAN_TSR_TME1);
 1170              		.loc 1 603 0
 1171 002c 7B68     		ldr	r3, [r7, #4]
 1172 002e 9A68     		ldr	r2, [r3, #8]
 1173 0030 284B     		ldr	r3, .L76+4
 1174 0032 1340     		ands	r3, r3, r2
 1175 0034 FB60     		str	r3, [r7, #12]
 604:../STM32F10x_StdPeriph_Lib_V3.5.0/Libraries/STM32F10x_StdPeriph_Driver/src/stm32f10x_can.c ****       break;
 1176              		.loc 1 604 0
 1177 0036 09E0     		b	.L63
 1178              	.L62:
 605:../STM32F10x_StdPeriph_Lib_V3.5.0/Libraries/STM32F10x_StdPeriph_Driver/src/stm32f10x_can.c ****     case (CAN_TXMAILBOX_2): 
 606:../STM32F10x_StdPeriph_Lib_V3.5.0/Libraries/STM32F10x_StdPeriph_Driver/src/stm32f10x_can.c ****       state =   CANx->TSR &  (CAN_TSR_RQCP2 | CAN_TSR_TXOK2 | CAN_TSR_TME2);
 1179              		.loc 1 606 0
 1180 0038 7B68     		ldr	r3, [r7, #4]
 1181 003a 9A68     		ldr	r2, [r3, #8]
 1182 003c 264B     		ldr	r3, .L76+8
 1183 003e 1340     		ands	r3, r3, r2
 1184 0040 FB60     		str	r3, [r7, #12]
 607:../STM32F10x_StdPeriph_Lib_V3.5.0/Libraries/STM32F10x_StdPeriph_Driver/src/stm32f10x_can.c ****       break;
 1185              		.loc 1 607 0
 1186 0042 03E0     		b	.L63
 1187              	.L75:
 608:../STM32F10x_StdPeriph_Lib_V3.5.0/Libraries/STM32F10x_StdPeriph_Driver/src/stm32f10x_can.c ****     default:
 609:../STM32F10x_StdPeriph_Lib_V3.5.0/Libraries/STM32F10x_StdPeriph_Driver/src/stm32f10x_can.c ****       state = CAN_TxStatus_Failed;
 1188              		.loc 1 609 0
 1189 0044 4FF00003 		mov	r3, #0
 1190 0048 FB60     		str	r3, [r7, #12]
 610:../STM32F10x_StdPeriph_Lib_V3.5.0/Libraries/STM32F10x_StdPeriph_Driver/src/stm32f10x_can.c ****       break;
 1191              		.loc 1 610 0
 1192 004a 00BF     		nop
 1193              	.L63:
 611:../STM32F10x_StdPeriph_Lib_V3.5.0/Libraries/STM32F10x_StdPeriph_Driver/src/stm32f10x_can.c ****   }
 612:../STM32F10x_StdPeriph_Lib_V3.5.0/Libraries/STM32F10x_StdPeriph_Driver/src/stm32f10x_can.c ****   switch (state)
 1194              		.loc 1 612 0
 1195 004c FB68     		ldr	r3, [r7, #12]
 1196 004e 234A     		ldr	r2, .L76+12
 1197 0050 9342     		cmp	r3, r2
 1198 0052 1DD0     		beq	.L68
 1199 0054 214A     		ldr	r2, .L76+12
 1200 0056 9342     		cmp	r3, r2
 1201 0058 08D8     		bhi	.L72
 1202 005a 214A     		ldr	r2, .L76+16
 1203 005c 9342     		cmp	r3, r2
 1204 005e 13D0     		beq	.L66
 1205 0060 1B4A     		ldr	r2, .L76
 1206 0062 9342     		cmp	r3, r2
 1207 0064 1CD0     		beq	.L67
 1208 0066 002B     		cmp	r3, #0
 1209 0068 0AD0     		beq	.L65
 1210 006a 25E0     		b	.L64
 1211              	.L72:
 1212 006c 1D4A     		ldr	r2, .L76+20
 1213 006e 9342     		cmp	r3, r2
 1214 0070 12D0     		beq	.L70
 1215 0072 194A     		ldr	r2, .L76+8
 1216 0074 9342     		cmp	r3, r2
 1217 0076 1BD0     		beq	.L71
 1218 0078 164A     		ldr	r2, .L76+4
 1219 007a 9342     		cmp	r3, r2
 1220 007c 14D0     		beq	.L69
 1221 007e 1BE0     		b	.L64
 1222              	.L65:
 613:../STM32F10x_StdPeriph_Lib_V3.5.0/Libraries/STM32F10x_StdPeriph_Driver/src/stm32f10x_can.c ****   {
 614:../STM32F10x_StdPeriph_Lib_V3.5.0/Libraries/STM32F10x_StdPeriph_Driver/src/stm32f10x_can.c ****       /* transmit pending  */
 615:../STM32F10x_StdPeriph_Lib_V3.5.0/Libraries/STM32F10x_StdPeriph_Driver/src/stm32f10x_can.c ****     case (0x0): state = CAN_TxStatus_Pending;
 1223              		.loc 1 615 0
 1224 0080 4FF00203 		mov	r3, #2
 1225 0084 FB60     		str	r3, [r7, #12]
 616:../STM32F10x_StdPeriph_Lib_V3.5.0/Libraries/STM32F10x_StdPeriph_Driver/src/stm32f10x_can.c ****       break;
 1226              		.loc 1 616 0
 1227 0086 1BE0     		b	.L73
 1228              	.L66:
 617:../STM32F10x_StdPeriph_Lib_V3.5.0/Libraries/STM32F10x_StdPeriph_Driver/src/stm32f10x_can.c ****       /* transmit failed  */
 618:../STM32F10x_StdPeriph_Lib_V3.5.0/Libraries/STM32F10x_StdPeriph_Driver/src/stm32f10x_can.c ****      case (CAN_TSR_RQCP0 | CAN_TSR_TME0): state = CAN_TxStatus_Failed;
 1229              		.loc 1 618 0
 1230 0088 4FF00003 		mov	r3, #0
 1231 008c FB60     		str	r3, [r7, #12]
 619:../STM32F10x_StdPeriph_Lib_V3.5.0/Libraries/STM32F10x_StdPeriph_Driver/src/stm32f10x_can.c ****       break;
 1232              		.loc 1 619 0
 1233 008e 17E0     		b	.L73
 1234              	.L68:
 620:../STM32F10x_StdPeriph_Lib_V3.5.0/Libraries/STM32F10x_StdPeriph_Driver/src/stm32f10x_can.c ****      case (CAN_TSR_RQCP1 | CAN_TSR_TME1): state = CAN_TxStatus_Failed;
 1235              		.loc 1 620 0
 1236 0090 4FF00003 		mov	r3, #0
 1237 0094 FB60     		str	r3, [r7, #12]
 621:../STM32F10x_StdPeriph_Lib_V3.5.0/Libraries/STM32F10x_StdPeriph_Driver/src/stm32f10x_can.c ****       break;
 1238              		.loc 1 621 0
 1239 0096 13E0     		b	.L73
 1240              	.L70:
 622:../STM32F10x_StdPeriph_Lib_V3.5.0/Libraries/STM32F10x_StdPeriph_Driver/src/stm32f10x_can.c ****      case (CAN_TSR_RQCP2 | CAN_TSR_TME2): state = CAN_TxStatus_Failed;
 1241              		.loc 1 622 0
 1242 0098 4FF00003 		mov	r3, #0
 1243 009c FB60     		str	r3, [r7, #12]
 623:../STM32F10x_StdPeriph_Lib_V3.5.0/Libraries/STM32F10x_StdPeriph_Driver/src/stm32f10x_can.c ****       break;
 1244              		.loc 1 623 0
 1245 009e 0FE0     		b	.L73
 1246              	.L67:
 624:../STM32F10x_StdPeriph_Lib_V3.5.0/Libraries/STM32F10x_StdPeriph_Driver/src/stm32f10x_can.c ****       /* transmit succeeded  */
 625:../STM32F10x_StdPeriph_Lib_V3.5.0/Libraries/STM32F10x_StdPeriph_Driver/src/stm32f10x_can.c ****     case (CAN_TSR_RQCP0 | CAN_TSR_TXOK0 | CAN_TSR_TME0):state = CAN_TxStatus_Ok;
 1247              		.loc 1 625 0
 1248 00a0 4FF00103 		mov	r3, #1
 1249 00a4 FB60     		str	r3, [r7, #12]
 626:../STM32F10x_StdPeriph_Lib_V3.5.0/Libraries/STM32F10x_StdPeriph_Driver/src/stm32f10x_can.c ****       break;
 1250              		.loc 1 626 0
 1251 00a6 0BE0     		b	.L73
 1252              	.L69:
 627:../STM32F10x_StdPeriph_Lib_V3.5.0/Libraries/STM32F10x_StdPeriph_Driver/src/stm32f10x_can.c ****     case (CAN_TSR_RQCP1 | CAN_TSR_TXOK1 | CAN_TSR_TME1):state = CAN_TxStatus_Ok;
 1253              		.loc 1 627 0
 1254 00a8 4FF00103 		mov	r3, #1
 1255 00ac FB60     		str	r3, [r7, #12]
 628:../STM32F10x_StdPeriph_Lib_V3.5.0/Libraries/STM32F10x_StdPeriph_Driver/src/stm32f10x_can.c ****       break;
 1256              		.loc 1 628 0
 1257 00ae 07E0     		b	.L73
 1258              	.L71:
 629:../STM32F10x_StdPeriph_Lib_V3.5.0/Libraries/STM32F10x_StdPeriph_Driver/src/stm32f10x_can.c ****     case (CAN_TSR_RQCP2 | CAN_TSR_TXOK2 | CAN_TSR_TME2):state = CAN_TxStatus_Ok;
 1259              		.loc 1 629 0
 1260 00b0 4FF00103 		mov	r3, #1
 1261 00b4 FB60     		str	r3, [r7, #12]
 630:../STM32F10x_StdPeriph_Lib_V3.5.0/Libraries/STM32F10x_StdPeriph_Driver/src/stm32f10x_can.c ****       break;
 1262              		.loc 1 630 0
 1263 00b6 03E0     		b	.L73
 1264              	.L64:
 631:../STM32F10x_StdPeriph_Lib_V3.5.0/Libraries/STM32F10x_StdPeriph_Driver/src/stm32f10x_can.c ****     default: state = CAN_TxStatus_Failed;
 1265              		.loc 1 631 0
 1266 00b8 4FF00003 		mov	r3, #0
 1267 00bc FB60     		str	r3, [r7, #12]
 632:../STM32F10x_StdPeriph_Lib_V3.5.0/Libraries/STM32F10x_StdPeriph_Driver/src/stm32f10x_can.c ****       break;
 1268              		.loc 1 632 0
 1269 00be 00BF     		nop
 1270              	.L73:
 633:../STM32F10x_StdPeriph_Lib_V3.5.0/Libraries/STM32F10x_StdPeriph_Driver/src/stm32f10x_can.c ****   }
 634:../STM32F10x_StdPeriph_Lib_V3.5.0/Libraries/STM32F10x_StdPeriph_Driver/src/stm32f10x_can.c ****   return (uint8_t) state;
 1271              		.loc 1 634 0
 1272 00c0 FB68     		ldr	r3, [r7, #12]
 1273 00c2 DBB2     		uxtb	r3, r3
 635:../STM32F10x_StdPeriph_Lib_V3.5.0/Libraries/STM32F10x_StdPeriph_Driver/src/stm32f10x_can.c **** }
 1274              		.loc 1 635 0
 1275 00c4 1846     		mov	r0, r3
 1276 00c6 07F11407 		add	r7, r7, #20
 1277 00ca BD46     		mov	sp, r7
 1278 00cc 80BC     		pop	{r7}
 1279 00ce 7047     		bx	lr
 1280              	.L77:
 1281              		.align	2
 1282              	.L76:
 1283 00d0 03000004 		.word	67108867
 1284 00d4 00030008 		.word	134218496
 1285 00d8 00000310 		.word	268632064
 1286 00dc 00010008 		.word	134217984
 1287 00e0 01000004 		.word	67108865
 1288 00e4 00000110 		.word	268500992
 1289              		.cfi_endproc
 1290              	.LFE37:
 1292              		.section	.text.CAN_CancelTransmit,"ax",%progbits
 1293              		.align	2
 1294              		.global	CAN_CancelTransmit
 1295              		.thumb
 1296              		.thumb_func
 1298              	CAN_CancelTransmit:
 1299              	.LFB38:
 636:../STM32F10x_StdPeriph_Lib_V3.5.0/Libraries/STM32F10x_StdPeriph_Driver/src/stm32f10x_can.c **** 
 637:../STM32F10x_StdPeriph_Lib_V3.5.0/Libraries/STM32F10x_StdPeriph_Driver/src/stm32f10x_can.c **** /**
 638:../STM32F10x_StdPeriph_Lib_V3.5.0/Libraries/STM32F10x_StdPeriph_Driver/src/stm32f10x_can.c ****   * @brief  Cancels a transmit request.
 639:../STM32F10x_StdPeriph_Lib_V3.5.0/Libraries/STM32F10x_StdPeriph_Driver/src/stm32f10x_can.c ****   * @param  CANx:     where x can be 1 or 2 to to select the CAN peripheral. 
 640:../STM32F10x_StdPeriph_Lib_V3.5.0/Libraries/STM32F10x_StdPeriph_Driver/src/stm32f10x_can.c ****   * @param  Mailbox:  Mailbox number.
 641:../STM32F10x_StdPeriph_Lib_V3.5.0/Libraries/STM32F10x_StdPeriph_Driver/src/stm32f10x_can.c ****   * @retval None.
 642:../STM32F10x_StdPeriph_Lib_V3.5.0/Libraries/STM32F10x_StdPeriph_Driver/src/stm32f10x_can.c ****   */
 643:../STM32F10x_StdPeriph_Lib_V3.5.0/Libraries/STM32F10x_StdPeriph_Driver/src/stm32f10x_can.c **** void CAN_CancelTransmit(CAN_TypeDef* CANx, uint8_t Mailbox)
 644:../STM32F10x_StdPeriph_Lib_V3.5.0/Libraries/STM32F10x_StdPeriph_Driver/src/stm32f10x_can.c **** {
 1300              		.loc 1 644 0
 1301              		.cfi_startproc
 1302              		@ args = 0, pretend = 0, frame = 8
 1303              		@ frame_needed = 1, uses_anonymous_args = 0
 1304              		@ link register save eliminated.
 1305 0000 80B4     		push	{r7}
 1306              	.LCFI27:
 1307              		.cfi_def_cfa_offset 4
 1308              		.cfi_offset 7, -4
 1309 0002 83B0     		sub	sp, sp, #12
 1310              	.LCFI28:
 1311              		.cfi_def_cfa_offset 16
 1312 0004 00AF     		add	r7, sp, #0
 1313              	.LCFI29:
 1314              		.cfi_def_cfa_register 7
 1315 0006 7860     		str	r0, [r7, #4]
 1316 0008 0B46     		mov	r3, r1
 1317 000a FB70     		strb	r3, [r7, #3]
 645:../STM32F10x_StdPeriph_Lib_V3.5.0/Libraries/STM32F10x_StdPeriph_Driver/src/stm32f10x_can.c ****   /* Check the parameters */
 646:../STM32F10x_StdPeriph_Lib_V3.5.0/Libraries/STM32F10x_StdPeriph_Driver/src/stm32f10x_can.c ****   assert_param(IS_CAN_ALL_PERIPH(CANx));
 647:../STM32F10x_StdPeriph_Lib_V3.5.0/Libraries/STM32F10x_StdPeriph_Driver/src/stm32f10x_can.c ****   assert_param(IS_CAN_TRANSMITMAILBOX(Mailbox));
 648:../STM32F10x_StdPeriph_Lib_V3.5.0/Libraries/STM32F10x_StdPeriph_Driver/src/stm32f10x_can.c ****   /* abort transmission */
 649:../STM32F10x_StdPeriph_Lib_V3.5.0/Libraries/STM32F10x_StdPeriph_Driver/src/stm32f10x_can.c ****   switch (Mailbox)
 1318              		.loc 1 649 0
 1319 000c FB78     		ldrb	r3, [r7, #3]	@ zero_extendqisi2
 1320 000e 012B     		cmp	r3, #1
 1321 0010 0AD0     		beq	.L81
 1322 0012 022B     		cmp	r3, #2
 1323 0014 0FD0     		beq	.L82
 1324 0016 002B     		cmp	r3, #0
 1325 0018 14D1     		bne	.L84
 1326              	.L80:
 650:../STM32F10x_StdPeriph_Lib_V3.5.0/Libraries/STM32F10x_StdPeriph_Driver/src/stm32f10x_can.c ****   {
 651:../STM32F10x_StdPeriph_Lib_V3.5.0/Libraries/STM32F10x_StdPeriph_Driver/src/stm32f10x_can.c ****     case (CAN_TXMAILBOX_0): CANx->TSR |= CAN_TSR_ABRQ0;
 1327              		.loc 1 651 0
 1328 001a 7B68     		ldr	r3, [r7, #4]
 1329 001c 9B68     		ldr	r3, [r3, #8]
 1330 001e 43F08002 		orr	r2, r3, #128
 1331 0022 7B68     		ldr	r3, [r7, #4]
 1332 0024 9A60     		str	r2, [r3, #8]
 652:../STM32F10x_StdPeriph_Lib_V3.5.0/Libraries/STM32F10x_StdPeriph_Driver/src/stm32f10x_can.c ****       break;
 1333              		.loc 1 652 0
 1334 0026 0EE0     		b	.L78
 1335              	.L81:
 653:../STM32F10x_StdPeriph_Lib_V3.5.0/Libraries/STM32F10x_StdPeriph_Driver/src/stm32f10x_can.c ****     case (CAN_TXMAILBOX_1): CANx->TSR |= CAN_TSR_ABRQ1;
 1336              		.loc 1 653 0
 1337 0028 7B68     		ldr	r3, [r7, #4]
 1338 002a 9B68     		ldr	r3, [r3, #8]
 1339 002c 43F40042 		orr	r2, r3, #32768
 1340 0030 7B68     		ldr	r3, [r7, #4]
 1341 0032 9A60     		str	r2, [r3, #8]
 654:../STM32F10x_StdPeriph_Lib_V3.5.0/Libraries/STM32F10x_StdPeriph_Driver/src/stm32f10x_can.c ****       break;
 1342              		.loc 1 654 0
 1343 0034 07E0     		b	.L78
 1344              	.L82:
 655:../STM32F10x_StdPeriph_Lib_V3.5.0/Libraries/STM32F10x_StdPeriph_Driver/src/stm32f10x_can.c ****     case (CAN_TXMAILBOX_2): CANx->TSR |= CAN_TSR_ABRQ2;
 1345              		.loc 1 655 0
 1346 0036 7B68     		ldr	r3, [r7, #4]
 1347 0038 9B68     		ldr	r3, [r3, #8]
 1348 003a 43F40002 		orr	r2, r3, #8388608
 1349 003e 7B68     		ldr	r3, [r7, #4]
 1350 0040 9A60     		str	r2, [r3, #8]
 656:../STM32F10x_StdPeriph_Lib_V3.5.0/Libraries/STM32F10x_StdPeriph_Driver/src/stm32f10x_can.c ****       break;
 1351              		.loc 1 656 0
 1352 0042 00E0     		b	.L78
 1353              	.L84:
 657:../STM32F10x_StdPeriph_Lib_V3.5.0/Libraries/STM32F10x_StdPeriph_Driver/src/stm32f10x_can.c ****     default:
 658:../STM32F10x_StdPeriph_Lib_V3.5.0/Libraries/STM32F10x_StdPeriph_Driver/src/stm32f10x_can.c ****       break;
 1354              		.loc 1 658 0
 1355 0044 00BF     		nop
 1356              	.L78:
 659:../STM32F10x_StdPeriph_Lib_V3.5.0/Libraries/STM32F10x_StdPeriph_Driver/src/stm32f10x_can.c ****   }
 660:../STM32F10x_StdPeriph_Lib_V3.5.0/Libraries/STM32F10x_StdPeriph_Driver/src/stm32f10x_can.c **** }
 1357              		.loc 1 660 0
 1358 0046 07F10C07 		add	r7, r7, #12
 1359 004a BD46     		mov	sp, r7
 1360 004c 80BC     		pop	{r7}
 1361 004e 7047     		bx	lr
 1362              		.cfi_endproc
 1363              	.LFE38:
 1365              		.section	.text.CAN_Receive,"ax",%progbits
 1366              		.align	2
 1367              		.global	CAN_Receive
 1368              		.thumb
 1369              		.thumb_func
 1371              	CAN_Receive:
 1372              	.LFB39:
 661:../STM32F10x_StdPeriph_Lib_V3.5.0/Libraries/STM32F10x_StdPeriph_Driver/src/stm32f10x_can.c **** 
 662:../STM32F10x_StdPeriph_Lib_V3.5.0/Libraries/STM32F10x_StdPeriph_Driver/src/stm32f10x_can.c **** 
 663:../STM32F10x_StdPeriph_Lib_V3.5.0/Libraries/STM32F10x_StdPeriph_Driver/src/stm32f10x_can.c **** /**
 664:../STM32F10x_StdPeriph_Lib_V3.5.0/Libraries/STM32F10x_StdPeriph_Driver/src/stm32f10x_can.c ****   * @brief  Receives a message.
 665:../STM32F10x_StdPeriph_Lib_V3.5.0/Libraries/STM32F10x_StdPeriph_Driver/src/stm32f10x_can.c ****   * @param  CANx:       where x can be 1 or 2 to to select the CAN peripheral.
 666:../STM32F10x_StdPeriph_Lib_V3.5.0/Libraries/STM32F10x_StdPeriph_Driver/src/stm32f10x_can.c ****   * @param  FIFONumber: Receive FIFO number, CAN_FIFO0 or CAN_FIFO1.
 667:../STM32F10x_StdPeriph_Lib_V3.5.0/Libraries/STM32F10x_StdPeriph_Driver/src/stm32f10x_can.c ****   * @param  RxMessage:  pointer to a structure receive message which contains 
 668:../STM32F10x_StdPeriph_Lib_V3.5.0/Libraries/STM32F10x_StdPeriph_Driver/src/stm32f10x_can.c ****   *                     CAN Id, CAN DLC, CAN datas and FMI number.
 669:../STM32F10x_StdPeriph_Lib_V3.5.0/Libraries/STM32F10x_StdPeriph_Driver/src/stm32f10x_can.c ****   * @retval None.
 670:../STM32F10x_StdPeriph_Lib_V3.5.0/Libraries/STM32F10x_StdPeriph_Driver/src/stm32f10x_can.c ****   */
 671:../STM32F10x_StdPeriph_Lib_V3.5.0/Libraries/STM32F10x_StdPeriph_Driver/src/stm32f10x_can.c **** void CAN_Receive(CAN_TypeDef* CANx, uint8_t FIFONumber, CanRxMsg* RxMessage)
 672:../STM32F10x_StdPeriph_Lib_V3.5.0/Libraries/STM32F10x_StdPeriph_Driver/src/stm32f10x_can.c **** {
 1373              		.loc 1 672 0
 1374              		.cfi_startproc
 1375              		@ args = 0, pretend = 0, frame = 16
 1376              		@ frame_needed = 1, uses_anonymous_args = 0
 1377              		@ link register save eliminated.
 1378 0000 80B4     		push	{r7}
 1379              	.LCFI30:
 1380              		.cfi_def_cfa_offset 4
 1381              		.cfi_offset 7, -4
 1382 0002 85B0     		sub	sp, sp, #20
 1383              	.LCFI31:
 1384              		.cfi_def_cfa_offset 24
 1385 0004 00AF     		add	r7, sp, #0
 1386              	.LCFI32:
 1387              		.cfi_def_cfa_register 7
 1388 0006 F860     		str	r0, [r7, #12]
 1389 0008 0B46     		mov	r3, r1
 1390 000a 7A60     		str	r2, [r7, #4]
 1391 000c FB72     		strb	r3, [r7, #11]
 673:../STM32F10x_StdPeriph_Lib_V3.5.0/Libraries/STM32F10x_StdPeriph_Driver/src/stm32f10x_can.c ****   /* Check the parameters */
 674:../STM32F10x_StdPeriph_Lib_V3.5.0/Libraries/STM32F10x_StdPeriph_Driver/src/stm32f10x_can.c ****   assert_param(IS_CAN_ALL_PERIPH(CANx));
 675:../STM32F10x_StdPeriph_Lib_V3.5.0/Libraries/STM32F10x_StdPeriph_Driver/src/stm32f10x_can.c ****   assert_param(IS_CAN_FIFO(FIFONumber));
 676:../STM32F10x_StdPeriph_Lib_V3.5.0/Libraries/STM32F10x_StdPeriph_Driver/src/stm32f10x_can.c ****   /* Get the Id */
 677:../STM32F10x_StdPeriph_Lib_V3.5.0/Libraries/STM32F10x_StdPeriph_Driver/src/stm32f10x_can.c ****   RxMessage->IDE = (uint8_t)0x04 & CANx->sFIFOMailBox[FIFONumber].RIR;
 1392              		.loc 1 677 0
 1393 000e FB7A     		ldrb	r3, [r7, #11]	@ zero_extendqisi2
 1394 0010 FA68     		ldr	r2, [r7, #12]
 1395 0012 03F11B03 		add	r3, r3, #27
 1396 0016 4FEA0313 		lsl	r3, r3, #4
 1397 001a D318     		adds	r3, r2, r3
 1398 001c 1B68     		ldr	r3, [r3, #0]
 1399 001e DBB2     		uxtb	r3, r3
 1400 0020 03F00403 		and	r3, r3, #4
 1401 0024 DAB2     		uxtb	r2, r3
 1402 0026 7B68     		ldr	r3, [r7, #4]
 1403 0028 1A72     		strb	r2, [r3, #8]
 678:../STM32F10x_StdPeriph_Lib_V3.5.0/Libraries/STM32F10x_StdPeriph_Driver/src/stm32f10x_can.c ****   if (RxMessage->IDE == CAN_Id_Standard)
 1404              		.loc 1 678 0
 1405 002a 7B68     		ldr	r3, [r7, #4]
 1406 002c 1B7A     		ldrb	r3, [r3, #8]	@ zero_extendqisi2
 1407 002e 002B     		cmp	r3, #0
 1408 0030 0CD1     		bne	.L86
 679:../STM32F10x_StdPeriph_Lib_V3.5.0/Libraries/STM32F10x_StdPeriph_Driver/src/stm32f10x_can.c ****   {
 680:../STM32F10x_StdPeriph_Lib_V3.5.0/Libraries/STM32F10x_StdPeriph_Driver/src/stm32f10x_can.c ****     RxMessage->StdId = (uint32_t)0x000007FF & (CANx->sFIFOMailBox[FIFONumber].RIR >> 21);
 1409              		.loc 1 680 0
 1410 0032 FB7A     		ldrb	r3, [r7, #11]	@ zero_extendqisi2
 1411 0034 FA68     		ldr	r2, [r7, #12]
 1412 0036 03F11B03 		add	r3, r3, #27
 1413 003a 4FEA0313 		lsl	r3, r3, #4
 1414 003e D318     		adds	r3, r2, r3
 1415 0040 1B68     		ldr	r3, [r3, #0]
 1416 0042 4FEA5352 		lsr	r2, r3, #21
 1417 0046 7B68     		ldr	r3, [r7, #4]
 1418 0048 1A60     		str	r2, [r3, #0]
 1419 004a 0BE0     		b	.L87
 1420              	.L86:
 681:../STM32F10x_StdPeriph_Lib_V3.5.0/Libraries/STM32F10x_StdPeriph_Driver/src/stm32f10x_can.c ****   }
 682:../STM32F10x_StdPeriph_Lib_V3.5.0/Libraries/STM32F10x_StdPeriph_Driver/src/stm32f10x_can.c ****   else
 683:../STM32F10x_StdPeriph_Lib_V3.5.0/Libraries/STM32F10x_StdPeriph_Driver/src/stm32f10x_can.c ****   {
 684:../STM32F10x_StdPeriph_Lib_V3.5.0/Libraries/STM32F10x_StdPeriph_Driver/src/stm32f10x_can.c ****     RxMessage->ExtId = (uint32_t)0x1FFFFFFF & (CANx->sFIFOMailBox[FIFONumber].RIR >> 3);
 1421              		.loc 1 684 0
 1422 004c FB7A     		ldrb	r3, [r7, #11]	@ zero_extendqisi2
 1423 004e FA68     		ldr	r2, [r7, #12]
 1424 0050 03F11B03 		add	r3, r3, #27
 1425 0054 4FEA0313 		lsl	r3, r3, #4
 1426 0058 D318     		adds	r3, r2, r3
 1427 005a 1B68     		ldr	r3, [r3, #0]
 1428 005c 4FEAD302 		lsr	r2, r3, #3
 1429 0060 7B68     		ldr	r3, [r7, #4]
 1430 0062 5A60     		str	r2, [r3, #4]
 1431              	.L87:
 685:../STM32F10x_StdPeriph_Lib_V3.5.0/Libraries/STM32F10x_StdPeriph_Driver/src/stm32f10x_can.c ****   }
 686:../STM32F10x_StdPeriph_Lib_V3.5.0/Libraries/STM32F10x_StdPeriph_Driver/src/stm32f10x_can.c ****   
 687:../STM32F10x_StdPeriph_Lib_V3.5.0/Libraries/STM32F10x_StdPeriph_Driver/src/stm32f10x_can.c ****   RxMessage->RTR = (uint8_t)0x02 & CANx->sFIFOMailBox[FIFONumber].RIR;
 1432              		.loc 1 687 0
 1433 0064 FB7A     		ldrb	r3, [r7, #11]	@ zero_extendqisi2
 1434 0066 FA68     		ldr	r2, [r7, #12]
 1435 0068 03F11B03 		add	r3, r3, #27
 1436 006c 4FEA0313 		lsl	r3, r3, #4
 1437 0070 D318     		adds	r3, r2, r3
 1438 0072 1B68     		ldr	r3, [r3, #0]
 1439 0074 DBB2     		uxtb	r3, r3
 1440 0076 03F00203 		and	r3, r3, #2
 1441 007a DAB2     		uxtb	r2, r3
 1442 007c 7B68     		ldr	r3, [r7, #4]
 1443 007e 5A72     		strb	r2, [r3, #9]
 688:../STM32F10x_StdPeriph_Lib_V3.5.0/Libraries/STM32F10x_StdPeriph_Driver/src/stm32f10x_can.c ****   /* Get the DLC */
 689:../STM32F10x_StdPeriph_Lib_V3.5.0/Libraries/STM32F10x_StdPeriph_Driver/src/stm32f10x_can.c ****   RxMessage->DLC = (uint8_t)0x0F & CANx->sFIFOMailBox[FIFONumber].RDTR;
 1444              		.loc 1 689 0
 1445 0080 FB7A     		ldrb	r3, [r7, #11]	@ zero_extendqisi2
 1446 0082 FA68     		ldr	r2, [r7, #12]
 1447 0084 03F11B03 		add	r3, r3, #27
 1448 0088 4FEA0313 		lsl	r3, r3, #4
 1449 008c D318     		adds	r3, r2, r3
 1450 008e 5B68     		ldr	r3, [r3, #4]
 1451 0090 DBB2     		uxtb	r3, r3
 1452 0092 03F00F03 		and	r3, r3, #15
 1453 0096 DAB2     		uxtb	r2, r3
 1454 0098 7B68     		ldr	r3, [r7, #4]
 1455 009a 9A72     		strb	r2, [r3, #10]
 690:../STM32F10x_StdPeriph_Lib_V3.5.0/Libraries/STM32F10x_StdPeriph_Driver/src/stm32f10x_can.c ****   /* Get the FMI */
 691:../STM32F10x_StdPeriph_Lib_V3.5.0/Libraries/STM32F10x_StdPeriph_Driver/src/stm32f10x_can.c ****   RxMessage->FMI = (uint8_t)0xFF & (CANx->sFIFOMailBox[FIFONumber].RDTR >> 8);
 1456              		.loc 1 691 0
 1457 009c FB7A     		ldrb	r3, [r7, #11]	@ zero_extendqisi2
 1458 009e FA68     		ldr	r2, [r7, #12]
 1459 00a0 03F11B03 		add	r3, r3, #27
 1460 00a4 4FEA0313 		lsl	r3, r3, #4
 1461 00a8 D318     		adds	r3, r2, r3
 1462 00aa 5B68     		ldr	r3, [r3, #4]
 1463 00ac 4FEA1323 		lsr	r3, r3, #8
 1464 00b0 DAB2     		uxtb	r2, r3
 1465 00b2 7B68     		ldr	r3, [r7, #4]
 1466 00b4 DA74     		strb	r2, [r3, #19]
 692:../STM32F10x_StdPeriph_Lib_V3.5.0/Libraries/STM32F10x_StdPeriph_Driver/src/stm32f10x_can.c ****   /* Get the data field */
 693:../STM32F10x_StdPeriph_Lib_V3.5.0/Libraries/STM32F10x_StdPeriph_Driver/src/stm32f10x_can.c ****   RxMessage->Data[0] = (uint8_t)0xFF & CANx->sFIFOMailBox[FIFONumber].RDLR;
 1467              		.loc 1 693 0
 1468 00b6 FB7A     		ldrb	r3, [r7, #11]	@ zero_extendqisi2
 1469 00b8 FA68     		ldr	r2, [r7, #12]
 1470 00ba 4FEA0313 		lsl	r3, r3, #4
 1471 00be D318     		adds	r3, r2, r3
 1472 00c0 03F5DC73 		add	r3, r3, #440
 1473 00c4 1B68     		ldr	r3, [r3, #0]
 1474 00c6 DAB2     		uxtb	r2, r3
 1475 00c8 7B68     		ldr	r3, [r7, #4]
 1476 00ca DA72     		strb	r2, [r3, #11]
 694:../STM32F10x_StdPeriph_Lib_V3.5.0/Libraries/STM32F10x_StdPeriph_Driver/src/stm32f10x_can.c ****   RxMessage->Data[1] = (uint8_t)0xFF & (CANx->sFIFOMailBox[FIFONumber].RDLR >> 8);
 1477              		.loc 1 694 0
 1478 00cc FB7A     		ldrb	r3, [r7, #11]	@ zero_extendqisi2
 1479 00ce FA68     		ldr	r2, [r7, #12]
 1480 00d0 4FEA0313 		lsl	r3, r3, #4
 1481 00d4 D318     		adds	r3, r2, r3
 1482 00d6 03F5DC73 		add	r3, r3, #440
 1483 00da 1B68     		ldr	r3, [r3, #0]
 1484 00dc 4FEA1323 		lsr	r3, r3, #8
 1485 00e0 DAB2     		uxtb	r2, r3
 1486 00e2 7B68     		ldr	r3, [r7, #4]
 1487 00e4 1A73     		strb	r2, [r3, #12]
 695:../STM32F10x_StdPeriph_Lib_V3.5.0/Libraries/STM32F10x_StdPeriph_Driver/src/stm32f10x_can.c ****   RxMessage->Data[2] = (uint8_t)0xFF & (CANx->sFIFOMailBox[FIFONumber].RDLR >> 16);
 1488              		.loc 1 695 0
 1489 00e6 FB7A     		ldrb	r3, [r7, #11]	@ zero_extendqisi2
 1490 00e8 FA68     		ldr	r2, [r7, #12]
 1491 00ea 4FEA0313 		lsl	r3, r3, #4
 1492 00ee D318     		adds	r3, r2, r3
 1493 00f0 03F5DC73 		add	r3, r3, #440
 1494 00f4 1B68     		ldr	r3, [r3, #0]
 1495 00f6 4FEA1343 		lsr	r3, r3, #16
 1496 00fa DAB2     		uxtb	r2, r3
 1497 00fc 7B68     		ldr	r3, [r7, #4]
 1498 00fe 5A73     		strb	r2, [r3, #13]
 696:../STM32F10x_StdPeriph_Lib_V3.5.0/Libraries/STM32F10x_StdPeriph_Driver/src/stm32f10x_can.c ****   RxMessage->Data[3] = (uint8_t)0xFF & (CANx->sFIFOMailBox[FIFONumber].RDLR >> 24);
 1499              		.loc 1 696 0
 1500 0100 FB7A     		ldrb	r3, [r7, #11]	@ zero_extendqisi2
 1501 0102 FA68     		ldr	r2, [r7, #12]
 1502 0104 4FEA0313 		lsl	r3, r3, #4
 1503 0108 D318     		adds	r3, r2, r3
 1504 010a 03F5DC73 		add	r3, r3, #440
 1505 010e 1B68     		ldr	r3, [r3, #0]
 1506 0110 4FEA1363 		lsr	r3, r3, #24
 1507 0114 DAB2     		uxtb	r2, r3
 1508 0116 7B68     		ldr	r3, [r7, #4]
 1509 0118 9A73     		strb	r2, [r3, #14]
 697:../STM32F10x_StdPeriph_Lib_V3.5.0/Libraries/STM32F10x_StdPeriph_Driver/src/stm32f10x_can.c ****   RxMessage->Data[4] = (uint8_t)0xFF & CANx->sFIFOMailBox[FIFONumber].RDHR;
 1510              		.loc 1 697 0
 1511 011a FB7A     		ldrb	r3, [r7, #11]	@ zero_extendqisi2
 1512 011c FA68     		ldr	r2, [r7, #12]
 1513 011e 4FEA0313 		lsl	r3, r3, #4
 1514 0122 D318     		adds	r3, r2, r3
 1515 0124 03F5DC73 		add	r3, r3, #440
 1516 0128 5B68     		ldr	r3, [r3, #4]
 1517 012a DAB2     		uxtb	r2, r3
 1518 012c 7B68     		ldr	r3, [r7, #4]
 1519 012e DA73     		strb	r2, [r3, #15]
 698:../STM32F10x_StdPeriph_Lib_V3.5.0/Libraries/STM32F10x_StdPeriph_Driver/src/stm32f10x_can.c ****   RxMessage->Data[5] = (uint8_t)0xFF & (CANx->sFIFOMailBox[FIFONumber].RDHR >> 8);
 1520              		.loc 1 698 0
 1521 0130 FB7A     		ldrb	r3, [r7, #11]	@ zero_extendqisi2
 1522 0132 FA68     		ldr	r2, [r7, #12]
 1523 0134 4FEA0313 		lsl	r3, r3, #4
 1524 0138 D318     		adds	r3, r2, r3
 1525 013a 03F5DC73 		add	r3, r3, #440
 1526 013e 5B68     		ldr	r3, [r3, #4]
 1527 0140 4FEA1323 		lsr	r3, r3, #8
 1528 0144 DAB2     		uxtb	r2, r3
 1529 0146 7B68     		ldr	r3, [r7, #4]
 1530 0148 1A74     		strb	r2, [r3, #16]
 699:../STM32F10x_StdPeriph_Lib_V3.5.0/Libraries/STM32F10x_StdPeriph_Driver/src/stm32f10x_can.c ****   RxMessage->Data[6] = (uint8_t)0xFF & (CANx->sFIFOMailBox[FIFONumber].RDHR >> 16);
 1531              		.loc 1 699 0
 1532 014a FB7A     		ldrb	r3, [r7, #11]	@ zero_extendqisi2
 1533 014c FA68     		ldr	r2, [r7, #12]
 1534 014e 4FEA0313 		lsl	r3, r3, #4
 1535 0152 D318     		adds	r3, r2, r3
 1536 0154 03F5DC73 		add	r3, r3, #440
 1537 0158 5B68     		ldr	r3, [r3, #4]
 1538 015a 4FEA1343 		lsr	r3, r3, #16
 1539 015e DAB2     		uxtb	r2, r3
 1540 0160 7B68     		ldr	r3, [r7, #4]
 1541 0162 5A74     		strb	r2, [r3, #17]
 700:../STM32F10x_StdPeriph_Lib_V3.5.0/Libraries/STM32F10x_StdPeriph_Driver/src/stm32f10x_can.c ****   RxMessage->Data[7] = (uint8_t)0xFF & (CANx->sFIFOMailBox[FIFONumber].RDHR >> 24);
 1542              		.loc 1 700 0
 1543 0164 FB7A     		ldrb	r3, [r7, #11]	@ zero_extendqisi2
 1544 0166 FA68     		ldr	r2, [r7, #12]
 1545 0168 4FEA0313 		lsl	r3, r3, #4
 1546 016c D318     		adds	r3, r2, r3
 1547 016e 03F5DC73 		add	r3, r3, #440
 1548 0172 5B68     		ldr	r3, [r3, #4]
 1549 0174 4FEA1363 		lsr	r3, r3, #24
 1550 0178 DAB2     		uxtb	r2, r3
 1551 017a 7B68     		ldr	r3, [r7, #4]
 1552 017c 9A74     		strb	r2, [r3, #18]
 701:../STM32F10x_StdPeriph_Lib_V3.5.0/Libraries/STM32F10x_StdPeriph_Driver/src/stm32f10x_can.c ****   /* Release the FIFO */
 702:../STM32F10x_StdPeriph_Lib_V3.5.0/Libraries/STM32F10x_StdPeriph_Driver/src/stm32f10x_can.c ****   /* Release FIFO0 */
 703:../STM32F10x_StdPeriph_Lib_V3.5.0/Libraries/STM32F10x_StdPeriph_Driver/src/stm32f10x_can.c ****   if (FIFONumber == CAN_FIFO0)
 1553              		.loc 1 703 0
 1554 017e FB7A     		ldrb	r3, [r7, #11]	@ zero_extendqisi2
 1555 0180 002B     		cmp	r3, #0
 1556 0182 06D1     		bne	.L88
 704:../STM32F10x_StdPeriph_Lib_V3.5.0/Libraries/STM32F10x_StdPeriph_Driver/src/stm32f10x_can.c ****   {
 705:../STM32F10x_StdPeriph_Lib_V3.5.0/Libraries/STM32F10x_StdPeriph_Driver/src/stm32f10x_can.c ****     CANx->RF0R |= CAN_RF0R_RFOM0;
 1557              		.loc 1 705 0
 1558 0184 FB68     		ldr	r3, [r7, #12]
 1559 0186 DB68     		ldr	r3, [r3, #12]
 1560 0188 43F02002 		orr	r2, r3, #32
 1561 018c FB68     		ldr	r3, [r7, #12]
 1562 018e DA60     		str	r2, [r3, #12]
 1563 0190 05E0     		b	.L85
 1564              	.L88:
 706:../STM32F10x_StdPeriph_Lib_V3.5.0/Libraries/STM32F10x_StdPeriph_Driver/src/stm32f10x_can.c ****   }
 707:../STM32F10x_StdPeriph_Lib_V3.5.0/Libraries/STM32F10x_StdPeriph_Driver/src/stm32f10x_can.c ****   /* Release FIFO1 */
 708:../STM32F10x_StdPeriph_Lib_V3.5.0/Libraries/STM32F10x_StdPeriph_Driver/src/stm32f10x_can.c ****   else /* FIFONumber == CAN_FIFO1 */
 709:../STM32F10x_StdPeriph_Lib_V3.5.0/Libraries/STM32F10x_StdPeriph_Driver/src/stm32f10x_can.c ****   {
 710:../STM32F10x_StdPeriph_Lib_V3.5.0/Libraries/STM32F10x_StdPeriph_Driver/src/stm32f10x_can.c ****     CANx->RF1R |= CAN_RF1R_RFOM1;
 1565              		.loc 1 710 0
 1566 0192 FB68     		ldr	r3, [r7, #12]
 1567 0194 1B69     		ldr	r3, [r3, #16]
 1568 0196 43F02002 		orr	r2, r3, #32
 1569 019a FB68     		ldr	r3, [r7, #12]
 1570 019c 1A61     		str	r2, [r3, #16]
 1571              	.L85:
 711:../STM32F10x_StdPeriph_Lib_V3.5.0/Libraries/STM32F10x_StdPeriph_Driver/src/stm32f10x_can.c ****   }
 712:../STM32F10x_StdPeriph_Lib_V3.5.0/Libraries/STM32F10x_StdPeriph_Driver/src/stm32f10x_can.c **** }
 1572              		.loc 1 712 0
 1573 019e 07F11407 		add	r7, r7, #20
 1574 01a2 BD46     		mov	sp, r7
 1575 01a4 80BC     		pop	{r7}
 1576 01a6 7047     		bx	lr
 1577              		.cfi_endproc
 1578              	.LFE39:
 1580              		.section	.text.CAN_FIFORelease,"ax",%progbits
 1581              		.align	2
 1582              		.global	CAN_FIFORelease
 1583              		.thumb
 1584              		.thumb_func
 1586              	CAN_FIFORelease:
 1587              	.LFB40:
 713:../STM32F10x_StdPeriph_Lib_V3.5.0/Libraries/STM32F10x_StdPeriph_Driver/src/stm32f10x_can.c **** 
 714:../STM32F10x_StdPeriph_Lib_V3.5.0/Libraries/STM32F10x_StdPeriph_Driver/src/stm32f10x_can.c **** /**
 715:../STM32F10x_StdPeriph_Lib_V3.5.0/Libraries/STM32F10x_StdPeriph_Driver/src/stm32f10x_can.c ****   * @brief  Releases the specified FIFO.
 716:../STM32F10x_StdPeriph_Lib_V3.5.0/Libraries/STM32F10x_StdPeriph_Driver/src/stm32f10x_can.c ****   * @param  CANx:       where x can be 1 or 2 to to select the CAN peripheral. 
 717:../STM32F10x_StdPeriph_Lib_V3.5.0/Libraries/STM32F10x_StdPeriph_Driver/src/stm32f10x_can.c ****   * @param  FIFONumber: FIFO to release, CAN_FIFO0 or CAN_FIFO1.
 718:../STM32F10x_StdPeriph_Lib_V3.5.0/Libraries/STM32F10x_StdPeriph_Driver/src/stm32f10x_can.c ****   * @retval None.
 719:../STM32F10x_StdPeriph_Lib_V3.5.0/Libraries/STM32F10x_StdPeriph_Driver/src/stm32f10x_can.c ****   */
 720:../STM32F10x_StdPeriph_Lib_V3.5.0/Libraries/STM32F10x_StdPeriph_Driver/src/stm32f10x_can.c **** void CAN_FIFORelease(CAN_TypeDef* CANx, uint8_t FIFONumber)
 721:../STM32F10x_StdPeriph_Lib_V3.5.0/Libraries/STM32F10x_StdPeriph_Driver/src/stm32f10x_can.c **** {
 1588              		.loc 1 721 0
 1589              		.cfi_startproc
 1590              		@ args = 0, pretend = 0, frame = 8
 1591              		@ frame_needed = 1, uses_anonymous_args = 0
 1592              		@ link register save eliminated.
 1593 0000 80B4     		push	{r7}
 1594              	.LCFI33:
 1595              		.cfi_def_cfa_offset 4
 1596              		.cfi_offset 7, -4
 1597 0002 83B0     		sub	sp, sp, #12
 1598              	.LCFI34:
 1599              		.cfi_def_cfa_offset 16
 1600 0004 00AF     		add	r7, sp, #0
 1601              	.LCFI35:
 1602              		.cfi_def_cfa_register 7
 1603 0006 7860     		str	r0, [r7, #4]
 1604 0008 0B46     		mov	r3, r1
 1605 000a FB70     		strb	r3, [r7, #3]
 722:../STM32F10x_StdPeriph_Lib_V3.5.0/Libraries/STM32F10x_StdPeriph_Driver/src/stm32f10x_can.c ****   /* Check the parameters */
 723:../STM32F10x_StdPeriph_Lib_V3.5.0/Libraries/STM32F10x_StdPeriph_Driver/src/stm32f10x_can.c ****   assert_param(IS_CAN_ALL_PERIPH(CANx));
 724:../STM32F10x_StdPeriph_Lib_V3.5.0/Libraries/STM32F10x_StdPeriph_Driver/src/stm32f10x_can.c ****   assert_param(IS_CAN_FIFO(FIFONumber));
 725:../STM32F10x_StdPeriph_Lib_V3.5.0/Libraries/STM32F10x_StdPeriph_Driver/src/stm32f10x_can.c ****   /* Release FIFO0 */
 726:../STM32F10x_StdPeriph_Lib_V3.5.0/Libraries/STM32F10x_StdPeriph_Driver/src/stm32f10x_can.c ****   if (FIFONumber == CAN_FIFO0)
 1606              		.loc 1 726 0
 1607 000c FB78     		ldrb	r3, [r7, #3]	@ zero_extendqisi2
 1608 000e 002B     		cmp	r3, #0
 1609 0010 06D1     		bne	.L91
 727:../STM32F10x_StdPeriph_Lib_V3.5.0/Libraries/STM32F10x_StdPeriph_Driver/src/stm32f10x_can.c ****   {
 728:../STM32F10x_StdPeriph_Lib_V3.5.0/Libraries/STM32F10x_StdPeriph_Driver/src/stm32f10x_can.c ****     CANx->RF0R |= CAN_RF0R_RFOM0;
 1610              		.loc 1 728 0
 1611 0012 7B68     		ldr	r3, [r7, #4]
 1612 0014 DB68     		ldr	r3, [r3, #12]
 1613 0016 43F02002 		orr	r2, r3, #32
 1614 001a 7B68     		ldr	r3, [r7, #4]
 1615 001c DA60     		str	r2, [r3, #12]
 1616 001e 05E0     		b	.L90
 1617              	.L91:
 729:../STM32F10x_StdPeriph_Lib_V3.5.0/Libraries/STM32F10x_StdPeriph_Driver/src/stm32f10x_can.c ****   }
 730:../STM32F10x_StdPeriph_Lib_V3.5.0/Libraries/STM32F10x_StdPeriph_Driver/src/stm32f10x_can.c ****   /* Release FIFO1 */
 731:../STM32F10x_StdPeriph_Lib_V3.5.0/Libraries/STM32F10x_StdPeriph_Driver/src/stm32f10x_can.c ****   else /* FIFONumber == CAN_FIFO1 */
 732:../STM32F10x_StdPeriph_Lib_V3.5.0/Libraries/STM32F10x_StdPeriph_Driver/src/stm32f10x_can.c ****   {
 733:../STM32F10x_StdPeriph_Lib_V3.5.0/Libraries/STM32F10x_StdPeriph_Driver/src/stm32f10x_can.c ****     CANx->RF1R |= CAN_RF1R_RFOM1;
 1618              		.loc 1 733 0
 1619 0020 7B68     		ldr	r3, [r7, #4]
 1620 0022 1B69     		ldr	r3, [r3, #16]
 1621 0024 43F02002 		orr	r2, r3, #32
 1622 0028 7B68     		ldr	r3, [r7, #4]
 1623 002a 1A61     		str	r2, [r3, #16]
 1624              	.L90:
 734:../STM32F10x_StdPeriph_Lib_V3.5.0/Libraries/STM32F10x_StdPeriph_Driver/src/stm32f10x_can.c ****   }
 735:../STM32F10x_StdPeriph_Lib_V3.5.0/Libraries/STM32F10x_StdPeriph_Driver/src/stm32f10x_can.c **** }
 1625              		.loc 1 735 0
 1626 002c 07F10C07 		add	r7, r7, #12
 1627 0030 BD46     		mov	sp, r7
 1628 0032 80BC     		pop	{r7}
 1629 0034 7047     		bx	lr
 1630              		.cfi_endproc
 1631              	.LFE40:
 1633 0036 00BF     		.section	.text.CAN_MessagePending,"ax",%progbits
 1634              		.align	2
 1635              		.global	CAN_MessagePending
 1636              		.thumb
 1637              		.thumb_func
 1639              	CAN_MessagePending:
 1640              	.LFB41:
 736:../STM32F10x_StdPeriph_Lib_V3.5.0/Libraries/STM32F10x_StdPeriph_Driver/src/stm32f10x_can.c **** 
 737:../STM32F10x_StdPeriph_Lib_V3.5.0/Libraries/STM32F10x_StdPeriph_Driver/src/stm32f10x_can.c **** /**
 738:../STM32F10x_StdPeriph_Lib_V3.5.0/Libraries/STM32F10x_StdPeriph_Driver/src/stm32f10x_can.c ****   * @brief  Returns the number of pending messages.
 739:../STM32F10x_StdPeriph_Lib_V3.5.0/Libraries/STM32F10x_StdPeriph_Driver/src/stm32f10x_can.c ****   * @param  CANx:       where x can be 1 or 2 to to select the CAN peripheral.
 740:../STM32F10x_StdPeriph_Lib_V3.5.0/Libraries/STM32F10x_StdPeriph_Driver/src/stm32f10x_can.c ****   * @param  FIFONumber: Receive FIFO number, CAN_FIFO0 or CAN_FIFO1.
 741:../STM32F10x_StdPeriph_Lib_V3.5.0/Libraries/STM32F10x_StdPeriph_Driver/src/stm32f10x_can.c ****   * @retval NbMessage : which is the number of pending message.
 742:../STM32F10x_StdPeriph_Lib_V3.5.0/Libraries/STM32F10x_StdPeriph_Driver/src/stm32f10x_can.c ****   */
 743:../STM32F10x_StdPeriph_Lib_V3.5.0/Libraries/STM32F10x_StdPeriph_Driver/src/stm32f10x_can.c **** uint8_t CAN_MessagePending(CAN_TypeDef* CANx, uint8_t FIFONumber)
 744:../STM32F10x_StdPeriph_Lib_V3.5.0/Libraries/STM32F10x_StdPeriph_Driver/src/stm32f10x_can.c **** {
 1641              		.loc 1 744 0
 1642              		.cfi_startproc
 1643              		@ args = 0, pretend = 0, frame = 16
 1644              		@ frame_needed = 1, uses_anonymous_args = 0
 1645              		@ link register save eliminated.
 1646 0000 80B4     		push	{r7}
 1647              	.LCFI36:
 1648              		.cfi_def_cfa_offset 4
 1649              		.cfi_offset 7, -4
 1650 0002 85B0     		sub	sp, sp, #20
 1651              	.LCFI37:
 1652              		.cfi_def_cfa_offset 24
 1653 0004 00AF     		add	r7, sp, #0
 1654              	.LCFI38:
 1655              		.cfi_def_cfa_register 7
 1656 0006 7860     		str	r0, [r7, #4]
 1657 0008 0B46     		mov	r3, r1
 1658 000a FB70     		strb	r3, [r7, #3]
 745:../STM32F10x_StdPeriph_Lib_V3.5.0/Libraries/STM32F10x_StdPeriph_Driver/src/stm32f10x_can.c ****   uint8_t message_pending=0;
 1659              		.loc 1 745 0
 1660 000c 4FF00003 		mov	r3, #0
 1661 0010 FB73     		strb	r3, [r7, #15]
 746:../STM32F10x_StdPeriph_Lib_V3.5.0/Libraries/STM32F10x_StdPeriph_Driver/src/stm32f10x_can.c ****   /* Check the parameters */
 747:../STM32F10x_StdPeriph_Lib_V3.5.0/Libraries/STM32F10x_StdPeriph_Driver/src/stm32f10x_can.c ****   assert_param(IS_CAN_ALL_PERIPH(CANx));
 748:../STM32F10x_StdPeriph_Lib_V3.5.0/Libraries/STM32F10x_StdPeriph_Driver/src/stm32f10x_can.c ****   assert_param(IS_CAN_FIFO(FIFONumber));
 749:../STM32F10x_StdPeriph_Lib_V3.5.0/Libraries/STM32F10x_StdPeriph_Driver/src/stm32f10x_can.c ****   if (FIFONumber == CAN_FIFO0)
 1662              		.loc 1 749 0
 1663 0012 FB78     		ldrb	r3, [r7, #3]	@ zero_extendqisi2
 1664 0014 002B     		cmp	r3, #0
 1665 0016 06D1     		bne	.L94
 750:../STM32F10x_StdPeriph_Lib_V3.5.0/Libraries/STM32F10x_StdPeriph_Driver/src/stm32f10x_can.c ****   {
 751:../STM32F10x_StdPeriph_Lib_V3.5.0/Libraries/STM32F10x_StdPeriph_Driver/src/stm32f10x_can.c ****     message_pending = (uint8_t)(CANx->RF0R&(uint32_t)0x03);
 1666              		.loc 1 751 0
 1667 0018 7B68     		ldr	r3, [r7, #4]
 1668 001a DB68     		ldr	r3, [r3, #12]
 1669 001c DBB2     		uxtb	r3, r3
 1670 001e 03F00303 		and	r3, r3, #3
 1671 0022 FB73     		strb	r3, [r7, #15]
 1672 0024 0CE0     		b	.L95
 1673              	.L94:
 752:../STM32F10x_StdPeriph_Lib_V3.5.0/Libraries/STM32F10x_StdPeriph_Driver/src/stm32f10x_can.c ****   }
 753:../STM32F10x_StdPeriph_Lib_V3.5.0/Libraries/STM32F10x_StdPeriph_Driver/src/stm32f10x_can.c ****   else if (FIFONumber == CAN_FIFO1)
 1674              		.loc 1 753 0
 1675 0026 FB78     		ldrb	r3, [r7, #3]	@ zero_extendqisi2
 1676 0028 012B     		cmp	r3, #1
 1677 002a 06D1     		bne	.L96
 754:../STM32F10x_StdPeriph_Lib_V3.5.0/Libraries/STM32F10x_StdPeriph_Driver/src/stm32f10x_can.c ****   {
 755:../STM32F10x_StdPeriph_Lib_V3.5.0/Libraries/STM32F10x_StdPeriph_Driver/src/stm32f10x_can.c ****     message_pending = (uint8_t)(CANx->RF1R&(uint32_t)0x03);
 1678              		.loc 1 755 0
 1679 002c 7B68     		ldr	r3, [r7, #4]
 1680 002e 1B69     		ldr	r3, [r3, #16]
 1681 0030 DBB2     		uxtb	r3, r3
 1682 0032 03F00303 		and	r3, r3, #3
 1683 0036 FB73     		strb	r3, [r7, #15]
 1684 0038 02E0     		b	.L95
 1685              	.L96:
 756:../STM32F10x_StdPeriph_Lib_V3.5.0/Libraries/STM32F10x_StdPeriph_Driver/src/stm32f10x_can.c ****   }
 757:../STM32F10x_StdPeriph_Lib_V3.5.0/Libraries/STM32F10x_StdPeriph_Driver/src/stm32f10x_can.c ****   else
 758:../STM32F10x_StdPeriph_Lib_V3.5.0/Libraries/STM32F10x_StdPeriph_Driver/src/stm32f10x_can.c ****   {
 759:../STM32F10x_StdPeriph_Lib_V3.5.0/Libraries/STM32F10x_StdPeriph_Driver/src/stm32f10x_can.c ****     message_pending = 0;
 1686              		.loc 1 759 0
 1687 003a 4FF00003 		mov	r3, #0
 1688 003e FB73     		strb	r3, [r7, #15]
 1689              	.L95:
 760:../STM32F10x_StdPeriph_Lib_V3.5.0/Libraries/STM32F10x_StdPeriph_Driver/src/stm32f10x_can.c ****   }
 761:../STM32F10x_StdPeriph_Lib_V3.5.0/Libraries/STM32F10x_StdPeriph_Driver/src/stm32f10x_can.c ****   return message_pending;
 1690              		.loc 1 761 0
 1691 0040 FB7B     		ldrb	r3, [r7, #15]	@ zero_extendqisi2
 762:../STM32F10x_StdPeriph_Lib_V3.5.0/Libraries/STM32F10x_StdPeriph_Driver/src/stm32f10x_can.c **** }
 1692              		.loc 1 762 0
 1693 0042 1846     		mov	r0, r3
 1694 0044 07F11407 		add	r7, r7, #20
 1695 0048 BD46     		mov	sp, r7
 1696 004a 80BC     		pop	{r7}
 1697 004c 7047     		bx	lr
 1698              		.cfi_endproc
 1699              	.LFE41:
 1701 004e 00BF     		.section	.text.CAN_OperatingModeRequest,"ax",%progbits
 1702              		.align	2
 1703              		.global	CAN_OperatingModeRequest
 1704              		.thumb
 1705              		.thumb_func
 1707              	CAN_OperatingModeRequest:
 1708              	.LFB42:
 763:../STM32F10x_StdPeriph_Lib_V3.5.0/Libraries/STM32F10x_StdPeriph_Driver/src/stm32f10x_can.c **** 
 764:../STM32F10x_StdPeriph_Lib_V3.5.0/Libraries/STM32F10x_StdPeriph_Driver/src/stm32f10x_can.c **** 
 765:../STM32F10x_StdPeriph_Lib_V3.5.0/Libraries/STM32F10x_StdPeriph_Driver/src/stm32f10x_can.c **** /**
 766:../STM32F10x_StdPeriph_Lib_V3.5.0/Libraries/STM32F10x_StdPeriph_Driver/src/stm32f10x_can.c ****   * @brief   Select the CAN Operation mode.
 767:../STM32F10x_StdPeriph_Lib_V3.5.0/Libraries/STM32F10x_StdPeriph_Driver/src/stm32f10x_can.c ****   * @param CAN_OperatingMode : CAN Operating Mode. This parameter can be one 
 768:../STM32F10x_StdPeriph_Lib_V3.5.0/Libraries/STM32F10x_StdPeriph_Driver/src/stm32f10x_can.c ****   *                            of @ref CAN_OperatingMode_TypeDef enumeration.
 769:../STM32F10x_StdPeriph_Lib_V3.5.0/Libraries/STM32F10x_StdPeriph_Driver/src/stm32f10x_can.c ****   * @retval status of the requested mode which can be 
 770:../STM32F10x_StdPeriph_Lib_V3.5.0/Libraries/STM32F10x_StdPeriph_Driver/src/stm32f10x_can.c ****   *         - CAN_ModeStatus_Failed    CAN failed entering the specific mode 
 771:../STM32F10x_StdPeriph_Lib_V3.5.0/Libraries/STM32F10x_StdPeriph_Driver/src/stm32f10x_can.c ****   *         - CAN_ModeStatus_Success   CAN Succeed entering the specific mode 
 772:../STM32F10x_StdPeriph_Lib_V3.5.0/Libraries/STM32F10x_StdPeriph_Driver/src/stm32f10x_can.c **** 
 773:../STM32F10x_StdPeriph_Lib_V3.5.0/Libraries/STM32F10x_StdPeriph_Driver/src/stm32f10x_can.c ****   */
 774:../STM32F10x_StdPeriph_Lib_V3.5.0/Libraries/STM32F10x_StdPeriph_Driver/src/stm32f10x_can.c **** uint8_t CAN_OperatingModeRequest(CAN_TypeDef* CANx, uint8_t CAN_OperatingMode)
 775:../STM32F10x_StdPeriph_Lib_V3.5.0/Libraries/STM32F10x_StdPeriph_Driver/src/stm32f10x_can.c **** {
 1709              		.loc 1 775 0
 1710              		.cfi_startproc
 1711              		@ args = 0, pretend = 0, frame = 16
 1712              		@ frame_needed = 1, uses_anonymous_args = 0
 1713              		@ link register save eliminated.
 1714 0000 80B4     		push	{r7}
 1715              	.LCFI39:
 1716              		.cfi_def_cfa_offset 4
 1717              		.cfi_offset 7, -4
 1718 0002 85B0     		sub	sp, sp, #20
 1719              	.LCFI40:
 1720              		.cfi_def_cfa_offset 24
 1721 0004 00AF     		add	r7, sp, #0
 1722              	.LCFI41:
 1723              		.cfi_def_cfa_register 7
 1724 0006 7860     		str	r0, [r7, #4]
 1725 0008 0B46     		mov	r3, r1
 1726 000a FB70     		strb	r3, [r7, #3]
 776:../STM32F10x_StdPeriph_Lib_V3.5.0/Libraries/STM32F10x_StdPeriph_Driver/src/stm32f10x_can.c ****   uint8_t status = CAN_ModeStatus_Failed;
 1727              		.loc 1 776 0
 1728 000c 4FF00003 		mov	r3, #0
 1729 0010 FB73     		strb	r3, [r7, #15]
 777:../STM32F10x_StdPeriph_Lib_V3.5.0/Libraries/STM32F10x_StdPeriph_Driver/src/stm32f10x_can.c ****   
 778:../STM32F10x_StdPeriph_Lib_V3.5.0/Libraries/STM32F10x_StdPeriph_Driver/src/stm32f10x_can.c ****   /* Timeout for INAK or also for SLAK bits*/
 779:../STM32F10x_StdPeriph_Lib_V3.5.0/Libraries/STM32F10x_StdPeriph_Driver/src/stm32f10x_can.c ****   uint32_t timeout = INAK_TIMEOUT; 
 1730              		.loc 1 779 0
 1731 0012 4FF6FF73 		movw	r3, #65535
 1732 0016 BB60     		str	r3, [r7, #8]
 780:../STM32F10x_StdPeriph_Lib_V3.5.0/Libraries/STM32F10x_StdPeriph_Driver/src/stm32f10x_can.c **** 
 781:../STM32F10x_StdPeriph_Lib_V3.5.0/Libraries/STM32F10x_StdPeriph_Driver/src/stm32f10x_can.c ****   /* Check the parameters */
 782:../STM32F10x_StdPeriph_Lib_V3.5.0/Libraries/STM32F10x_StdPeriph_Driver/src/stm32f10x_can.c ****   assert_param(IS_CAN_ALL_PERIPH(CANx));
 783:../STM32F10x_StdPeriph_Lib_V3.5.0/Libraries/STM32F10x_StdPeriph_Driver/src/stm32f10x_can.c ****   assert_param(IS_CAN_OPERATING_MODE(CAN_OperatingMode));
 784:../STM32F10x_StdPeriph_Lib_V3.5.0/Libraries/STM32F10x_StdPeriph_Driver/src/stm32f10x_can.c **** 
 785:../STM32F10x_StdPeriph_Lib_V3.5.0/Libraries/STM32F10x_StdPeriph_Driver/src/stm32f10x_can.c ****   if (CAN_OperatingMode == CAN_OperatingMode_Initialization)
 1733              		.loc 1 785 0
 1734 0018 FB78     		ldrb	r3, [r7, #3]	@ zero_extendqisi2
 1735 001a 002B     		cmp	r3, #0
 1736 001c 23D1     		bne	.L99
 786:../STM32F10x_StdPeriph_Lib_V3.5.0/Libraries/STM32F10x_StdPeriph_Driver/src/stm32f10x_can.c ****   {
 787:../STM32F10x_StdPeriph_Lib_V3.5.0/Libraries/STM32F10x_StdPeriph_Driver/src/stm32f10x_can.c ****     /* Request initialisation */
 788:../STM32F10x_StdPeriph_Lib_V3.5.0/Libraries/STM32F10x_StdPeriph_Driver/src/stm32f10x_can.c ****     CANx->MCR = (uint32_t)((CANx->MCR & (uint32_t)(~(uint32_t)CAN_MCR_SLEEP)) | CAN_MCR_INRQ);
 1737              		.loc 1 788 0
 1738 001e 7B68     		ldr	r3, [r7, #4]
 1739 0020 1B68     		ldr	r3, [r3, #0]
 1740 0022 23F00303 		bic	r3, r3, #3
 1741 0026 43F00102 		orr	r2, r3, #1
 1742 002a 7B68     		ldr	r3, [r7, #4]
 1743 002c 1A60     		str	r2, [r3, #0]
 789:../STM32F10x_StdPeriph_Lib_V3.5.0/Libraries/STM32F10x_StdPeriph_Driver/src/stm32f10x_can.c **** 
 790:../STM32F10x_StdPeriph_Lib_V3.5.0/Libraries/STM32F10x_StdPeriph_Driver/src/stm32f10x_can.c ****     /* Wait the acknowledge */
 791:../STM32F10x_StdPeriph_Lib_V3.5.0/Libraries/STM32F10x_StdPeriph_Driver/src/stm32f10x_can.c ****     while (((CANx->MSR & CAN_MODE_MASK) != CAN_MSR_INAK) && (timeout != 0))
 1744              		.loc 1 791 0
 1745 002e 03E0     		b	.L100
 1746              	.L102:
 792:../STM32F10x_StdPeriph_Lib_V3.5.0/Libraries/STM32F10x_StdPeriph_Driver/src/stm32f10x_can.c ****     {
 793:../STM32F10x_StdPeriph_Lib_V3.5.0/Libraries/STM32F10x_StdPeriph_Driver/src/stm32f10x_can.c ****       timeout--;
 1747              		.loc 1 793 0
 1748 0030 BB68     		ldr	r3, [r7, #8]
 1749 0032 03F1FF33 		add	r3, r3, #-1
 1750 0036 BB60     		str	r3, [r7, #8]
 1751              	.L100:
 791:../STM32F10x_StdPeriph_Lib_V3.5.0/Libraries/STM32F10x_StdPeriph_Driver/src/stm32f10x_can.c ****     while (((CANx->MSR & CAN_MODE_MASK) != CAN_MSR_INAK) && (timeout != 0))
 1752              		.loc 1 791 0 discriminator 1
 1753 0038 7B68     		ldr	r3, [r7, #4]
 1754 003a 5B68     		ldr	r3, [r3, #4]
 1755 003c 03F00303 		and	r3, r3, #3
 1756 0040 012B     		cmp	r3, #1
 1757 0042 02D0     		beq	.L101
 791:../STM32F10x_StdPeriph_Lib_V3.5.0/Libraries/STM32F10x_StdPeriph_Driver/src/stm32f10x_can.c ****     while (((CANx->MSR & CAN_MODE_MASK) != CAN_MSR_INAK) && (timeout != 0))
 1758              		.loc 1 791 0 is_stmt 0 discriminator 2
 1759 0044 BB68     		ldr	r3, [r7, #8]
 1760 0046 002B     		cmp	r3, #0
 1761 0048 F2D1     		bne	.L102
 1762              	.L101:
 794:../STM32F10x_StdPeriph_Lib_V3.5.0/Libraries/STM32F10x_StdPeriph_Driver/src/stm32f10x_can.c ****     }
 795:../STM32F10x_StdPeriph_Lib_V3.5.0/Libraries/STM32F10x_StdPeriph_Driver/src/stm32f10x_can.c ****     if ((CANx->MSR & CAN_MODE_MASK) != CAN_MSR_INAK)
 1763              		.loc 1 795 0 is_stmt 1
 1764 004a 7B68     		ldr	r3, [r7, #4]
 1765 004c 5B68     		ldr	r3, [r3, #4]
 1766 004e 03F00303 		and	r3, r3, #3
 1767 0052 012B     		cmp	r3, #1
 1768 0054 03D0     		beq	.L103
 796:../STM32F10x_StdPeriph_Lib_V3.5.0/Libraries/STM32F10x_StdPeriph_Driver/src/stm32f10x_can.c ****     {
 797:../STM32F10x_StdPeriph_Lib_V3.5.0/Libraries/STM32F10x_StdPeriph_Driver/src/stm32f10x_can.c ****       status = CAN_ModeStatus_Failed;
 1769              		.loc 1 797 0
 1770 0056 4FF00003 		mov	r3, #0
 1771 005a FB73     		strb	r3, [r7, #15]
 1772 005c 52E0     		b	.L104
 1773              	.L103:
 798:../STM32F10x_StdPeriph_Lib_V3.5.0/Libraries/STM32F10x_StdPeriph_Driver/src/stm32f10x_can.c ****     }
 799:../STM32F10x_StdPeriph_Lib_V3.5.0/Libraries/STM32F10x_StdPeriph_Driver/src/stm32f10x_can.c ****     else
 800:../STM32F10x_StdPeriph_Lib_V3.5.0/Libraries/STM32F10x_StdPeriph_Driver/src/stm32f10x_can.c ****     {
 801:../STM32F10x_StdPeriph_Lib_V3.5.0/Libraries/STM32F10x_StdPeriph_Driver/src/stm32f10x_can.c ****       status = CAN_ModeStatus_Success;
 1774              		.loc 1 801 0
 1775 005e 4FF00103 		mov	r3, #1
 1776 0062 FB73     		strb	r3, [r7, #15]
 1777 0064 4EE0     		b	.L104
 1778              	.L99:
 802:../STM32F10x_StdPeriph_Lib_V3.5.0/Libraries/STM32F10x_StdPeriph_Driver/src/stm32f10x_can.c ****     }
 803:../STM32F10x_StdPeriph_Lib_V3.5.0/Libraries/STM32F10x_StdPeriph_Driver/src/stm32f10x_can.c ****   }
 804:../STM32F10x_StdPeriph_Lib_V3.5.0/Libraries/STM32F10x_StdPeriph_Driver/src/stm32f10x_can.c ****   else  if (CAN_OperatingMode == CAN_OperatingMode_Normal)
 1779              		.loc 1 804 0
 1780 0066 FB78     		ldrb	r3, [r7, #3]	@ zero_extendqisi2
 1781 0068 012B     		cmp	r3, #1
 1782 006a 21D1     		bne	.L105
 805:../STM32F10x_StdPeriph_Lib_V3.5.0/Libraries/STM32F10x_StdPeriph_Driver/src/stm32f10x_can.c ****   {
 806:../STM32F10x_StdPeriph_Lib_V3.5.0/Libraries/STM32F10x_StdPeriph_Driver/src/stm32f10x_can.c ****     /* Request leave initialisation and sleep mode  and enter Normal mode */
 807:../STM32F10x_StdPeriph_Lib_V3.5.0/Libraries/STM32F10x_StdPeriph_Driver/src/stm32f10x_can.c ****     CANx->MCR &= (uint32_t)(~(CAN_MCR_SLEEP|CAN_MCR_INRQ));
 1783              		.loc 1 807 0
 1784 006c 7B68     		ldr	r3, [r7, #4]
 1785 006e 1B68     		ldr	r3, [r3, #0]
 1786 0070 23F00302 		bic	r2, r3, #3
 1787 0074 7B68     		ldr	r3, [r7, #4]
 1788 0076 1A60     		str	r2, [r3, #0]
 808:../STM32F10x_StdPeriph_Lib_V3.5.0/Libraries/STM32F10x_StdPeriph_Driver/src/stm32f10x_can.c **** 
 809:../STM32F10x_StdPeriph_Lib_V3.5.0/Libraries/STM32F10x_StdPeriph_Driver/src/stm32f10x_can.c ****     /* Wait the acknowledge */
 810:../STM32F10x_StdPeriph_Lib_V3.5.0/Libraries/STM32F10x_StdPeriph_Driver/src/stm32f10x_can.c ****     while (((CANx->MSR & CAN_MODE_MASK) != 0) && (timeout!=0))
 1789              		.loc 1 810 0
 1790 0078 03E0     		b	.L106
 1791              	.L108:
 811:../STM32F10x_StdPeriph_Lib_V3.5.0/Libraries/STM32F10x_StdPeriph_Driver/src/stm32f10x_can.c ****     {
 812:../STM32F10x_StdPeriph_Lib_V3.5.0/Libraries/STM32F10x_StdPeriph_Driver/src/stm32f10x_can.c ****       timeout--;
 1792              		.loc 1 812 0
 1793 007a BB68     		ldr	r3, [r7, #8]
 1794 007c 03F1FF33 		add	r3, r3, #-1
 1795 0080 BB60     		str	r3, [r7, #8]
 1796              	.L106:
 810:../STM32F10x_StdPeriph_Lib_V3.5.0/Libraries/STM32F10x_StdPeriph_Driver/src/stm32f10x_can.c ****     while (((CANx->MSR & CAN_MODE_MASK) != 0) && (timeout!=0))
 1797              		.loc 1 810 0 discriminator 1
 1798 0082 7B68     		ldr	r3, [r7, #4]
 1799 0084 5B68     		ldr	r3, [r3, #4]
 1800 0086 03F00303 		and	r3, r3, #3
 1801 008a 002B     		cmp	r3, #0
 1802 008c 02D0     		beq	.L107
 810:../STM32F10x_StdPeriph_Lib_V3.5.0/Libraries/STM32F10x_StdPeriph_Driver/src/stm32f10x_can.c ****     while (((CANx->MSR & CAN_MODE_MASK) != 0) && (timeout!=0))
 1803              		.loc 1 810 0 is_stmt 0 discriminator 2
 1804 008e BB68     		ldr	r3, [r7, #8]
 1805 0090 002B     		cmp	r3, #0
 1806 0092 F2D1     		bne	.L108
 1807              	.L107:
 813:../STM32F10x_StdPeriph_Lib_V3.5.0/Libraries/STM32F10x_StdPeriph_Driver/src/stm32f10x_can.c ****     }
 814:../STM32F10x_StdPeriph_Lib_V3.5.0/Libraries/STM32F10x_StdPeriph_Driver/src/stm32f10x_can.c ****     if ((CANx->MSR & CAN_MODE_MASK) != 0)
 1808              		.loc 1 814 0 is_stmt 1
 1809 0094 7B68     		ldr	r3, [r7, #4]
 1810 0096 5B68     		ldr	r3, [r3, #4]
 1811 0098 03F00303 		and	r3, r3, #3
 1812 009c 002B     		cmp	r3, #0
 1813 009e 03D0     		beq	.L109
 815:../STM32F10x_StdPeriph_Lib_V3.5.0/Libraries/STM32F10x_StdPeriph_Driver/src/stm32f10x_can.c ****     {
 816:../STM32F10x_StdPeriph_Lib_V3.5.0/Libraries/STM32F10x_StdPeriph_Driver/src/stm32f10x_can.c ****       status = CAN_ModeStatus_Failed;
 1814              		.loc 1 816 0
 1815 00a0 4FF00003 		mov	r3, #0
 1816 00a4 FB73     		strb	r3, [r7, #15]
 1817 00a6 2DE0     		b	.L104
 1818              	.L109:
 817:../STM32F10x_StdPeriph_Lib_V3.5.0/Libraries/STM32F10x_StdPeriph_Driver/src/stm32f10x_can.c ****     }
 818:../STM32F10x_StdPeriph_Lib_V3.5.0/Libraries/STM32F10x_StdPeriph_Driver/src/stm32f10x_can.c ****     else
 819:../STM32F10x_StdPeriph_Lib_V3.5.0/Libraries/STM32F10x_StdPeriph_Driver/src/stm32f10x_can.c ****     {
 820:../STM32F10x_StdPeriph_Lib_V3.5.0/Libraries/STM32F10x_StdPeriph_Driver/src/stm32f10x_can.c ****       status = CAN_ModeStatus_Success;
 1819              		.loc 1 820 0
 1820 00a8 4FF00103 		mov	r3, #1
 1821 00ac FB73     		strb	r3, [r7, #15]
 1822 00ae 29E0     		b	.L104
 1823              	.L105:
 821:../STM32F10x_StdPeriph_Lib_V3.5.0/Libraries/STM32F10x_StdPeriph_Driver/src/stm32f10x_can.c ****     }
 822:../STM32F10x_StdPeriph_Lib_V3.5.0/Libraries/STM32F10x_StdPeriph_Driver/src/stm32f10x_can.c ****   }
 823:../STM32F10x_StdPeriph_Lib_V3.5.0/Libraries/STM32F10x_StdPeriph_Driver/src/stm32f10x_can.c ****   else  if (CAN_OperatingMode == CAN_OperatingMode_Sleep)
 1824              		.loc 1 823 0
 1825 00b0 FB78     		ldrb	r3, [r7, #3]	@ zero_extendqisi2
 1826 00b2 022B     		cmp	r3, #2
 1827 00b4 23D1     		bne	.L110
 824:../STM32F10x_StdPeriph_Lib_V3.5.0/Libraries/STM32F10x_StdPeriph_Driver/src/stm32f10x_can.c ****   {
 825:../STM32F10x_StdPeriph_Lib_V3.5.0/Libraries/STM32F10x_StdPeriph_Driver/src/stm32f10x_can.c ****     /* Request Sleep mode */
 826:../STM32F10x_StdPeriph_Lib_V3.5.0/Libraries/STM32F10x_StdPeriph_Driver/src/stm32f10x_can.c ****     CANx->MCR = (uint32_t)((CANx->MCR & (uint32_t)(~(uint32_t)CAN_MCR_INRQ)) | CAN_MCR_SLEEP);
 1828              		.loc 1 826 0
 1829 00b6 7B68     		ldr	r3, [r7, #4]
 1830 00b8 1B68     		ldr	r3, [r3, #0]
 1831 00ba 23F00303 		bic	r3, r3, #3
 1832 00be 43F00202 		orr	r2, r3, #2
 1833 00c2 7B68     		ldr	r3, [r7, #4]
 1834 00c4 1A60     		str	r2, [r3, #0]
 827:../STM32F10x_StdPeriph_Lib_V3.5.0/Libraries/STM32F10x_StdPeriph_Driver/src/stm32f10x_can.c **** 
 828:../STM32F10x_StdPeriph_Lib_V3.5.0/Libraries/STM32F10x_StdPeriph_Driver/src/stm32f10x_can.c ****     /* Wait the acknowledge */
 829:../STM32F10x_StdPeriph_Lib_V3.5.0/Libraries/STM32F10x_StdPeriph_Driver/src/stm32f10x_can.c ****     while (((CANx->MSR & CAN_MODE_MASK) != CAN_MSR_SLAK) && (timeout!=0))
 1835              		.loc 1 829 0
 1836 00c6 03E0     		b	.L111
 1837              	.L113:
 830:../STM32F10x_StdPeriph_Lib_V3.5.0/Libraries/STM32F10x_StdPeriph_Driver/src/stm32f10x_can.c ****     {
 831:../STM32F10x_StdPeriph_Lib_V3.5.0/Libraries/STM32F10x_StdPeriph_Driver/src/stm32f10x_can.c ****       timeout--;
 1838              		.loc 1 831 0
 1839 00c8 BB68     		ldr	r3, [r7, #8]
 1840 00ca 03F1FF33 		add	r3, r3, #-1
 1841 00ce BB60     		str	r3, [r7, #8]
 1842              	.L111:
 829:../STM32F10x_StdPeriph_Lib_V3.5.0/Libraries/STM32F10x_StdPeriph_Driver/src/stm32f10x_can.c ****     while (((CANx->MSR & CAN_MODE_MASK) != CAN_MSR_SLAK) && (timeout!=0))
 1843              		.loc 1 829 0 discriminator 1
 1844 00d0 7B68     		ldr	r3, [r7, #4]
 1845 00d2 5B68     		ldr	r3, [r3, #4]
 1846 00d4 03F00303 		and	r3, r3, #3
 1847 00d8 022B     		cmp	r3, #2
 1848 00da 02D0     		beq	.L112
 829:../STM32F10x_StdPeriph_Lib_V3.5.0/Libraries/STM32F10x_StdPeriph_Driver/src/stm32f10x_can.c ****     while (((CANx->MSR & CAN_MODE_MASK) != CAN_MSR_SLAK) && (timeout!=0))
 1849              		.loc 1 829 0 is_stmt 0 discriminator 2
 1850 00dc BB68     		ldr	r3, [r7, #8]
 1851 00de 002B     		cmp	r3, #0
 1852 00e0 F2D1     		bne	.L113
 1853              	.L112:
 832:../STM32F10x_StdPeriph_Lib_V3.5.0/Libraries/STM32F10x_StdPeriph_Driver/src/stm32f10x_can.c ****     }
 833:../STM32F10x_StdPeriph_Lib_V3.5.0/Libraries/STM32F10x_StdPeriph_Driver/src/stm32f10x_can.c ****     if ((CANx->MSR & CAN_MODE_MASK) != CAN_MSR_SLAK)
 1854              		.loc 1 833 0 is_stmt 1
 1855 00e2 7B68     		ldr	r3, [r7, #4]
 1856 00e4 5B68     		ldr	r3, [r3, #4]
 1857 00e6 03F00303 		and	r3, r3, #3
 1858 00ea 022B     		cmp	r3, #2
 1859 00ec 03D0     		beq	.L114
 834:../STM32F10x_StdPeriph_Lib_V3.5.0/Libraries/STM32F10x_StdPeriph_Driver/src/stm32f10x_can.c ****     {
 835:../STM32F10x_StdPeriph_Lib_V3.5.0/Libraries/STM32F10x_StdPeriph_Driver/src/stm32f10x_can.c ****       status = CAN_ModeStatus_Failed;
 1860              		.loc 1 835 0
 1861 00ee 4FF00003 		mov	r3, #0
 1862 00f2 FB73     		strb	r3, [r7, #15]
 1863 00f4 06E0     		b	.L104
 1864              	.L114:
 836:../STM32F10x_StdPeriph_Lib_V3.5.0/Libraries/STM32F10x_StdPeriph_Driver/src/stm32f10x_can.c ****     }
 837:../STM32F10x_StdPeriph_Lib_V3.5.0/Libraries/STM32F10x_StdPeriph_Driver/src/stm32f10x_can.c ****     else
 838:../STM32F10x_StdPeriph_Lib_V3.5.0/Libraries/STM32F10x_StdPeriph_Driver/src/stm32f10x_can.c ****     {
 839:../STM32F10x_StdPeriph_Lib_V3.5.0/Libraries/STM32F10x_StdPeriph_Driver/src/stm32f10x_can.c ****       status = CAN_ModeStatus_Success;
 1865              		.loc 1 839 0
 1866 00f6 4FF00103 		mov	r3, #1
 1867 00fa FB73     		strb	r3, [r7, #15]
 1868 00fc 02E0     		b	.L104
 1869              	.L110:
 840:../STM32F10x_StdPeriph_Lib_V3.5.0/Libraries/STM32F10x_StdPeriph_Driver/src/stm32f10x_can.c ****     }
 841:../STM32F10x_StdPeriph_Lib_V3.5.0/Libraries/STM32F10x_StdPeriph_Driver/src/stm32f10x_can.c ****   }
 842:../STM32F10x_StdPeriph_Lib_V3.5.0/Libraries/STM32F10x_StdPeriph_Driver/src/stm32f10x_can.c ****   else
 843:../STM32F10x_StdPeriph_Lib_V3.5.0/Libraries/STM32F10x_StdPeriph_Driver/src/stm32f10x_can.c ****   {
 844:../STM32F10x_StdPeriph_Lib_V3.5.0/Libraries/STM32F10x_StdPeriph_Driver/src/stm32f10x_can.c ****     status = CAN_ModeStatus_Failed;
 1870              		.loc 1 844 0
 1871 00fe 4FF00003 		mov	r3, #0
 1872 0102 FB73     		strb	r3, [r7, #15]
 1873              	.L104:
 845:../STM32F10x_StdPeriph_Lib_V3.5.0/Libraries/STM32F10x_StdPeriph_Driver/src/stm32f10x_can.c ****   }
 846:../STM32F10x_StdPeriph_Lib_V3.5.0/Libraries/STM32F10x_StdPeriph_Driver/src/stm32f10x_can.c **** 
 847:../STM32F10x_StdPeriph_Lib_V3.5.0/Libraries/STM32F10x_StdPeriph_Driver/src/stm32f10x_can.c ****   return  (uint8_t) status;
 1874              		.loc 1 847 0
 1875 0104 FB7B     		ldrb	r3, [r7, #15]	@ zero_extendqisi2
 848:../STM32F10x_StdPeriph_Lib_V3.5.0/Libraries/STM32F10x_StdPeriph_Driver/src/stm32f10x_can.c **** }
 1876              		.loc 1 848 0
 1877 0106 1846     		mov	r0, r3
 1878 0108 07F11407 		add	r7, r7, #20
 1879 010c BD46     		mov	sp, r7
 1880 010e 80BC     		pop	{r7}
 1881 0110 7047     		bx	lr
 1882              		.cfi_endproc
 1883              	.LFE42:
 1885 0112 00BF     		.section	.text.CAN_Sleep,"ax",%progbits
 1886              		.align	2
 1887              		.global	CAN_Sleep
 1888              		.thumb
 1889              		.thumb_func
 1891              	CAN_Sleep:
 1892              	.LFB43:
 849:../STM32F10x_StdPeriph_Lib_V3.5.0/Libraries/STM32F10x_StdPeriph_Driver/src/stm32f10x_can.c **** 
 850:../STM32F10x_StdPeriph_Lib_V3.5.0/Libraries/STM32F10x_StdPeriph_Driver/src/stm32f10x_can.c **** /**
 851:../STM32F10x_StdPeriph_Lib_V3.5.0/Libraries/STM32F10x_StdPeriph_Driver/src/stm32f10x_can.c ****   * @brief  Enters the low power mode.
 852:../STM32F10x_StdPeriph_Lib_V3.5.0/Libraries/STM32F10x_StdPeriph_Driver/src/stm32f10x_can.c ****   * @param  CANx:   where x can be 1 or 2 to to select the CAN peripheral.
 853:../STM32F10x_StdPeriph_Lib_V3.5.0/Libraries/STM32F10x_StdPeriph_Driver/src/stm32f10x_can.c ****   * @retval status: CAN_Sleep_Ok if sleep entered, CAN_Sleep_Failed in an 
 854:../STM32F10x_StdPeriph_Lib_V3.5.0/Libraries/STM32F10x_StdPeriph_Driver/src/stm32f10x_can.c ****   *                 other case.
 855:../STM32F10x_StdPeriph_Lib_V3.5.0/Libraries/STM32F10x_StdPeriph_Driver/src/stm32f10x_can.c ****   */
 856:../STM32F10x_StdPeriph_Lib_V3.5.0/Libraries/STM32F10x_StdPeriph_Driver/src/stm32f10x_can.c **** uint8_t CAN_Sleep(CAN_TypeDef* CANx)
 857:../STM32F10x_StdPeriph_Lib_V3.5.0/Libraries/STM32F10x_StdPeriph_Driver/src/stm32f10x_can.c **** {
 1893              		.loc 1 857 0
 1894              		.cfi_startproc
 1895              		@ args = 0, pretend = 0, frame = 16
 1896              		@ frame_needed = 1, uses_anonymous_args = 0
 1897              		@ link register save eliminated.
 1898 0000 80B4     		push	{r7}
 1899              	.LCFI42:
 1900              		.cfi_def_cfa_offset 4
 1901              		.cfi_offset 7, -4
 1902 0002 85B0     		sub	sp, sp, #20
 1903              	.LCFI43:
 1904              		.cfi_def_cfa_offset 24
 1905 0004 00AF     		add	r7, sp, #0
 1906              	.LCFI44:
 1907              		.cfi_def_cfa_register 7
 1908 0006 7860     		str	r0, [r7, #4]
 858:../STM32F10x_StdPeriph_Lib_V3.5.0/Libraries/STM32F10x_StdPeriph_Driver/src/stm32f10x_can.c ****   uint8_t sleepstatus = CAN_Sleep_Failed;
 1909              		.loc 1 858 0
 1910 0008 4FF00003 		mov	r3, #0
 1911 000c FB73     		strb	r3, [r7, #15]
 859:../STM32F10x_StdPeriph_Lib_V3.5.0/Libraries/STM32F10x_StdPeriph_Driver/src/stm32f10x_can.c ****   
 860:../STM32F10x_StdPeriph_Lib_V3.5.0/Libraries/STM32F10x_StdPeriph_Driver/src/stm32f10x_can.c ****   /* Check the parameters */
 861:../STM32F10x_StdPeriph_Lib_V3.5.0/Libraries/STM32F10x_StdPeriph_Driver/src/stm32f10x_can.c ****   assert_param(IS_CAN_ALL_PERIPH(CANx));
 862:../STM32F10x_StdPeriph_Lib_V3.5.0/Libraries/STM32F10x_StdPeriph_Driver/src/stm32f10x_can.c ****     
 863:../STM32F10x_StdPeriph_Lib_V3.5.0/Libraries/STM32F10x_StdPeriph_Driver/src/stm32f10x_can.c ****   /* Request Sleep mode */
 864:../STM32F10x_StdPeriph_Lib_V3.5.0/Libraries/STM32F10x_StdPeriph_Driver/src/stm32f10x_can.c ****    CANx->MCR = (((CANx->MCR) & (uint32_t)(~(uint32_t)CAN_MCR_INRQ)) | CAN_MCR_SLEEP);
 1912              		.loc 1 864 0
 1913 000e 7B68     		ldr	r3, [r7, #4]
 1914 0010 1B68     		ldr	r3, [r3, #0]
 1915 0012 23F00303 		bic	r3, r3, #3
 1916 0016 43F00202 		orr	r2, r3, #2
 1917 001a 7B68     		ldr	r3, [r7, #4]
 1918 001c 1A60     		str	r2, [r3, #0]
 865:../STM32F10x_StdPeriph_Lib_V3.5.0/Libraries/STM32F10x_StdPeriph_Driver/src/stm32f10x_can.c ****    
 866:../STM32F10x_StdPeriph_Lib_V3.5.0/Libraries/STM32F10x_StdPeriph_Driver/src/stm32f10x_can.c ****   /* Sleep mode status */
 867:../STM32F10x_StdPeriph_Lib_V3.5.0/Libraries/STM32F10x_StdPeriph_Driver/src/stm32f10x_can.c ****   if ((CANx->MSR & (CAN_MSR_SLAK|CAN_MSR_INAK)) == CAN_MSR_SLAK)
 1919              		.loc 1 867 0
 1920 001e 7B68     		ldr	r3, [r7, #4]
 1921 0020 5B68     		ldr	r3, [r3, #4]
 1922 0022 03F00303 		and	r3, r3, #3
 1923 0026 022B     		cmp	r3, #2
 1924 0028 02D1     		bne	.L117
 868:../STM32F10x_StdPeriph_Lib_V3.5.0/Libraries/STM32F10x_StdPeriph_Driver/src/stm32f10x_can.c ****   {
 869:../STM32F10x_StdPeriph_Lib_V3.5.0/Libraries/STM32F10x_StdPeriph_Driver/src/stm32f10x_can.c ****     /* Sleep mode not entered */
 870:../STM32F10x_StdPeriph_Lib_V3.5.0/Libraries/STM32F10x_StdPeriph_Driver/src/stm32f10x_can.c ****     sleepstatus =  CAN_Sleep_Ok;
 1925              		.loc 1 870 0
 1926 002a 4FF00103 		mov	r3, #1
 1927 002e FB73     		strb	r3, [r7, #15]
 1928              	.L117:
 871:../STM32F10x_StdPeriph_Lib_V3.5.0/Libraries/STM32F10x_StdPeriph_Driver/src/stm32f10x_can.c ****   }
 872:../STM32F10x_StdPeriph_Lib_V3.5.0/Libraries/STM32F10x_StdPeriph_Driver/src/stm32f10x_can.c ****   /* return sleep mode status */
 873:../STM32F10x_StdPeriph_Lib_V3.5.0/Libraries/STM32F10x_StdPeriph_Driver/src/stm32f10x_can.c ****    return (uint8_t)sleepstatus;
 1929              		.loc 1 873 0
 1930 0030 FB7B     		ldrb	r3, [r7, #15]	@ zero_extendqisi2
 874:../STM32F10x_StdPeriph_Lib_V3.5.0/Libraries/STM32F10x_StdPeriph_Driver/src/stm32f10x_can.c **** }
 1931              		.loc 1 874 0
 1932 0032 1846     		mov	r0, r3
 1933 0034 07F11407 		add	r7, r7, #20
 1934 0038 BD46     		mov	sp, r7
 1935 003a 80BC     		pop	{r7}
 1936 003c 7047     		bx	lr
 1937              		.cfi_endproc
 1938              	.LFE43:
 1940 003e 00BF     		.section	.text.CAN_WakeUp,"ax",%progbits
 1941              		.align	2
 1942              		.global	CAN_WakeUp
 1943              		.thumb
 1944              		.thumb_func
 1946              	CAN_WakeUp:
 1947              	.LFB44:
 875:../STM32F10x_StdPeriph_Lib_V3.5.0/Libraries/STM32F10x_StdPeriph_Driver/src/stm32f10x_can.c **** 
 876:../STM32F10x_StdPeriph_Lib_V3.5.0/Libraries/STM32F10x_StdPeriph_Driver/src/stm32f10x_can.c **** /**
 877:../STM32F10x_StdPeriph_Lib_V3.5.0/Libraries/STM32F10x_StdPeriph_Driver/src/stm32f10x_can.c ****   * @brief  Wakes the CAN up.
 878:../STM32F10x_StdPeriph_Lib_V3.5.0/Libraries/STM32F10x_StdPeriph_Driver/src/stm32f10x_can.c ****   * @param  CANx:    where x can be 1 or 2 to to select the CAN peripheral.
 879:../STM32F10x_StdPeriph_Lib_V3.5.0/Libraries/STM32F10x_StdPeriph_Driver/src/stm32f10x_can.c ****   * @retval status:  CAN_WakeUp_Ok if sleep mode left, CAN_WakeUp_Failed in an 
 880:../STM32F10x_StdPeriph_Lib_V3.5.0/Libraries/STM32F10x_StdPeriph_Driver/src/stm32f10x_can.c ****   *                  other case.
 881:../STM32F10x_StdPeriph_Lib_V3.5.0/Libraries/STM32F10x_StdPeriph_Driver/src/stm32f10x_can.c ****   */
 882:../STM32F10x_StdPeriph_Lib_V3.5.0/Libraries/STM32F10x_StdPeriph_Driver/src/stm32f10x_can.c **** uint8_t CAN_WakeUp(CAN_TypeDef* CANx)
 883:../STM32F10x_StdPeriph_Lib_V3.5.0/Libraries/STM32F10x_StdPeriph_Driver/src/stm32f10x_can.c **** {
 1948              		.loc 1 883 0
 1949              		.cfi_startproc
 1950              		@ args = 0, pretend = 0, frame = 16
 1951              		@ frame_needed = 1, uses_anonymous_args = 0
 1952              		@ link register save eliminated.
 1953 0000 80B4     		push	{r7}
 1954              	.LCFI45:
 1955              		.cfi_def_cfa_offset 4
 1956              		.cfi_offset 7, -4
 1957 0002 85B0     		sub	sp, sp, #20
 1958              	.LCFI46:
 1959              		.cfi_def_cfa_offset 24
 1960 0004 00AF     		add	r7, sp, #0
 1961              	.LCFI47:
 1962              		.cfi_def_cfa_register 7
 1963 0006 7860     		str	r0, [r7, #4]
 884:../STM32F10x_StdPeriph_Lib_V3.5.0/Libraries/STM32F10x_StdPeriph_Driver/src/stm32f10x_can.c ****   uint32_t wait_slak = SLAK_TIMEOUT;
 1964              		.loc 1 884 0
 1965 0008 4FF6FF73 		movw	r3, #65535
 1966 000c FB60     		str	r3, [r7, #12]
 885:../STM32F10x_StdPeriph_Lib_V3.5.0/Libraries/STM32F10x_StdPeriph_Driver/src/stm32f10x_can.c ****   uint8_t wakeupstatus = CAN_WakeUp_Failed;
 1967              		.loc 1 885 0
 1968 000e 4FF00003 		mov	r3, #0
 1969 0012 FB72     		strb	r3, [r7, #11]
 886:../STM32F10x_StdPeriph_Lib_V3.5.0/Libraries/STM32F10x_StdPeriph_Driver/src/stm32f10x_can.c ****   
 887:../STM32F10x_StdPeriph_Lib_V3.5.0/Libraries/STM32F10x_StdPeriph_Driver/src/stm32f10x_can.c ****   /* Check the parameters */
 888:../STM32F10x_StdPeriph_Lib_V3.5.0/Libraries/STM32F10x_StdPeriph_Driver/src/stm32f10x_can.c ****   assert_param(IS_CAN_ALL_PERIPH(CANx));
 889:../STM32F10x_StdPeriph_Lib_V3.5.0/Libraries/STM32F10x_StdPeriph_Driver/src/stm32f10x_can.c ****     
 890:../STM32F10x_StdPeriph_Lib_V3.5.0/Libraries/STM32F10x_StdPeriph_Driver/src/stm32f10x_can.c ****   /* Wake up request */
 891:../STM32F10x_StdPeriph_Lib_V3.5.0/Libraries/STM32F10x_StdPeriph_Driver/src/stm32f10x_can.c ****   CANx->MCR &= ~(uint32_t)CAN_MCR_SLEEP;
 1970              		.loc 1 891 0
 1971 0014 7B68     		ldr	r3, [r7, #4]
 1972 0016 1B68     		ldr	r3, [r3, #0]
 1973 0018 23F00202 		bic	r2, r3, #2
 1974 001c 7B68     		ldr	r3, [r7, #4]
 1975 001e 1A60     		str	r2, [r3, #0]
 892:../STM32F10x_StdPeriph_Lib_V3.5.0/Libraries/STM32F10x_StdPeriph_Driver/src/stm32f10x_can.c ****     
 893:../STM32F10x_StdPeriph_Lib_V3.5.0/Libraries/STM32F10x_StdPeriph_Driver/src/stm32f10x_can.c ****   /* Sleep mode status */
 894:../STM32F10x_StdPeriph_Lib_V3.5.0/Libraries/STM32F10x_StdPeriph_Driver/src/stm32f10x_can.c ****   while(((CANx->MSR & CAN_MSR_SLAK) == CAN_MSR_SLAK)&&(wait_slak!=0x00))
 1976              		.loc 1 894 0
 1977 0020 03E0     		b	.L120
 1978              	.L122:
 895:../STM32F10x_StdPeriph_Lib_V3.5.0/Libraries/STM32F10x_StdPeriph_Driver/src/stm32f10x_can.c ****   {
 896:../STM32F10x_StdPeriph_Lib_V3.5.0/Libraries/STM32F10x_StdPeriph_Driver/src/stm32f10x_can.c ****    wait_slak--;
 1979              		.loc 1 896 0
 1980 0022 FB68     		ldr	r3, [r7, #12]
 1981 0024 03F1FF33 		add	r3, r3, #-1
 1982 0028 FB60     		str	r3, [r7, #12]
 1983              	.L120:
 894:../STM32F10x_StdPeriph_Lib_V3.5.0/Libraries/STM32F10x_StdPeriph_Driver/src/stm32f10x_can.c ****   while(((CANx->MSR & CAN_MSR_SLAK) == CAN_MSR_SLAK)&&(wait_slak!=0x00))
 1984              		.loc 1 894 0 discriminator 1
 1985 002a 7B68     		ldr	r3, [r7, #4]
 1986 002c 5B68     		ldr	r3, [r3, #4]
 1987 002e 03F00203 		and	r3, r3, #2
 1988 0032 002B     		cmp	r3, #0
 1989 0034 02D0     		beq	.L121
 894:../STM32F10x_StdPeriph_Lib_V3.5.0/Libraries/STM32F10x_StdPeriph_Driver/src/stm32f10x_can.c ****   while(((CANx->MSR & CAN_MSR_SLAK) == CAN_MSR_SLAK)&&(wait_slak!=0x00))
 1990              		.loc 1 894 0 is_stmt 0 discriminator 2
 1991 0036 FB68     		ldr	r3, [r7, #12]
 1992 0038 002B     		cmp	r3, #0
 1993 003a F2D1     		bne	.L122
 1994              	.L121:
 897:../STM32F10x_StdPeriph_Lib_V3.5.0/Libraries/STM32F10x_StdPeriph_Driver/src/stm32f10x_can.c ****   }
 898:../STM32F10x_StdPeriph_Lib_V3.5.0/Libraries/STM32F10x_StdPeriph_Driver/src/stm32f10x_can.c ****   if((CANx->MSR & CAN_MSR_SLAK) != CAN_MSR_SLAK)
 1995              		.loc 1 898 0 is_stmt 1
 1996 003c 7B68     		ldr	r3, [r7, #4]
 1997 003e 5B68     		ldr	r3, [r3, #4]
 1998 0040 03F00203 		and	r3, r3, #2
 1999 0044 002B     		cmp	r3, #0
 2000 0046 02D1     		bne	.L123
 899:../STM32F10x_StdPeriph_Lib_V3.5.0/Libraries/STM32F10x_StdPeriph_Driver/src/stm32f10x_can.c ****   {
 900:../STM32F10x_StdPeriph_Lib_V3.5.0/Libraries/STM32F10x_StdPeriph_Driver/src/stm32f10x_can.c ****    /* wake up done : Sleep mode exited */
 901:../STM32F10x_StdPeriph_Lib_V3.5.0/Libraries/STM32F10x_StdPeriph_Driver/src/stm32f10x_can.c ****     wakeupstatus = CAN_WakeUp_Ok;
 2001              		.loc 1 901 0
 2002 0048 4FF00103 		mov	r3, #1
 2003 004c FB72     		strb	r3, [r7, #11]
 2004              	.L123:
 902:../STM32F10x_StdPeriph_Lib_V3.5.0/Libraries/STM32F10x_StdPeriph_Driver/src/stm32f10x_can.c ****   }
 903:../STM32F10x_StdPeriph_Lib_V3.5.0/Libraries/STM32F10x_StdPeriph_Driver/src/stm32f10x_can.c ****   /* return wakeup status */
 904:../STM32F10x_StdPeriph_Lib_V3.5.0/Libraries/STM32F10x_StdPeriph_Driver/src/stm32f10x_can.c ****   return (uint8_t)wakeupstatus;
 2005              		.loc 1 904 0
 2006 004e FB7A     		ldrb	r3, [r7, #11]	@ zero_extendqisi2
 905:../STM32F10x_StdPeriph_Lib_V3.5.0/Libraries/STM32F10x_StdPeriph_Driver/src/stm32f10x_can.c **** }
 2007              		.loc 1 905 0
 2008 0050 1846     		mov	r0, r3
 2009 0052 07F11407 		add	r7, r7, #20
 2010 0056 BD46     		mov	sp, r7
 2011 0058 80BC     		pop	{r7}
 2012 005a 7047     		bx	lr
 2013              		.cfi_endproc
 2014              	.LFE44:
 2016              		.section	.text.CAN_GetLastErrorCode,"ax",%progbits
 2017              		.align	2
 2018              		.global	CAN_GetLastErrorCode
 2019              		.thumb
 2020              		.thumb_func
 2022              	CAN_GetLastErrorCode:
 2023              	.LFB45:
 906:../STM32F10x_StdPeriph_Lib_V3.5.0/Libraries/STM32F10x_StdPeriph_Driver/src/stm32f10x_can.c **** 
 907:../STM32F10x_StdPeriph_Lib_V3.5.0/Libraries/STM32F10x_StdPeriph_Driver/src/stm32f10x_can.c **** 
 908:../STM32F10x_StdPeriph_Lib_V3.5.0/Libraries/STM32F10x_StdPeriph_Driver/src/stm32f10x_can.c **** /**
 909:../STM32F10x_StdPeriph_Lib_V3.5.0/Libraries/STM32F10x_StdPeriph_Driver/src/stm32f10x_can.c ****   * @brief  Returns the CANx's last error code (LEC).
 910:../STM32F10x_StdPeriph_Lib_V3.5.0/Libraries/STM32F10x_StdPeriph_Driver/src/stm32f10x_can.c ****   * @param  CANx:          where x can be 1 or 2 to to select the CAN peripheral.  
 911:../STM32F10x_StdPeriph_Lib_V3.5.0/Libraries/STM32F10x_StdPeriph_Driver/src/stm32f10x_can.c ****   * @retval CAN_ErrorCode: specifies the Error code : 
 912:../STM32F10x_StdPeriph_Lib_V3.5.0/Libraries/STM32F10x_StdPeriph_Driver/src/stm32f10x_can.c ****   *                        - CAN_ERRORCODE_NoErr            No Error  
 913:../STM32F10x_StdPeriph_Lib_V3.5.0/Libraries/STM32F10x_StdPeriph_Driver/src/stm32f10x_can.c ****   *                        - CAN_ERRORCODE_StuffErr         Stuff Error
 914:../STM32F10x_StdPeriph_Lib_V3.5.0/Libraries/STM32F10x_StdPeriph_Driver/src/stm32f10x_can.c ****   *                        - CAN_ERRORCODE_FormErr          Form Error
 915:../STM32F10x_StdPeriph_Lib_V3.5.0/Libraries/STM32F10x_StdPeriph_Driver/src/stm32f10x_can.c ****   *                        - CAN_ERRORCODE_ACKErr           Acknowledgment Error
 916:../STM32F10x_StdPeriph_Lib_V3.5.0/Libraries/STM32F10x_StdPeriph_Driver/src/stm32f10x_can.c ****   *                        - CAN_ERRORCODE_BitRecessiveErr  Bit Recessive Error
 917:../STM32F10x_StdPeriph_Lib_V3.5.0/Libraries/STM32F10x_StdPeriph_Driver/src/stm32f10x_can.c ****   *                        - CAN_ERRORCODE_BitDominantErr   Bit Dominant Error
 918:../STM32F10x_StdPeriph_Lib_V3.5.0/Libraries/STM32F10x_StdPeriph_Driver/src/stm32f10x_can.c ****   *                        - CAN_ERRORCODE_CRCErr           CRC Error
 919:../STM32F10x_StdPeriph_Lib_V3.5.0/Libraries/STM32F10x_StdPeriph_Driver/src/stm32f10x_can.c ****   *                        - CAN_ERRORCODE_SoftwareSetErr   Software Set Error  
 920:../STM32F10x_StdPeriph_Lib_V3.5.0/Libraries/STM32F10x_StdPeriph_Driver/src/stm32f10x_can.c ****   */
 921:../STM32F10x_StdPeriph_Lib_V3.5.0/Libraries/STM32F10x_StdPeriph_Driver/src/stm32f10x_can.c ****  
 922:../STM32F10x_StdPeriph_Lib_V3.5.0/Libraries/STM32F10x_StdPeriph_Driver/src/stm32f10x_can.c **** uint8_t CAN_GetLastErrorCode(CAN_TypeDef* CANx)
 923:../STM32F10x_StdPeriph_Lib_V3.5.0/Libraries/STM32F10x_StdPeriph_Driver/src/stm32f10x_can.c **** {
 2024              		.loc 1 923 0
 2025              		.cfi_startproc
 2026              		@ args = 0, pretend = 0, frame = 16
 2027              		@ frame_needed = 1, uses_anonymous_args = 0
 2028              		@ link register save eliminated.
 2029 0000 80B4     		push	{r7}
 2030              	.LCFI48:
 2031              		.cfi_def_cfa_offset 4
 2032              		.cfi_offset 7, -4
 2033 0002 85B0     		sub	sp, sp, #20
 2034              	.LCFI49:
 2035              		.cfi_def_cfa_offset 24
 2036 0004 00AF     		add	r7, sp, #0
 2037              	.LCFI50:
 2038              		.cfi_def_cfa_register 7
 2039 0006 7860     		str	r0, [r7, #4]
 924:../STM32F10x_StdPeriph_Lib_V3.5.0/Libraries/STM32F10x_StdPeriph_Driver/src/stm32f10x_can.c ****   uint8_t errorcode=0;
 2040              		.loc 1 924 0
 2041 0008 4FF00003 		mov	r3, #0
 2042 000c FB73     		strb	r3, [r7, #15]
 925:../STM32F10x_StdPeriph_Lib_V3.5.0/Libraries/STM32F10x_StdPeriph_Driver/src/stm32f10x_can.c ****   
 926:../STM32F10x_StdPeriph_Lib_V3.5.0/Libraries/STM32F10x_StdPeriph_Driver/src/stm32f10x_can.c ****   /* Check the parameters */
 927:../STM32F10x_StdPeriph_Lib_V3.5.0/Libraries/STM32F10x_StdPeriph_Driver/src/stm32f10x_can.c ****   assert_param(IS_CAN_ALL_PERIPH(CANx));
 928:../STM32F10x_StdPeriph_Lib_V3.5.0/Libraries/STM32F10x_StdPeriph_Driver/src/stm32f10x_can.c ****   
 929:../STM32F10x_StdPeriph_Lib_V3.5.0/Libraries/STM32F10x_StdPeriph_Driver/src/stm32f10x_can.c ****   /* Get the error code*/
 930:../STM32F10x_StdPeriph_Lib_V3.5.0/Libraries/STM32F10x_StdPeriph_Driver/src/stm32f10x_can.c ****   errorcode = (((uint8_t)CANx->ESR) & (uint8_t)CAN_ESR_LEC);
 2043              		.loc 1 930 0
 2044 000e 7B68     		ldr	r3, [r7, #4]
 2045 0010 9B69     		ldr	r3, [r3, #24]
 2046 0012 DBB2     		uxtb	r3, r3
 2047 0014 03F07003 		and	r3, r3, #112
 2048 0018 FB73     		strb	r3, [r7, #15]
 931:../STM32F10x_StdPeriph_Lib_V3.5.0/Libraries/STM32F10x_StdPeriph_Driver/src/stm32f10x_can.c ****   
 932:../STM32F10x_StdPeriph_Lib_V3.5.0/Libraries/STM32F10x_StdPeriph_Driver/src/stm32f10x_can.c ****   /* Return the error code*/
 933:../STM32F10x_StdPeriph_Lib_V3.5.0/Libraries/STM32F10x_StdPeriph_Driver/src/stm32f10x_can.c ****   return errorcode;
 2049              		.loc 1 933 0
 2050 001a FB7B     		ldrb	r3, [r7, #15]	@ zero_extendqisi2
 934:../STM32F10x_StdPeriph_Lib_V3.5.0/Libraries/STM32F10x_StdPeriph_Driver/src/stm32f10x_can.c **** }
 2051              		.loc 1 934 0
 2052 001c 1846     		mov	r0, r3
 2053 001e 07F11407 		add	r7, r7, #20
 2054 0022 BD46     		mov	sp, r7
 2055 0024 80BC     		pop	{r7}
 2056 0026 7047     		bx	lr
 2057              		.cfi_endproc
 2058              	.LFE45:
 2060              		.section	.text.CAN_GetReceiveErrorCounter,"ax",%progbits
 2061              		.align	2
 2062              		.global	CAN_GetReceiveErrorCounter
 2063              		.thumb
 2064              		.thumb_func
 2066              	CAN_GetReceiveErrorCounter:
 2067              	.LFB46:
 935:../STM32F10x_StdPeriph_Lib_V3.5.0/Libraries/STM32F10x_StdPeriph_Driver/src/stm32f10x_can.c **** /**
 936:../STM32F10x_StdPeriph_Lib_V3.5.0/Libraries/STM32F10x_StdPeriph_Driver/src/stm32f10x_can.c ****   * @brief  Returns the CANx Receive Error Counter (REC).
 937:../STM32F10x_StdPeriph_Lib_V3.5.0/Libraries/STM32F10x_StdPeriph_Driver/src/stm32f10x_can.c ****   * @note   In case of an error during reception, this counter is incremented 
 938:../STM32F10x_StdPeriph_Lib_V3.5.0/Libraries/STM32F10x_StdPeriph_Driver/src/stm32f10x_can.c ****   *         by 1 or by 8 depending on the error condition as defined by the CAN 
 939:../STM32F10x_StdPeriph_Lib_V3.5.0/Libraries/STM32F10x_StdPeriph_Driver/src/stm32f10x_can.c ****   *         standard. After every successful reception, the counter is 
 940:../STM32F10x_StdPeriph_Lib_V3.5.0/Libraries/STM32F10x_StdPeriph_Driver/src/stm32f10x_can.c ****   *         decremented by 1 or reset to 120 if its value was higher than 128. 
 941:../STM32F10x_StdPeriph_Lib_V3.5.0/Libraries/STM32F10x_StdPeriph_Driver/src/stm32f10x_can.c ****   *         When the counter value exceeds 127, the CAN controller enters the 
 942:../STM32F10x_StdPeriph_Lib_V3.5.0/Libraries/STM32F10x_StdPeriph_Driver/src/stm32f10x_can.c ****   *         error passive state.  
 943:../STM32F10x_StdPeriph_Lib_V3.5.0/Libraries/STM32F10x_StdPeriph_Driver/src/stm32f10x_can.c ****   * @param  CANx: where x can be 1 or 2 to to select the CAN peripheral.  
 944:../STM32F10x_StdPeriph_Lib_V3.5.0/Libraries/STM32F10x_StdPeriph_Driver/src/stm32f10x_can.c ****   * @retval CAN Receive Error Counter. 
 945:../STM32F10x_StdPeriph_Lib_V3.5.0/Libraries/STM32F10x_StdPeriph_Driver/src/stm32f10x_can.c ****   */
 946:../STM32F10x_StdPeriph_Lib_V3.5.0/Libraries/STM32F10x_StdPeriph_Driver/src/stm32f10x_can.c **** uint8_t CAN_GetReceiveErrorCounter(CAN_TypeDef* CANx)
 947:../STM32F10x_StdPeriph_Lib_V3.5.0/Libraries/STM32F10x_StdPeriph_Driver/src/stm32f10x_can.c **** {
 2068              		.loc 1 947 0
 2069              		.cfi_startproc
 2070              		@ args = 0, pretend = 0, frame = 16
 2071              		@ frame_needed = 1, uses_anonymous_args = 0
 2072              		@ link register save eliminated.
 2073 0000 80B4     		push	{r7}
 2074              	.LCFI51:
 2075              		.cfi_def_cfa_offset 4
 2076              		.cfi_offset 7, -4
 2077 0002 85B0     		sub	sp, sp, #20
 2078              	.LCFI52:
 2079              		.cfi_def_cfa_offset 24
 2080 0004 00AF     		add	r7, sp, #0
 2081              	.LCFI53:
 2082              		.cfi_def_cfa_register 7
 2083 0006 7860     		str	r0, [r7, #4]
 948:../STM32F10x_StdPeriph_Lib_V3.5.0/Libraries/STM32F10x_StdPeriph_Driver/src/stm32f10x_can.c ****   uint8_t counter=0;
 2084              		.loc 1 948 0
 2085 0008 4FF00003 		mov	r3, #0
 2086 000c FB73     		strb	r3, [r7, #15]
 949:../STM32F10x_StdPeriph_Lib_V3.5.0/Libraries/STM32F10x_StdPeriph_Driver/src/stm32f10x_can.c ****   
 950:../STM32F10x_StdPeriph_Lib_V3.5.0/Libraries/STM32F10x_StdPeriph_Driver/src/stm32f10x_can.c ****   /* Check the parameters */
 951:../STM32F10x_StdPeriph_Lib_V3.5.0/Libraries/STM32F10x_StdPeriph_Driver/src/stm32f10x_can.c ****   assert_param(IS_CAN_ALL_PERIPH(CANx));
 952:../STM32F10x_StdPeriph_Lib_V3.5.0/Libraries/STM32F10x_StdPeriph_Driver/src/stm32f10x_can.c ****   
 953:../STM32F10x_StdPeriph_Lib_V3.5.0/Libraries/STM32F10x_StdPeriph_Driver/src/stm32f10x_can.c ****   /* Get the Receive Error Counter*/
 954:../STM32F10x_StdPeriph_Lib_V3.5.0/Libraries/STM32F10x_StdPeriph_Driver/src/stm32f10x_can.c ****   counter = (uint8_t)((CANx->ESR & CAN_ESR_REC)>> 24);
 2087              		.loc 1 954 0
 2088 000e 7B68     		ldr	r3, [r7, #4]
 2089 0010 9B69     		ldr	r3, [r3, #24]
 2090 0012 4FEA1363 		lsr	r3, r3, #24
 2091 0016 FB73     		strb	r3, [r7, #15]
 955:../STM32F10x_StdPeriph_Lib_V3.5.0/Libraries/STM32F10x_StdPeriph_Driver/src/stm32f10x_can.c ****   
 956:../STM32F10x_StdPeriph_Lib_V3.5.0/Libraries/STM32F10x_StdPeriph_Driver/src/stm32f10x_can.c ****   /* Return the Receive Error Counter*/
 957:../STM32F10x_StdPeriph_Lib_V3.5.0/Libraries/STM32F10x_StdPeriph_Driver/src/stm32f10x_can.c ****   return counter;
 2092              		.loc 1 957 0
 2093 0018 FB7B     		ldrb	r3, [r7, #15]	@ zero_extendqisi2
 958:../STM32F10x_StdPeriph_Lib_V3.5.0/Libraries/STM32F10x_StdPeriph_Driver/src/stm32f10x_can.c **** }
 2094              		.loc 1 958 0
 2095 001a 1846     		mov	r0, r3
 2096 001c 07F11407 		add	r7, r7, #20
 2097 0020 BD46     		mov	sp, r7
 2098 0022 80BC     		pop	{r7}
 2099 0024 7047     		bx	lr
 2100              		.cfi_endproc
 2101              	.LFE46:
 2103 0026 00BF     		.section	.text.CAN_GetLSBTransmitErrorCounter,"ax",%progbits
 2104              		.align	2
 2105              		.global	CAN_GetLSBTransmitErrorCounter
 2106              		.thumb
 2107              		.thumb_func
 2109              	CAN_GetLSBTransmitErrorCounter:
 2110              	.LFB47:
 959:../STM32F10x_StdPeriph_Lib_V3.5.0/Libraries/STM32F10x_StdPeriph_Driver/src/stm32f10x_can.c **** 
 960:../STM32F10x_StdPeriph_Lib_V3.5.0/Libraries/STM32F10x_StdPeriph_Driver/src/stm32f10x_can.c **** 
 961:../STM32F10x_StdPeriph_Lib_V3.5.0/Libraries/STM32F10x_StdPeriph_Driver/src/stm32f10x_can.c **** /**
 962:../STM32F10x_StdPeriph_Lib_V3.5.0/Libraries/STM32F10x_StdPeriph_Driver/src/stm32f10x_can.c ****   * @brief  Returns the LSB of the 9-bit CANx Transmit Error Counter(TEC).
 963:../STM32F10x_StdPeriph_Lib_V3.5.0/Libraries/STM32F10x_StdPeriph_Driver/src/stm32f10x_can.c ****   * @param  CANx:   where x can be 1 or 2 to to select the CAN peripheral.  
 964:../STM32F10x_StdPeriph_Lib_V3.5.0/Libraries/STM32F10x_StdPeriph_Driver/src/stm32f10x_can.c ****   * @retval LSB of the 9-bit CAN Transmit Error Counter. 
 965:../STM32F10x_StdPeriph_Lib_V3.5.0/Libraries/STM32F10x_StdPeriph_Driver/src/stm32f10x_can.c ****   */
 966:../STM32F10x_StdPeriph_Lib_V3.5.0/Libraries/STM32F10x_StdPeriph_Driver/src/stm32f10x_can.c **** uint8_t CAN_GetLSBTransmitErrorCounter(CAN_TypeDef* CANx)
 967:../STM32F10x_StdPeriph_Lib_V3.5.0/Libraries/STM32F10x_StdPeriph_Driver/src/stm32f10x_can.c **** {
 2111              		.loc 1 967 0
 2112              		.cfi_startproc
 2113              		@ args = 0, pretend = 0, frame = 16
 2114              		@ frame_needed = 1, uses_anonymous_args = 0
 2115              		@ link register save eliminated.
 2116 0000 80B4     		push	{r7}
 2117              	.LCFI54:
 2118              		.cfi_def_cfa_offset 4
 2119              		.cfi_offset 7, -4
 2120 0002 85B0     		sub	sp, sp, #20
 2121              	.LCFI55:
 2122              		.cfi_def_cfa_offset 24
 2123 0004 00AF     		add	r7, sp, #0
 2124              	.LCFI56:
 2125              		.cfi_def_cfa_register 7
 2126 0006 7860     		str	r0, [r7, #4]
 968:../STM32F10x_StdPeriph_Lib_V3.5.0/Libraries/STM32F10x_StdPeriph_Driver/src/stm32f10x_can.c ****   uint8_t counter=0;
 2127              		.loc 1 968 0
 2128 0008 4FF00003 		mov	r3, #0
 2129 000c FB73     		strb	r3, [r7, #15]
 969:../STM32F10x_StdPeriph_Lib_V3.5.0/Libraries/STM32F10x_StdPeriph_Driver/src/stm32f10x_can.c ****   
 970:../STM32F10x_StdPeriph_Lib_V3.5.0/Libraries/STM32F10x_StdPeriph_Driver/src/stm32f10x_can.c ****   /* Check the parameters */
 971:../STM32F10x_StdPeriph_Lib_V3.5.0/Libraries/STM32F10x_StdPeriph_Driver/src/stm32f10x_can.c ****   assert_param(IS_CAN_ALL_PERIPH(CANx));
 972:../STM32F10x_StdPeriph_Lib_V3.5.0/Libraries/STM32F10x_StdPeriph_Driver/src/stm32f10x_can.c ****   
 973:../STM32F10x_StdPeriph_Lib_V3.5.0/Libraries/STM32F10x_StdPeriph_Driver/src/stm32f10x_can.c ****   /* Get the LSB of the 9-bit CANx Transmit Error Counter(TEC) */
 974:../STM32F10x_StdPeriph_Lib_V3.5.0/Libraries/STM32F10x_StdPeriph_Driver/src/stm32f10x_can.c ****   counter = (uint8_t)((CANx->ESR & CAN_ESR_TEC)>> 16);
 2130              		.loc 1 974 0
 2131 000e 7B68     		ldr	r3, [r7, #4]
 2132 0010 9B69     		ldr	r3, [r3, #24]
 2133 0012 03F47F03 		and	r3, r3, #16711680
 2134 0016 4FEA1343 		lsr	r3, r3, #16
 2135 001a FB73     		strb	r3, [r7, #15]
 975:../STM32F10x_StdPeriph_Lib_V3.5.0/Libraries/STM32F10x_StdPeriph_Driver/src/stm32f10x_can.c ****   
 976:../STM32F10x_StdPeriph_Lib_V3.5.0/Libraries/STM32F10x_StdPeriph_Driver/src/stm32f10x_can.c ****   /* Return the LSB of the 9-bit CANx Transmit Error Counter(TEC) */
 977:../STM32F10x_StdPeriph_Lib_V3.5.0/Libraries/STM32F10x_StdPeriph_Driver/src/stm32f10x_can.c ****   return counter;
 2136              		.loc 1 977 0
 2137 001c FB7B     		ldrb	r3, [r7, #15]	@ zero_extendqisi2
 978:../STM32F10x_StdPeriph_Lib_V3.5.0/Libraries/STM32F10x_StdPeriph_Driver/src/stm32f10x_can.c **** }
 2138              		.loc 1 978 0
 2139 001e 1846     		mov	r0, r3
 2140 0020 07F11407 		add	r7, r7, #20
 2141 0024 BD46     		mov	sp, r7
 2142 0026 80BC     		pop	{r7}
 2143 0028 7047     		bx	lr
 2144              		.cfi_endproc
 2145              	.LFE47:
 2147 002a 00BF     		.section	.text.CAN_ITConfig,"ax",%progbits
 2148              		.align	2
 2149              		.global	CAN_ITConfig
 2150              		.thumb
 2151              		.thumb_func
 2153              	CAN_ITConfig:
 2154              	.LFB48:
 979:../STM32F10x_StdPeriph_Lib_V3.5.0/Libraries/STM32F10x_StdPeriph_Driver/src/stm32f10x_can.c **** 
 980:../STM32F10x_StdPeriph_Lib_V3.5.0/Libraries/STM32F10x_StdPeriph_Driver/src/stm32f10x_can.c **** 
 981:../STM32F10x_StdPeriph_Lib_V3.5.0/Libraries/STM32F10x_StdPeriph_Driver/src/stm32f10x_can.c **** /**
 982:../STM32F10x_StdPeriph_Lib_V3.5.0/Libraries/STM32F10x_StdPeriph_Driver/src/stm32f10x_can.c ****   * @brief  Enables or disables the specified CANx interrupts.
 983:../STM32F10x_StdPeriph_Lib_V3.5.0/Libraries/STM32F10x_StdPeriph_Driver/src/stm32f10x_can.c ****   * @param  CANx:   where x can be 1 or 2 to to select the CAN peripheral.
 984:../STM32F10x_StdPeriph_Lib_V3.5.0/Libraries/STM32F10x_StdPeriph_Driver/src/stm32f10x_can.c ****   * @param  CAN_IT: specifies the CAN interrupt sources to be enabled or disabled.
 985:../STM32F10x_StdPeriph_Lib_V3.5.0/Libraries/STM32F10x_StdPeriph_Driver/src/stm32f10x_can.c ****   *                 This parameter can be: 
 986:../STM32F10x_StdPeriph_Lib_V3.5.0/Libraries/STM32F10x_StdPeriph_Driver/src/stm32f10x_can.c ****   *                 - CAN_IT_TME, 
 987:../STM32F10x_StdPeriph_Lib_V3.5.0/Libraries/STM32F10x_StdPeriph_Driver/src/stm32f10x_can.c ****   *                 - CAN_IT_FMP0, 
 988:../STM32F10x_StdPeriph_Lib_V3.5.0/Libraries/STM32F10x_StdPeriph_Driver/src/stm32f10x_can.c ****   *                 - CAN_IT_FF0,
 989:../STM32F10x_StdPeriph_Lib_V3.5.0/Libraries/STM32F10x_StdPeriph_Driver/src/stm32f10x_can.c ****   *                 - CAN_IT_FOV0, 
 990:../STM32F10x_StdPeriph_Lib_V3.5.0/Libraries/STM32F10x_StdPeriph_Driver/src/stm32f10x_can.c ****   *                 - CAN_IT_FMP1, 
 991:../STM32F10x_StdPeriph_Lib_V3.5.0/Libraries/STM32F10x_StdPeriph_Driver/src/stm32f10x_can.c ****   *                 - CAN_IT_FF1,
 992:../STM32F10x_StdPeriph_Lib_V3.5.0/Libraries/STM32F10x_StdPeriph_Driver/src/stm32f10x_can.c ****   *                 - CAN_IT_FOV1, 
 993:../STM32F10x_StdPeriph_Lib_V3.5.0/Libraries/STM32F10x_StdPeriph_Driver/src/stm32f10x_can.c ****   *                 - CAN_IT_EWG, 
 994:../STM32F10x_StdPeriph_Lib_V3.5.0/Libraries/STM32F10x_StdPeriph_Driver/src/stm32f10x_can.c ****   *                 - CAN_IT_EPV,
 995:../STM32F10x_StdPeriph_Lib_V3.5.0/Libraries/STM32F10x_StdPeriph_Driver/src/stm32f10x_can.c ****   *                 - CAN_IT_LEC, 
 996:../STM32F10x_StdPeriph_Lib_V3.5.0/Libraries/STM32F10x_StdPeriph_Driver/src/stm32f10x_can.c ****   *                 - CAN_IT_ERR, 
 997:../STM32F10x_StdPeriph_Lib_V3.5.0/Libraries/STM32F10x_StdPeriph_Driver/src/stm32f10x_can.c ****   *                 - CAN_IT_WKU or 
 998:../STM32F10x_StdPeriph_Lib_V3.5.0/Libraries/STM32F10x_StdPeriph_Driver/src/stm32f10x_can.c ****   *                 - CAN_IT_SLK.
 999:../STM32F10x_StdPeriph_Lib_V3.5.0/Libraries/STM32F10x_StdPeriph_Driver/src/stm32f10x_can.c ****   * @param  NewState: new state of the CAN interrupts.
1000:../STM32F10x_StdPeriph_Lib_V3.5.0/Libraries/STM32F10x_StdPeriph_Driver/src/stm32f10x_can.c ****   *                   This parameter can be: ENABLE or DISABLE.
1001:../STM32F10x_StdPeriph_Lib_V3.5.0/Libraries/STM32F10x_StdPeriph_Driver/src/stm32f10x_can.c ****   * @retval None.
1002:../STM32F10x_StdPeriph_Lib_V3.5.0/Libraries/STM32F10x_StdPeriph_Driver/src/stm32f10x_can.c ****   */
1003:../STM32F10x_StdPeriph_Lib_V3.5.0/Libraries/STM32F10x_StdPeriph_Driver/src/stm32f10x_can.c **** void CAN_ITConfig(CAN_TypeDef* CANx, uint32_t CAN_IT, FunctionalState NewState)
1004:../STM32F10x_StdPeriph_Lib_V3.5.0/Libraries/STM32F10x_StdPeriph_Driver/src/stm32f10x_can.c **** {
 2155              		.loc 1 1004 0
 2156              		.cfi_startproc
 2157              		@ args = 0, pretend = 0, frame = 16
 2158              		@ frame_needed = 1, uses_anonymous_args = 0
 2159              		@ link register save eliminated.
 2160 0000 80B4     		push	{r7}
 2161              	.LCFI57:
 2162              		.cfi_def_cfa_offset 4
 2163              		.cfi_offset 7, -4
 2164 0002 85B0     		sub	sp, sp, #20
 2165              	.LCFI58:
 2166              		.cfi_def_cfa_offset 24
 2167 0004 00AF     		add	r7, sp, #0
 2168              	.LCFI59:
 2169              		.cfi_def_cfa_register 7
 2170 0006 F860     		str	r0, [r7, #12]
 2171 0008 B960     		str	r1, [r7, #8]
 2172 000a 1346     		mov	r3, r2
 2173 000c FB71     		strb	r3, [r7, #7]
1005:../STM32F10x_StdPeriph_Lib_V3.5.0/Libraries/STM32F10x_StdPeriph_Driver/src/stm32f10x_can.c ****   /* Check the parameters */
1006:../STM32F10x_StdPeriph_Lib_V3.5.0/Libraries/STM32F10x_StdPeriph_Driver/src/stm32f10x_can.c ****   assert_param(IS_CAN_ALL_PERIPH(CANx));
1007:../STM32F10x_StdPeriph_Lib_V3.5.0/Libraries/STM32F10x_StdPeriph_Driver/src/stm32f10x_can.c ****   assert_param(IS_CAN_IT(CAN_IT));
1008:../STM32F10x_StdPeriph_Lib_V3.5.0/Libraries/STM32F10x_StdPeriph_Driver/src/stm32f10x_can.c ****   assert_param(IS_FUNCTIONAL_STATE(NewState));
1009:../STM32F10x_StdPeriph_Lib_V3.5.0/Libraries/STM32F10x_StdPeriph_Driver/src/stm32f10x_can.c **** 
1010:../STM32F10x_StdPeriph_Lib_V3.5.0/Libraries/STM32F10x_StdPeriph_Driver/src/stm32f10x_can.c ****   if (NewState != DISABLE)
 2174              		.loc 1 1010 0
 2175 000e FB79     		ldrb	r3, [r7, #7]	@ zero_extendqisi2
 2176 0010 002B     		cmp	r3, #0
 2177 0012 06D0     		beq	.L132
1011:../STM32F10x_StdPeriph_Lib_V3.5.0/Libraries/STM32F10x_StdPeriph_Driver/src/stm32f10x_can.c ****   {
1012:../STM32F10x_StdPeriph_Lib_V3.5.0/Libraries/STM32F10x_StdPeriph_Driver/src/stm32f10x_can.c ****     /* Enable the selected CANx interrupt */
1013:../STM32F10x_StdPeriph_Lib_V3.5.0/Libraries/STM32F10x_StdPeriph_Driver/src/stm32f10x_can.c ****     CANx->IER |= CAN_IT;
 2178              		.loc 1 1013 0
 2179 0014 FB68     		ldr	r3, [r7, #12]
 2180 0016 5A69     		ldr	r2, [r3, #20]
 2181 0018 BB68     		ldr	r3, [r7, #8]
 2182 001a 1A43     		orrs	r2, r2, r3
 2183 001c FB68     		ldr	r3, [r7, #12]
 2184 001e 5A61     		str	r2, [r3, #20]
 2185 0020 07E0     		b	.L131
 2186              	.L132:
1014:../STM32F10x_StdPeriph_Lib_V3.5.0/Libraries/STM32F10x_StdPeriph_Driver/src/stm32f10x_can.c ****   }
1015:../STM32F10x_StdPeriph_Lib_V3.5.0/Libraries/STM32F10x_StdPeriph_Driver/src/stm32f10x_can.c ****   else
1016:../STM32F10x_StdPeriph_Lib_V3.5.0/Libraries/STM32F10x_StdPeriph_Driver/src/stm32f10x_can.c ****   {
1017:../STM32F10x_StdPeriph_Lib_V3.5.0/Libraries/STM32F10x_StdPeriph_Driver/src/stm32f10x_can.c ****     /* Disable the selected CANx interrupt */
1018:../STM32F10x_StdPeriph_Lib_V3.5.0/Libraries/STM32F10x_StdPeriph_Driver/src/stm32f10x_can.c ****     CANx->IER &= ~CAN_IT;
 2187              		.loc 1 1018 0
 2188 0022 FB68     		ldr	r3, [r7, #12]
 2189 0024 5A69     		ldr	r2, [r3, #20]
 2190 0026 BB68     		ldr	r3, [r7, #8]
 2191 0028 6FEA0303 		mvn	r3, r3
 2192 002c 1A40     		ands	r2, r2, r3
 2193 002e FB68     		ldr	r3, [r7, #12]
 2194 0030 5A61     		str	r2, [r3, #20]
 2195              	.L131:
1019:../STM32F10x_StdPeriph_Lib_V3.5.0/Libraries/STM32F10x_StdPeriph_Driver/src/stm32f10x_can.c ****   }
1020:../STM32F10x_StdPeriph_Lib_V3.5.0/Libraries/STM32F10x_StdPeriph_Driver/src/stm32f10x_can.c **** }
 2196              		.loc 1 1020 0
 2197 0032 07F11407 		add	r7, r7, #20
 2198 0036 BD46     		mov	sp, r7
 2199 0038 80BC     		pop	{r7}
 2200 003a 7047     		bx	lr
 2201              		.cfi_endproc
 2202              	.LFE48:
 2204              		.section	.text.CAN_GetFlagStatus,"ax",%progbits
 2205              		.align	2
 2206              		.global	CAN_GetFlagStatus
 2207              		.thumb
 2208              		.thumb_func
 2210              	CAN_GetFlagStatus:
 2211              	.LFB49:
1021:../STM32F10x_StdPeriph_Lib_V3.5.0/Libraries/STM32F10x_StdPeriph_Driver/src/stm32f10x_can.c **** /**
1022:../STM32F10x_StdPeriph_Lib_V3.5.0/Libraries/STM32F10x_StdPeriph_Driver/src/stm32f10x_can.c ****   * @brief  Checks whether the specified CAN flag is set or not.
1023:../STM32F10x_StdPeriph_Lib_V3.5.0/Libraries/STM32F10x_StdPeriph_Driver/src/stm32f10x_can.c ****   * @param  CANx:     where x can be 1 or 2 to to select the CAN peripheral.
1024:../STM32F10x_StdPeriph_Lib_V3.5.0/Libraries/STM32F10x_StdPeriph_Driver/src/stm32f10x_can.c ****   * @param  CAN_FLAG: specifies the flag to check.
1025:../STM32F10x_StdPeriph_Lib_V3.5.0/Libraries/STM32F10x_StdPeriph_Driver/src/stm32f10x_can.c ****   *                   This parameter can be one of the following flags: 
1026:../STM32F10x_StdPeriph_Lib_V3.5.0/Libraries/STM32F10x_StdPeriph_Driver/src/stm32f10x_can.c ****   *                  - CAN_FLAG_EWG
1027:../STM32F10x_StdPeriph_Lib_V3.5.0/Libraries/STM32F10x_StdPeriph_Driver/src/stm32f10x_can.c ****   *                  - CAN_FLAG_EPV 
1028:../STM32F10x_StdPeriph_Lib_V3.5.0/Libraries/STM32F10x_StdPeriph_Driver/src/stm32f10x_can.c ****   *                  - CAN_FLAG_BOF
1029:../STM32F10x_StdPeriph_Lib_V3.5.0/Libraries/STM32F10x_StdPeriph_Driver/src/stm32f10x_can.c ****   *                  - CAN_FLAG_RQCP0
1030:../STM32F10x_StdPeriph_Lib_V3.5.0/Libraries/STM32F10x_StdPeriph_Driver/src/stm32f10x_can.c ****   *                  - CAN_FLAG_RQCP1
1031:../STM32F10x_StdPeriph_Lib_V3.5.0/Libraries/STM32F10x_StdPeriph_Driver/src/stm32f10x_can.c ****   *                  - CAN_FLAG_RQCP2
1032:../STM32F10x_StdPeriph_Lib_V3.5.0/Libraries/STM32F10x_StdPeriph_Driver/src/stm32f10x_can.c ****   *                  - CAN_FLAG_FMP1   
1033:../STM32F10x_StdPeriph_Lib_V3.5.0/Libraries/STM32F10x_StdPeriph_Driver/src/stm32f10x_can.c ****   *                  - CAN_FLAG_FF1       
1034:../STM32F10x_StdPeriph_Lib_V3.5.0/Libraries/STM32F10x_StdPeriph_Driver/src/stm32f10x_can.c ****   *                  - CAN_FLAG_FOV1   
1035:../STM32F10x_StdPeriph_Lib_V3.5.0/Libraries/STM32F10x_StdPeriph_Driver/src/stm32f10x_can.c ****   *                  - CAN_FLAG_FMP0   
1036:../STM32F10x_StdPeriph_Lib_V3.5.0/Libraries/STM32F10x_StdPeriph_Driver/src/stm32f10x_can.c ****   *                  - CAN_FLAG_FF0       
1037:../STM32F10x_StdPeriph_Lib_V3.5.0/Libraries/STM32F10x_StdPeriph_Driver/src/stm32f10x_can.c ****   *                  - CAN_FLAG_FOV0   
1038:../STM32F10x_StdPeriph_Lib_V3.5.0/Libraries/STM32F10x_StdPeriph_Driver/src/stm32f10x_can.c ****   *                  - CAN_FLAG_WKU 
1039:../STM32F10x_StdPeriph_Lib_V3.5.0/Libraries/STM32F10x_StdPeriph_Driver/src/stm32f10x_can.c ****   *                  - CAN_FLAG_SLAK  
1040:../STM32F10x_StdPeriph_Lib_V3.5.0/Libraries/STM32F10x_StdPeriph_Driver/src/stm32f10x_can.c ****   *                  - CAN_FLAG_LEC       
1041:../STM32F10x_StdPeriph_Lib_V3.5.0/Libraries/STM32F10x_StdPeriph_Driver/src/stm32f10x_can.c ****   * @retval The new state of CAN_FLAG (SET or RESET).
1042:../STM32F10x_StdPeriph_Lib_V3.5.0/Libraries/STM32F10x_StdPeriph_Driver/src/stm32f10x_can.c ****   */
1043:../STM32F10x_StdPeriph_Lib_V3.5.0/Libraries/STM32F10x_StdPeriph_Driver/src/stm32f10x_can.c **** FlagStatus CAN_GetFlagStatus(CAN_TypeDef* CANx, uint32_t CAN_FLAG)
1044:../STM32F10x_StdPeriph_Lib_V3.5.0/Libraries/STM32F10x_StdPeriph_Driver/src/stm32f10x_can.c **** {
 2212              		.loc 1 1044 0
 2213              		.cfi_startproc
 2214              		@ args = 0, pretend = 0, frame = 16
 2215              		@ frame_needed = 1, uses_anonymous_args = 0
 2216              		@ link register save eliminated.
 2217 0000 80B4     		push	{r7}
 2218              	.LCFI60:
 2219              		.cfi_def_cfa_offset 4
 2220              		.cfi_offset 7, -4
 2221 0002 85B0     		sub	sp, sp, #20
 2222              	.LCFI61:
 2223              		.cfi_def_cfa_offset 24
 2224 0004 00AF     		add	r7, sp, #0
 2225              	.LCFI62:
 2226              		.cfi_def_cfa_register 7
 2227 0006 7860     		str	r0, [r7, #4]
 2228 0008 3960     		str	r1, [r7, #0]
1045:../STM32F10x_StdPeriph_Lib_V3.5.0/Libraries/STM32F10x_StdPeriph_Driver/src/stm32f10x_can.c ****   FlagStatus bitstatus = RESET;
 2229              		.loc 1 1045 0
 2230 000a 4FF00003 		mov	r3, #0
 2231 000e FB73     		strb	r3, [r7, #15]
1046:../STM32F10x_StdPeriph_Lib_V3.5.0/Libraries/STM32F10x_StdPeriph_Driver/src/stm32f10x_can.c ****   
1047:../STM32F10x_StdPeriph_Lib_V3.5.0/Libraries/STM32F10x_StdPeriph_Driver/src/stm32f10x_can.c ****   /* Check the parameters */
1048:../STM32F10x_StdPeriph_Lib_V3.5.0/Libraries/STM32F10x_StdPeriph_Driver/src/stm32f10x_can.c ****   assert_param(IS_CAN_ALL_PERIPH(CANx));
1049:../STM32F10x_StdPeriph_Lib_V3.5.0/Libraries/STM32F10x_StdPeriph_Driver/src/stm32f10x_can.c ****   assert_param(IS_CAN_GET_FLAG(CAN_FLAG));
1050:../STM32F10x_StdPeriph_Lib_V3.5.0/Libraries/STM32F10x_StdPeriph_Driver/src/stm32f10x_can.c ****   
1051:../STM32F10x_StdPeriph_Lib_V3.5.0/Libraries/STM32F10x_StdPeriph_Driver/src/stm32f10x_can.c **** 
1052:../STM32F10x_StdPeriph_Lib_V3.5.0/Libraries/STM32F10x_StdPeriph_Driver/src/stm32f10x_can.c ****   if((CAN_FLAG & CAN_FLAGS_ESR) != (uint32_t)RESET)
 2232              		.loc 1 1052 0
 2233 0010 3B68     		ldr	r3, [r7, #0]
 2234 0012 03F47003 		and	r3, r3, #15728640
 2235 0016 002B     		cmp	r3, #0
 2236 0018 11D0     		beq	.L135
1053:../STM32F10x_StdPeriph_Lib_V3.5.0/Libraries/STM32F10x_StdPeriph_Driver/src/stm32f10x_can.c ****   { 
1054:../STM32F10x_StdPeriph_Lib_V3.5.0/Libraries/STM32F10x_StdPeriph_Driver/src/stm32f10x_can.c ****     /* Check the status of the specified CAN flag */
1055:../STM32F10x_StdPeriph_Lib_V3.5.0/Libraries/STM32F10x_StdPeriph_Driver/src/stm32f10x_can.c ****     if ((CANx->ESR & (CAN_FLAG & 0x000FFFFF)) != (uint32_t)RESET)
 2237              		.loc 1 1055 0
 2238 001a 7B68     		ldr	r3, [r7, #4]
 2239 001c 9A69     		ldr	r2, [r3, #24]
 2240 001e 3B68     		ldr	r3, [r7, #0]
 2241 0020 1340     		ands	r3, r3, r2
 2242 0022 23F07F43 		bic	r3, r3, #-16777216
 2243 0026 23F47003 		bic	r3, r3, #15728640
 2244 002a 002B     		cmp	r3, #0
 2245 002c 03D0     		beq	.L136
1056:../STM32F10x_StdPeriph_Lib_V3.5.0/Libraries/STM32F10x_StdPeriph_Driver/src/stm32f10x_can.c ****     { 
1057:../STM32F10x_StdPeriph_Lib_V3.5.0/Libraries/STM32F10x_StdPeriph_Driver/src/stm32f10x_can.c ****       /* CAN_FLAG is set */
1058:../STM32F10x_StdPeriph_Lib_V3.5.0/Libraries/STM32F10x_StdPeriph_Driver/src/stm32f10x_can.c ****       bitstatus = SET;
 2246              		.loc 1 1058 0
 2247 002e 4FF00103 		mov	r3, #1
 2248 0032 FB73     		strb	r3, [r7, #15]
 2249 0034 59E0     		b	.L137
 2250              	.L136:
1059:../STM32F10x_StdPeriph_Lib_V3.5.0/Libraries/STM32F10x_StdPeriph_Driver/src/stm32f10x_can.c ****     }
1060:../STM32F10x_StdPeriph_Lib_V3.5.0/Libraries/STM32F10x_StdPeriph_Driver/src/stm32f10x_can.c ****     else
1061:../STM32F10x_StdPeriph_Lib_V3.5.0/Libraries/STM32F10x_StdPeriph_Driver/src/stm32f10x_can.c ****     { 
1062:../STM32F10x_StdPeriph_Lib_V3.5.0/Libraries/STM32F10x_StdPeriph_Driver/src/stm32f10x_can.c ****       /* CAN_FLAG is reset */
1063:../STM32F10x_StdPeriph_Lib_V3.5.0/Libraries/STM32F10x_StdPeriph_Driver/src/stm32f10x_can.c ****       bitstatus = RESET;
 2251              		.loc 1 1063 0
 2252 0036 4FF00003 		mov	r3, #0
 2253 003a FB73     		strb	r3, [r7, #15]
 2254 003c 55E0     		b	.L137
 2255              	.L135:
1064:../STM32F10x_StdPeriph_Lib_V3.5.0/Libraries/STM32F10x_StdPeriph_Driver/src/stm32f10x_can.c ****     }
1065:../STM32F10x_StdPeriph_Lib_V3.5.0/Libraries/STM32F10x_StdPeriph_Driver/src/stm32f10x_can.c ****   }
1066:../STM32F10x_StdPeriph_Lib_V3.5.0/Libraries/STM32F10x_StdPeriph_Driver/src/stm32f10x_can.c ****   else if((CAN_FLAG & CAN_FLAGS_MSR) != (uint32_t)RESET)
 2256              		.loc 1 1066 0
 2257 003e 3B68     		ldr	r3, [r7, #0]
 2258 0040 03F08073 		and	r3, r3, #16777216
 2259 0044 002B     		cmp	r3, #0
 2260 0046 11D0     		beq	.L138
1067:../STM32F10x_StdPeriph_Lib_V3.5.0/Libraries/STM32F10x_StdPeriph_Driver/src/stm32f10x_can.c ****   { 
1068:../STM32F10x_StdPeriph_Lib_V3.5.0/Libraries/STM32F10x_StdPeriph_Driver/src/stm32f10x_can.c ****     /* Check the status of the specified CAN flag */
1069:../STM32F10x_StdPeriph_Lib_V3.5.0/Libraries/STM32F10x_StdPeriph_Driver/src/stm32f10x_can.c ****     if ((CANx->MSR & (CAN_FLAG & 0x000FFFFF)) != (uint32_t)RESET)
 2261              		.loc 1 1069 0
 2262 0048 7B68     		ldr	r3, [r7, #4]
 2263 004a 5A68     		ldr	r2, [r3, #4]
 2264 004c 3B68     		ldr	r3, [r7, #0]
 2265 004e 1340     		ands	r3, r3, r2
 2266 0050 23F07F43 		bic	r3, r3, #-16777216
 2267 0054 23F47003 		bic	r3, r3, #15728640
 2268 0058 002B     		cmp	r3, #0
 2269 005a 03D0     		beq	.L139
1070:../STM32F10x_StdPeriph_Lib_V3.5.0/Libraries/STM32F10x_StdPeriph_Driver/src/stm32f10x_can.c ****     { 
1071:../STM32F10x_StdPeriph_Lib_V3.5.0/Libraries/STM32F10x_StdPeriph_Driver/src/stm32f10x_can.c ****       /* CAN_FLAG is set */
1072:../STM32F10x_StdPeriph_Lib_V3.5.0/Libraries/STM32F10x_StdPeriph_Driver/src/stm32f10x_can.c ****       bitstatus = SET;
 2270              		.loc 1 1072 0
 2271 005c 4FF00103 		mov	r3, #1
 2272 0060 FB73     		strb	r3, [r7, #15]
 2273 0062 42E0     		b	.L137
 2274              	.L139:
1073:../STM32F10x_StdPeriph_Lib_V3.5.0/Libraries/STM32F10x_StdPeriph_Driver/src/stm32f10x_can.c ****     }
1074:../STM32F10x_StdPeriph_Lib_V3.5.0/Libraries/STM32F10x_StdPeriph_Driver/src/stm32f10x_can.c ****     else
1075:../STM32F10x_StdPeriph_Lib_V3.5.0/Libraries/STM32F10x_StdPeriph_Driver/src/stm32f10x_can.c ****     { 
1076:../STM32F10x_StdPeriph_Lib_V3.5.0/Libraries/STM32F10x_StdPeriph_Driver/src/stm32f10x_can.c ****       /* CAN_FLAG is reset */
1077:../STM32F10x_StdPeriph_Lib_V3.5.0/Libraries/STM32F10x_StdPeriph_Driver/src/stm32f10x_can.c ****       bitstatus = RESET;
 2275              		.loc 1 1077 0
 2276 0064 4FF00003 		mov	r3, #0
 2277 0068 FB73     		strb	r3, [r7, #15]
 2278 006a 3EE0     		b	.L137
 2279              	.L138:
1078:../STM32F10x_StdPeriph_Lib_V3.5.0/Libraries/STM32F10x_StdPeriph_Driver/src/stm32f10x_can.c ****     }
1079:../STM32F10x_StdPeriph_Lib_V3.5.0/Libraries/STM32F10x_StdPeriph_Driver/src/stm32f10x_can.c ****   }
1080:../STM32F10x_StdPeriph_Lib_V3.5.0/Libraries/STM32F10x_StdPeriph_Driver/src/stm32f10x_can.c ****   else if((CAN_FLAG & CAN_FLAGS_TSR) != (uint32_t)RESET)
 2280              		.loc 1 1080 0
 2281 006c 3B68     		ldr	r3, [r7, #0]
 2282 006e 03F00063 		and	r3, r3, #134217728
 2283 0072 002B     		cmp	r3, #0
 2284 0074 11D0     		beq	.L140
1081:../STM32F10x_StdPeriph_Lib_V3.5.0/Libraries/STM32F10x_StdPeriph_Driver/src/stm32f10x_can.c ****   { 
1082:../STM32F10x_StdPeriph_Lib_V3.5.0/Libraries/STM32F10x_StdPeriph_Driver/src/stm32f10x_can.c ****     /* Check the status of the specified CAN flag */
1083:../STM32F10x_StdPeriph_Lib_V3.5.0/Libraries/STM32F10x_StdPeriph_Driver/src/stm32f10x_can.c ****     if ((CANx->TSR & (CAN_FLAG & 0x000FFFFF)) != (uint32_t)RESET)
 2285              		.loc 1 1083 0
 2286 0076 7B68     		ldr	r3, [r7, #4]
 2287 0078 9A68     		ldr	r2, [r3, #8]
 2288 007a 3B68     		ldr	r3, [r7, #0]
 2289 007c 1340     		ands	r3, r3, r2
 2290 007e 23F07F43 		bic	r3, r3, #-16777216
 2291 0082 23F47003 		bic	r3, r3, #15728640
 2292 0086 002B     		cmp	r3, #0
 2293 0088 03D0     		beq	.L141
1084:../STM32F10x_StdPeriph_Lib_V3.5.0/Libraries/STM32F10x_StdPeriph_Driver/src/stm32f10x_can.c ****     { 
1085:../STM32F10x_StdPeriph_Lib_V3.5.0/Libraries/STM32F10x_StdPeriph_Driver/src/stm32f10x_can.c ****       /* CAN_FLAG is set */
1086:../STM32F10x_StdPeriph_Lib_V3.5.0/Libraries/STM32F10x_StdPeriph_Driver/src/stm32f10x_can.c ****       bitstatus = SET;
 2294              		.loc 1 1086 0
 2295 008a 4FF00103 		mov	r3, #1
 2296 008e FB73     		strb	r3, [r7, #15]
 2297 0090 2BE0     		b	.L137
 2298              	.L141:
1087:../STM32F10x_StdPeriph_Lib_V3.5.0/Libraries/STM32F10x_StdPeriph_Driver/src/stm32f10x_can.c ****     }
1088:../STM32F10x_StdPeriph_Lib_V3.5.0/Libraries/STM32F10x_StdPeriph_Driver/src/stm32f10x_can.c ****     else
1089:../STM32F10x_StdPeriph_Lib_V3.5.0/Libraries/STM32F10x_StdPeriph_Driver/src/stm32f10x_can.c ****     { 
1090:../STM32F10x_StdPeriph_Lib_V3.5.0/Libraries/STM32F10x_StdPeriph_Driver/src/stm32f10x_can.c ****       /* CAN_FLAG is reset */
1091:../STM32F10x_StdPeriph_Lib_V3.5.0/Libraries/STM32F10x_StdPeriph_Driver/src/stm32f10x_can.c ****       bitstatus = RESET;
 2299              		.loc 1 1091 0
 2300 0092 4FF00003 		mov	r3, #0
 2301 0096 FB73     		strb	r3, [r7, #15]
 2302 0098 27E0     		b	.L137
 2303              	.L140:
1092:../STM32F10x_StdPeriph_Lib_V3.5.0/Libraries/STM32F10x_StdPeriph_Driver/src/stm32f10x_can.c ****     }
1093:../STM32F10x_StdPeriph_Lib_V3.5.0/Libraries/STM32F10x_StdPeriph_Driver/src/stm32f10x_can.c ****   }
1094:../STM32F10x_StdPeriph_Lib_V3.5.0/Libraries/STM32F10x_StdPeriph_Driver/src/stm32f10x_can.c ****   else if((CAN_FLAG & CAN_FLAGS_RF0R) != (uint32_t)RESET)
 2304              		.loc 1 1094 0
 2305 009a 3B68     		ldr	r3, [r7, #0]
 2306 009c 03F00073 		and	r3, r3, #33554432
 2307 00a0 002B     		cmp	r3, #0
 2308 00a2 11D0     		beq	.L142
1095:../STM32F10x_StdPeriph_Lib_V3.5.0/Libraries/STM32F10x_StdPeriph_Driver/src/stm32f10x_can.c ****   { 
1096:../STM32F10x_StdPeriph_Lib_V3.5.0/Libraries/STM32F10x_StdPeriph_Driver/src/stm32f10x_can.c ****     /* Check the status of the specified CAN flag */
1097:../STM32F10x_StdPeriph_Lib_V3.5.0/Libraries/STM32F10x_StdPeriph_Driver/src/stm32f10x_can.c ****     if ((CANx->RF0R & (CAN_FLAG & 0x000FFFFF)) != (uint32_t)RESET)
 2309              		.loc 1 1097 0
 2310 00a4 7B68     		ldr	r3, [r7, #4]
 2311 00a6 DA68     		ldr	r2, [r3, #12]
 2312 00a8 3B68     		ldr	r3, [r7, #0]
 2313 00aa 1340     		ands	r3, r3, r2
 2314 00ac 23F07F43 		bic	r3, r3, #-16777216
 2315 00b0 23F47003 		bic	r3, r3, #15728640
 2316 00b4 002B     		cmp	r3, #0
 2317 00b6 03D0     		beq	.L143
1098:../STM32F10x_StdPeriph_Lib_V3.5.0/Libraries/STM32F10x_StdPeriph_Driver/src/stm32f10x_can.c ****     { 
1099:../STM32F10x_StdPeriph_Lib_V3.5.0/Libraries/STM32F10x_StdPeriph_Driver/src/stm32f10x_can.c ****       /* CAN_FLAG is set */
1100:../STM32F10x_StdPeriph_Lib_V3.5.0/Libraries/STM32F10x_StdPeriph_Driver/src/stm32f10x_can.c ****       bitstatus = SET;
 2318              		.loc 1 1100 0
 2319 00b8 4FF00103 		mov	r3, #1
 2320 00bc FB73     		strb	r3, [r7, #15]
 2321 00be 14E0     		b	.L137
 2322              	.L143:
1101:../STM32F10x_StdPeriph_Lib_V3.5.0/Libraries/STM32F10x_StdPeriph_Driver/src/stm32f10x_can.c ****     }
1102:../STM32F10x_StdPeriph_Lib_V3.5.0/Libraries/STM32F10x_StdPeriph_Driver/src/stm32f10x_can.c ****     else
1103:../STM32F10x_StdPeriph_Lib_V3.5.0/Libraries/STM32F10x_StdPeriph_Driver/src/stm32f10x_can.c ****     { 
1104:../STM32F10x_StdPeriph_Lib_V3.5.0/Libraries/STM32F10x_StdPeriph_Driver/src/stm32f10x_can.c ****       /* CAN_FLAG is reset */
1105:../STM32F10x_StdPeriph_Lib_V3.5.0/Libraries/STM32F10x_StdPeriph_Driver/src/stm32f10x_can.c ****       bitstatus = RESET;
 2323              		.loc 1 1105 0
 2324 00c0 4FF00003 		mov	r3, #0
 2325 00c4 FB73     		strb	r3, [r7, #15]
 2326 00c6 10E0     		b	.L137
 2327              	.L142:
1106:../STM32F10x_StdPeriph_Lib_V3.5.0/Libraries/STM32F10x_StdPeriph_Driver/src/stm32f10x_can.c ****     }
1107:../STM32F10x_StdPeriph_Lib_V3.5.0/Libraries/STM32F10x_StdPeriph_Driver/src/stm32f10x_can.c ****   }
1108:../STM32F10x_StdPeriph_Lib_V3.5.0/Libraries/STM32F10x_StdPeriph_Driver/src/stm32f10x_can.c ****   else /* If(CAN_FLAG & CAN_FLAGS_RF1R != (uint32_t)RESET) */
1109:../STM32F10x_StdPeriph_Lib_V3.5.0/Libraries/STM32F10x_StdPeriph_Driver/src/stm32f10x_can.c ****   { 
1110:../STM32F10x_StdPeriph_Lib_V3.5.0/Libraries/STM32F10x_StdPeriph_Driver/src/stm32f10x_can.c ****     /* Check the status of the specified CAN flag */
1111:../STM32F10x_StdPeriph_Lib_V3.5.0/Libraries/STM32F10x_StdPeriph_Driver/src/stm32f10x_can.c ****     if ((uint32_t)(CANx->RF1R & (CAN_FLAG & 0x000FFFFF)) != (uint32_t)RESET)
 2328              		.loc 1 1111 0
 2329 00c8 7B68     		ldr	r3, [r7, #4]
 2330 00ca 1A69     		ldr	r2, [r3, #16]
 2331 00cc 3B68     		ldr	r3, [r7, #0]
 2332 00ce 1340     		ands	r3, r3, r2
 2333 00d0 23F07F43 		bic	r3, r3, #-16777216
 2334 00d4 23F47003 		bic	r3, r3, #15728640
 2335 00d8 002B     		cmp	r3, #0
 2336 00da 03D0     		beq	.L144
1112:../STM32F10x_StdPeriph_Lib_V3.5.0/Libraries/STM32F10x_StdPeriph_Driver/src/stm32f10x_can.c ****     { 
1113:../STM32F10x_StdPeriph_Lib_V3.5.0/Libraries/STM32F10x_StdPeriph_Driver/src/stm32f10x_can.c ****       /* CAN_FLAG is set */
1114:../STM32F10x_StdPeriph_Lib_V3.5.0/Libraries/STM32F10x_StdPeriph_Driver/src/stm32f10x_can.c ****       bitstatus = SET;
 2337              		.loc 1 1114 0
 2338 00dc 4FF00103 		mov	r3, #1
 2339 00e0 FB73     		strb	r3, [r7, #15]
 2340 00e2 02E0     		b	.L137
 2341              	.L144:
1115:../STM32F10x_StdPeriph_Lib_V3.5.0/Libraries/STM32F10x_StdPeriph_Driver/src/stm32f10x_can.c ****     }
1116:../STM32F10x_StdPeriph_Lib_V3.5.0/Libraries/STM32F10x_StdPeriph_Driver/src/stm32f10x_can.c ****     else
1117:../STM32F10x_StdPeriph_Lib_V3.5.0/Libraries/STM32F10x_StdPeriph_Driver/src/stm32f10x_can.c ****     { 
1118:../STM32F10x_StdPeriph_Lib_V3.5.0/Libraries/STM32F10x_StdPeriph_Driver/src/stm32f10x_can.c ****       /* CAN_FLAG is reset */
1119:../STM32F10x_StdPeriph_Lib_V3.5.0/Libraries/STM32F10x_StdPeriph_Driver/src/stm32f10x_can.c ****       bitstatus = RESET;
 2342              		.loc 1 1119 0
 2343 00e4 4FF00003 		mov	r3, #0
 2344 00e8 FB73     		strb	r3, [r7, #15]
 2345              	.L137:
1120:../STM32F10x_StdPeriph_Lib_V3.5.0/Libraries/STM32F10x_StdPeriph_Driver/src/stm32f10x_can.c ****     }
1121:../STM32F10x_StdPeriph_Lib_V3.5.0/Libraries/STM32F10x_StdPeriph_Driver/src/stm32f10x_can.c ****   }
1122:../STM32F10x_StdPeriph_Lib_V3.5.0/Libraries/STM32F10x_StdPeriph_Driver/src/stm32f10x_can.c ****   /* Return the CAN_FLAG status */
1123:../STM32F10x_StdPeriph_Lib_V3.5.0/Libraries/STM32F10x_StdPeriph_Driver/src/stm32f10x_can.c ****   return  bitstatus;
 2346              		.loc 1 1123 0
 2347 00ea FB7B     		ldrb	r3, [r7, #15]	@ zero_extendqisi2
1124:../STM32F10x_StdPeriph_Lib_V3.5.0/Libraries/STM32F10x_StdPeriph_Driver/src/stm32f10x_can.c **** }
 2348              		.loc 1 1124 0
 2349 00ec 1846     		mov	r0, r3
 2350 00ee 07F11407 		add	r7, r7, #20
 2351 00f2 BD46     		mov	sp, r7
 2352 00f4 80BC     		pop	{r7}
 2353 00f6 7047     		bx	lr
 2354              		.cfi_endproc
 2355              	.LFE49:
 2357              		.section	.text.CAN_ClearFlag,"ax",%progbits
 2358              		.align	2
 2359              		.global	CAN_ClearFlag
 2360              		.thumb
 2361              		.thumb_func
 2363              	CAN_ClearFlag:
 2364              	.LFB50:
1125:../STM32F10x_StdPeriph_Lib_V3.5.0/Libraries/STM32F10x_StdPeriph_Driver/src/stm32f10x_can.c **** 
1126:../STM32F10x_StdPeriph_Lib_V3.5.0/Libraries/STM32F10x_StdPeriph_Driver/src/stm32f10x_can.c **** /**
1127:../STM32F10x_StdPeriph_Lib_V3.5.0/Libraries/STM32F10x_StdPeriph_Driver/src/stm32f10x_can.c ****   * @brief  Clears the CAN's pending flags.
1128:../STM32F10x_StdPeriph_Lib_V3.5.0/Libraries/STM32F10x_StdPeriph_Driver/src/stm32f10x_can.c ****   * @param  CANx:     where x can be 1 or 2 to to select the CAN peripheral.
1129:../STM32F10x_StdPeriph_Lib_V3.5.0/Libraries/STM32F10x_StdPeriph_Driver/src/stm32f10x_can.c ****   * @param  CAN_FLAG: specifies the flag to clear.
1130:../STM32F10x_StdPeriph_Lib_V3.5.0/Libraries/STM32F10x_StdPeriph_Driver/src/stm32f10x_can.c ****   *                   This parameter can be one of the following flags: 
1131:../STM32F10x_StdPeriph_Lib_V3.5.0/Libraries/STM32F10x_StdPeriph_Driver/src/stm32f10x_can.c ****   *                    - CAN_FLAG_RQCP0
1132:../STM32F10x_StdPeriph_Lib_V3.5.0/Libraries/STM32F10x_StdPeriph_Driver/src/stm32f10x_can.c ****   *                    - CAN_FLAG_RQCP1
1133:../STM32F10x_StdPeriph_Lib_V3.5.0/Libraries/STM32F10x_StdPeriph_Driver/src/stm32f10x_can.c ****   *                    - CAN_FLAG_RQCP2
1134:../STM32F10x_StdPeriph_Lib_V3.5.0/Libraries/STM32F10x_StdPeriph_Driver/src/stm32f10x_can.c ****   *                    - CAN_FLAG_FF1       
1135:../STM32F10x_StdPeriph_Lib_V3.5.0/Libraries/STM32F10x_StdPeriph_Driver/src/stm32f10x_can.c ****   *                    - CAN_FLAG_FOV1   
1136:../STM32F10x_StdPeriph_Lib_V3.5.0/Libraries/STM32F10x_StdPeriph_Driver/src/stm32f10x_can.c ****   *                    - CAN_FLAG_FF0       
1137:../STM32F10x_StdPeriph_Lib_V3.5.0/Libraries/STM32F10x_StdPeriph_Driver/src/stm32f10x_can.c ****   *                    - CAN_FLAG_FOV0   
1138:../STM32F10x_StdPeriph_Lib_V3.5.0/Libraries/STM32F10x_StdPeriph_Driver/src/stm32f10x_can.c ****   *                    - CAN_FLAG_WKU   
1139:../STM32F10x_StdPeriph_Lib_V3.5.0/Libraries/STM32F10x_StdPeriph_Driver/src/stm32f10x_can.c ****   *                    - CAN_FLAG_SLAK    
1140:../STM32F10x_StdPeriph_Lib_V3.5.0/Libraries/STM32F10x_StdPeriph_Driver/src/stm32f10x_can.c ****   *                    - CAN_FLAG_LEC       
1141:../STM32F10x_StdPeriph_Lib_V3.5.0/Libraries/STM32F10x_StdPeriph_Driver/src/stm32f10x_can.c ****   * @retval None.
1142:../STM32F10x_StdPeriph_Lib_V3.5.0/Libraries/STM32F10x_StdPeriph_Driver/src/stm32f10x_can.c ****   */
1143:../STM32F10x_StdPeriph_Lib_V3.5.0/Libraries/STM32F10x_StdPeriph_Driver/src/stm32f10x_can.c **** void CAN_ClearFlag(CAN_TypeDef* CANx, uint32_t CAN_FLAG)
1144:../STM32F10x_StdPeriph_Lib_V3.5.0/Libraries/STM32F10x_StdPeriph_Driver/src/stm32f10x_can.c **** {
 2365              		.loc 1 1144 0
 2366              		.cfi_startproc
 2367              		@ args = 0, pretend = 0, frame = 16
 2368              		@ frame_needed = 1, uses_anonymous_args = 0
 2369              		@ link register save eliminated.
 2370 0000 80B4     		push	{r7}
 2371              	.LCFI63:
 2372              		.cfi_def_cfa_offset 4
 2373              		.cfi_offset 7, -4
 2374 0002 85B0     		sub	sp, sp, #20
 2375              	.LCFI64:
 2376              		.cfi_def_cfa_offset 24
 2377 0004 00AF     		add	r7, sp, #0
 2378              	.LCFI65:
 2379              		.cfi_def_cfa_register 7
 2380 0006 7860     		str	r0, [r7, #4]
 2381 0008 3960     		str	r1, [r7, #0]
1145:../STM32F10x_StdPeriph_Lib_V3.5.0/Libraries/STM32F10x_StdPeriph_Driver/src/stm32f10x_can.c ****   uint32_t flagtmp=0;
 2382              		.loc 1 1145 0
 2383 000a 4FF00003 		mov	r3, #0
 2384 000e FB60     		str	r3, [r7, #12]
1146:../STM32F10x_StdPeriph_Lib_V3.5.0/Libraries/STM32F10x_StdPeriph_Driver/src/stm32f10x_can.c ****   /* Check the parameters */
1147:../STM32F10x_StdPeriph_Lib_V3.5.0/Libraries/STM32F10x_StdPeriph_Driver/src/stm32f10x_can.c ****   assert_param(IS_CAN_ALL_PERIPH(CANx));
1148:../STM32F10x_StdPeriph_Lib_V3.5.0/Libraries/STM32F10x_StdPeriph_Driver/src/stm32f10x_can.c ****   assert_param(IS_CAN_CLEAR_FLAG(CAN_FLAG));
1149:../STM32F10x_StdPeriph_Lib_V3.5.0/Libraries/STM32F10x_StdPeriph_Driver/src/stm32f10x_can.c ****   
1150:../STM32F10x_StdPeriph_Lib_V3.5.0/Libraries/STM32F10x_StdPeriph_Driver/src/stm32f10x_can.c ****   if (CAN_FLAG == CAN_FLAG_LEC) /* ESR register */
 2385              		.loc 1 1150 0
 2386 0010 3A68     		ldr	r2, [r7, #0]
 2387 0012 184B     		ldr	r3, .L152
 2388 0014 9A42     		cmp	r2, r3
 2389 0016 04D1     		bne	.L147
1151:../STM32F10x_StdPeriph_Lib_V3.5.0/Libraries/STM32F10x_StdPeriph_Driver/src/stm32f10x_can.c ****   {
1152:../STM32F10x_StdPeriph_Lib_V3.5.0/Libraries/STM32F10x_StdPeriph_Driver/src/stm32f10x_can.c ****     /* Clear the selected CAN flags */
1153:../STM32F10x_StdPeriph_Lib_V3.5.0/Libraries/STM32F10x_StdPeriph_Driver/src/stm32f10x_can.c ****     CANx->ESR = (uint32_t)RESET;
 2390              		.loc 1 1153 0
 2391 0018 7B68     		ldr	r3, [r7, #4]
 2392 001a 4FF00002 		mov	r2, #0
 2393 001e 9A61     		str	r2, [r3, #24]
 2394 0020 23E0     		b	.L146
 2395              	.L147:
1154:../STM32F10x_StdPeriph_Lib_V3.5.0/Libraries/STM32F10x_StdPeriph_Driver/src/stm32f10x_can.c ****   }
1155:../STM32F10x_StdPeriph_Lib_V3.5.0/Libraries/STM32F10x_StdPeriph_Driver/src/stm32f10x_can.c ****   else /* MSR or TSR or RF0R or RF1R */
1156:../STM32F10x_StdPeriph_Lib_V3.5.0/Libraries/STM32F10x_StdPeriph_Driver/src/stm32f10x_can.c ****   {
1157:../STM32F10x_StdPeriph_Lib_V3.5.0/Libraries/STM32F10x_StdPeriph_Driver/src/stm32f10x_can.c ****     flagtmp = CAN_FLAG & 0x000FFFFF;
 2396              		.loc 1 1157 0
 2397 0022 3B68     		ldr	r3, [r7, #0]
 2398 0024 23F07F43 		bic	r3, r3, #-16777216
 2399 0028 23F47003 		bic	r3, r3, #15728640
 2400 002c FB60     		str	r3, [r7, #12]
1158:../STM32F10x_StdPeriph_Lib_V3.5.0/Libraries/STM32F10x_StdPeriph_Driver/src/stm32f10x_can.c **** 
1159:../STM32F10x_StdPeriph_Lib_V3.5.0/Libraries/STM32F10x_StdPeriph_Driver/src/stm32f10x_can.c ****     if ((CAN_FLAG & CAN_FLAGS_RF0R)!=(uint32_t)RESET)
 2401              		.loc 1 1159 0
 2402 002e 3B68     		ldr	r3, [r7, #0]
 2403 0030 03F00073 		and	r3, r3, #33554432
 2404 0034 002B     		cmp	r3, #0
 2405 0036 03D0     		beq	.L149
1160:../STM32F10x_StdPeriph_Lib_V3.5.0/Libraries/STM32F10x_StdPeriph_Driver/src/stm32f10x_can.c ****     {
1161:../STM32F10x_StdPeriph_Lib_V3.5.0/Libraries/STM32F10x_StdPeriph_Driver/src/stm32f10x_can.c ****       /* Receive Flags */
1162:../STM32F10x_StdPeriph_Lib_V3.5.0/Libraries/STM32F10x_StdPeriph_Driver/src/stm32f10x_can.c ****       CANx->RF0R = (uint32_t)(flagtmp);
 2406              		.loc 1 1162 0
 2407 0038 7B68     		ldr	r3, [r7, #4]
 2408 003a FA68     		ldr	r2, [r7, #12]
 2409 003c DA60     		str	r2, [r3, #12]
 2410 003e 14E0     		b	.L146
 2411              	.L149:
1163:../STM32F10x_StdPeriph_Lib_V3.5.0/Libraries/STM32F10x_StdPeriph_Driver/src/stm32f10x_can.c ****     }
1164:../STM32F10x_StdPeriph_Lib_V3.5.0/Libraries/STM32F10x_StdPeriph_Driver/src/stm32f10x_can.c ****     else if ((CAN_FLAG & CAN_FLAGS_RF1R)!=(uint32_t)RESET)
 2412              		.loc 1 1164 0
 2413 0040 3B68     		ldr	r3, [r7, #0]
 2414 0042 03F08063 		and	r3, r3, #67108864
 2415 0046 002B     		cmp	r3, #0
 2416 0048 03D0     		beq	.L150
1165:../STM32F10x_StdPeriph_Lib_V3.5.0/Libraries/STM32F10x_StdPeriph_Driver/src/stm32f10x_can.c ****     {
1166:../STM32F10x_StdPeriph_Lib_V3.5.0/Libraries/STM32F10x_StdPeriph_Driver/src/stm32f10x_can.c ****       /* Receive Flags */
1167:../STM32F10x_StdPeriph_Lib_V3.5.0/Libraries/STM32F10x_StdPeriph_Driver/src/stm32f10x_can.c ****       CANx->RF1R = (uint32_t)(flagtmp);
 2417              		.loc 1 1167 0
 2418 004a 7B68     		ldr	r3, [r7, #4]
 2419 004c FA68     		ldr	r2, [r7, #12]
 2420 004e 1A61     		str	r2, [r3, #16]
 2421 0050 0BE0     		b	.L146
 2422              	.L150:
1168:../STM32F10x_StdPeriph_Lib_V3.5.0/Libraries/STM32F10x_StdPeriph_Driver/src/stm32f10x_can.c ****     }
1169:../STM32F10x_StdPeriph_Lib_V3.5.0/Libraries/STM32F10x_StdPeriph_Driver/src/stm32f10x_can.c ****     else if ((CAN_FLAG & CAN_FLAGS_TSR)!=(uint32_t)RESET)
 2423              		.loc 1 1169 0
 2424 0052 3B68     		ldr	r3, [r7, #0]
 2425 0054 03F00063 		and	r3, r3, #134217728
 2426 0058 002B     		cmp	r3, #0
 2427 005a 03D0     		beq	.L151
1170:../STM32F10x_StdPeriph_Lib_V3.5.0/Libraries/STM32F10x_StdPeriph_Driver/src/stm32f10x_can.c ****     {
1171:../STM32F10x_StdPeriph_Lib_V3.5.0/Libraries/STM32F10x_StdPeriph_Driver/src/stm32f10x_can.c ****       /* Transmit Flags */
1172:../STM32F10x_StdPeriph_Lib_V3.5.0/Libraries/STM32F10x_StdPeriph_Driver/src/stm32f10x_can.c ****       CANx->TSR = (uint32_t)(flagtmp);
 2428              		.loc 1 1172 0
 2429 005c 7B68     		ldr	r3, [r7, #4]
 2430 005e FA68     		ldr	r2, [r7, #12]
 2431 0060 9A60     		str	r2, [r3, #8]
 2432 0062 02E0     		b	.L146
 2433              	.L151:
1173:../STM32F10x_StdPeriph_Lib_V3.5.0/Libraries/STM32F10x_StdPeriph_Driver/src/stm32f10x_can.c ****     }
1174:../STM32F10x_StdPeriph_Lib_V3.5.0/Libraries/STM32F10x_StdPeriph_Driver/src/stm32f10x_can.c ****     else /* If((CAN_FLAG & CAN_FLAGS_MSR)!=(uint32_t)RESET) */
1175:../STM32F10x_StdPeriph_Lib_V3.5.0/Libraries/STM32F10x_StdPeriph_Driver/src/stm32f10x_can.c ****     {
