   1              		.syntax unified
   2              		.cpu cortex-m3
   3              		.fpu softvfp
   4              		.eabi_attribute 20, 1
   5              		.eabi_attribute 21, 1
   6              		.eabi_attribute 23, 3
   7              		.eabi_attribute 24, 1
   8              		.eabi_attribute 25, 1
   9              		.eabi_attribute 26, 1
  10              		.eabi_attribute 30, 6
  11              		.eabi_attribute 34, 1
  12              		.eabi_attribute 18, 4
  13              		.thumb
  14              		.file	"stm32f10x_tim.c"
  15              		.text
  16              	.Ltext0:
  17              		.cfi_sections	.debug_frame
  18              		.section	.text.TIM_DeInit,"ax",%progbits
  19              		.align	2
  20              		.global	TIM_DeInit
  21              		.thumb
  22              		.thumb_func
  24              	TIM_DeInit:
  25              	.LFB29:
  26              		.file 1 "../STM32F10x_StdPeriph_Lib_V3.5.0/Libraries/STM32F10x_StdPeriph_Driver/src/stm32f10x_tim.
   1:../STM32F10x_StdPeriph_Lib_V3.5.0/Libraries/STM32F10x_StdPeriph_Driver/src/stm32f10x_tim.c **** /**
   2:../STM32F10x_StdPeriph_Lib_V3.5.0/Libraries/STM32F10x_StdPeriph_Driver/src/stm32f10x_tim.c ****   ******************************************************************************
   3:../STM32F10x_StdPeriph_Lib_V3.5.0/Libraries/STM32F10x_StdPeriph_Driver/src/stm32f10x_tim.c ****   * @file    stm32f10x_tim.c
   4:../STM32F10x_StdPeriph_Lib_V3.5.0/Libraries/STM32F10x_StdPeriph_Driver/src/stm32f10x_tim.c ****   * @author  MCD Application Team
   5:../STM32F10x_StdPeriph_Lib_V3.5.0/Libraries/STM32F10x_StdPeriph_Driver/src/stm32f10x_tim.c ****   * @version V3.5.0
   6:../STM32F10x_StdPeriph_Lib_V3.5.0/Libraries/STM32F10x_StdPeriph_Driver/src/stm32f10x_tim.c ****   * @date    11-March-2011
   7:../STM32F10x_StdPeriph_Lib_V3.5.0/Libraries/STM32F10x_StdPeriph_Driver/src/stm32f10x_tim.c ****   * @brief   This file provides all the TIM firmware functions.
   8:../STM32F10x_StdPeriph_Lib_V3.5.0/Libraries/STM32F10x_StdPeriph_Driver/src/stm32f10x_tim.c ****   ******************************************************************************
   9:../STM32F10x_StdPeriph_Lib_V3.5.0/Libraries/STM32F10x_StdPeriph_Driver/src/stm32f10x_tim.c ****   * @attention
  10:../STM32F10x_StdPeriph_Lib_V3.5.0/Libraries/STM32F10x_StdPeriph_Driver/src/stm32f10x_tim.c ****   *
  11:../STM32F10x_StdPeriph_Lib_V3.5.0/Libraries/STM32F10x_StdPeriph_Driver/src/stm32f10x_tim.c ****   * THE PRESENT FIRMWARE WHICH IS FOR GUIDANCE ONLY AIMS AT PROVIDING CUSTOMERS
  12:../STM32F10x_StdPeriph_Lib_V3.5.0/Libraries/STM32F10x_StdPeriph_Driver/src/stm32f10x_tim.c ****   * WITH CODING INFORMATION REGARDING THEIR PRODUCTS IN ORDER FOR THEM TO SAVE
  13:../STM32F10x_StdPeriph_Lib_V3.5.0/Libraries/STM32F10x_StdPeriph_Driver/src/stm32f10x_tim.c ****   * TIME. AS A RESULT, STMICROELECTRONICS SHALL NOT BE HELD LIABLE FOR ANY
  14:../STM32F10x_StdPeriph_Lib_V3.5.0/Libraries/STM32F10x_StdPeriph_Driver/src/stm32f10x_tim.c ****   * DIRECT, INDIRECT OR CONSEQUENTIAL DAMAGES WITH RESPECT TO ANY CLAIMS ARISING
  15:../STM32F10x_StdPeriph_Lib_V3.5.0/Libraries/STM32F10x_StdPeriph_Driver/src/stm32f10x_tim.c ****   * FROM THE CONTENT OF SUCH FIRMWARE AND/OR THE USE MADE BY CUSTOMERS OF THE
  16:../STM32F10x_StdPeriph_Lib_V3.5.0/Libraries/STM32F10x_StdPeriph_Driver/src/stm32f10x_tim.c ****   * CODING INFORMATION CONTAINED HEREIN IN CONNECTION WITH THEIR PRODUCTS.
  17:../STM32F10x_StdPeriph_Lib_V3.5.0/Libraries/STM32F10x_StdPeriph_Driver/src/stm32f10x_tim.c ****   *
  18:../STM32F10x_StdPeriph_Lib_V3.5.0/Libraries/STM32F10x_StdPeriph_Driver/src/stm32f10x_tim.c ****   * <h2><center>&copy; COPYRIGHT 2011 STMicroelectronics</center></h2>
  19:../STM32F10x_StdPeriph_Lib_V3.5.0/Libraries/STM32F10x_StdPeriph_Driver/src/stm32f10x_tim.c ****   ******************************************************************************
  20:../STM32F10x_StdPeriph_Lib_V3.5.0/Libraries/STM32F10x_StdPeriph_Driver/src/stm32f10x_tim.c ****   */
  21:../STM32F10x_StdPeriph_Lib_V3.5.0/Libraries/STM32F10x_StdPeriph_Driver/src/stm32f10x_tim.c **** 
  22:../STM32F10x_StdPeriph_Lib_V3.5.0/Libraries/STM32F10x_StdPeriph_Driver/src/stm32f10x_tim.c **** /* Includes ------------------------------------------------------------------*/
  23:../STM32F10x_StdPeriph_Lib_V3.5.0/Libraries/STM32F10x_StdPeriph_Driver/src/stm32f10x_tim.c **** #include "stm32f10x_tim.h"
  24:../STM32F10x_StdPeriph_Lib_V3.5.0/Libraries/STM32F10x_StdPeriph_Driver/src/stm32f10x_tim.c **** #include "stm32f10x_rcc.h"
  25:../STM32F10x_StdPeriph_Lib_V3.5.0/Libraries/STM32F10x_StdPeriph_Driver/src/stm32f10x_tim.c **** 
  26:../STM32F10x_StdPeriph_Lib_V3.5.0/Libraries/STM32F10x_StdPeriph_Driver/src/stm32f10x_tim.c **** /** @addtogroup STM32F10x_StdPeriph_Driver
  27:../STM32F10x_StdPeriph_Lib_V3.5.0/Libraries/STM32F10x_StdPeriph_Driver/src/stm32f10x_tim.c ****   * @{
  28:../STM32F10x_StdPeriph_Lib_V3.5.0/Libraries/STM32F10x_StdPeriph_Driver/src/stm32f10x_tim.c ****   */
  29:../STM32F10x_StdPeriph_Lib_V3.5.0/Libraries/STM32F10x_StdPeriph_Driver/src/stm32f10x_tim.c **** 
  30:../STM32F10x_StdPeriph_Lib_V3.5.0/Libraries/STM32F10x_StdPeriph_Driver/src/stm32f10x_tim.c **** /** @defgroup TIM 
  31:../STM32F10x_StdPeriph_Lib_V3.5.0/Libraries/STM32F10x_StdPeriph_Driver/src/stm32f10x_tim.c ****   * @brief TIM driver modules
  32:../STM32F10x_StdPeriph_Lib_V3.5.0/Libraries/STM32F10x_StdPeriph_Driver/src/stm32f10x_tim.c ****   * @{
  33:../STM32F10x_StdPeriph_Lib_V3.5.0/Libraries/STM32F10x_StdPeriph_Driver/src/stm32f10x_tim.c ****   */
  34:../STM32F10x_StdPeriph_Lib_V3.5.0/Libraries/STM32F10x_StdPeriph_Driver/src/stm32f10x_tim.c **** 
  35:../STM32F10x_StdPeriph_Lib_V3.5.0/Libraries/STM32F10x_StdPeriph_Driver/src/stm32f10x_tim.c **** /** @defgroup TIM_Private_TypesDefinitions
  36:../STM32F10x_StdPeriph_Lib_V3.5.0/Libraries/STM32F10x_StdPeriph_Driver/src/stm32f10x_tim.c ****   * @{
  37:../STM32F10x_StdPeriph_Lib_V3.5.0/Libraries/STM32F10x_StdPeriph_Driver/src/stm32f10x_tim.c ****   */
  38:../STM32F10x_StdPeriph_Lib_V3.5.0/Libraries/STM32F10x_StdPeriph_Driver/src/stm32f10x_tim.c **** 
  39:../STM32F10x_StdPeriph_Lib_V3.5.0/Libraries/STM32F10x_StdPeriph_Driver/src/stm32f10x_tim.c **** /**
  40:../STM32F10x_StdPeriph_Lib_V3.5.0/Libraries/STM32F10x_StdPeriph_Driver/src/stm32f10x_tim.c ****   * @}
  41:../STM32F10x_StdPeriph_Lib_V3.5.0/Libraries/STM32F10x_StdPeriph_Driver/src/stm32f10x_tim.c ****   */
  42:../STM32F10x_StdPeriph_Lib_V3.5.0/Libraries/STM32F10x_StdPeriph_Driver/src/stm32f10x_tim.c **** 
  43:../STM32F10x_StdPeriph_Lib_V3.5.0/Libraries/STM32F10x_StdPeriph_Driver/src/stm32f10x_tim.c **** /** @defgroup TIM_Private_Defines
  44:../STM32F10x_StdPeriph_Lib_V3.5.0/Libraries/STM32F10x_StdPeriph_Driver/src/stm32f10x_tim.c ****   * @{
  45:../STM32F10x_StdPeriph_Lib_V3.5.0/Libraries/STM32F10x_StdPeriph_Driver/src/stm32f10x_tim.c ****   */
  46:../STM32F10x_StdPeriph_Lib_V3.5.0/Libraries/STM32F10x_StdPeriph_Driver/src/stm32f10x_tim.c **** 
  47:../STM32F10x_StdPeriph_Lib_V3.5.0/Libraries/STM32F10x_StdPeriph_Driver/src/stm32f10x_tim.c **** /* ---------------------- TIM registers bit mask ------------------------ */
  48:../STM32F10x_StdPeriph_Lib_V3.5.0/Libraries/STM32F10x_StdPeriph_Driver/src/stm32f10x_tim.c **** #define SMCR_ETR_Mask               ((uint16_t)0x00FF) 
  49:../STM32F10x_StdPeriph_Lib_V3.5.0/Libraries/STM32F10x_StdPeriph_Driver/src/stm32f10x_tim.c **** #define CCMR_Offset                 ((uint16_t)0x0018)
  50:../STM32F10x_StdPeriph_Lib_V3.5.0/Libraries/STM32F10x_StdPeriph_Driver/src/stm32f10x_tim.c **** #define CCER_CCE_Set                ((uint16_t)0x0001)  
  51:../STM32F10x_StdPeriph_Lib_V3.5.0/Libraries/STM32F10x_StdPeriph_Driver/src/stm32f10x_tim.c **** #define	CCER_CCNE_Set               ((uint16_t)0x0004) 
  52:../STM32F10x_StdPeriph_Lib_V3.5.0/Libraries/STM32F10x_StdPeriph_Driver/src/stm32f10x_tim.c **** 
  53:../STM32F10x_StdPeriph_Lib_V3.5.0/Libraries/STM32F10x_StdPeriph_Driver/src/stm32f10x_tim.c **** /**
  54:../STM32F10x_StdPeriph_Lib_V3.5.0/Libraries/STM32F10x_StdPeriph_Driver/src/stm32f10x_tim.c ****   * @}
  55:../STM32F10x_StdPeriph_Lib_V3.5.0/Libraries/STM32F10x_StdPeriph_Driver/src/stm32f10x_tim.c ****   */
  56:../STM32F10x_StdPeriph_Lib_V3.5.0/Libraries/STM32F10x_StdPeriph_Driver/src/stm32f10x_tim.c **** 
  57:../STM32F10x_StdPeriph_Lib_V3.5.0/Libraries/STM32F10x_StdPeriph_Driver/src/stm32f10x_tim.c **** /** @defgroup TIM_Private_Macros
  58:../STM32F10x_StdPeriph_Lib_V3.5.0/Libraries/STM32F10x_StdPeriph_Driver/src/stm32f10x_tim.c ****   * @{
  59:../STM32F10x_StdPeriph_Lib_V3.5.0/Libraries/STM32F10x_StdPeriph_Driver/src/stm32f10x_tim.c ****   */
  60:../STM32F10x_StdPeriph_Lib_V3.5.0/Libraries/STM32F10x_StdPeriph_Driver/src/stm32f10x_tim.c **** 
  61:../STM32F10x_StdPeriph_Lib_V3.5.0/Libraries/STM32F10x_StdPeriph_Driver/src/stm32f10x_tim.c **** /**
  62:../STM32F10x_StdPeriph_Lib_V3.5.0/Libraries/STM32F10x_StdPeriph_Driver/src/stm32f10x_tim.c ****   * @}
  63:../STM32F10x_StdPeriph_Lib_V3.5.0/Libraries/STM32F10x_StdPeriph_Driver/src/stm32f10x_tim.c ****   */
  64:../STM32F10x_StdPeriph_Lib_V3.5.0/Libraries/STM32F10x_StdPeriph_Driver/src/stm32f10x_tim.c **** 
  65:../STM32F10x_StdPeriph_Lib_V3.5.0/Libraries/STM32F10x_StdPeriph_Driver/src/stm32f10x_tim.c **** /** @defgroup TIM_Private_Variables
  66:../STM32F10x_StdPeriph_Lib_V3.5.0/Libraries/STM32F10x_StdPeriph_Driver/src/stm32f10x_tim.c ****   * @{
  67:../STM32F10x_StdPeriph_Lib_V3.5.0/Libraries/STM32F10x_StdPeriph_Driver/src/stm32f10x_tim.c ****   */
  68:../STM32F10x_StdPeriph_Lib_V3.5.0/Libraries/STM32F10x_StdPeriph_Driver/src/stm32f10x_tim.c **** 
  69:../STM32F10x_StdPeriph_Lib_V3.5.0/Libraries/STM32F10x_StdPeriph_Driver/src/stm32f10x_tim.c **** /**
  70:../STM32F10x_StdPeriph_Lib_V3.5.0/Libraries/STM32F10x_StdPeriph_Driver/src/stm32f10x_tim.c ****   * @}
  71:../STM32F10x_StdPeriph_Lib_V3.5.0/Libraries/STM32F10x_StdPeriph_Driver/src/stm32f10x_tim.c ****   */
  72:../STM32F10x_StdPeriph_Lib_V3.5.0/Libraries/STM32F10x_StdPeriph_Driver/src/stm32f10x_tim.c **** 
  73:../STM32F10x_StdPeriph_Lib_V3.5.0/Libraries/STM32F10x_StdPeriph_Driver/src/stm32f10x_tim.c **** /** @defgroup TIM_Private_FunctionPrototypes
  74:../STM32F10x_StdPeriph_Lib_V3.5.0/Libraries/STM32F10x_StdPeriph_Driver/src/stm32f10x_tim.c ****   * @{
  75:../STM32F10x_StdPeriph_Lib_V3.5.0/Libraries/STM32F10x_StdPeriph_Driver/src/stm32f10x_tim.c ****   */
  76:../STM32F10x_StdPeriph_Lib_V3.5.0/Libraries/STM32F10x_StdPeriph_Driver/src/stm32f10x_tim.c **** 
  77:../STM32F10x_StdPeriph_Lib_V3.5.0/Libraries/STM32F10x_StdPeriph_Driver/src/stm32f10x_tim.c **** static void TI1_Config(TIM_TypeDef* TIMx, uint16_t TIM_ICPolarity, uint16_t TIM_ICSelection,
  78:../STM32F10x_StdPeriph_Lib_V3.5.0/Libraries/STM32F10x_StdPeriph_Driver/src/stm32f10x_tim.c ****                        uint16_t TIM_ICFilter);
  79:../STM32F10x_StdPeriph_Lib_V3.5.0/Libraries/STM32F10x_StdPeriph_Driver/src/stm32f10x_tim.c **** static void TI2_Config(TIM_TypeDef* TIMx, uint16_t TIM_ICPolarity, uint16_t TIM_ICSelection,
  80:../STM32F10x_StdPeriph_Lib_V3.5.0/Libraries/STM32F10x_StdPeriph_Driver/src/stm32f10x_tim.c ****                        uint16_t TIM_ICFilter);
  81:../STM32F10x_StdPeriph_Lib_V3.5.0/Libraries/STM32F10x_StdPeriph_Driver/src/stm32f10x_tim.c **** static void TI3_Config(TIM_TypeDef* TIMx, uint16_t TIM_ICPolarity, uint16_t TIM_ICSelection,
  82:../STM32F10x_StdPeriph_Lib_V3.5.0/Libraries/STM32F10x_StdPeriph_Driver/src/stm32f10x_tim.c ****                        uint16_t TIM_ICFilter);
  83:../STM32F10x_StdPeriph_Lib_V3.5.0/Libraries/STM32F10x_StdPeriph_Driver/src/stm32f10x_tim.c **** static void TI4_Config(TIM_TypeDef* TIMx, uint16_t TIM_ICPolarity, uint16_t TIM_ICSelection,
  84:../STM32F10x_StdPeriph_Lib_V3.5.0/Libraries/STM32F10x_StdPeriph_Driver/src/stm32f10x_tim.c ****                        uint16_t TIM_ICFilter);
  85:../STM32F10x_StdPeriph_Lib_V3.5.0/Libraries/STM32F10x_StdPeriph_Driver/src/stm32f10x_tim.c **** /**
  86:../STM32F10x_StdPeriph_Lib_V3.5.0/Libraries/STM32F10x_StdPeriph_Driver/src/stm32f10x_tim.c ****   * @}
  87:../STM32F10x_StdPeriph_Lib_V3.5.0/Libraries/STM32F10x_StdPeriph_Driver/src/stm32f10x_tim.c ****   */
  88:../STM32F10x_StdPeriph_Lib_V3.5.0/Libraries/STM32F10x_StdPeriph_Driver/src/stm32f10x_tim.c **** 
  89:../STM32F10x_StdPeriph_Lib_V3.5.0/Libraries/STM32F10x_StdPeriph_Driver/src/stm32f10x_tim.c **** /** @defgroup TIM_Private_Macros
  90:../STM32F10x_StdPeriph_Lib_V3.5.0/Libraries/STM32F10x_StdPeriph_Driver/src/stm32f10x_tim.c ****   * @{
  91:../STM32F10x_StdPeriph_Lib_V3.5.0/Libraries/STM32F10x_StdPeriph_Driver/src/stm32f10x_tim.c ****   */
  92:../STM32F10x_StdPeriph_Lib_V3.5.0/Libraries/STM32F10x_StdPeriph_Driver/src/stm32f10x_tim.c **** 
  93:../STM32F10x_StdPeriph_Lib_V3.5.0/Libraries/STM32F10x_StdPeriph_Driver/src/stm32f10x_tim.c **** /**
  94:../STM32F10x_StdPeriph_Lib_V3.5.0/Libraries/STM32F10x_StdPeriph_Driver/src/stm32f10x_tim.c ****   * @}
  95:../STM32F10x_StdPeriph_Lib_V3.5.0/Libraries/STM32F10x_StdPeriph_Driver/src/stm32f10x_tim.c ****   */
  96:../STM32F10x_StdPeriph_Lib_V3.5.0/Libraries/STM32F10x_StdPeriph_Driver/src/stm32f10x_tim.c **** 
  97:../STM32F10x_StdPeriph_Lib_V3.5.0/Libraries/STM32F10x_StdPeriph_Driver/src/stm32f10x_tim.c **** /** @defgroup TIM_Private_Variables
  98:../STM32F10x_StdPeriph_Lib_V3.5.0/Libraries/STM32F10x_StdPeriph_Driver/src/stm32f10x_tim.c ****   * @{
  99:../STM32F10x_StdPeriph_Lib_V3.5.0/Libraries/STM32F10x_StdPeriph_Driver/src/stm32f10x_tim.c ****   */
 100:../STM32F10x_StdPeriph_Lib_V3.5.0/Libraries/STM32F10x_StdPeriph_Driver/src/stm32f10x_tim.c **** 
 101:../STM32F10x_StdPeriph_Lib_V3.5.0/Libraries/STM32F10x_StdPeriph_Driver/src/stm32f10x_tim.c **** /**
 102:../STM32F10x_StdPeriph_Lib_V3.5.0/Libraries/STM32F10x_StdPeriph_Driver/src/stm32f10x_tim.c ****   * @}
 103:../STM32F10x_StdPeriph_Lib_V3.5.0/Libraries/STM32F10x_StdPeriph_Driver/src/stm32f10x_tim.c ****   */
 104:../STM32F10x_StdPeriph_Lib_V3.5.0/Libraries/STM32F10x_StdPeriph_Driver/src/stm32f10x_tim.c **** 
 105:../STM32F10x_StdPeriph_Lib_V3.5.0/Libraries/STM32F10x_StdPeriph_Driver/src/stm32f10x_tim.c **** /** @defgroup TIM_Private_FunctionPrototypes
 106:../STM32F10x_StdPeriph_Lib_V3.5.0/Libraries/STM32F10x_StdPeriph_Driver/src/stm32f10x_tim.c ****   * @{
 107:../STM32F10x_StdPeriph_Lib_V3.5.0/Libraries/STM32F10x_StdPeriph_Driver/src/stm32f10x_tim.c ****   */
 108:../STM32F10x_StdPeriph_Lib_V3.5.0/Libraries/STM32F10x_StdPeriph_Driver/src/stm32f10x_tim.c **** 
 109:../STM32F10x_StdPeriph_Lib_V3.5.0/Libraries/STM32F10x_StdPeriph_Driver/src/stm32f10x_tim.c **** /**
 110:../STM32F10x_StdPeriph_Lib_V3.5.0/Libraries/STM32F10x_StdPeriph_Driver/src/stm32f10x_tim.c ****   * @}
 111:../STM32F10x_StdPeriph_Lib_V3.5.0/Libraries/STM32F10x_StdPeriph_Driver/src/stm32f10x_tim.c ****   */
 112:../STM32F10x_StdPeriph_Lib_V3.5.0/Libraries/STM32F10x_StdPeriph_Driver/src/stm32f10x_tim.c **** 
 113:../STM32F10x_StdPeriph_Lib_V3.5.0/Libraries/STM32F10x_StdPeriph_Driver/src/stm32f10x_tim.c **** /** @defgroup TIM_Private_Functions
 114:../STM32F10x_StdPeriph_Lib_V3.5.0/Libraries/STM32F10x_StdPeriph_Driver/src/stm32f10x_tim.c ****   * @{
 115:../STM32F10x_StdPeriph_Lib_V3.5.0/Libraries/STM32F10x_StdPeriph_Driver/src/stm32f10x_tim.c ****   */
 116:../STM32F10x_StdPeriph_Lib_V3.5.0/Libraries/STM32F10x_StdPeriph_Driver/src/stm32f10x_tim.c **** 
 117:../STM32F10x_StdPeriph_Lib_V3.5.0/Libraries/STM32F10x_StdPeriph_Driver/src/stm32f10x_tim.c **** /**
 118:../STM32F10x_StdPeriph_Lib_V3.5.0/Libraries/STM32F10x_StdPeriph_Driver/src/stm32f10x_tim.c ****   * @brief  Deinitializes the TIMx peripheral registers to their default reset values.
 119:../STM32F10x_StdPeriph_Lib_V3.5.0/Libraries/STM32F10x_StdPeriph_Driver/src/stm32f10x_tim.c ****   * @param  TIMx: where x can be 1 to 17 to select the TIM peripheral.
 120:../STM32F10x_StdPeriph_Lib_V3.5.0/Libraries/STM32F10x_StdPeriph_Driver/src/stm32f10x_tim.c ****   * @retval None
 121:../STM32F10x_StdPeriph_Lib_V3.5.0/Libraries/STM32F10x_StdPeriph_Driver/src/stm32f10x_tim.c ****   */
 122:../STM32F10x_StdPeriph_Lib_V3.5.0/Libraries/STM32F10x_StdPeriph_Driver/src/stm32f10x_tim.c **** void TIM_DeInit(TIM_TypeDef* TIMx)
 123:../STM32F10x_StdPeriph_Lib_V3.5.0/Libraries/STM32F10x_StdPeriph_Driver/src/stm32f10x_tim.c **** {
  27              		.loc 1 123 0
  28              		.cfi_startproc
  29              		@ args = 0, pretend = 0, frame = 8
  30              		@ frame_needed = 1, uses_anonymous_args = 0
  31 0000 80B5     		push	{r7, lr}
  32              	.LCFI0:
  33              		.cfi_def_cfa_offset 8
  34              		.cfi_offset 7, -8
  35              		.cfi_offset 14, -4
  36 0002 82B0     		sub	sp, sp, #8
  37              	.LCFI1:
  38              		.cfi_def_cfa_offset 16
  39 0004 00AF     		add	r7, sp, #0
  40              	.LCFI2:
  41              		.cfi_def_cfa_register 7
  42 0006 7860     		str	r0, [r7, #4]
 124:../STM32F10x_StdPeriph_Lib_V3.5.0/Libraries/STM32F10x_StdPeriph_Driver/src/stm32f10x_tim.c ****   /* Check the parameters */
 125:../STM32F10x_StdPeriph_Lib_V3.5.0/Libraries/STM32F10x_StdPeriph_Driver/src/stm32f10x_tim.c ****   assert_param(IS_TIM_ALL_PERIPH(TIMx)); 
 126:../STM32F10x_StdPeriph_Lib_V3.5.0/Libraries/STM32F10x_StdPeriph_Driver/src/stm32f10x_tim.c ****  
 127:../STM32F10x_StdPeriph_Lib_V3.5.0/Libraries/STM32F10x_StdPeriph_Driver/src/stm32f10x_tim.c ****   if (TIMx == TIM1)
  43              		.loc 1 127 0
  44 0008 7A68     		ldr	r2, [r7, #4]
  45 000a 914B     		ldr	r3, .L19
  46 000c 9A42     		cmp	r2, r3
  47 000e 0CD1     		bne	.L2
 128:../STM32F10x_StdPeriph_Lib_V3.5.0/Libraries/STM32F10x_StdPeriph_Driver/src/stm32f10x_tim.c ****   {
 129:../STM32F10x_StdPeriph_Lib_V3.5.0/Libraries/STM32F10x_StdPeriph_Driver/src/stm32f10x_tim.c ****     RCC_APB2PeriphResetCmd(RCC_APB2Periph_TIM1, ENABLE);
  48              		.loc 1 129 0
  49 0010 4FF40060 		mov	r0, #2048
  50 0014 4FF00101 		mov	r1, #1
  51 0018 FFF7FEFF 		bl	RCC_APB2PeriphResetCmd
 130:../STM32F10x_StdPeriph_Lib_V3.5.0/Libraries/STM32F10x_StdPeriph_Driver/src/stm32f10x_tim.c ****     RCC_APB2PeriphResetCmd(RCC_APB2Periph_TIM1, DISABLE);  
  52              		.loc 1 130 0
  53 001c 4FF40060 		mov	r0, #2048
  54 0020 4FF00001 		mov	r1, #0
  55 0024 FFF7FEFF 		bl	RCC_APB2PeriphResetCmd
  56 0028 0EE1     		b	.L1
  57              	.L2:
 131:../STM32F10x_StdPeriph_Lib_V3.5.0/Libraries/STM32F10x_StdPeriph_Driver/src/stm32f10x_tim.c ****   }     
 132:../STM32F10x_StdPeriph_Lib_V3.5.0/Libraries/STM32F10x_StdPeriph_Driver/src/stm32f10x_tim.c ****   else if (TIMx == TIM2)
  58              		.loc 1 132 0
  59 002a 7B68     		ldr	r3, [r7, #4]
  60 002c B3F1804F 		cmp	r3, #1073741824
  61 0030 0CD1     		bne	.L4
 133:../STM32F10x_StdPeriph_Lib_V3.5.0/Libraries/STM32F10x_StdPeriph_Driver/src/stm32f10x_tim.c ****   {
 134:../STM32F10x_StdPeriph_Lib_V3.5.0/Libraries/STM32F10x_StdPeriph_Driver/src/stm32f10x_tim.c ****     RCC_APB1PeriphResetCmd(RCC_APB1Periph_TIM2, ENABLE);
  62              		.loc 1 134 0
  63 0032 4FF00100 		mov	r0, #1
  64 0036 4FF00101 		mov	r1, #1
  65 003a FFF7FEFF 		bl	RCC_APB1PeriphResetCmd
 135:../STM32F10x_StdPeriph_Lib_V3.5.0/Libraries/STM32F10x_StdPeriph_Driver/src/stm32f10x_tim.c ****     RCC_APB1PeriphResetCmd(RCC_APB1Periph_TIM2, DISABLE);
  66              		.loc 1 135 0
  67 003e 4FF00100 		mov	r0, #1
  68 0042 4FF00001 		mov	r1, #0
  69 0046 FFF7FEFF 		bl	RCC_APB1PeriphResetCmd
  70 004a FDE0     		b	.L1
  71              	.L4:
 136:../STM32F10x_StdPeriph_Lib_V3.5.0/Libraries/STM32F10x_StdPeriph_Driver/src/stm32f10x_tim.c ****   }
 137:../STM32F10x_StdPeriph_Lib_V3.5.0/Libraries/STM32F10x_StdPeriph_Driver/src/stm32f10x_tim.c ****   else if (TIMx == TIM3)
  72              		.loc 1 137 0
  73 004c 7A68     		ldr	r2, [r7, #4]
  74 004e 814B     		ldr	r3, .L19+4
  75 0050 9A42     		cmp	r2, r3
  76 0052 0CD1     		bne	.L5
 138:../STM32F10x_StdPeriph_Lib_V3.5.0/Libraries/STM32F10x_StdPeriph_Driver/src/stm32f10x_tim.c ****   {
 139:../STM32F10x_StdPeriph_Lib_V3.5.0/Libraries/STM32F10x_StdPeriph_Driver/src/stm32f10x_tim.c ****     RCC_APB1PeriphResetCmd(RCC_APB1Periph_TIM3, ENABLE);
  77              		.loc 1 139 0
  78 0054 4FF00200 		mov	r0, #2
  79 0058 4FF00101 		mov	r1, #1
  80 005c FFF7FEFF 		bl	RCC_APB1PeriphResetCmd
 140:../STM32F10x_StdPeriph_Lib_V3.5.0/Libraries/STM32F10x_StdPeriph_Driver/src/stm32f10x_tim.c ****     RCC_APB1PeriphResetCmd(RCC_APB1Periph_TIM3, DISABLE);
  81              		.loc 1 140 0
  82 0060 4FF00200 		mov	r0, #2
  83 0064 4FF00001 		mov	r1, #0
  84 0068 FFF7FEFF 		bl	RCC_APB1PeriphResetCmd
  85 006c ECE0     		b	.L1
  86              	.L5:
 141:../STM32F10x_StdPeriph_Lib_V3.5.0/Libraries/STM32F10x_StdPeriph_Driver/src/stm32f10x_tim.c ****   }
 142:../STM32F10x_StdPeriph_Lib_V3.5.0/Libraries/STM32F10x_StdPeriph_Driver/src/stm32f10x_tim.c ****   else if (TIMx == TIM4)
  87              		.loc 1 142 0
  88 006e 7A68     		ldr	r2, [r7, #4]
  89 0070 794B     		ldr	r3, .L19+8
  90 0072 9A42     		cmp	r2, r3
  91 0074 0CD1     		bne	.L6
 143:../STM32F10x_StdPeriph_Lib_V3.5.0/Libraries/STM32F10x_StdPeriph_Driver/src/stm32f10x_tim.c ****   {
 144:../STM32F10x_StdPeriph_Lib_V3.5.0/Libraries/STM32F10x_StdPeriph_Driver/src/stm32f10x_tim.c ****     RCC_APB1PeriphResetCmd(RCC_APB1Periph_TIM4, ENABLE);
  92              		.loc 1 144 0
  93 0076 4FF00400 		mov	r0, #4
  94 007a 4FF00101 		mov	r1, #1
  95 007e FFF7FEFF 		bl	RCC_APB1PeriphResetCmd
 145:../STM32F10x_StdPeriph_Lib_V3.5.0/Libraries/STM32F10x_StdPeriph_Driver/src/stm32f10x_tim.c ****     RCC_APB1PeriphResetCmd(RCC_APB1Periph_TIM4, DISABLE);
  96              		.loc 1 145 0
  97 0082 4FF00400 		mov	r0, #4
  98 0086 4FF00001 		mov	r1, #0
  99 008a FFF7FEFF 		bl	RCC_APB1PeriphResetCmd
 100 008e DBE0     		b	.L1
 101              	.L6:
 146:../STM32F10x_StdPeriph_Lib_V3.5.0/Libraries/STM32F10x_StdPeriph_Driver/src/stm32f10x_tim.c ****   } 
 147:../STM32F10x_StdPeriph_Lib_V3.5.0/Libraries/STM32F10x_StdPeriph_Driver/src/stm32f10x_tim.c ****   else if (TIMx == TIM5)
 102              		.loc 1 147 0
 103 0090 7A68     		ldr	r2, [r7, #4]
 104 0092 724B     		ldr	r3, .L19+12
 105 0094 9A42     		cmp	r2, r3
 106 0096 0CD1     		bne	.L7
 148:../STM32F10x_StdPeriph_Lib_V3.5.0/Libraries/STM32F10x_StdPeriph_Driver/src/stm32f10x_tim.c ****   {
 149:../STM32F10x_StdPeriph_Lib_V3.5.0/Libraries/STM32F10x_StdPeriph_Driver/src/stm32f10x_tim.c ****     RCC_APB1PeriphResetCmd(RCC_APB1Periph_TIM5, ENABLE);
 107              		.loc 1 149 0
 108 0098 4FF00800 		mov	r0, #8
 109 009c 4FF00101 		mov	r1, #1
 110 00a0 FFF7FEFF 		bl	RCC_APB1PeriphResetCmd
 150:../STM32F10x_StdPeriph_Lib_V3.5.0/Libraries/STM32F10x_StdPeriph_Driver/src/stm32f10x_tim.c ****     RCC_APB1PeriphResetCmd(RCC_APB1Periph_TIM5, DISABLE);
 111              		.loc 1 150 0
 112 00a4 4FF00800 		mov	r0, #8
 113 00a8 4FF00001 		mov	r1, #0
 114 00ac FFF7FEFF 		bl	RCC_APB1PeriphResetCmd
 115 00b0 CAE0     		b	.L1
 116              	.L7:
 151:../STM32F10x_StdPeriph_Lib_V3.5.0/Libraries/STM32F10x_StdPeriph_Driver/src/stm32f10x_tim.c ****   } 
 152:../STM32F10x_StdPeriph_Lib_V3.5.0/Libraries/STM32F10x_StdPeriph_Driver/src/stm32f10x_tim.c ****   else if (TIMx == TIM6)
 117              		.loc 1 152 0
 118 00b2 7A68     		ldr	r2, [r7, #4]
 119 00b4 6A4B     		ldr	r3, .L19+16
 120 00b6 9A42     		cmp	r2, r3
 121 00b8 0CD1     		bne	.L8
 153:../STM32F10x_StdPeriph_Lib_V3.5.0/Libraries/STM32F10x_StdPeriph_Driver/src/stm32f10x_tim.c ****   {
 154:../STM32F10x_StdPeriph_Lib_V3.5.0/Libraries/STM32F10x_StdPeriph_Driver/src/stm32f10x_tim.c ****     RCC_APB1PeriphResetCmd(RCC_APB1Periph_TIM6, ENABLE);
 122              		.loc 1 154 0
 123 00ba 4FF01000 		mov	r0, #16
 124 00be 4FF00101 		mov	r1, #1
 125 00c2 FFF7FEFF 		bl	RCC_APB1PeriphResetCmd
 155:../STM32F10x_StdPeriph_Lib_V3.5.0/Libraries/STM32F10x_StdPeriph_Driver/src/stm32f10x_tim.c ****     RCC_APB1PeriphResetCmd(RCC_APB1Periph_TIM6, DISABLE);
 126              		.loc 1 155 0
 127 00c6 4FF01000 		mov	r0, #16
 128 00ca 4FF00001 		mov	r1, #0
 129 00ce FFF7FEFF 		bl	RCC_APB1PeriphResetCmd
 130 00d2 B9E0     		b	.L1
 131              	.L8:
 156:../STM32F10x_StdPeriph_Lib_V3.5.0/Libraries/STM32F10x_StdPeriph_Driver/src/stm32f10x_tim.c ****   } 
 157:../STM32F10x_StdPeriph_Lib_V3.5.0/Libraries/STM32F10x_StdPeriph_Driver/src/stm32f10x_tim.c ****   else if (TIMx == TIM7)
 132              		.loc 1 157 0
 133 00d4 7A68     		ldr	r2, [r7, #4]
 134 00d6 634B     		ldr	r3, .L19+20
 135 00d8 9A42     		cmp	r2, r3
 136 00da 0CD1     		bne	.L9
 158:../STM32F10x_StdPeriph_Lib_V3.5.0/Libraries/STM32F10x_StdPeriph_Driver/src/stm32f10x_tim.c ****   {
 159:../STM32F10x_StdPeriph_Lib_V3.5.0/Libraries/STM32F10x_StdPeriph_Driver/src/stm32f10x_tim.c ****     RCC_APB1PeriphResetCmd(RCC_APB1Periph_TIM7, ENABLE);
 137              		.loc 1 159 0
 138 00dc 4FF02000 		mov	r0, #32
 139 00e0 4FF00101 		mov	r1, #1
 140 00e4 FFF7FEFF 		bl	RCC_APB1PeriphResetCmd
 160:../STM32F10x_StdPeriph_Lib_V3.5.0/Libraries/STM32F10x_StdPeriph_Driver/src/stm32f10x_tim.c ****     RCC_APB1PeriphResetCmd(RCC_APB1Periph_TIM7, DISABLE);
 141              		.loc 1 160 0
 142 00e8 4FF02000 		mov	r0, #32
 143 00ec 4FF00001 		mov	r1, #0
 144 00f0 FFF7FEFF 		bl	RCC_APB1PeriphResetCmd
 145 00f4 A8E0     		b	.L1
 146              	.L9:
 161:../STM32F10x_StdPeriph_Lib_V3.5.0/Libraries/STM32F10x_StdPeriph_Driver/src/stm32f10x_tim.c ****   } 
 162:../STM32F10x_StdPeriph_Lib_V3.5.0/Libraries/STM32F10x_StdPeriph_Driver/src/stm32f10x_tim.c ****   else if (TIMx == TIM8)
 147              		.loc 1 162 0
 148 00f6 7A68     		ldr	r2, [r7, #4]
 149 00f8 5B4B     		ldr	r3, .L19+24
 150 00fa 9A42     		cmp	r2, r3
 151 00fc 0CD1     		bne	.L10
 163:../STM32F10x_StdPeriph_Lib_V3.5.0/Libraries/STM32F10x_StdPeriph_Driver/src/stm32f10x_tim.c ****   {
 164:../STM32F10x_StdPeriph_Lib_V3.5.0/Libraries/STM32F10x_StdPeriph_Driver/src/stm32f10x_tim.c ****     RCC_APB2PeriphResetCmd(RCC_APB2Periph_TIM8, ENABLE);
 152              		.loc 1 164 0
 153 00fe 4FF40050 		mov	r0, #8192
 154 0102 4FF00101 		mov	r1, #1
 155 0106 FFF7FEFF 		bl	RCC_APB2PeriphResetCmd
 165:../STM32F10x_StdPeriph_Lib_V3.5.0/Libraries/STM32F10x_StdPeriph_Driver/src/stm32f10x_tim.c ****     RCC_APB2PeriphResetCmd(RCC_APB2Periph_TIM8, DISABLE);
 156              		.loc 1 165 0
 157 010a 4FF40050 		mov	r0, #8192
 158 010e 4FF00001 		mov	r1, #0
 159 0112 FFF7FEFF 		bl	RCC_APB2PeriphResetCmd
 160 0116 97E0     		b	.L1
 161              	.L10:
 166:../STM32F10x_StdPeriph_Lib_V3.5.0/Libraries/STM32F10x_StdPeriph_Driver/src/stm32f10x_tim.c ****   }
 167:../STM32F10x_StdPeriph_Lib_V3.5.0/Libraries/STM32F10x_StdPeriph_Driver/src/stm32f10x_tim.c ****   else if (TIMx == TIM9)
 162              		.loc 1 167 0
 163 0118 7A68     		ldr	r2, [r7, #4]
 164 011a 544B     		ldr	r3, .L19+28
 165 011c 9A42     		cmp	r2, r3
 166 011e 0CD1     		bne	.L11
 168:../STM32F10x_StdPeriph_Lib_V3.5.0/Libraries/STM32F10x_StdPeriph_Driver/src/stm32f10x_tim.c ****   {      
 169:../STM32F10x_StdPeriph_Lib_V3.5.0/Libraries/STM32F10x_StdPeriph_Driver/src/stm32f10x_tim.c ****     RCC_APB2PeriphResetCmd(RCC_APB2Periph_TIM9, ENABLE);
 167              		.loc 1 169 0
 168 0120 4FF40020 		mov	r0, #524288
 169 0124 4FF00101 		mov	r1, #1
 170 0128 FFF7FEFF 		bl	RCC_APB2PeriphResetCmd
 170:../STM32F10x_StdPeriph_Lib_V3.5.0/Libraries/STM32F10x_StdPeriph_Driver/src/stm32f10x_tim.c ****     RCC_APB2PeriphResetCmd(RCC_APB2Periph_TIM9, DISABLE);  
 171              		.loc 1 170 0
 172 012c 4FF40020 		mov	r0, #524288
 173 0130 4FF00001 		mov	r1, #0
 174 0134 FFF7FEFF 		bl	RCC_APB2PeriphResetCmd
 175 0138 86E0     		b	.L1
 176              	.L11:
 171:../STM32F10x_StdPeriph_Lib_V3.5.0/Libraries/STM32F10x_StdPeriph_Driver/src/stm32f10x_tim.c ****    }  
 172:../STM32F10x_StdPeriph_Lib_V3.5.0/Libraries/STM32F10x_StdPeriph_Driver/src/stm32f10x_tim.c ****   else if (TIMx == TIM10)
 177              		.loc 1 172 0
 178 013a 7A68     		ldr	r2, [r7, #4]
 179 013c 4C4B     		ldr	r3, .L19+32
 180 013e 9A42     		cmp	r2, r3
 181 0140 0CD1     		bne	.L12
 173:../STM32F10x_StdPeriph_Lib_V3.5.0/Libraries/STM32F10x_StdPeriph_Driver/src/stm32f10x_tim.c ****   {      
 174:../STM32F10x_StdPeriph_Lib_V3.5.0/Libraries/STM32F10x_StdPeriph_Driver/src/stm32f10x_tim.c ****     RCC_APB2PeriphResetCmd(RCC_APB2Periph_TIM10, ENABLE);
 182              		.loc 1 174 0
 183 0142 4FF48010 		mov	r0, #1048576
 184 0146 4FF00101 		mov	r1, #1
 185 014a FFF7FEFF 		bl	RCC_APB2PeriphResetCmd
 175:../STM32F10x_StdPeriph_Lib_V3.5.0/Libraries/STM32F10x_StdPeriph_Driver/src/stm32f10x_tim.c ****     RCC_APB2PeriphResetCmd(RCC_APB2Periph_TIM10, DISABLE);  
 186              		.loc 1 175 0
 187 014e 4FF48010 		mov	r0, #1048576
 188 0152 4FF00001 		mov	r1, #0
 189 0156 FFF7FEFF 		bl	RCC_APB2PeriphResetCmd
 190 015a 75E0     		b	.L1
 191              	.L12:
 176:../STM32F10x_StdPeriph_Lib_V3.5.0/Libraries/STM32F10x_StdPeriph_Driver/src/stm32f10x_tim.c ****   }  
 177:../STM32F10x_StdPeriph_Lib_V3.5.0/Libraries/STM32F10x_StdPeriph_Driver/src/stm32f10x_tim.c ****   else if (TIMx == TIM11) 
 192              		.loc 1 177 0
 193 015c 7A68     		ldr	r2, [r7, #4]
 194 015e 454B     		ldr	r3, .L19+36
 195 0160 9A42     		cmp	r2, r3
 196 0162 0CD1     		bne	.L13
 178:../STM32F10x_StdPeriph_Lib_V3.5.0/Libraries/STM32F10x_StdPeriph_Driver/src/stm32f10x_tim.c ****   {     
 179:../STM32F10x_StdPeriph_Lib_V3.5.0/Libraries/STM32F10x_StdPeriph_Driver/src/stm32f10x_tim.c ****     RCC_APB2PeriphResetCmd(RCC_APB2Periph_TIM11, ENABLE);
 197              		.loc 1 179 0
 198 0164 4FF40010 		mov	r0, #2097152
 199 0168 4FF00101 		mov	r1, #1
 200 016c FFF7FEFF 		bl	RCC_APB2PeriphResetCmd
 180:../STM32F10x_StdPeriph_Lib_V3.5.0/Libraries/STM32F10x_StdPeriph_Driver/src/stm32f10x_tim.c ****     RCC_APB2PeriphResetCmd(RCC_APB2Periph_TIM11, DISABLE);  
 201              		.loc 1 180 0
 202 0170 4FF40010 		mov	r0, #2097152
 203 0174 4FF00001 		mov	r1, #0
 204 0178 FFF7FEFF 		bl	RCC_APB2PeriphResetCmd
 205 017c 64E0     		b	.L1
 206              	.L13:
 181:../STM32F10x_StdPeriph_Lib_V3.5.0/Libraries/STM32F10x_StdPeriph_Driver/src/stm32f10x_tim.c ****   }  
 182:../STM32F10x_StdPeriph_Lib_V3.5.0/Libraries/STM32F10x_StdPeriph_Driver/src/stm32f10x_tim.c ****   else if (TIMx == TIM12)
 207              		.loc 1 182 0
 208 017e 7A68     		ldr	r2, [r7, #4]
 209 0180 3D4B     		ldr	r3, .L19+40
 210 0182 9A42     		cmp	r2, r3
 211 0184 0CD1     		bne	.L14
 183:../STM32F10x_StdPeriph_Lib_V3.5.0/Libraries/STM32F10x_StdPeriph_Driver/src/stm32f10x_tim.c ****   {      
 184:../STM32F10x_StdPeriph_Lib_V3.5.0/Libraries/STM32F10x_StdPeriph_Driver/src/stm32f10x_tim.c ****     RCC_APB1PeriphResetCmd(RCC_APB1Periph_TIM12, ENABLE);
 212              		.loc 1 184 0
 213 0186 4FF04000 		mov	r0, #64
 214 018a 4FF00101 		mov	r1, #1
 215 018e FFF7FEFF 		bl	RCC_APB1PeriphResetCmd
 185:../STM32F10x_StdPeriph_Lib_V3.5.0/Libraries/STM32F10x_StdPeriph_Driver/src/stm32f10x_tim.c ****     RCC_APB1PeriphResetCmd(RCC_APB1Periph_TIM12, DISABLE);  
 216              		.loc 1 185 0
 217 0192 4FF04000 		mov	r0, #64
 218 0196 4FF00001 		mov	r1, #0
 219 019a FFF7FEFF 		bl	RCC_APB1PeriphResetCmd
 220 019e 53E0     		b	.L1
 221              	.L14:
 186:../STM32F10x_StdPeriph_Lib_V3.5.0/Libraries/STM32F10x_StdPeriph_Driver/src/stm32f10x_tim.c ****   }  
 187:../STM32F10x_StdPeriph_Lib_V3.5.0/Libraries/STM32F10x_StdPeriph_Driver/src/stm32f10x_tim.c ****   else if (TIMx == TIM13) 
 222              		.loc 1 187 0
 223 01a0 7A68     		ldr	r2, [r7, #4]
 224 01a2 364B     		ldr	r3, .L19+44
 225 01a4 9A42     		cmp	r2, r3
 226 01a6 0CD1     		bne	.L15
 188:../STM32F10x_StdPeriph_Lib_V3.5.0/Libraries/STM32F10x_StdPeriph_Driver/src/stm32f10x_tim.c ****   {       
 189:../STM32F10x_StdPeriph_Lib_V3.5.0/Libraries/STM32F10x_StdPeriph_Driver/src/stm32f10x_tim.c ****     RCC_APB1PeriphResetCmd(RCC_APB1Periph_TIM13, ENABLE);
 227              		.loc 1 189 0
 228 01a8 4FF08000 		mov	r0, #128
 229 01ac 4FF00101 		mov	r1, #1
 230 01b0 FFF7FEFF 		bl	RCC_APB1PeriphResetCmd
 190:../STM32F10x_StdPeriph_Lib_V3.5.0/Libraries/STM32F10x_StdPeriph_Driver/src/stm32f10x_tim.c ****     RCC_APB1PeriphResetCmd(RCC_APB1Periph_TIM13, DISABLE);  
 231              		.loc 1 190 0
 232 01b4 4FF08000 		mov	r0, #128
 233 01b8 4FF00001 		mov	r1, #0
 234 01bc FFF7FEFF 		bl	RCC_APB1PeriphResetCmd
 235 01c0 42E0     		b	.L1
 236              	.L15:
 191:../STM32F10x_StdPeriph_Lib_V3.5.0/Libraries/STM32F10x_StdPeriph_Driver/src/stm32f10x_tim.c ****   }
 192:../STM32F10x_StdPeriph_Lib_V3.5.0/Libraries/STM32F10x_StdPeriph_Driver/src/stm32f10x_tim.c ****   else if (TIMx == TIM14) 
 237              		.loc 1 192 0
 238 01c2 7A68     		ldr	r2, [r7, #4]
 239 01c4 2E4B     		ldr	r3, .L19+48
 240 01c6 9A42     		cmp	r2, r3
 241 01c8 0CD1     		bne	.L16
 193:../STM32F10x_StdPeriph_Lib_V3.5.0/Libraries/STM32F10x_StdPeriph_Driver/src/stm32f10x_tim.c ****   {       
 194:../STM32F10x_StdPeriph_Lib_V3.5.0/Libraries/STM32F10x_StdPeriph_Driver/src/stm32f10x_tim.c ****     RCC_APB1PeriphResetCmd(RCC_APB1Periph_TIM14, ENABLE);
 242              		.loc 1 194 0
 243 01ca 4FF48070 		mov	r0, #256
 244 01ce 4FF00101 		mov	r1, #1
 245 01d2 FFF7FEFF 		bl	RCC_APB1PeriphResetCmd
 195:../STM32F10x_StdPeriph_Lib_V3.5.0/Libraries/STM32F10x_StdPeriph_Driver/src/stm32f10x_tim.c ****     RCC_APB1PeriphResetCmd(RCC_APB1Periph_TIM14, DISABLE);  
 246              		.loc 1 195 0
 247 01d6 4FF48070 		mov	r0, #256
 248 01da 4FF00001 		mov	r1, #0
 249 01de FFF7FEFF 		bl	RCC_APB1PeriphResetCmd
 250 01e2 31E0     		b	.L1
 251              	.L16:
 196:../STM32F10x_StdPeriph_Lib_V3.5.0/Libraries/STM32F10x_StdPeriph_Driver/src/stm32f10x_tim.c ****   }        
 197:../STM32F10x_StdPeriph_Lib_V3.5.0/Libraries/STM32F10x_StdPeriph_Driver/src/stm32f10x_tim.c ****   else if (TIMx == TIM15)
 252              		.loc 1 197 0
 253 01e4 7A68     		ldr	r2, [r7, #4]
 254 01e6 274B     		ldr	r3, .L19+52
 255 01e8 9A42     		cmp	r2, r3
 256 01ea 0CD1     		bne	.L17
 198:../STM32F10x_StdPeriph_Lib_V3.5.0/Libraries/STM32F10x_StdPeriph_Driver/src/stm32f10x_tim.c ****   {
 199:../STM32F10x_StdPeriph_Lib_V3.5.0/Libraries/STM32F10x_StdPeriph_Driver/src/stm32f10x_tim.c ****     RCC_APB2PeriphResetCmd(RCC_APB2Periph_TIM15, ENABLE);
 257              		.loc 1 199 0
 258 01ec 4FF48030 		mov	r0, #65536
 259 01f0 4FF00101 		mov	r1, #1
 260 01f4 FFF7FEFF 		bl	RCC_APB2PeriphResetCmd
 200:../STM32F10x_StdPeriph_Lib_V3.5.0/Libraries/STM32F10x_StdPeriph_Driver/src/stm32f10x_tim.c ****     RCC_APB2PeriphResetCmd(RCC_APB2Periph_TIM15, DISABLE);
 261              		.loc 1 200 0
 262 01f8 4FF48030 		mov	r0, #65536
 263 01fc 4FF00001 		mov	r1, #0
 264 0200 FFF7FEFF 		bl	RCC_APB2PeriphResetCmd
 265 0204 20E0     		b	.L1
 266              	.L17:
 201:../STM32F10x_StdPeriph_Lib_V3.5.0/Libraries/STM32F10x_StdPeriph_Driver/src/stm32f10x_tim.c ****   } 
 202:../STM32F10x_StdPeriph_Lib_V3.5.0/Libraries/STM32F10x_StdPeriph_Driver/src/stm32f10x_tim.c ****   else if (TIMx == TIM16)
 267              		.loc 1 202 0
 268 0206 7A68     		ldr	r2, [r7, #4]
 269 0208 1F4B     		ldr	r3, .L19+56
 270 020a 9A42     		cmp	r2, r3
 271 020c 0CD1     		bne	.L18
 203:../STM32F10x_StdPeriph_Lib_V3.5.0/Libraries/STM32F10x_StdPeriph_Driver/src/stm32f10x_tim.c ****   {
 204:../STM32F10x_StdPeriph_Lib_V3.5.0/Libraries/STM32F10x_StdPeriph_Driver/src/stm32f10x_tim.c ****     RCC_APB2PeriphResetCmd(RCC_APB2Periph_TIM16, ENABLE);
 272              		.loc 1 204 0
 273 020e 4FF40030 		mov	r0, #131072
 274 0212 4FF00101 		mov	r1, #1
 275 0216 FFF7FEFF 		bl	RCC_APB2PeriphResetCmd
 205:../STM32F10x_StdPeriph_Lib_V3.5.0/Libraries/STM32F10x_StdPeriph_Driver/src/stm32f10x_tim.c ****     RCC_APB2PeriphResetCmd(RCC_APB2Periph_TIM16, DISABLE);
 276              		.loc 1 205 0
 277 021a 4FF40030 		mov	r0, #131072
 278 021e 4FF00001 		mov	r1, #0
 279 0222 FFF7FEFF 		bl	RCC_APB2PeriphResetCmd
 280 0226 0FE0     		b	.L1
 281              	.L18:
 206:../STM32F10x_StdPeriph_Lib_V3.5.0/Libraries/STM32F10x_StdPeriph_Driver/src/stm32f10x_tim.c ****   } 
 207:../STM32F10x_StdPeriph_Lib_V3.5.0/Libraries/STM32F10x_StdPeriph_Driver/src/stm32f10x_tim.c ****   else
 208:../STM32F10x_StdPeriph_Lib_V3.5.0/Libraries/STM32F10x_StdPeriph_Driver/src/stm32f10x_tim.c ****   {
 209:../STM32F10x_StdPeriph_Lib_V3.5.0/Libraries/STM32F10x_StdPeriph_Driver/src/stm32f10x_tim.c ****     if (TIMx == TIM17)
 282              		.loc 1 209 0
 283 0228 7A68     		ldr	r2, [r7, #4]
 284 022a 184B     		ldr	r3, .L19+60
 285 022c 9A42     		cmp	r2, r3
 286 022e 0BD1     		bne	.L1
 210:../STM32F10x_StdPeriph_Lib_V3.5.0/Libraries/STM32F10x_StdPeriph_Driver/src/stm32f10x_tim.c ****     {
 211:../STM32F10x_StdPeriph_Lib_V3.5.0/Libraries/STM32F10x_StdPeriph_Driver/src/stm32f10x_tim.c ****       RCC_APB2PeriphResetCmd(RCC_APB2Periph_TIM17, ENABLE);
 287              		.loc 1 211 0
 288 0230 4FF48020 		mov	r0, #262144
 289 0234 4FF00101 		mov	r1, #1
 290 0238 FFF7FEFF 		bl	RCC_APB2PeriphResetCmd
 212:../STM32F10x_StdPeriph_Lib_V3.5.0/Libraries/STM32F10x_StdPeriph_Driver/src/stm32f10x_tim.c ****       RCC_APB2PeriphResetCmd(RCC_APB2Periph_TIM17, DISABLE);
 291              		.loc 1 212 0
 292 023c 4FF48020 		mov	r0, #262144
 293 0240 4FF00001 		mov	r1, #0
 294 0244 FFF7FEFF 		bl	RCC_APB2PeriphResetCmd
 295              	.L1:
 213:../STM32F10x_StdPeriph_Lib_V3.5.0/Libraries/STM32F10x_StdPeriph_Driver/src/stm32f10x_tim.c ****     }  
 214:../STM32F10x_StdPeriph_Lib_V3.5.0/Libraries/STM32F10x_StdPeriph_Driver/src/stm32f10x_tim.c ****   }
 215:../STM32F10x_StdPeriph_Lib_V3.5.0/Libraries/STM32F10x_StdPeriph_Driver/src/stm32f10x_tim.c **** }
 296              		.loc 1 215 0
 297 0248 07F10807 		add	r7, r7, #8
 298 024c BD46     		mov	sp, r7
 299 024e 80BD     		pop	{r7, pc}
 300              	.L20:
 301              		.align	2
 302              	.L19:
 303 0250 002C0140 		.word	1073818624
 304 0254 00040040 		.word	1073742848
 305 0258 00080040 		.word	1073743872
 306 025c 000C0040 		.word	1073744896
 307 0260 00100040 		.word	1073745920
 308 0264 00140040 		.word	1073746944
 309 0268 00340140 		.word	1073820672
 310 026c 004C0140 		.word	1073826816
 311 0270 00500140 		.word	1073827840
 312 0274 00540140 		.word	1073828864
 313 0278 00180040 		.word	1073747968
 314 027c 001C0040 		.word	1073748992
 315 0280 00200040 		.word	1073750016
 316 0284 00400140 		.word	1073823744
 317 0288 00440140 		.word	1073824768
 318 028c 00480140 		.word	1073825792
 319              		.cfi_endproc
 320              	.LFE29:
 322              		.section	.text.TIM_TimeBaseInit,"ax",%progbits
 323              		.align	2
 324              		.global	TIM_TimeBaseInit
 325              		.thumb
 326              		.thumb_func
 328              	TIM_TimeBaseInit:
 329              	.LFB30:
 216:../STM32F10x_StdPeriph_Lib_V3.5.0/Libraries/STM32F10x_StdPeriph_Driver/src/stm32f10x_tim.c **** 
 217:../STM32F10x_StdPeriph_Lib_V3.5.0/Libraries/STM32F10x_StdPeriph_Driver/src/stm32f10x_tim.c **** /**
 218:../STM32F10x_StdPeriph_Lib_V3.5.0/Libraries/STM32F10x_StdPeriph_Driver/src/stm32f10x_tim.c ****   * @brief  Initializes the TIMx Time Base Unit peripheral according to 
 219:../STM32F10x_StdPeriph_Lib_V3.5.0/Libraries/STM32F10x_StdPeriph_Driver/src/stm32f10x_tim.c ****   *         the specified parameters in the TIM_TimeBaseInitStruct.
 220:../STM32F10x_StdPeriph_Lib_V3.5.0/Libraries/STM32F10x_StdPeriph_Driver/src/stm32f10x_tim.c ****   * @param  TIMx: where x can be 1 to 17 to select the TIM peripheral.
 221:../STM32F10x_StdPeriph_Lib_V3.5.0/Libraries/STM32F10x_StdPeriph_Driver/src/stm32f10x_tim.c ****   * @param  TIM_TimeBaseInitStruct: pointer to a TIM_TimeBaseInitTypeDef
 222:../STM32F10x_StdPeriph_Lib_V3.5.0/Libraries/STM32F10x_StdPeriph_Driver/src/stm32f10x_tim.c ****   *         structure that contains the configuration information for the 
 223:../STM32F10x_StdPeriph_Lib_V3.5.0/Libraries/STM32F10x_StdPeriph_Driver/src/stm32f10x_tim.c ****   *         specified TIM peripheral.
 224:../STM32F10x_StdPeriph_Lib_V3.5.0/Libraries/STM32F10x_StdPeriph_Driver/src/stm32f10x_tim.c ****   * @retval None
 225:../STM32F10x_StdPeriph_Lib_V3.5.0/Libraries/STM32F10x_StdPeriph_Driver/src/stm32f10x_tim.c ****   */
 226:../STM32F10x_StdPeriph_Lib_V3.5.0/Libraries/STM32F10x_StdPeriph_Driver/src/stm32f10x_tim.c **** void TIM_TimeBaseInit(TIM_TypeDef* TIMx, TIM_TimeBaseInitTypeDef* TIM_TimeBaseInitStruct)
 227:../STM32F10x_StdPeriph_Lib_V3.5.0/Libraries/STM32F10x_StdPeriph_Driver/src/stm32f10x_tim.c **** {
 330              		.loc 1 227 0
 331              		.cfi_startproc
 332              		@ args = 0, pretend = 0, frame = 16
 333              		@ frame_needed = 1, uses_anonymous_args = 0
 334              		@ link register save eliminated.
 335 0000 80B4     		push	{r7}
 336              	.LCFI3:
 337              		.cfi_def_cfa_offset 4
 338              		.cfi_offset 7, -4
 339 0002 85B0     		sub	sp, sp, #20
 340              	.LCFI4:
 341              		.cfi_def_cfa_offset 24
 342 0004 00AF     		add	r7, sp, #0
 343              	.LCFI5:
 344              		.cfi_def_cfa_register 7
 345 0006 7860     		str	r0, [r7, #4]
 346 0008 3960     		str	r1, [r7, #0]
 228:../STM32F10x_StdPeriph_Lib_V3.5.0/Libraries/STM32F10x_StdPeriph_Driver/src/stm32f10x_tim.c ****   uint16_t tmpcr1 = 0;
 347              		.loc 1 228 0
 348 000a 4FF00003 		mov	r3, #0
 349 000e FB81     		strh	r3, [r7, #14]	@ movhi
 229:../STM32F10x_StdPeriph_Lib_V3.5.0/Libraries/STM32F10x_StdPeriph_Driver/src/stm32f10x_tim.c **** 
 230:../STM32F10x_StdPeriph_Lib_V3.5.0/Libraries/STM32F10x_StdPeriph_Driver/src/stm32f10x_tim.c ****   /* Check the parameters */
 231:../STM32F10x_StdPeriph_Lib_V3.5.0/Libraries/STM32F10x_StdPeriph_Driver/src/stm32f10x_tim.c ****   assert_param(IS_TIM_ALL_PERIPH(TIMx)); 
 232:../STM32F10x_StdPeriph_Lib_V3.5.0/Libraries/STM32F10x_StdPeriph_Driver/src/stm32f10x_tim.c ****   assert_param(IS_TIM_COUNTER_MODE(TIM_TimeBaseInitStruct->TIM_CounterMode));
 233:../STM32F10x_StdPeriph_Lib_V3.5.0/Libraries/STM32F10x_StdPeriph_Driver/src/stm32f10x_tim.c ****   assert_param(IS_TIM_CKD_DIV(TIM_TimeBaseInitStruct->TIM_ClockDivision));
 234:../STM32F10x_StdPeriph_Lib_V3.5.0/Libraries/STM32F10x_StdPeriph_Driver/src/stm32f10x_tim.c **** 
 235:../STM32F10x_StdPeriph_Lib_V3.5.0/Libraries/STM32F10x_StdPeriph_Driver/src/stm32f10x_tim.c ****   tmpcr1 = TIMx->CR1;  
 350              		.loc 1 235 0
 351 0010 7B68     		ldr	r3, [r7, #4]
 352 0012 1B88     		ldrh	r3, [r3, #0]	@ movhi
 353 0014 FB81     		strh	r3, [r7, #14]	@ movhi
 236:../STM32F10x_StdPeriph_Lib_V3.5.0/Libraries/STM32F10x_StdPeriph_Driver/src/stm32f10x_tim.c **** 
 237:../STM32F10x_StdPeriph_Lib_V3.5.0/Libraries/STM32F10x_StdPeriph_Driver/src/stm32f10x_tim.c ****   if((TIMx == TIM1) || (TIMx == TIM8)|| (TIMx == TIM2) || (TIMx == TIM3)||
 354              		.loc 1 237 0
 355 0016 7A68     		ldr	r2, [r7, #4]
 356 0018 2E4B     		ldr	r3, .L27
 357 001a 9A42     		cmp	r2, r3
 358 001c 13D0     		beq	.L22
 359              		.loc 1 237 0 is_stmt 0 discriminator 1
 360 001e 7A68     		ldr	r2, [r7, #4]
 361 0020 2D4B     		ldr	r3, .L27+4
 362 0022 9A42     		cmp	r2, r3
 363 0024 0FD0     		beq	.L22
 364 0026 7B68     		ldr	r3, [r7, #4]
 365 0028 B3F1804F 		cmp	r3, #1073741824
 366 002c 0BD0     		beq	.L22
 367 002e 7A68     		ldr	r2, [r7, #4]
 368 0030 2A4B     		ldr	r3, .L27+8
 369 0032 9A42     		cmp	r2, r3
 370 0034 07D0     		beq	.L22
 371 0036 7A68     		ldr	r2, [r7, #4]
 372 0038 294B     		ldr	r3, .L27+12
 373 003a 9A42     		cmp	r2, r3
 374 003c 03D0     		beq	.L22
 238:../STM32F10x_StdPeriph_Lib_V3.5.0/Libraries/STM32F10x_StdPeriph_Driver/src/stm32f10x_tim.c ****      (TIMx == TIM4) || (TIMx == TIM5)) 
 375              		.loc 1 238 0 is_stmt 1
 376 003e 7A68     		ldr	r2, [r7, #4]
 377 0040 284B     		ldr	r3, .L27+16
 378 0042 9A42     		cmp	r2, r3
 379 0044 08D1     		bne	.L23
 380              	.L22:
 239:../STM32F10x_StdPeriph_Lib_V3.5.0/Libraries/STM32F10x_StdPeriph_Driver/src/stm32f10x_tim.c ****   {
 240:../STM32F10x_StdPeriph_Lib_V3.5.0/Libraries/STM32F10x_StdPeriph_Driver/src/stm32f10x_tim.c ****     /* Select the Counter Mode */
 241:../STM32F10x_StdPeriph_Lib_V3.5.0/Libraries/STM32F10x_StdPeriph_Driver/src/stm32f10x_tim.c ****     tmpcr1 &= (uint16_t)(~((uint16_t)(TIM_CR1_DIR | TIM_CR1_CMS)));
 381              		.loc 1 241 0
 382 0046 FB89     		ldrh	r3, [r7, #14]	@ movhi
 383 0048 23F07003 		bic	r3, r3, #112
 384 004c FB81     		strh	r3, [r7, #14]	@ movhi
 242:../STM32F10x_StdPeriph_Lib_V3.5.0/Libraries/STM32F10x_StdPeriph_Driver/src/stm32f10x_tim.c ****     tmpcr1 |= (uint32_t)TIM_TimeBaseInitStruct->TIM_CounterMode;
 385              		.loc 1 242 0
 386 004e 3B68     		ldr	r3, [r7, #0]
 387 0050 5A88     		ldrh	r2, [r3, #2]
 388 0052 FB89     		ldrh	r3, [r7, #14]	@ movhi
 389 0054 1343     		orrs	r3, r3, r2
 390 0056 FB81     		strh	r3, [r7, #14]	@ movhi
 391              	.L23:
 243:../STM32F10x_StdPeriph_Lib_V3.5.0/Libraries/STM32F10x_StdPeriph_Driver/src/stm32f10x_tim.c ****   }
 244:../STM32F10x_StdPeriph_Lib_V3.5.0/Libraries/STM32F10x_StdPeriph_Driver/src/stm32f10x_tim.c ****  
 245:../STM32F10x_StdPeriph_Lib_V3.5.0/Libraries/STM32F10x_StdPeriph_Driver/src/stm32f10x_tim.c ****   if((TIMx != TIM6) && (TIMx != TIM7))
 392              		.loc 1 245 0
 393 0058 7A68     		ldr	r2, [r7, #4]
 394 005a 234B     		ldr	r3, .L27+20
 395 005c 9A42     		cmp	r2, r3
 396 005e 0CD0     		beq	.L24
 397              		.loc 1 245 0 is_stmt 0 discriminator 1
 398 0060 7A68     		ldr	r2, [r7, #4]
 399 0062 224B     		ldr	r3, .L27+24
 400 0064 9A42     		cmp	r2, r3
 401 0066 08D0     		beq	.L24
 246:../STM32F10x_StdPeriph_Lib_V3.5.0/Libraries/STM32F10x_StdPeriph_Driver/src/stm32f10x_tim.c ****   {
 247:../STM32F10x_StdPeriph_Lib_V3.5.0/Libraries/STM32F10x_StdPeriph_Driver/src/stm32f10x_tim.c ****     /* Set the clock division */
 248:../STM32F10x_StdPeriph_Lib_V3.5.0/Libraries/STM32F10x_StdPeriph_Driver/src/stm32f10x_tim.c ****     tmpcr1 &= (uint16_t)(~((uint16_t)TIM_CR1_CKD));
 402              		.loc 1 248 0 is_stmt 1
 403 0068 FB89     		ldrh	r3, [r7, #14]	@ movhi
 404 006a 23F44073 		bic	r3, r3, #768
 405 006e FB81     		strh	r3, [r7, #14]	@ movhi
 249:../STM32F10x_StdPeriph_Lib_V3.5.0/Libraries/STM32F10x_StdPeriph_Driver/src/stm32f10x_tim.c ****     tmpcr1 |= (uint32_t)TIM_TimeBaseInitStruct->TIM_ClockDivision;
 406              		.loc 1 249 0
 407 0070 3B68     		ldr	r3, [r7, #0]
 408 0072 DA88     		ldrh	r2, [r3, #6]
 409 0074 FB89     		ldrh	r3, [r7, #14]	@ movhi
 410 0076 1343     		orrs	r3, r3, r2
 411 0078 FB81     		strh	r3, [r7, #14]	@ movhi
 412              	.L24:
 250:../STM32F10x_StdPeriph_Lib_V3.5.0/Libraries/STM32F10x_StdPeriph_Driver/src/stm32f10x_tim.c ****   }
 251:../STM32F10x_StdPeriph_Lib_V3.5.0/Libraries/STM32F10x_StdPeriph_Driver/src/stm32f10x_tim.c **** 
 252:../STM32F10x_StdPeriph_Lib_V3.5.0/Libraries/STM32F10x_StdPeriph_Driver/src/stm32f10x_tim.c ****   TIMx->CR1 = tmpcr1;
 413              		.loc 1 252 0
 414 007a 7B68     		ldr	r3, [r7, #4]
 415 007c FA89     		ldrh	r2, [r7, #14]	@ movhi
 416 007e 1A80     		strh	r2, [r3, #0]	@ movhi
 253:../STM32F10x_StdPeriph_Lib_V3.5.0/Libraries/STM32F10x_StdPeriph_Driver/src/stm32f10x_tim.c **** 
 254:../STM32F10x_StdPeriph_Lib_V3.5.0/Libraries/STM32F10x_StdPeriph_Driver/src/stm32f10x_tim.c ****   /* Set the Autoreload value */
 255:../STM32F10x_StdPeriph_Lib_V3.5.0/Libraries/STM32F10x_StdPeriph_Driver/src/stm32f10x_tim.c ****   TIMx->ARR = TIM_TimeBaseInitStruct->TIM_Period ;
 417              		.loc 1 255 0
 418 0080 3B68     		ldr	r3, [r7, #0]
 419 0082 9A88     		ldrh	r2, [r3, #4]
 420 0084 7B68     		ldr	r3, [r7, #4]
 421 0086 9A85     		strh	r2, [r3, #44]	@ movhi
 256:../STM32F10x_StdPeriph_Lib_V3.5.0/Libraries/STM32F10x_StdPeriph_Driver/src/stm32f10x_tim.c ****  
 257:../STM32F10x_StdPeriph_Lib_V3.5.0/Libraries/STM32F10x_StdPeriph_Driver/src/stm32f10x_tim.c ****   /* Set the Prescaler value */
 258:../STM32F10x_StdPeriph_Lib_V3.5.0/Libraries/STM32F10x_StdPeriph_Driver/src/stm32f10x_tim.c ****   TIMx->PSC = TIM_TimeBaseInitStruct->TIM_Prescaler;
 422              		.loc 1 258 0
 423 0088 3B68     		ldr	r3, [r7, #0]
 424 008a 1A88     		ldrh	r2, [r3, #0]
 425 008c 7B68     		ldr	r3, [r7, #4]
 426 008e 1A85     		strh	r2, [r3, #40]	@ movhi
 259:../STM32F10x_StdPeriph_Lib_V3.5.0/Libraries/STM32F10x_StdPeriph_Driver/src/stm32f10x_tim.c ****     
 260:../STM32F10x_StdPeriph_Lib_V3.5.0/Libraries/STM32F10x_StdPeriph_Driver/src/stm32f10x_tim.c ****   if ((TIMx == TIM1) || (TIMx == TIM8)|| (TIMx == TIM15)|| (TIMx == TIM16) || (TIMx == TIM17))  
 427              		.loc 1 260 0
 428 0090 7A68     		ldr	r2, [r7, #4]
 429 0092 104B     		ldr	r3, .L27
 430 0094 9A42     		cmp	r2, r3
 431 0096 0FD0     		beq	.L25
 432              		.loc 1 260 0 is_stmt 0 discriminator 1
 433 0098 7A68     		ldr	r2, [r7, #4]
 434 009a 0F4B     		ldr	r3, .L27+4
 435 009c 9A42     		cmp	r2, r3
 436 009e 0BD0     		beq	.L25
 437 00a0 7A68     		ldr	r2, [r7, #4]
 438 00a2 134B     		ldr	r3, .L27+28
 439 00a4 9A42     		cmp	r2, r3
 440 00a6 07D0     		beq	.L25
 441 00a8 7A68     		ldr	r2, [r7, #4]
 442 00aa 124B     		ldr	r3, .L27+32
 443 00ac 9A42     		cmp	r2, r3
 444 00ae 03D0     		beq	.L25
 445 00b0 7A68     		ldr	r2, [r7, #4]
 446 00b2 114B     		ldr	r3, .L27+36
 447 00b4 9A42     		cmp	r2, r3
 448 00b6 04D1     		bne	.L26
 449              	.L25:
 261:../STM32F10x_StdPeriph_Lib_V3.5.0/Libraries/STM32F10x_StdPeriph_Driver/src/stm32f10x_tim.c ****   {
 262:../STM32F10x_StdPeriph_Lib_V3.5.0/Libraries/STM32F10x_StdPeriph_Driver/src/stm32f10x_tim.c ****     /* Set the Repetition Counter value */
 263:../STM32F10x_StdPeriph_Lib_V3.5.0/Libraries/STM32F10x_StdPeriph_Driver/src/stm32f10x_tim.c ****     TIMx->RCR = TIM_TimeBaseInitStruct->TIM_RepetitionCounter;
 450              		.loc 1 263 0 is_stmt 1
 451 00b8 3B68     		ldr	r3, [r7, #0]
 452 00ba 1B7A     		ldrb	r3, [r3, #8]	@ zero_extendqisi2
 453 00bc 1A46     		mov	r2, r3
 454 00be 7B68     		ldr	r3, [r7, #4]
 455 00c0 1A86     		strh	r2, [r3, #48]	@ movhi
 456              	.L26:
 264:../STM32F10x_StdPeriph_Lib_V3.5.0/Libraries/STM32F10x_StdPeriph_Driver/src/stm32f10x_tim.c ****   }
 265:../STM32F10x_StdPeriph_Lib_V3.5.0/Libraries/STM32F10x_StdPeriph_Driver/src/stm32f10x_tim.c **** 
 266:../STM32F10x_StdPeriph_Lib_V3.5.0/Libraries/STM32F10x_StdPeriph_Driver/src/stm32f10x_tim.c ****   /* Generate an update event to reload the Prescaler and the Repetition counter
 267:../STM32F10x_StdPeriph_Lib_V3.5.0/Libraries/STM32F10x_StdPeriph_Driver/src/stm32f10x_tim.c ****      values immediately */
 268:../STM32F10x_StdPeriph_Lib_V3.5.0/Libraries/STM32F10x_StdPeriph_Driver/src/stm32f10x_tim.c ****   TIMx->EGR = TIM_PSCReloadMode_Immediate;           
 457              		.loc 1 268 0
 458 00c2 7B68     		ldr	r3, [r7, #4]
 459 00c4 4FF00102 		mov	r2, #1
 460 00c8 9A82     		strh	r2, [r3, #20]	@ movhi
 269:../STM32F10x_StdPeriph_Lib_V3.5.0/Libraries/STM32F10x_StdPeriph_Driver/src/stm32f10x_tim.c **** }
 461              		.loc 1 269 0
 462 00ca 07F11407 		add	r7, r7, #20
 463 00ce BD46     		mov	sp, r7
 464 00d0 80BC     		pop	{r7}
 465 00d2 7047     		bx	lr
 466              	.L28:
 467              		.align	2
 468              	.L27:
 469 00d4 002C0140 		.word	1073818624
 470 00d8 00340140 		.word	1073820672
 471 00dc 00040040 		.word	1073742848
 472 00e0 00080040 		.word	1073743872
 473 00e4 000C0040 		.word	1073744896
 474 00e8 00100040 		.word	1073745920
 475 00ec 00140040 		.word	1073746944
 476 00f0 00400140 		.word	1073823744
 477 00f4 00440140 		.word	1073824768
 478 00f8 00480140 		.word	1073825792
 479              		.cfi_endproc
 480              	.LFE30:
 482              		.section	.text.TIM_OC1Init,"ax",%progbits
 483              		.align	2
 484              		.global	TIM_OC1Init
 485              		.thumb
 486              		.thumb_func
 488              	TIM_OC1Init:
 489              	.LFB31:
 270:../STM32F10x_StdPeriph_Lib_V3.5.0/Libraries/STM32F10x_StdPeriph_Driver/src/stm32f10x_tim.c **** 
 271:../STM32F10x_StdPeriph_Lib_V3.5.0/Libraries/STM32F10x_StdPeriph_Driver/src/stm32f10x_tim.c **** /**
 272:../STM32F10x_StdPeriph_Lib_V3.5.0/Libraries/STM32F10x_StdPeriph_Driver/src/stm32f10x_tim.c ****   * @brief  Initializes the TIMx Channel1 according to the specified
 273:../STM32F10x_StdPeriph_Lib_V3.5.0/Libraries/STM32F10x_StdPeriph_Driver/src/stm32f10x_tim.c ****   *         parameters in the TIM_OCInitStruct.
 274:../STM32F10x_StdPeriph_Lib_V3.5.0/Libraries/STM32F10x_StdPeriph_Driver/src/stm32f10x_tim.c ****   * @param  TIMx: where x can be  1 to 17 except 6 and 7 to select the TIM peripheral.
 275:../STM32F10x_StdPeriph_Lib_V3.5.0/Libraries/STM32F10x_StdPeriph_Driver/src/stm32f10x_tim.c ****   * @param  TIM_OCInitStruct: pointer to a TIM_OCInitTypeDef structure
 276:../STM32F10x_StdPeriph_Lib_V3.5.0/Libraries/STM32F10x_StdPeriph_Driver/src/stm32f10x_tim.c ****   *         that contains the configuration information for the specified TIM peripheral.
 277:../STM32F10x_StdPeriph_Lib_V3.5.0/Libraries/STM32F10x_StdPeriph_Driver/src/stm32f10x_tim.c ****   * @retval None
 278:../STM32F10x_StdPeriph_Lib_V3.5.0/Libraries/STM32F10x_StdPeriph_Driver/src/stm32f10x_tim.c ****   */
 279:../STM32F10x_StdPeriph_Lib_V3.5.0/Libraries/STM32F10x_StdPeriph_Driver/src/stm32f10x_tim.c **** void TIM_OC1Init(TIM_TypeDef* TIMx, TIM_OCInitTypeDef* TIM_OCInitStruct)
 280:../STM32F10x_StdPeriph_Lib_V3.5.0/Libraries/STM32F10x_StdPeriph_Driver/src/stm32f10x_tim.c **** {
 490              		.loc 1 280 0
 491              		.cfi_startproc
 492              		@ args = 0, pretend = 0, frame = 16
 493              		@ frame_needed = 1, uses_anonymous_args = 0
 494              		@ link register save eliminated.
 495 0000 80B4     		push	{r7}
 496              	.LCFI6:
 497              		.cfi_def_cfa_offset 4
 498              		.cfi_offset 7, -4
 499 0002 85B0     		sub	sp, sp, #20
 500              	.LCFI7:
 501              		.cfi_def_cfa_offset 24
 502 0004 00AF     		add	r7, sp, #0
 503              	.LCFI8:
 504              		.cfi_def_cfa_register 7
 505 0006 7860     		str	r0, [r7, #4]
 506 0008 3960     		str	r1, [r7, #0]
 281:../STM32F10x_StdPeriph_Lib_V3.5.0/Libraries/STM32F10x_StdPeriph_Driver/src/stm32f10x_tim.c ****   uint16_t tmpccmrx = 0, tmpccer = 0, tmpcr2 = 0;
 507              		.loc 1 281 0
 508 000a 4FF00003 		mov	r3, #0
 509 000e 7B81     		strh	r3, [r7, #10]	@ movhi
 510 0010 4FF00003 		mov	r3, #0
 511 0014 FB81     		strh	r3, [r7, #14]	@ movhi
 512 0016 4FF00003 		mov	r3, #0
 513 001a BB81     		strh	r3, [r7, #12]	@ movhi
 282:../STM32F10x_StdPeriph_Lib_V3.5.0/Libraries/STM32F10x_StdPeriph_Driver/src/stm32f10x_tim.c ****    
 283:../STM32F10x_StdPeriph_Lib_V3.5.0/Libraries/STM32F10x_StdPeriph_Driver/src/stm32f10x_tim.c ****   /* Check the parameters */
 284:../STM32F10x_StdPeriph_Lib_V3.5.0/Libraries/STM32F10x_StdPeriph_Driver/src/stm32f10x_tim.c ****   assert_param(IS_TIM_LIST8_PERIPH(TIMx));
 285:../STM32F10x_StdPeriph_Lib_V3.5.0/Libraries/STM32F10x_StdPeriph_Driver/src/stm32f10x_tim.c ****   assert_param(IS_TIM_OC_MODE(TIM_OCInitStruct->TIM_OCMode));
 286:../STM32F10x_StdPeriph_Lib_V3.5.0/Libraries/STM32F10x_StdPeriph_Driver/src/stm32f10x_tim.c ****   assert_param(IS_TIM_OUTPUT_STATE(TIM_OCInitStruct->TIM_OutputState));
 287:../STM32F10x_StdPeriph_Lib_V3.5.0/Libraries/STM32F10x_StdPeriph_Driver/src/stm32f10x_tim.c ****   assert_param(IS_TIM_OC_POLARITY(TIM_OCInitStruct->TIM_OCPolarity));   
 288:../STM32F10x_StdPeriph_Lib_V3.5.0/Libraries/STM32F10x_StdPeriph_Driver/src/stm32f10x_tim.c ****  /* Disable the Channel 1: Reset the CC1E Bit */
 289:../STM32F10x_StdPeriph_Lib_V3.5.0/Libraries/STM32F10x_StdPeriph_Driver/src/stm32f10x_tim.c ****   TIMx->CCER &= (uint16_t)(~(uint16_t)TIM_CCER_CC1E);
 514              		.loc 1 289 0
 515 001c 7B68     		ldr	r3, [r7, #4]
 516 001e 1B8C     		ldrh	r3, [r3, #32]	@ movhi
 517 0020 9BB2     		uxth	r3, r3
 518 0022 23F00103 		bic	r3, r3, #1
 519 0026 9AB2     		uxth	r2, r3
 520 0028 7B68     		ldr	r3, [r7, #4]
 521 002a 1A84     		strh	r2, [r3, #32]	@ movhi
 290:../STM32F10x_StdPeriph_Lib_V3.5.0/Libraries/STM32F10x_StdPeriph_Driver/src/stm32f10x_tim.c ****   /* Get the TIMx CCER register value */
 291:../STM32F10x_StdPeriph_Lib_V3.5.0/Libraries/STM32F10x_StdPeriph_Driver/src/stm32f10x_tim.c ****   tmpccer = TIMx->CCER;
 522              		.loc 1 291 0
 523 002c 7B68     		ldr	r3, [r7, #4]
 524 002e 1B8C     		ldrh	r3, [r3, #32]	@ movhi
 525 0030 FB81     		strh	r3, [r7, #14]	@ movhi
 292:../STM32F10x_StdPeriph_Lib_V3.5.0/Libraries/STM32F10x_StdPeriph_Driver/src/stm32f10x_tim.c ****   /* Get the TIMx CR2 register value */
 293:../STM32F10x_StdPeriph_Lib_V3.5.0/Libraries/STM32F10x_StdPeriph_Driver/src/stm32f10x_tim.c ****   tmpcr2 =  TIMx->CR2;
 526              		.loc 1 293 0
 527 0032 7B68     		ldr	r3, [r7, #4]
 528 0034 9B88     		ldrh	r3, [r3, #4]	@ movhi
 529 0036 BB81     		strh	r3, [r7, #12]	@ movhi
 294:../STM32F10x_StdPeriph_Lib_V3.5.0/Libraries/STM32F10x_StdPeriph_Driver/src/stm32f10x_tim.c ****   
 295:../STM32F10x_StdPeriph_Lib_V3.5.0/Libraries/STM32F10x_StdPeriph_Driver/src/stm32f10x_tim.c ****   /* Get the TIMx CCMR1 register value */
 296:../STM32F10x_StdPeriph_Lib_V3.5.0/Libraries/STM32F10x_StdPeriph_Driver/src/stm32f10x_tim.c ****   tmpccmrx = TIMx->CCMR1;
 530              		.loc 1 296 0
 531 0038 7B68     		ldr	r3, [r7, #4]
 532 003a 1B8B     		ldrh	r3, [r3, #24]	@ movhi
 533 003c 7B81     		strh	r3, [r7, #10]	@ movhi
 297:../STM32F10x_StdPeriph_Lib_V3.5.0/Libraries/STM32F10x_StdPeriph_Driver/src/stm32f10x_tim.c ****     
 298:../STM32F10x_StdPeriph_Lib_V3.5.0/Libraries/STM32F10x_StdPeriph_Driver/src/stm32f10x_tim.c ****   /* Reset the Output Compare Mode Bits */
 299:../STM32F10x_StdPeriph_Lib_V3.5.0/Libraries/STM32F10x_StdPeriph_Driver/src/stm32f10x_tim.c ****   tmpccmrx &= (uint16_t)(~((uint16_t)TIM_CCMR1_OC1M));
 534              		.loc 1 299 0
 535 003e 7B89     		ldrh	r3, [r7, #10]	@ movhi
 536 0040 23F07003 		bic	r3, r3, #112
 537 0044 7B81     		strh	r3, [r7, #10]	@ movhi
 300:../STM32F10x_StdPeriph_Lib_V3.5.0/Libraries/STM32F10x_StdPeriph_Driver/src/stm32f10x_tim.c ****   tmpccmrx &= (uint16_t)(~((uint16_t)TIM_CCMR1_CC1S));
 538              		.loc 1 300 0
 539 0046 7B89     		ldrh	r3, [r7, #10]	@ movhi
 540 0048 23F00303 		bic	r3, r3, #3
 541 004c 7B81     		strh	r3, [r7, #10]	@ movhi
 301:../STM32F10x_StdPeriph_Lib_V3.5.0/Libraries/STM32F10x_StdPeriph_Driver/src/stm32f10x_tim.c **** 
 302:../STM32F10x_StdPeriph_Lib_V3.5.0/Libraries/STM32F10x_StdPeriph_Driver/src/stm32f10x_tim.c ****   /* Select the Output Compare Mode */
 303:../STM32F10x_StdPeriph_Lib_V3.5.0/Libraries/STM32F10x_StdPeriph_Driver/src/stm32f10x_tim.c ****   tmpccmrx |= TIM_OCInitStruct->TIM_OCMode;
 542              		.loc 1 303 0
 543 004e 3B68     		ldr	r3, [r7, #0]
 544 0050 1A88     		ldrh	r2, [r3, #0]
 545 0052 7B89     		ldrh	r3, [r7, #10]	@ movhi
 546 0054 1343     		orrs	r3, r3, r2
 547 0056 7B81     		strh	r3, [r7, #10]	@ movhi
 304:../STM32F10x_StdPeriph_Lib_V3.5.0/Libraries/STM32F10x_StdPeriph_Driver/src/stm32f10x_tim.c ****   
 305:../STM32F10x_StdPeriph_Lib_V3.5.0/Libraries/STM32F10x_StdPeriph_Driver/src/stm32f10x_tim.c ****   /* Reset the Output Polarity level */
 306:../STM32F10x_StdPeriph_Lib_V3.5.0/Libraries/STM32F10x_StdPeriph_Driver/src/stm32f10x_tim.c ****   tmpccer &= (uint16_t)(~((uint16_t)TIM_CCER_CC1P));
 548              		.loc 1 306 0
 549 0058 FB89     		ldrh	r3, [r7, #14]	@ movhi
 550 005a 23F00203 		bic	r3, r3, #2
 551 005e FB81     		strh	r3, [r7, #14]	@ movhi
 307:../STM32F10x_StdPeriph_Lib_V3.5.0/Libraries/STM32F10x_StdPeriph_Driver/src/stm32f10x_tim.c ****   /* Set the Output Compare Polarity */
 308:../STM32F10x_StdPeriph_Lib_V3.5.0/Libraries/STM32F10x_StdPeriph_Driver/src/stm32f10x_tim.c ****   tmpccer |= TIM_OCInitStruct->TIM_OCPolarity;
 552              		.loc 1 308 0
 553 0060 3B68     		ldr	r3, [r7, #0]
 554 0062 1A89     		ldrh	r2, [r3, #8]
 555 0064 FB89     		ldrh	r3, [r7, #14]	@ movhi
 556 0066 1343     		orrs	r3, r3, r2
 557 0068 FB81     		strh	r3, [r7, #14]	@ movhi
 309:../STM32F10x_StdPeriph_Lib_V3.5.0/Libraries/STM32F10x_StdPeriph_Driver/src/stm32f10x_tim.c ****   
 310:../STM32F10x_StdPeriph_Lib_V3.5.0/Libraries/STM32F10x_StdPeriph_Driver/src/stm32f10x_tim.c ****   /* Set the Output State */
 311:../STM32F10x_StdPeriph_Lib_V3.5.0/Libraries/STM32F10x_StdPeriph_Driver/src/stm32f10x_tim.c ****   tmpccer |= TIM_OCInitStruct->TIM_OutputState;
 558              		.loc 1 311 0
 559 006a 3B68     		ldr	r3, [r7, #0]
 560 006c 5A88     		ldrh	r2, [r3, #2]
 561 006e FB89     		ldrh	r3, [r7, #14]	@ movhi
 562 0070 1343     		orrs	r3, r3, r2
 563 0072 FB81     		strh	r3, [r7, #14]	@ movhi
 312:../STM32F10x_StdPeriph_Lib_V3.5.0/Libraries/STM32F10x_StdPeriph_Driver/src/stm32f10x_tim.c ****     
 313:../STM32F10x_StdPeriph_Lib_V3.5.0/Libraries/STM32F10x_StdPeriph_Driver/src/stm32f10x_tim.c ****   if((TIMx == TIM1) || (TIMx == TIM8)|| (TIMx == TIM15)||
 564              		.loc 1 313 0
 565 0074 7A68     		ldr	r2, [r7, #4]
 566 0076 244B     		ldr	r3, .L32
 567 0078 9A42     		cmp	r2, r3
 568 007a 0FD0     		beq	.L30
 569              		.loc 1 313 0 is_stmt 0 discriminator 1
 570 007c 7A68     		ldr	r2, [r7, #4]
 571 007e 234B     		ldr	r3, .L32+4
 572 0080 9A42     		cmp	r2, r3
 573 0082 0BD0     		beq	.L30
 574 0084 7A68     		ldr	r2, [r7, #4]
 575 0086 224B     		ldr	r3, .L32+8
 576 0088 9A42     		cmp	r2, r3
 577 008a 07D0     		beq	.L30
 578 008c 7A68     		ldr	r2, [r7, #4]
 579 008e 214B     		ldr	r3, .L32+12
 580 0090 9A42     		cmp	r2, r3
 581 0092 03D0     		beq	.L30
 314:../STM32F10x_StdPeriph_Lib_V3.5.0/Libraries/STM32F10x_StdPeriph_Driver/src/stm32f10x_tim.c ****      (TIMx == TIM16)|| (TIMx == TIM17))
 582              		.loc 1 314 0 is_stmt 1
 583 0094 7A68     		ldr	r2, [r7, #4]
 584 0096 204B     		ldr	r3, .L32+16
 585 0098 9A42     		cmp	r2, r3
 586 009a 23D1     		bne	.L31
 587              	.L30:
 315:../STM32F10x_StdPeriph_Lib_V3.5.0/Libraries/STM32F10x_StdPeriph_Driver/src/stm32f10x_tim.c ****   {
 316:../STM32F10x_StdPeriph_Lib_V3.5.0/Libraries/STM32F10x_StdPeriph_Driver/src/stm32f10x_tim.c ****     assert_param(IS_TIM_OUTPUTN_STATE(TIM_OCInitStruct->TIM_OutputNState));
 317:../STM32F10x_StdPeriph_Lib_V3.5.0/Libraries/STM32F10x_StdPeriph_Driver/src/stm32f10x_tim.c ****     assert_param(IS_TIM_OCN_POLARITY(TIM_OCInitStruct->TIM_OCNPolarity));
 318:../STM32F10x_StdPeriph_Lib_V3.5.0/Libraries/STM32F10x_StdPeriph_Driver/src/stm32f10x_tim.c ****     assert_param(IS_TIM_OCNIDLE_STATE(TIM_OCInitStruct->TIM_OCNIdleState));
 319:../STM32F10x_StdPeriph_Lib_V3.5.0/Libraries/STM32F10x_StdPeriph_Driver/src/stm32f10x_tim.c ****     assert_param(IS_TIM_OCIDLE_STATE(TIM_OCInitStruct->TIM_OCIdleState));
 320:../STM32F10x_StdPeriph_Lib_V3.5.0/Libraries/STM32F10x_StdPeriph_Driver/src/stm32f10x_tim.c ****     
 321:../STM32F10x_StdPeriph_Lib_V3.5.0/Libraries/STM32F10x_StdPeriph_Driver/src/stm32f10x_tim.c ****     /* Reset the Output N Polarity level */
 322:../STM32F10x_StdPeriph_Lib_V3.5.0/Libraries/STM32F10x_StdPeriph_Driver/src/stm32f10x_tim.c ****     tmpccer &= (uint16_t)(~((uint16_t)TIM_CCER_CC1NP));
 588              		.loc 1 322 0
 589 009c FB89     		ldrh	r3, [r7, #14]	@ movhi
 590 009e 23F00803 		bic	r3, r3, #8
 591 00a2 FB81     		strh	r3, [r7, #14]	@ movhi
 323:../STM32F10x_StdPeriph_Lib_V3.5.0/Libraries/STM32F10x_StdPeriph_Driver/src/stm32f10x_tim.c ****     /* Set the Output N Polarity */
 324:../STM32F10x_StdPeriph_Lib_V3.5.0/Libraries/STM32F10x_StdPeriph_Driver/src/stm32f10x_tim.c ****     tmpccer |= TIM_OCInitStruct->TIM_OCNPolarity;
 592              		.loc 1 324 0
 593 00a4 3B68     		ldr	r3, [r7, #0]
 594 00a6 5A89     		ldrh	r2, [r3, #10]
 595 00a8 FB89     		ldrh	r3, [r7, #14]	@ movhi
 596 00aa 1343     		orrs	r3, r3, r2
 597 00ac FB81     		strh	r3, [r7, #14]	@ movhi
 325:../STM32F10x_StdPeriph_Lib_V3.5.0/Libraries/STM32F10x_StdPeriph_Driver/src/stm32f10x_tim.c ****     
 326:../STM32F10x_StdPeriph_Lib_V3.5.0/Libraries/STM32F10x_StdPeriph_Driver/src/stm32f10x_tim.c ****     /* Reset the Output N State */
 327:../STM32F10x_StdPeriph_Lib_V3.5.0/Libraries/STM32F10x_StdPeriph_Driver/src/stm32f10x_tim.c ****     tmpccer &= (uint16_t)(~((uint16_t)TIM_CCER_CC1NE));    
 598              		.loc 1 327 0
 599 00ae FB89     		ldrh	r3, [r7, #14]	@ movhi
 600 00b0 23F00403 		bic	r3, r3, #4
 601 00b4 FB81     		strh	r3, [r7, #14]	@ movhi
 328:../STM32F10x_StdPeriph_Lib_V3.5.0/Libraries/STM32F10x_StdPeriph_Driver/src/stm32f10x_tim.c ****     /* Set the Output N State */
 329:../STM32F10x_StdPeriph_Lib_V3.5.0/Libraries/STM32F10x_StdPeriph_Driver/src/stm32f10x_tim.c ****     tmpccer |= TIM_OCInitStruct->TIM_OutputNState;
 602              		.loc 1 329 0
 603 00b6 3B68     		ldr	r3, [r7, #0]
 604 00b8 9A88     		ldrh	r2, [r3, #4]
 605 00ba FB89     		ldrh	r3, [r7, #14]	@ movhi
 606 00bc 1343     		orrs	r3, r3, r2
 607 00be FB81     		strh	r3, [r7, #14]	@ movhi
 330:../STM32F10x_StdPeriph_Lib_V3.5.0/Libraries/STM32F10x_StdPeriph_Driver/src/stm32f10x_tim.c ****     
 331:../STM32F10x_StdPeriph_Lib_V3.5.0/Libraries/STM32F10x_StdPeriph_Driver/src/stm32f10x_tim.c ****     /* Reset the Output Compare and Output Compare N IDLE State */
 332:../STM32F10x_StdPeriph_Lib_V3.5.0/Libraries/STM32F10x_StdPeriph_Driver/src/stm32f10x_tim.c ****     tmpcr2 &= (uint16_t)(~((uint16_t)TIM_CR2_OIS1));
 608              		.loc 1 332 0
 609 00c0 BB89     		ldrh	r3, [r7, #12]	@ movhi
 610 00c2 23F48073 		bic	r3, r3, #256
 611 00c6 BB81     		strh	r3, [r7, #12]	@ movhi
 333:../STM32F10x_StdPeriph_Lib_V3.5.0/Libraries/STM32F10x_StdPeriph_Driver/src/stm32f10x_tim.c ****     tmpcr2 &= (uint16_t)(~((uint16_t)TIM_CR2_OIS1N));
 612              		.loc 1 333 0
 613 00c8 BB89     		ldrh	r3, [r7, #12]	@ movhi
 614 00ca 23F40073 		bic	r3, r3, #512
 615 00ce BB81     		strh	r3, [r7, #12]	@ movhi
 334:../STM32F10x_StdPeriph_Lib_V3.5.0/Libraries/STM32F10x_StdPeriph_Driver/src/stm32f10x_tim.c ****     
 335:../STM32F10x_StdPeriph_Lib_V3.5.0/Libraries/STM32F10x_StdPeriph_Driver/src/stm32f10x_tim.c ****     /* Set the Output Idle state */
 336:../STM32F10x_StdPeriph_Lib_V3.5.0/Libraries/STM32F10x_StdPeriph_Driver/src/stm32f10x_tim.c ****     tmpcr2 |= TIM_OCInitStruct->TIM_OCIdleState;
 616              		.loc 1 336 0
 617 00d0 3B68     		ldr	r3, [r7, #0]
 618 00d2 9A89     		ldrh	r2, [r3, #12]
 619 00d4 BB89     		ldrh	r3, [r7, #12]	@ movhi
 620 00d6 1343     		orrs	r3, r3, r2
 621 00d8 BB81     		strh	r3, [r7, #12]	@ movhi
 337:../STM32F10x_StdPeriph_Lib_V3.5.0/Libraries/STM32F10x_StdPeriph_Driver/src/stm32f10x_tim.c ****     /* Set the Output N Idle state */
 338:../STM32F10x_StdPeriph_Lib_V3.5.0/Libraries/STM32F10x_StdPeriph_Driver/src/stm32f10x_tim.c ****     tmpcr2 |= TIM_OCInitStruct->TIM_OCNIdleState;
 622              		.loc 1 338 0
 623 00da 3B68     		ldr	r3, [r7, #0]
 624 00dc DA89     		ldrh	r2, [r3, #14]
 625 00de BB89     		ldrh	r3, [r7, #12]	@ movhi
 626 00e0 1343     		orrs	r3, r3, r2
 627 00e2 BB81     		strh	r3, [r7, #12]	@ movhi
 628              	.L31:
 339:../STM32F10x_StdPeriph_Lib_V3.5.0/Libraries/STM32F10x_StdPeriph_Driver/src/stm32f10x_tim.c ****   }
 340:../STM32F10x_StdPeriph_Lib_V3.5.0/Libraries/STM32F10x_StdPeriph_Driver/src/stm32f10x_tim.c ****   /* Write to TIMx CR2 */
 341:../STM32F10x_StdPeriph_Lib_V3.5.0/Libraries/STM32F10x_StdPeriph_Driver/src/stm32f10x_tim.c ****   TIMx->CR2 = tmpcr2;
 629              		.loc 1 341 0
 630 00e4 7B68     		ldr	r3, [r7, #4]
 631 00e6 BA89     		ldrh	r2, [r7, #12]	@ movhi
 632 00e8 9A80     		strh	r2, [r3, #4]	@ movhi
 342:../STM32F10x_StdPeriph_Lib_V3.5.0/Libraries/STM32F10x_StdPeriph_Driver/src/stm32f10x_tim.c ****   
 343:../STM32F10x_StdPeriph_Lib_V3.5.0/Libraries/STM32F10x_StdPeriph_Driver/src/stm32f10x_tim.c ****   /* Write to TIMx CCMR1 */
 344:../STM32F10x_StdPeriph_Lib_V3.5.0/Libraries/STM32F10x_StdPeriph_Driver/src/stm32f10x_tim.c ****   TIMx->CCMR1 = tmpccmrx;
 633              		.loc 1 344 0
 634 00ea 7B68     		ldr	r3, [r7, #4]
 635 00ec 7A89     		ldrh	r2, [r7, #10]	@ movhi
 636 00ee 1A83     		strh	r2, [r3, #24]	@ movhi
 345:../STM32F10x_StdPeriph_Lib_V3.5.0/Libraries/STM32F10x_StdPeriph_Driver/src/stm32f10x_tim.c **** 
 346:../STM32F10x_StdPeriph_Lib_V3.5.0/Libraries/STM32F10x_StdPeriph_Driver/src/stm32f10x_tim.c ****   /* Set the Capture Compare Register value */
 347:../STM32F10x_StdPeriph_Lib_V3.5.0/Libraries/STM32F10x_StdPeriph_Driver/src/stm32f10x_tim.c ****   TIMx->CCR1 = TIM_OCInitStruct->TIM_Pulse; 
 637              		.loc 1 347 0
 638 00f0 3B68     		ldr	r3, [r7, #0]
 639 00f2 DA88     		ldrh	r2, [r3, #6]
 640 00f4 7B68     		ldr	r3, [r7, #4]
 641 00f6 9A86     		strh	r2, [r3, #52]	@ movhi
 348:../STM32F10x_StdPeriph_Lib_V3.5.0/Libraries/STM32F10x_StdPeriph_Driver/src/stm32f10x_tim.c ****  
 349:../STM32F10x_StdPeriph_Lib_V3.5.0/Libraries/STM32F10x_StdPeriph_Driver/src/stm32f10x_tim.c ****   /* Write to TIMx CCER */
 350:../STM32F10x_StdPeriph_Lib_V3.5.0/Libraries/STM32F10x_StdPeriph_Driver/src/stm32f10x_tim.c ****   TIMx->CCER = tmpccer;
 642              		.loc 1 350 0
 643 00f8 7B68     		ldr	r3, [r7, #4]
 644 00fa FA89     		ldrh	r2, [r7, #14]	@ movhi
 645 00fc 1A84     		strh	r2, [r3, #32]	@ movhi
 351:../STM32F10x_StdPeriph_Lib_V3.5.0/Libraries/STM32F10x_StdPeriph_Driver/src/stm32f10x_tim.c **** }
 646              		.loc 1 351 0
 647 00fe 07F11407 		add	r7, r7, #20
 648 0102 BD46     		mov	sp, r7
 649 0104 80BC     		pop	{r7}
 650 0106 7047     		bx	lr
 651              	.L33:
 652              		.align	2
 653              	.L32:
 654 0108 002C0140 		.word	1073818624
 655 010c 00340140 		.word	1073820672
 656 0110 00400140 		.word	1073823744
 657 0114 00440140 		.word	1073824768
 658 0118 00480140 		.word	1073825792
 659              		.cfi_endproc
 660              	.LFE31:
 662              		.section	.text.TIM_OC2Init,"ax",%progbits
 663              		.align	2
 664              		.global	TIM_OC2Init
 665              		.thumb
 666              		.thumb_func
 668              	TIM_OC2Init:
 669              	.LFB32:
 352:../STM32F10x_StdPeriph_Lib_V3.5.0/Libraries/STM32F10x_StdPeriph_Driver/src/stm32f10x_tim.c **** 
 353:../STM32F10x_StdPeriph_Lib_V3.5.0/Libraries/STM32F10x_StdPeriph_Driver/src/stm32f10x_tim.c **** /**
 354:../STM32F10x_StdPeriph_Lib_V3.5.0/Libraries/STM32F10x_StdPeriph_Driver/src/stm32f10x_tim.c ****   * @brief  Initializes the TIMx Channel2 according to the specified
 355:../STM32F10x_StdPeriph_Lib_V3.5.0/Libraries/STM32F10x_StdPeriph_Driver/src/stm32f10x_tim.c ****   *         parameters in the TIM_OCInitStruct.
 356:../STM32F10x_StdPeriph_Lib_V3.5.0/Libraries/STM32F10x_StdPeriph_Driver/src/stm32f10x_tim.c ****   * @param  TIMx: where x can be  1, 2, 3, 4, 5, 8, 9, 12 or 15 to select 
 357:../STM32F10x_StdPeriph_Lib_V3.5.0/Libraries/STM32F10x_StdPeriph_Driver/src/stm32f10x_tim.c ****   *         the TIM peripheral.
 358:../STM32F10x_StdPeriph_Lib_V3.5.0/Libraries/STM32F10x_StdPeriph_Driver/src/stm32f10x_tim.c ****   * @param  TIM_OCInitStruct: pointer to a TIM_OCInitTypeDef structure
 359:../STM32F10x_StdPeriph_Lib_V3.5.0/Libraries/STM32F10x_StdPeriph_Driver/src/stm32f10x_tim.c ****   *         that contains the configuration information for the specified TIM peripheral.
 360:../STM32F10x_StdPeriph_Lib_V3.5.0/Libraries/STM32F10x_StdPeriph_Driver/src/stm32f10x_tim.c ****   * @retval None
 361:../STM32F10x_StdPeriph_Lib_V3.5.0/Libraries/STM32F10x_StdPeriph_Driver/src/stm32f10x_tim.c ****   */
 362:../STM32F10x_StdPeriph_Lib_V3.5.0/Libraries/STM32F10x_StdPeriph_Driver/src/stm32f10x_tim.c **** void TIM_OC2Init(TIM_TypeDef* TIMx, TIM_OCInitTypeDef* TIM_OCInitStruct)
 363:../STM32F10x_StdPeriph_Lib_V3.5.0/Libraries/STM32F10x_StdPeriph_Driver/src/stm32f10x_tim.c **** {
 670              		.loc 1 363 0
 671              		.cfi_startproc
 672              		@ args = 0, pretend = 0, frame = 16
 673              		@ frame_needed = 1, uses_anonymous_args = 0
 674              		@ link register save eliminated.
 675 0000 80B4     		push	{r7}
 676              	.LCFI9:
 677              		.cfi_def_cfa_offset 4
 678              		.cfi_offset 7, -4
 679 0002 85B0     		sub	sp, sp, #20
 680              	.LCFI10:
 681              		.cfi_def_cfa_offset 24
 682 0004 00AF     		add	r7, sp, #0
 683              	.LCFI11:
 684              		.cfi_def_cfa_register 7
 685 0006 7860     		str	r0, [r7, #4]
 686 0008 3960     		str	r1, [r7, #0]
 364:../STM32F10x_StdPeriph_Lib_V3.5.0/Libraries/STM32F10x_StdPeriph_Driver/src/stm32f10x_tim.c ****   uint16_t tmpccmrx = 0, tmpccer = 0, tmpcr2 = 0;
 687              		.loc 1 364 0
 688 000a 4FF00003 		mov	r3, #0
 689 000e 7B81     		strh	r3, [r7, #10]	@ movhi
 690 0010 4FF00003 		mov	r3, #0
 691 0014 FB81     		strh	r3, [r7, #14]	@ movhi
 692 0016 4FF00003 		mov	r3, #0
 693 001a BB81     		strh	r3, [r7, #12]	@ movhi
 365:../STM32F10x_StdPeriph_Lib_V3.5.0/Libraries/STM32F10x_StdPeriph_Driver/src/stm32f10x_tim.c ****    
 366:../STM32F10x_StdPeriph_Lib_V3.5.0/Libraries/STM32F10x_StdPeriph_Driver/src/stm32f10x_tim.c ****   /* Check the parameters */
 367:../STM32F10x_StdPeriph_Lib_V3.5.0/Libraries/STM32F10x_StdPeriph_Driver/src/stm32f10x_tim.c ****   assert_param(IS_TIM_LIST6_PERIPH(TIMx)); 
 368:../STM32F10x_StdPeriph_Lib_V3.5.0/Libraries/STM32F10x_StdPeriph_Driver/src/stm32f10x_tim.c ****   assert_param(IS_TIM_OC_MODE(TIM_OCInitStruct->TIM_OCMode));
 369:../STM32F10x_StdPeriph_Lib_V3.5.0/Libraries/STM32F10x_StdPeriph_Driver/src/stm32f10x_tim.c ****   assert_param(IS_TIM_OUTPUT_STATE(TIM_OCInitStruct->TIM_OutputState));
 370:../STM32F10x_StdPeriph_Lib_V3.5.0/Libraries/STM32F10x_StdPeriph_Driver/src/stm32f10x_tim.c ****   assert_param(IS_TIM_OC_POLARITY(TIM_OCInitStruct->TIM_OCPolarity));   
 371:../STM32F10x_StdPeriph_Lib_V3.5.0/Libraries/STM32F10x_StdPeriph_Driver/src/stm32f10x_tim.c ****    /* Disable the Channel 2: Reset the CC2E Bit */
 372:../STM32F10x_StdPeriph_Lib_V3.5.0/Libraries/STM32F10x_StdPeriph_Driver/src/stm32f10x_tim.c ****   TIMx->CCER &= (uint16_t)(~((uint16_t)TIM_CCER_CC2E));
 694              		.loc 1 372 0
 695 001c 7B68     		ldr	r3, [r7, #4]
 696 001e 1B8C     		ldrh	r3, [r3, #32]	@ movhi
 697 0020 9BB2     		uxth	r3, r3
 698 0022 23F01003 		bic	r3, r3, #16
 699 0026 9AB2     		uxth	r2, r3
 700 0028 7B68     		ldr	r3, [r7, #4]
 701 002a 1A84     		strh	r2, [r3, #32]	@ movhi
 373:../STM32F10x_StdPeriph_Lib_V3.5.0/Libraries/STM32F10x_StdPeriph_Driver/src/stm32f10x_tim.c ****   
 374:../STM32F10x_StdPeriph_Lib_V3.5.0/Libraries/STM32F10x_StdPeriph_Driver/src/stm32f10x_tim.c ****   /* Get the TIMx CCER register value */  
 375:../STM32F10x_StdPeriph_Lib_V3.5.0/Libraries/STM32F10x_StdPeriph_Driver/src/stm32f10x_tim.c ****   tmpccer = TIMx->CCER;
 702              		.loc 1 375 0
 703 002c 7B68     		ldr	r3, [r7, #4]
 704 002e 1B8C     		ldrh	r3, [r3, #32]	@ movhi
 705 0030 FB81     		strh	r3, [r7, #14]	@ movhi
 376:../STM32F10x_StdPeriph_Lib_V3.5.0/Libraries/STM32F10x_StdPeriph_Driver/src/stm32f10x_tim.c ****   /* Get the TIMx CR2 register value */
 377:../STM32F10x_StdPeriph_Lib_V3.5.0/Libraries/STM32F10x_StdPeriph_Driver/src/stm32f10x_tim.c ****   tmpcr2 =  TIMx->CR2;
 706              		.loc 1 377 0
 707 0032 7B68     		ldr	r3, [r7, #4]
 708 0034 9B88     		ldrh	r3, [r3, #4]	@ movhi
 709 0036 BB81     		strh	r3, [r7, #12]	@ movhi
 378:../STM32F10x_StdPeriph_Lib_V3.5.0/Libraries/STM32F10x_StdPeriph_Driver/src/stm32f10x_tim.c ****   
 379:../STM32F10x_StdPeriph_Lib_V3.5.0/Libraries/STM32F10x_StdPeriph_Driver/src/stm32f10x_tim.c ****   /* Get the TIMx CCMR1 register value */
 380:../STM32F10x_StdPeriph_Lib_V3.5.0/Libraries/STM32F10x_StdPeriph_Driver/src/stm32f10x_tim.c ****   tmpccmrx = TIMx->CCMR1;
 710              		.loc 1 380 0
 711 0038 7B68     		ldr	r3, [r7, #4]
 712 003a 1B8B     		ldrh	r3, [r3, #24]	@ movhi
 713 003c 7B81     		strh	r3, [r7, #10]	@ movhi
 381:../STM32F10x_StdPeriph_Lib_V3.5.0/Libraries/STM32F10x_StdPeriph_Driver/src/stm32f10x_tim.c ****     
 382:../STM32F10x_StdPeriph_Lib_V3.5.0/Libraries/STM32F10x_StdPeriph_Driver/src/stm32f10x_tim.c ****   /* Reset the Output Compare mode and Capture/Compare selection Bits */
 383:../STM32F10x_StdPeriph_Lib_V3.5.0/Libraries/STM32F10x_StdPeriph_Driver/src/stm32f10x_tim.c ****   tmpccmrx &= (uint16_t)(~((uint16_t)TIM_CCMR1_OC2M));
 714              		.loc 1 383 0
 715 003e 7B89     		ldrh	r3, [r7, #10]	@ movhi
 716 0040 23F4E043 		bic	r3, r3, #28672
 717 0044 7B81     		strh	r3, [r7, #10]	@ movhi
 384:../STM32F10x_StdPeriph_Lib_V3.5.0/Libraries/STM32F10x_StdPeriph_Driver/src/stm32f10x_tim.c ****   tmpccmrx &= (uint16_t)(~((uint16_t)TIM_CCMR1_CC2S));
 718              		.loc 1 384 0
 719 0046 7B89     		ldrh	r3, [r7, #10]	@ movhi
 720 0048 23F44073 		bic	r3, r3, #768
 721 004c 7B81     		strh	r3, [r7, #10]	@ movhi
 385:../STM32F10x_StdPeriph_Lib_V3.5.0/Libraries/STM32F10x_StdPeriph_Driver/src/stm32f10x_tim.c ****   
 386:../STM32F10x_StdPeriph_Lib_V3.5.0/Libraries/STM32F10x_StdPeriph_Driver/src/stm32f10x_tim.c ****   /* Select the Output Compare Mode */
 387:../STM32F10x_StdPeriph_Lib_V3.5.0/Libraries/STM32F10x_StdPeriph_Driver/src/stm32f10x_tim.c ****   tmpccmrx |= (uint16_t)(TIM_OCInitStruct->TIM_OCMode << 8);
 722              		.loc 1 387 0
 723 004e 3B68     		ldr	r3, [r7, #0]
 724 0050 1B88     		ldrh	r3, [r3, #0]
 725 0052 4FEA0323 		lsl	r3, r3, #8
 726 0056 9AB2     		uxth	r2, r3
 727 0058 7B89     		ldrh	r3, [r7, #10]	@ movhi
 728 005a 1343     		orrs	r3, r3, r2
 729 005c 7B81     		strh	r3, [r7, #10]	@ movhi
 388:../STM32F10x_StdPeriph_Lib_V3.5.0/Libraries/STM32F10x_StdPeriph_Driver/src/stm32f10x_tim.c ****   
 389:../STM32F10x_StdPeriph_Lib_V3.5.0/Libraries/STM32F10x_StdPeriph_Driver/src/stm32f10x_tim.c ****   /* Reset the Output Polarity level */
 390:../STM32F10x_StdPeriph_Lib_V3.5.0/Libraries/STM32F10x_StdPeriph_Driver/src/stm32f10x_tim.c ****   tmpccer &= (uint16_t)(~((uint16_t)TIM_CCER_CC2P));
 730              		.loc 1 390 0
 731 005e FB89     		ldrh	r3, [r7, #14]	@ movhi
 732 0060 23F02003 		bic	r3, r3, #32
 733 0064 FB81     		strh	r3, [r7, #14]	@ movhi
 391:../STM32F10x_StdPeriph_Lib_V3.5.0/Libraries/STM32F10x_StdPeriph_Driver/src/stm32f10x_tim.c ****   /* Set the Output Compare Polarity */
 392:../STM32F10x_StdPeriph_Lib_V3.5.0/Libraries/STM32F10x_StdPeriph_Driver/src/stm32f10x_tim.c ****   tmpccer |= (uint16_t)(TIM_OCInitStruct->TIM_OCPolarity << 4);
 734              		.loc 1 392 0
 735 0066 3B68     		ldr	r3, [r7, #0]
 736 0068 1B89     		ldrh	r3, [r3, #8]
 737 006a 4FEA0313 		lsl	r3, r3, #4
 738 006e 9AB2     		uxth	r2, r3
 739 0070 FB89     		ldrh	r3, [r7, #14]	@ movhi
 740 0072 1343     		orrs	r3, r3, r2
 741 0074 FB81     		strh	r3, [r7, #14]	@ movhi
 393:../STM32F10x_StdPeriph_Lib_V3.5.0/Libraries/STM32F10x_StdPeriph_Driver/src/stm32f10x_tim.c ****   
 394:../STM32F10x_StdPeriph_Lib_V3.5.0/Libraries/STM32F10x_StdPeriph_Driver/src/stm32f10x_tim.c ****   /* Set the Output State */
 395:../STM32F10x_StdPeriph_Lib_V3.5.0/Libraries/STM32F10x_StdPeriph_Driver/src/stm32f10x_tim.c ****   tmpccer |= (uint16_t)(TIM_OCInitStruct->TIM_OutputState << 4);
 742              		.loc 1 395 0
 743 0076 3B68     		ldr	r3, [r7, #0]
 744 0078 5B88     		ldrh	r3, [r3, #2]
 745 007a 4FEA0313 		lsl	r3, r3, #4
 746 007e 9AB2     		uxth	r2, r3
 747 0080 FB89     		ldrh	r3, [r7, #14]	@ movhi
 748 0082 1343     		orrs	r3, r3, r2
 749 0084 FB81     		strh	r3, [r7, #14]	@ movhi
 396:../STM32F10x_StdPeriph_Lib_V3.5.0/Libraries/STM32F10x_StdPeriph_Driver/src/stm32f10x_tim.c ****     
 397:../STM32F10x_StdPeriph_Lib_V3.5.0/Libraries/STM32F10x_StdPeriph_Driver/src/stm32f10x_tim.c ****   if((TIMx == TIM1) || (TIMx == TIM8))
 750              		.loc 1 397 0
 751 0086 7A68     		ldr	r2, [r7, #4]
 752 0088 244B     		ldr	r3, .L37
 753 008a 9A42     		cmp	r2, r3
 754 008c 03D0     		beq	.L35
 755              		.loc 1 397 0 is_stmt 0 discriminator 1
 756 008e 7A68     		ldr	r2, [r7, #4]
 757 0090 234B     		ldr	r3, .L37+4
 758 0092 9A42     		cmp	r2, r3
 759 0094 2FD1     		bne	.L36
 760              	.L35:
 398:../STM32F10x_StdPeriph_Lib_V3.5.0/Libraries/STM32F10x_StdPeriph_Driver/src/stm32f10x_tim.c ****   {
 399:../STM32F10x_StdPeriph_Lib_V3.5.0/Libraries/STM32F10x_StdPeriph_Driver/src/stm32f10x_tim.c ****     assert_param(IS_TIM_OUTPUTN_STATE(TIM_OCInitStruct->TIM_OutputNState));
 400:../STM32F10x_StdPeriph_Lib_V3.5.0/Libraries/STM32F10x_StdPeriph_Driver/src/stm32f10x_tim.c ****     assert_param(IS_TIM_OCN_POLARITY(TIM_OCInitStruct->TIM_OCNPolarity));
 401:../STM32F10x_StdPeriph_Lib_V3.5.0/Libraries/STM32F10x_StdPeriph_Driver/src/stm32f10x_tim.c ****     assert_param(IS_TIM_OCNIDLE_STATE(TIM_OCInitStruct->TIM_OCNIdleState));
 402:../STM32F10x_StdPeriph_Lib_V3.5.0/Libraries/STM32F10x_StdPeriph_Driver/src/stm32f10x_tim.c ****     assert_param(IS_TIM_OCIDLE_STATE(TIM_OCInitStruct->TIM_OCIdleState));
 403:../STM32F10x_StdPeriph_Lib_V3.5.0/Libraries/STM32F10x_StdPeriph_Driver/src/stm32f10x_tim.c ****     
 404:../STM32F10x_StdPeriph_Lib_V3.5.0/Libraries/STM32F10x_StdPeriph_Driver/src/stm32f10x_tim.c ****     /* Reset the Output N Polarity level */
 405:../STM32F10x_StdPeriph_Lib_V3.5.0/Libraries/STM32F10x_StdPeriph_Driver/src/stm32f10x_tim.c ****     tmpccer &= (uint16_t)(~((uint16_t)TIM_CCER_CC2NP));
 761              		.loc 1 405 0 is_stmt 1
 762 0096 FB89     		ldrh	r3, [r7, #14]	@ movhi
 763 0098 23F08003 		bic	r3, r3, #128
 764 009c FB81     		strh	r3, [r7, #14]	@ movhi
 406:../STM32F10x_StdPeriph_Lib_V3.5.0/Libraries/STM32F10x_StdPeriph_Driver/src/stm32f10x_tim.c ****     /* Set the Output N Polarity */
 407:../STM32F10x_StdPeriph_Lib_V3.5.0/Libraries/STM32F10x_StdPeriph_Driver/src/stm32f10x_tim.c ****     tmpccer |= (uint16_t)(TIM_OCInitStruct->TIM_OCNPolarity << 4);
 765              		.loc 1 407 0
 766 009e 3B68     		ldr	r3, [r7, #0]
 767 00a0 5B89     		ldrh	r3, [r3, #10]
 768 00a2 4FEA0313 		lsl	r3, r3, #4
 769 00a6 9AB2     		uxth	r2, r3
 770 00a8 FB89     		ldrh	r3, [r7, #14]	@ movhi
 771 00aa 1343     		orrs	r3, r3, r2
 772 00ac FB81     		strh	r3, [r7, #14]	@ movhi
 408:../STM32F10x_StdPeriph_Lib_V3.5.0/Libraries/STM32F10x_StdPeriph_Driver/src/stm32f10x_tim.c ****     
 409:../STM32F10x_StdPeriph_Lib_V3.5.0/Libraries/STM32F10x_StdPeriph_Driver/src/stm32f10x_tim.c ****     /* Reset the Output N State */
 410:../STM32F10x_StdPeriph_Lib_V3.5.0/Libraries/STM32F10x_StdPeriph_Driver/src/stm32f10x_tim.c ****     tmpccer &= (uint16_t)(~((uint16_t)TIM_CCER_CC2NE));    
 773              		.loc 1 410 0
 774 00ae FB89     		ldrh	r3, [r7, #14]	@ movhi
 775 00b0 23F04003 		bic	r3, r3, #64
 776 00b4 FB81     		strh	r3, [r7, #14]	@ movhi
 411:../STM32F10x_StdPeriph_Lib_V3.5.0/Libraries/STM32F10x_StdPeriph_Driver/src/stm32f10x_tim.c ****     /* Set the Output N State */
 412:../STM32F10x_StdPeriph_Lib_V3.5.0/Libraries/STM32F10x_StdPeriph_Driver/src/stm32f10x_tim.c ****     tmpccer |= (uint16_t)(TIM_OCInitStruct->TIM_OutputNState << 4);
 777              		.loc 1 412 0
 778 00b6 3B68     		ldr	r3, [r7, #0]
 779 00b8 9B88     		ldrh	r3, [r3, #4]
 780 00ba 4FEA0313 		lsl	r3, r3, #4
 781 00be 9AB2     		uxth	r2, r3
 782 00c0 FB89     		ldrh	r3, [r7, #14]	@ movhi
 783 00c2 1343     		orrs	r3, r3, r2
 784 00c4 FB81     		strh	r3, [r7, #14]	@ movhi
 413:../STM32F10x_StdPeriph_Lib_V3.5.0/Libraries/STM32F10x_StdPeriph_Driver/src/stm32f10x_tim.c ****     
 414:../STM32F10x_StdPeriph_Lib_V3.5.0/Libraries/STM32F10x_StdPeriph_Driver/src/stm32f10x_tim.c ****     /* Reset the Output Compare and Output Compare N IDLE State */
 415:../STM32F10x_StdPeriph_Lib_V3.5.0/Libraries/STM32F10x_StdPeriph_Driver/src/stm32f10x_tim.c ****     tmpcr2 &= (uint16_t)(~((uint16_t)TIM_CR2_OIS2));
 785              		.loc 1 415 0
 786 00c6 BB89     		ldrh	r3, [r7, #12]	@ movhi
 787 00c8 23F48063 		bic	r3, r3, #1024
 788 00cc BB81     		strh	r3, [r7, #12]	@ movhi
 416:../STM32F10x_StdPeriph_Lib_V3.5.0/Libraries/STM32F10x_StdPeriph_Driver/src/stm32f10x_tim.c ****     tmpcr2 &= (uint16_t)(~((uint16_t)TIM_CR2_OIS2N));
 789              		.loc 1 416 0
 790 00ce BB89     		ldrh	r3, [r7, #12]	@ movhi
 791 00d0 23F40063 		bic	r3, r3, #2048
 792 00d4 BB81     		strh	r3, [r7, #12]	@ movhi
 417:../STM32F10x_StdPeriph_Lib_V3.5.0/Libraries/STM32F10x_StdPeriph_Driver/src/stm32f10x_tim.c ****     
 418:../STM32F10x_StdPeriph_Lib_V3.5.0/Libraries/STM32F10x_StdPeriph_Driver/src/stm32f10x_tim.c ****     /* Set the Output Idle state */
 419:../STM32F10x_StdPeriph_Lib_V3.5.0/Libraries/STM32F10x_StdPeriph_Driver/src/stm32f10x_tim.c ****     tmpcr2 |= (uint16_t)(TIM_OCInitStruct->TIM_OCIdleState << 2);
 793              		.loc 1 419 0
 794 00d6 3B68     		ldr	r3, [r7, #0]
 795 00d8 9B89     		ldrh	r3, [r3, #12]
 796 00da 4FEA8303 		lsl	r3, r3, #2
 797 00de 9AB2     		uxth	r2, r3
 798 00e0 BB89     		ldrh	r3, [r7, #12]	@ movhi
 799 00e2 1343     		orrs	r3, r3, r2
 800 00e4 BB81     		strh	r3, [r7, #12]	@ movhi
 420:../STM32F10x_StdPeriph_Lib_V3.5.0/Libraries/STM32F10x_StdPeriph_Driver/src/stm32f10x_tim.c ****     /* Set the Output N Idle state */
 421:../STM32F10x_StdPeriph_Lib_V3.5.0/Libraries/STM32F10x_StdPeriph_Driver/src/stm32f10x_tim.c ****     tmpcr2 |= (uint16_t)(TIM_OCInitStruct->TIM_OCNIdleState << 2);
 801              		.loc 1 421 0
 802 00e6 3B68     		ldr	r3, [r7, #0]
 803 00e8 DB89     		ldrh	r3, [r3, #14]
 804 00ea 4FEA8303 		lsl	r3, r3, #2
 805 00ee 9AB2     		uxth	r2, r3
 806 00f0 BB89     		ldrh	r3, [r7, #12]	@ movhi
 807 00f2 1343     		orrs	r3, r3, r2
 808 00f4 BB81     		strh	r3, [r7, #12]	@ movhi
 809              	.L36:
 422:../STM32F10x_StdPeriph_Lib_V3.5.0/Libraries/STM32F10x_StdPeriph_Driver/src/stm32f10x_tim.c ****   }
 423:../STM32F10x_StdPeriph_Lib_V3.5.0/Libraries/STM32F10x_StdPeriph_Driver/src/stm32f10x_tim.c ****   /* Write to TIMx CR2 */
 424:../STM32F10x_StdPeriph_Lib_V3.5.0/Libraries/STM32F10x_StdPeriph_Driver/src/stm32f10x_tim.c ****   TIMx->CR2 = tmpcr2;
 810              		.loc 1 424 0
 811 00f6 7B68     		ldr	r3, [r7, #4]
 812 00f8 BA89     		ldrh	r2, [r7, #12]	@ movhi
 813 00fa 9A80     		strh	r2, [r3, #4]	@ movhi
 425:../STM32F10x_StdPeriph_Lib_V3.5.0/Libraries/STM32F10x_StdPeriph_Driver/src/stm32f10x_tim.c ****   
 426:../STM32F10x_StdPeriph_Lib_V3.5.0/Libraries/STM32F10x_StdPeriph_Driver/src/stm32f10x_tim.c ****   /* Write to TIMx CCMR1 */
 427:../STM32F10x_StdPeriph_Lib_V3.5.0/Libraries/STM32F10x_StdPeriph_Driver/src/stm32f10x_tim.c ****   TIMx->CCMR1 = tmpccmrx;
 814              		.loc 1 427 0
 815 00fc 7B68     		ldr	r3, [r7, #4]
 816 00fe 7A89     		ldrh	r2, [r7, #10]	@ movhi
 817 0100 1A83     		strh	r2, [r3, #24]	@ movhi
 428:../STM32F10x_StdPeriph_Lib_V3.5.0/Libraries/STM32F10x_StdPeriph_Driver/src/stm32f10x_tim.c **** 
 429:../STM32F10x_StdPeriph_Lib_V3.5.0/Libraries/STM32F10x_StdPeriph_Driver/src/stm32f10x_tim.c ****   /* Set the Capture Compare Register value */
 430:../STM32F10x_StdPeriph_Lib_V3.5.0/Libraries/STM32F10x_StdPeriph_Driver/src/stm32f10x_tim.c ****   TIMx->CCR2 = TIM_OCInitStruct->TIM_Pulse;
 818              		.loc 1 430 0
 819 0102 3B68     		ldr	r3, [r7, #0]
 820 0104 DA88     		ldrh	r2, [r3, #6]
 821 0106 7B68     		ldr	r3, [r7, #4]
 822 0108 1A87     		strh	r2, [r3, #56]	@ movhi
 431:../STM32F10x_StdPeriph_Lib_V3.5.0/Libraries/STM32F10x_StdPeriph_Driver/src/stm32f10x_tim.c ****   
 432:../STM32F10x_StdPeriph_Lib_V3.5.0/Libraries/STM32F10x_StdPeriph_Driver/src/stm32f10x_tim.c ****   /* Write to TIMx CCER */
 433:../STM32F10x_StdPeriph_Lib_V3.5.0/Libraries/STM32F10x_StdPeriph_Driver/src/stm32f10x_tim.c ****   TIMx->CCER = tmpccer;
 823              		.loc 1 433 0
 824 010a 7B68     		ldr	r3, [r7, #4]
 825 010c FA89     		ldrh	r2, [r7, #14]	@ movhi
 826 010e 1A84     		strh	r2, [r3, #32]	@ movhi
 434:../STM32F10x_StdPeriph_Lib_V3.5.0/Libraries/STM32F10x_StdPeriph_Driver/src/stm32f10x_tim.c **** }
 827              		.loc 1 434 0
 828 0110 07F11407 		add	r7, r7, #20
 829 0114 BD46     		mov	sp, r7
 830 0116 80BC     		pop	{r7}
 831 0118 7047     		bx	lr
 832              	.L38:
 833 011a 00BF     		.align	2
 834              	.L37:
 835 011c 002C0140 		.word	1073818624
 836 0120 00340140 		.word	1073820672
 837              		.cfi_endproc
 838              	.LFE32:
 840              		.section	.text.TIM_OC3Init,"ax",%progbits
 841              		.align	2
 842              		.global	TIM_OC3Init
 843              		.thumb
 844              		.thumb_func
 846              	TIM_OC3Init:
 847              	.LFB33:
 435:../STM32F10x_StdPeriph_Lib_V3.5.0/Libraries/STM32F10x_StdPeriph_Driver/src/stm32f10x_tim.c **** 
 436:../STM32F10x_StdPeriph_Lib_V3.5.0/Libraries/STM32F10x_StdPeriph_Driver/src/stm32f10x_tim.c **** /**
 437:../STM32F10x_StdPeriph_Lib_V3.5.0/Libraries/STM32F10x_StdPeriph_Driver/src/stm32f10x_tim.c ****   * @brief  Initializes the TIMx Channel3 according to the specified
 438:../STM32F10x_StdPeriph_Lib_V3.5.0/Libraries/STM32F10x_StdPeriph_Driver/src/stm32f10x_tim.c ****   *         parameters in the TIM_OCInitStruct.
 439:../STM32F10x_StdPeriph_Lib_V3.5.0/Libraries/STM32F10x_StdPeriph_Driver/src/stm32f10x_tim.c ****   * @param  TIMx: where x can be  1, 2, 3, 4, 5 or 8 to select the TIM peripheral.
 440:../STM32F10x_StdPeriph_Lib_V3.5.0/Libraries/STM32F10x_StdPeriph_Driver/src/stm32f10x_tim.c ****   * @param  TIM_OCInitStruct: pointer to a TIM_OCInitTypeDef structure
 441:../STM32F10x_StdPeriph_Lib_V3.5.0/Libraries/STM32F10x_StdPeriph_Driver/src/stm32f10x_tim.c ****   *         that contains the configuration information for the specified TIM peripheral.
 442:../STM32F10x_StdPeriph_Lib_V3.5.0/Libraries/STM32F10x_StdPeriph_Driver/src/stm32f10x_tim.c ****   * @retval None
 443:../STM32F10x_StdPeriph_Lib_V3.5.0/Libraries/STM32F10x_StdPeriph_Driver/src/stm32f10x_tim.c ****   */
 444:../STM32F10x_StdPeriph_Lib_V3.5.0/Libraries/STM32F10x_StdPeriph_Driver/src/stm32f10x_tim.c **** void TIM_OC3Init(TIM_TypeDef* TIMx, TIM_OCInitTypeDef* TIM_OCInitStruct)
 445:../STM32F10x_StdPeriph_Lib_V3.5.0/Libraries/STM32F10x_StdPeriph_Driver/src/stm32f10x_tim.c **** {
 848              		.loc 1 445 0
 849              		.cfi_startproc
 850              		@ args = 0, pretend = 0, frame = 16
 851              		@ frame_needed = 1, uses_anonymous_args = 0
 852              		@ link register save eliminated.
 853 0000 80B4     		push	{r7}
 854              	.LCFI12:
 855              		.cfi_def_cfa_offset 4
 856              		.cfi_offset 7, -4
 857 0002 85B0     		sub	sp, sp, #20
 858              	.LCFI13:
 859              		.cfi_def_cfa_offset 24
 860 0004 00AF     		add	r7, sp, #0
 861              	.LCFI14:
 862              		.cfi_def_cfa_register 7
 863 0006 7860     		str	r0, [r7, #4]
 864 0008 3960     		str	r1, [r7, #0]
 446:../STM32F10x_StdPeriph_Lib_V3.5.0/Libraries/STM32F10x_StdPeriph_Driver/src/stm32f10x_tim.c ****   uint16_t tmpccmrx = 0, tmpccer = 0, tmpcr2 = 0;
 865              		.loc 1 446 0
 866 000a 4FF00003 		mov	r3, #0
 867 000e 7B81     		strh	r3, [r7, #10]	@ movhi
 868 0010 4FF00003 		mov	r3, #0
 869 0014 FB81     		strh	r3, [r7, #14]	@ movhi
 870 0016 4FF00003 		mov	r3, #0
 871 001a BB81     		strh	r3, [r7, #12]	@ movhi
 447:../STM32F10x_StdPeriph_Lib_V3.5.0/Libraries/STM32F10x_StdPeriph_Driver/src/stm32f10x_tim.c ****    
 448:../STM32F10x_StdPeriph_Lib_V3.5.0/Libraries/STM32F10x_StdPeriph_Driver/src/stm32f10x_tim.c ****   /* Check the parameters */
 449:../STM32F10x_StdPeriph_Lib_V3.5.0/Libraries/STM32F10x_StdPeriph_Driver/src/stm32f10x_tim.c ****   assert_param(IS_TIM_LIST3_PERIPH(TIMx)); 
 450:../STM32F10x_StdPeriph_Lib_V3.5.0/Libraries/STM32F10x_StdPeriph_Driver/src/stm32f10x_tim.c ****   assert_param(IS_TIM_OC_MODE(TIM_OCInitStruct->TIM_OCMode));
 451:../STM32F10x_StdPeriph_Lib_V3.5.0/Libraries/STM32F10x_StdPeriph_Driver/src/stm32f10x_tim.c ****   assert_param(IS_TIM_OUTPUT_STATE(TIM_OCInitStruct->TIM_OutputState));
 452:../STM32F10x_StdPeriph_Lib_V3.5.0/Libraries/STM32F10x_StdPeriph_Driver/src/stm32f10x_tim.c ****   assert_param(IS_TIM_OC_POLARITY(TIM_OCInitStruct->TIM_OCPolarity));   
 453:../STM32F10x_StdPeriph_Lib_V3.5.0/Libraries/STM32F10x_StdPeriph_Driver/src/stm32f10x_tim.c ****   /* Disable the Channel 2: Reset the CC2E Bit */
 454:../STM32F10x_StdPeriph_Lib_V3.5.0/Libraries/STM32F10x_StdPeriph_Driver/src/stm32f10x_tim.c ****   TIMx->CCER &= (uint16_t)(~((uint16_t)TIM_CCER_CC3E));
 872              		.loc 1 454 0
 873 001c 7B68     		ldr	r3, [r7, #4]
 874 001e 1B8C     		ldrh	r3, [r3, #32]	@ movhi
 875 0020 9BB2     		uxth	r3, r3
 876 0022 23F48073 		bic	r3, r3, #256
 877 0026 9AB2     		uxth	r2, r3
 878 0028 7B68     		ldr	r3, [r7, #4]
 879 002a 1A84     		strh	r2, [r3, #32]	@ movhi
 455:../STM32F10x_StdPeriph_Lib_V3.5.0/Libraries/STM32F10x_StdPeriph_Driver/src/stm32f10x_tim.c ****   
 456:../STM32F10x_StdPeriph_Lib_V3.5.0/Libraries/STM32F10x_StdPeriph_Driver/src/stm32f10x_tim.c ****   /* Get the TIMx CCER register value */
 457:../STM32F10x_StdPeriph_Lib_V3.5.0/Libraries/STM32F10x_StdPeriph_Driver/src/stm32f10x_tim.c ****   tmpccer = TIMx->CCER;
 880              		.loc 1 457 0
 881 002c 7B68     		ldr	r3, [r7, #4]
 882 002e 1B8C     		ldrh	r3, [r3, #32]	@ movhi
 883 0030 FB81     		strh	r3, [r7, #14]	@ movhi
 458:../STM32F10x_StdPeriph_Lib_V3.5.0/Libraries/STM32F10x_StdPeriph_Driver/src/stm32f10x_tim.c ****   /* Get the TIMx CR2 register value */
 459:../STM32F10x_StdPeriph_Lib_V3.5.0/Libraries/STM32F10x_StdPeriph_Driver/src/stm32f10x_tim.c ****   tmpcr2 =  TIMx->CR2;
 884              		.loc 1 459 0
 885 0032 7B68     		ldr	r3, [r7, #4]
 886 0034 9B88     		ldrh	r3, [r3, #4]	@ movhi
 887 0036 BB81     		strh	r3, [r7, #12]	@ movhi
 460:../STM32F10x_StdPeriph_Lib_V3.5.0/Libraries/STM32F10x_StdPeriph_Driver/src/stm32f10x_tim.c ****   
 461:../STM32F10x_StdPeriph_Lib_V3.5.0/Libraries/STM32F10x_StdPeriph_Driver/src/stm32f10x_tim.c ****   /* Get the TIMx CCMR2 register value */
 462:../STM32F10x_StdPeriph_Lib_V3.5.0/Libraries/STM32F10x_StdPeriph_Driver/src/stm32f10x_tim.c ****   tmpccmrx = TIMx->CCMR2;
 888              		.loc 1 462 0
 889 0038 7B68     		ldr	r3, [r7, #4]
 890 003a 9B8B     		ldrh	r3, [r3, #28]	@ movhi
 891 003c 7B81     		strh	r3, [r7, #10]	@ movhi
 463:../STM32F10x_StdPeriph_Lib_V3.5.0/Libraries/STM32F10x_StdPeriph_Driver/src/stm32f10x_tim.c ****     
 464:../STM32F10x_StdPeriph_Lib_V3.5.0/Libraries/STM32F10x_StdPeriph_Driver/src/stm32f10x_tim.c ****   /* Reset the Output Compare mode and Capture/Compare selection Bits */
 465:../STM32F10x_StdPeriph_Lib_V3.5.0/Libraries/STM32F10x_StdPeriph_Driver/src/stm32f10x_tim.c ****   tmpccmrx &= (uint16_t)(~((uint16_t)TIM_CCMR2_OC3M));
 892              		.loc 1 465 0
 893 003e 7B89     		ldrh	r3, [r7, #10]	@ movhi
 894 0040 23F07003 		bic	r3, r3, #112
 895 0044 7B81     		strh	r3, [r7, #10]	@ movhi
 466:../STM32F10x_StdPeriph_Lib_V3.5.0/Libraries/STM32F10x_StdPeriph_Driver/src/stm32f10x_tim.c ****   tmpccmrx &= (uint16_t)(~((uint16_t)TIM_CCMR2_CC3S));  
 896              		.loc 1 466 0
 897 0046 7B89     		ldrh	r3, [r7, #10]	@ movhi
 898 0048 23F00303 		bic	r3, r3, #3
 899 004c 7B81     		strh	r3, [r7, #10]	@ movhi
 467:../STM32F10x_StdPeriph_Lib_V3.5.0/Libraries/STM32F10x_StdPeriph_Driver/src/stm32f10x_tim.c ****   /* Select the Output Compare Mode */
 468:../STM32F10x_StdPeriph_Lib_V3.5.0/Libraries/STM32F10x_StdPeriph_Driver/src/stm32f10x_tim.c ****   tmpccmrx |= TIM_OCInitStruct->TIM_OCMode;
 900              		.loc 1 468 0
 901 004e 3B68     		ldr	r3, [r7, #0]
 902 0050 1A88     		ldrh	r2, [r3, #0]
 903 0052 7B89     		ldrh	r3, [r7, #10]	@ movhi
 904 0054 1343     		orrs	r3, r3, r2
 905 0056 7B81     		strh	r3, [r7, #10]	@ movhi
 469:../STM32F10x_StdPeriph_Lib_V3.5.0/Libraries/STM32F10x_StdPeriph_Driver/src/stm32f10x_tim.c ****   
 470:../STM32F10x_StdPeriph_Lib_V3.5.0/Libraries/STM32F10x_StdPeriph_Driver/src/stm32f10x_tim.c ****   /* Reset the Output Polarity level */
 471:../STM32F10x_StdPeriph_Lib_V3.5.0/Libraries/STM32F10x_StdPeriph_Driver/src/stm32f10x_tim.c ****   tmpccer &= (uint16_t)(~((uint16_t)TIM_CCER_CC3P));
 906              		.loc 1 471 0
 907 0058 FB89     		ldrh	r3, [r7, #14]	@ movhi
 908 005a 23F40073 		bic	r3, r3, #512
 909 005e FB81     		strh	r3, [r7, #14]	@ movhi
 472:../STM32F10x_StdPeriph_Lib_V3.5.0/Libraries/STM32F10x_StdPeriph_Driver/src/stm32f10x_tim.c ****   /* Set the Output Compare Polarity */
 473:../STM32F10x_StdPeriph_Lib_V3.5.0/Libraries/STM32F10x_StdPeriph_Driver/src/stm32f10x_tim.c ****   tmpccer |= (uint16_t)(TIM_OCInitStruct->TIM_OCPolarity << 8);
 910              		.loc 1 473 0
 911 0060 3B68     		ldr	r3, [r7, #0]
 912 0062 1B89     		ldrh	r3, [r3, #8]
 913 0064 4FEA0323 		lsl	r3, r3, #8
 914 0068 9AB2     		uxth	r2, r3
 915 006a FB89     		ldrh	r3, [r7, #14]	@ movhi
 916 006c 1343     		orrs	r3, r3, r2
 917 006e FB81     		strh	r3, [r7, #14]	@ movhi
 474:../STM32F10x_StdPeriph_Lib_V3.5.0/Libraries/STM32F10x_StdPeriph_Driver/src/stm32f10x_tim.c ****   
 475:../STM32F10x_StdPeriph_Lib_V3.5.0/Libraries/STM32F10x_StdPeriph_Driver/src/stm32f10x_tim.c ****   /* Set the Output State */
 476:../STM32F10x_StdPeriph_Lib_V3.5.0/Libraries/STM32F10x_StdPeriph_Driver/src/stm32f10x_tim.c ****   tmpccer |= (uint16_t)(TIM_OCInitStruct->TIM_OutputState << 8);
 918              		.loc 1 476 0
 919 0070 3B68     		ldr	r3, [r7, #0]
 920 0072 5B88     		ldrh	r3, [r3, #2]
 921 0074 4FEA0323 		lsl	r3, r3, #8
 922 0078 9AB2     		uxth	r2, r3
 923 007a FB89     		ldrh	r3, [r7, #14]	@ movhi
 924 007c 1343     		orrs	r3, r3, r2
 925 007e FB81     		strh	r3, [r7, #14]	@ movhi
 477:../STM32F10x_StdPeriph_Lib_V3.5.0/Libraries/STM32F10x_StdPeriph_Driver/src/stm32f10x_tim.c ****     
 478:../STM32F10x_StdPeriph_Lib_V3.5.0/Libraries/STM32F10x_StdPeriph_Driver/src/stm32f10x_tim.c ****   if((TIMx == TIM1) || (TIMx == TIM8))
 926              		.loc 1 478 0
 927 0080 7A68     		ldr	r2, [r7, #4]
 928 0082 244B     		ldr	r3, .L42
 929 0084 9A42     		cmp	r2, r3
 930 0086 03D0     		beq	.L40
 931              		.loc 1 478 0 is_stmt 0 discriminator 1
 932 0088 7A68     		ldr	r2, [r7, #4]
 933 008a 234B     		ldr	r3, .L42+4
 934 008c 9A42     		cmp	r2, r3
 935 008e 2FD1     		bne	.L41
 936              	.L40:
 479:../STM32F10x_StdPeriph_Lib_V3.5.0/Libraries/STM32F10x_StdPeriph_Driver/src/stm32f10x_tim.c ****   {
 480:../STM32F10x_StdPeriph_Lib_V3.5.0/Libraries/STM32F10x_StdPeriph_Driver/src/stm32f10x_tim.c ****     assert_param(IS_TIM_OUTPUTN_STATE(TIM_OCInitStruct->TIM_OutputNState));
 481:../STM32F10x_StdPeriph_Lib_V3.5.0/Libraries/STM32F10x_StdPeriph_Driver/src/stm32f10x_tim.c ****     assert_param(IS_TIM_OCN_POLARITY(TIM_OCInitStruct->TIM_OCNPolarity));
 482:../STM32F10x_StdPeriph_Lib_V3.5.0/Libraries/STM32F10x_StdPeriph_Driver/src/stm32f10x_tim.c ****     assert_param(IS_TIM_OCNIDLE_STATE(TIM_OCInitStruct->TIM_OCNIdleState));
 483:../STM32F10x_StdPeriph_Lib_V3.5.0/Libraries/STM32F10x_StdPeriph_Driver/src/stm32f10x_tim.c ****     assert_param(IS_TIM_OCIDLE_STATE(TIM_OCInitStruct->TIM_OCIdleState));
 484:../STM32F10x_StdPeriph_Lib_V3.5.0/Libraries/STM32F10x_StdPeriph_Driver/src/stm32f10x_tim.c ****     
 485:../STM32F10x_StdPeriph_Lib_V3.5.0/Libraries/STM32F10x_StdPeriph_Driver/src/stm32f10x_tim.c ****     /* Reset the Output N Polarity level */
 486:../STM32F10x_StdPeriph_Lib_V3.5.0/Libraries/STM32F10x_StdPeriph_Driver/src/stm32f10x_tim.c ****     tmpccer &= (uint16_t)(~((uint16_t)TIM_CCER_CC3NP));
 937              		.loc 1 486 0 is_stmt 1
 938 0090 FB89     		ldrh	r3, [r7, #14]	@ movhi
 939 0092 23F40063 		bic	r3, r3, #2048
 940 0096 FB81     		strh	r3, [r7, #14]	@ movhi
 487:../STM32F10x_StdPeriph_Lib_V3.5.0/Libraries/STM32F10x_StdPeriph_Driver/src/stm32f10x_tim.c ****     /* Set the Output N Polarity */
 488:../STM32F10x_StdPeriph_Lib_V3.5.0/Libraries/STM32F10x_StdPeriph_Driver/src/stm32f10x_tim.c ****     tmpccer |= (uint16_t)(TIM_OCInitStruct->TIM_OCNPolarity << 8);
 941              		.loc 1 488 0
 942 0098 3B68     		ldr	r3, [r7, #0]
 943 009a 5B89     		ldrh	r3, [r3, #10]
 944 009c 4FEA0323 		lsl	r3, r3, #8
 945 00a0 9AB2     		uxth	r2, r3
 946 00a2 FB89     		ldrh	r3, [r7, #14]	@ movhi
 947 00a4 1343     		orrs	r3, r3, r2
 948 00a6 FB81     		strh	r3, [r7, #14]	@ movhi
 489:../STM32F10x_StdPeriph_Lib_V3.5.0/Libraries/STM32F10x_StdPeriph_Driver/src/stm32f10x_tim.c ****     /* Reset the Output N State */
 490:../STM32F10x_StdPeriph_Lib_V3.5.0/Libraries/STM32F10x_StdPeriph_Driver/src/stm32f10x_tim.c ****     tmpccer &= (uint16_t)(~((uint16_t)TIM_CCER_CC3NE));
 949              		.loc 1 490 0
 950 00a8 FB89     		ldrh	r3, [r7, #14]	@ movhi
 951 00aa 23F48063 		bic	r3, r3, #1024
 952 00ae FB81     		strh	r3, [r7, #14]	@ movhi
 491:../STM32F10x_StdPeriph_Lib_V3.5.0/Libraries/STM32F10x_StdPeriph_Driver/src/stm32f10x_tim.c ****     
 492:../STM32F10x_StdPeriph_Lib_V3.5.0/Libraries/STM32F10x_StdPeriph_Driver/src/stm32f10x_tim.c ****     /* Set the Output N State */
 493:../STM32F10x_StdPeriph_Lib_V3.5.0/Libraries/STM32F10x_StdPeriph_Driver/src/stm32f10x_tim.c ****     tmpccer |= (uint16_t)(TIM_OCInitStruct->TIM_OutputNState << 8);
 953              		.loc 1 493 0
 954 00b0 3B68     		ldr	r3, [r7, #0]
 955 00b2 9B88     		ldrh	r3, [r3, #4]
 956 00b4 4FEA0323 		lsl	r3, r3, #8
 957 00b8 9AB2     		uxth	r2, r3
 958 00ba FB89     		ldrh	r3, [r7, #14]	@ movhi
 959 00bc 1343     		orrs	r3, r3, r2
 960 00be FB81     		strh	r3, [r7, #14]	@ movhi
 494:../STM32F10x_StdPeriph_Lib_V3.5.0/Libraries/STM32F10x_StdPeriph_Driver/src/stm32f10x_tim.c ****     /* Reset the Output Compare and Output Compare N IDLE State */
 495:../STM32F10x_StdPeriph_Lib_V3.5.0/Libraries/STM32F10x_StdPeriph_Driver/src/stm32f10x_tim.c ****     tmpcr2 &= (uint16_t)(~((uint16_t)TIM_CR2_OIS3));
 961              		.loc 1 495 0
 962 00c0 BB89     		ldrh	r3, [r7, #12]	@ movhi
 963 00c2 23F48053 		bic	r3, r3, #4096
 964 00c6 BB81     		strh	r3, [r7, #12]	@ movhi
 496:../STM32F10x_StdPeriph_Lib_V3.5.0/Libraries/STM32F10x_StdPeriph_Driver/src/stm32f10x_tim.c ****     tmpcr2 &= (uint16_t)(~((uint16_t)TIM_CR2_OIS3N));
 965              		.loc 1 496 0
 966 00c8 BB89     		ldrh	r3, [r7, #12]	@ movhi
 967 00ca 23F40053 		bic	r3, r3, #8192
 968 00ce BB81     		strh	r3, [r7, #12]	@ movhi
 497:../STM32F10x_StdPeriph_Lib_V3.5.0/Libraries/STM32F10x_StdPeriph_Driver/src/stm32f10x_tim.c ****     /* Set the Output Idle state */
 498:../STM32F10x_StdPeriph_Lib_V3.5.0/Libraries/STM32F10x_StdPeriph_Driver/src/stm32f10x_tim.c ****     tmpcr2 |= (uint16_t)(TIM_OCInitStruct->TIM_OCIdleState << 4);
 969              		.loc 1 498 0
 970 00d0 3B68     		ldr	r3, [r7, #0]
 971 00d2 9B89     		ldrh	r3, [r3, #12]
 972 00d4 4FEA0313 		lsl	r3, r3, #4
 973 00d8 9AB2     		uxth	r2, r3
 974 00da BB89     		ldrh	r3, [r7, #12]	@ movhi
 975 00dc 1343     		orrs	r3, r3, r2
 976 00de BB81     		strh	r3, [r7, #12]	@ movhi
 499:../STM32F10x_StdPeriph_Lib_V3.5.0/Libraries/STM32F10x_StdPeriph_Driver/src/stm32f10x_tim.c ****     /* Set the Output N Idle state */
 500:../STM32F10x_StdPeriph_Lib_V3.5.0/Libraries/STM32F10x_StdPeriph_Driver/src/stm32f10x_tim.c ****     tmpcr2 |= (uint16_t)(TIM_OCInitStruct->TIM_OCNIdleState << 4);
 977              		.loc 1 500 0
 978 00e0 3B68     		ldr	r3, [r7, #0]
 979 00e2 DB89     		ldrh	r3, [r3, #14]
 980 00e4 4FEA0313 		lsl	r3, r3, #4
 981 00e8 9AB2     		uxth	r2, r3
 982 00ea BB89     		ldrh	r3, [r7, #12]	@ movhi
 983 00ec 1343     		orrs	r3, r3, r2
 984 00ee BB81     		strh	r3, [r7, #12]	@ movhi
 985              	.L41:
 501:../STM32F10x_StdPeriph_Lib_V3.5.0/Libraries/STM32F10x_StdPeriph_Driver/src/stm32f10x_tim.c ****   }
 502:../STM32F10x_StdPeriph_Lib_V3.5.0/Libraries/STM32F10x_StdPeriph_Driver/src/stm32f10x_tim.c ****   /* Write to TIMx CR2 */
 503:../STM32F10x_StdPeriph_Lib_V3.5.0/Libraries/STM32F10x_StdPeriph_Driver/src/stm32f10x_tim.c ****   TIMx->CR2 = tmpcr2;
 986              		.loc 1 503 0
 987 00f0 7B68     		ldr	r3, [r7, #4]
 988 00f2 BA89     		ldrh	r2, [r7, #12]	@ movhi
 989 00f4 9A80     		strh	r2, [r3, #4]	@ movhi
 504:../STM32F10x_StdPeriph_Lib_V3.5.0/Libraries/STM32F10x_StdPeriph_Driver/src/stm32f10x_tim.c ****   
 505:../STM32F10x_StdPeriph_Lib_V3.5.0/Libraries/STM32F10x_StdPeriph_Driver/src/stm32f10x_tim.c ****   /* Write to TIMx CCMR2 */
 506:../STM32F10x_StdPeriph_Lib_V3.5.0/Libraries/STM32F10x_StdPeriph_Driver/src/stm32f10x_tim.c ****   TIMx->CCMR2 = tmpccmrx;
 990              		.loc 1 506 0
 991 00f6 7B68     		ldr	r3, [r7, #4]
 992 00f8 7A89     		ldrh	r2, [r7, #10]	@ movhi
 993 00fa 9A83     		strh	r2, [r3, #28]	@ movhi
 507:../STM32F10x_StdPeriph_Lib_V3.5.0/Libraries/STM32F10x_StdPeriph_Driver/src/stm32f10x_tim.c **** 
 508:../STM32F10x_StdPeriph_Lib_V3.5.0/Libraries/STM32F10x_StdPeriph_Driver/src/stm32f10x_tim.c ****   /* Set the Capture Compare Register value */
 509:../STM32F10x_StdPeriph_Lib_V3.5.0/Libraries/STM32F10x_StdPeriph_Driver/src/stm32f10x_tim.c ****   TIMx->CCR3 = TIM_OCInitStruct->TIM_Pulse;
 994              		.loc 1 509 0
 995 00fc 3B68     		ldr	r3, [r7, #0]
 996 00fe DA88     		ldrh	r2, [r3, #6]
 997 0100 7B68     		ldr	r3, [r7, #4]
 998 0102 9A87     		strh	r2, [r3, #60]	@ movhi
 510:../STM32F10x_StdPeriph_Lib_V3.5.0/Libraries/STM32F10x_StdPeriph_Driver/src/stm32f10x_tim.c ****   
 511:../STM32F10x_StdPeriph_Lib_V3.5.0/Libraries/STM32F10x_StdPeriph_Driver/src/stm32f10x_tim.c ****   /* Write to TIMx CCER */
 512:../STM32F10x_StdPeriph_Lib_V3.5.0/Libraries/STM32F10x_StdPeriph_Driver/src/stm32f10x_tim.c ****   TIMx->CCER = tmpccer;
 999              		.loc 1 512 0
 1000 0104 7B68     		ldr	r3, [r7, #4]
 1001 0106 FA89     		ldrh	r2, [r7, #14]	@ movhi
 1002 0108 1A84     		strh	r2, [r3, #32]	@ movhi
 513:../STM32F10x_StdPeriph_Lib_V3.5.0/Libraries/STM32F10x_StdPeriph_Driver/src/stm32f10x_tim.c **** }
 1003              		.loc 1 513 0
 1004 010a 07F11407 		add	r7, r7, #20
 1005 010e BD46     		mov	sp, r7
 1006 0110 80BC     		pop	{r7}
 1007 0112 7047     		bx	lr
 1008              	.L43:
 1009              		.align	2
 1010              	.L42:
 1011 0114 002C0140 		.word	1073818624
 1012 0118 00340140 		.word	1073820672
 1013              		.cfi_endproc
 1014              	.LFE33:
 1016              		.section	.text.TIM_OC4Init,"ax",%progbits
 1017              		.align	2
 1018              		.global	TIM_OC4Init
 1019              		.thumb
 1020              		.thumb_func
 1022              	TIM_OC4Init:
 1023              	.LFB34:
 514:../STM32F10x_StdPeriph_Lib_V3.5.0/Libraries/STM32F10x_StdPeriph_Driver/src/stm32f10x_tim.c **** 
 515:../STM32F10x_StdPeriph_Lib_V3.5.0/Libraries/STM32F10x_StdPeriph_Driver/src/stm32f10x_tim.c **** /**
 516:../STM32F10x_StdPeriph_Lib_V3.5.0/Libraries/STM32F10x_StdPeriph_Driver/src/stm32f10x_tim.c ****   * @brief  Initializes the TIMx Channel4 according to the specified
 517:../STM32F10x_StdPeriph_Lib_V3.5.0/Libraries/STM32F10x_StdPeriph_Driver/src/stm32f10x_tim.c ****   *         parameters in the TIM_OCInitStruct.
 518:../STM32F10x_StdPeriph_Lib_V3.5.0/Libraries/STM32F10x_StdPeriph_Driver/src/stm32f10x_tim.c ****   * @param  TIMx: where x can be  1, 2, 3, 4, 5 or 8 to select the TIM peripheral.
 519:../STM32F10x_StdPeriph_Lib_V3.5.0/Libraries/STM32F10x_StdPeriph_Driver/src/stm32f10x_tim.c ****   * @param  TIM_OCInitStruct: pointer to a TIM_OCInitTypeDef structure
 520:../STM32F10x_StdPeriph_Lib_V3.5.0/Libraries/STM32F10x_StdPeriph_Driver/src/stm32f10x_tim.c ****   *         that contains the configuration information for the specified TIM peripheral.
 521:../STM32F10x_StdPeriph_Lib_V3.5.0/Libraries/STM32F10x_StdPeriph_Driver/src/stm32f10x_tim.c ****   * @retval None
 522:../STM32F10x_StdPeriph_Lib_V3.5.0/Libraries/STM32F10x_StdPeriph_Driver/src/stm32f10x_tim.c ****   */
 523:../STM32F10x_StdPeriph_Lib_V3.5.0/Libraries/STM32F10x_StdPeriph_Driver/src/stm32f10x_tim.c **** void TIM_OC4Init(TIM_TypeDef* TIMx, TIM_OCInitTypeDef* TIM_OCInitStruct)
 524:../STM32F10x_StdPeriph_Lib_V3.5.0/Libraries/STM32F10x_StdPeriph_Driver/src/stm32f10x_tim.c **** {
 1024              		.loc 1 524 0
 1025              		.cfi_startproc
 1026              		@ args = 0, pretend = 0, frame = 16
 1027              		@ frame_needed = 1, uses_anonymous_args = 0
 1028              		@ link register save eliminated.
 1029 0000 80B4     		push	{r7}
 1030              	.LCFI15:
 1031              		.cfi_def_cfa_offset 4
 1032              		.cfi_offset 7, -4
 1033 0002 85B0     		sub	sp, sp, #20
 1034              	.LCFI16:
 1035              		.cfi_def_cfa_offset 24
 1036 0004 00AF     		add	r7, sp, #0
 1037              	.LCFI17:
 1038              		.cfi_def_cfa_register 7
 1039 0006 7860     		str	r0, [r7, #4]
 1040 0008 3960     		str	r1, [r7, #0]
 525:../STM32F10x_StdPeriph_Lib_V3.5.0/Libraries/STM32F10x_StdPeriph_Driver/src/stm32f10x_tim.c ****   uint16_t tmpccmrx = 0, tmpccer = 0, tmpcr2 = 0;
 1041              		.loc 1 525 0
 1042 000a 4FF00003 		mov	r3, #0
 1043 000e BB81     		strh	r3, [r7, #12]	@ movhi
 1044 0010 4FF00003 		mov	r3, #0
 1045 0014 7B81     		strh	r3, [r7, #10]	@ movhi
 1046 0016 4FF00003 		mov	r3, #0
 1047 001a FB81     		strh	r3, [r7, #14]	@ movhi
 526:../STM32F10x_StdPeriph_Lib_V3.5.0/Libraries/STM32F10x_StdPeriph_Driver/src/stm32f10x_tim.c ****    
 527:../STM32F10x_StdPeriph_Lib_V3.5.0/Libraries/STM32F10x_StdPeriph_Driver/src/stm32f10x_tim.c ****   /* Check the parameters */
 528:../STM32F10x_StdPeriph_Lib_V3.5.0/Libraries/STM32F10x_StdPeriph_Driver/src/stm32f10x_tim.c ****   assert_param(IS_TIM_LIST3_PERIPH(TIMx)); 
 529:../STM32F10x_StdPeriph_Lib_V3.5.0/Libraries/STM32F10x_StdPeriph_Driver/src/stm32f10x_tim.c ****   assert_param(IS_TIM_OC_MODE(TIM_OCInitStruct->TIM_OCMode));
 530:../STM32F10x_StdPeriph_Lib_V3.5.0/Libraries/STM32F10x_StdPeriph_Driver/src/stm32f10x_tim.c ****   assert_param(IS_TIM_OUTPUT_STATE(TIM_OCInitStruct->TIM_OutputState));
 531:../STM32F10x_StdPeriph_Lib_V3.5.0/Libraries/STM32F10x_StdPeriph_Driver/src/stm32f10x_tim.c ****   assert_param(IS_TIM_OC_POLARITY(TIM_OCInitStruct->TIM_OCPolarity));   
 532:../STM32F10x_StdPeriph_Lib_V3.5.0/Libraries/STM32F10x_StdPeriph_Driver/src/stm32f10x_tim.c ****   /* Disable the Channel 2: Reset the CC4E Bit */
 533:../STM32F10x_StdPeriph_Lib_V3.5.0/Libraries/STM32F10x_StdPeriph_Driver/src/stm32f10x_tim.c ****   TIMx->CCER &= (uint16_t)(~((uint16_t)TIM_CCER_CC4E));
 1048              		.loc 1 533 0
 1049 001c 7B68     		ldr	r3, [r7, #4]
 1050 001e 1B8C     		ldrh	r3, [r3, #32]	@ movhi
 1051 0020 9BB2     		uxth	r3, r3
 1052 0022 23F48053 		bic	r3, r3, #4096
 1053 0026 9AB2     		uxth	r2, r3
 1054 0028 7B68     		ldr	r3, [r7, #4]
 1055 002a 1A84     		strh	r2, [r3, #32]	@ movhi
 534:../STM32F10x_StdPeriph_Lib_V3.5.0/Libraries/STM32F10x_StdPeriph_Driver/src/stm32f10x_tim.c ****   
 535:../STM32F10x_StdPeriph_Lib_V3.5.0/Libraries/STM32F10x_StdPeriph_Driver/src/stm32f10x_tim.c ****   /* Get the TIMx CCER register value */
 536:../STM32F10x_StdPeriph_Lib_V3.5.0/Libraries/STM32F10x_StdPeriph_Driver/src/stm32f10x_tim.c ****   tmpccer = TIMx->CCER;
 1056              		.loc 1 536 0
 1057 002c 7B68     		ldr	r3, [r7, #4]
 1058 002e 1B8C     		ldrh	r3, [r3, #32]	@ movhi
 1059 0030 7B81     		strh	r3, [r7, #10]	@ movhi
 537:../STM32F10x_StdPeriph_Lib_V3.5.0/Libraries/STM32F10x_StdPeriph_Driver/src/stm32f10x_tim.c ****   /* Get the TIMx CR2 register value */
 538:../STM32F10x_StdPeriph_Lib_V3.5.0/Libraries/STM32F10x_StdPeriph_Driver/src/stm32f10x_tim.c ****   tmpcr2 =  TIMx->CR2;
 1060              		.loc 1 538 0
 1061 0032 7B68     		ldr	r3, [r7, #4]
 1062 0034 9B88     		ldrh	r3, [r3, #4]	@ movhi
 1063 0036 FB81     		strh	r3, [r7, #14]	@ movhi
 539:../STM32F10x_StdPeriph_Lib_V3.5.0/Libraries/STM32F10x_StdPeriph_Driver/src/stm32f10x_tim.c ****   
 540:../STM32F10x_StdPeriph_Lib_V3.5.0/Libraries/STM32F10x_StdPeriph_Driver/src/stm32f10x_tim.c ****   /* Get the TIMx CCMR2 register value */
 541:../STM32F10x_StdPeriph_Lib_V3.5.0/Libraries/STM32F10x_StdPeriph_Driver/src/stm32f10x_tim.c ****   tmpccmrx = TIMx->CCMR2;
 1064              		.loc 1 541 0
 1065 0038 7B68     		ldr	r3, [r7, #4]
 1066 003a 9B8B     		ldrh	r3, [r3, #28]	@ movhi
 1067 003c BB81     		strh	r3, [r7, #12]	@ movhi
 542:../STM32F10x_StdPeriph_Lib_V3.5.0/Libraries/STM32F10x_StdPeriph_Driver/src/stm32f10x_tim.c ****     
 543:../STM32F10x_StdPeriph_Lib_V3.5.0/Libraries/STM32F10x_StdPeriph_Driver/src/stm32f10x_tim.c ****   /* Reset the Output Compare mode and Capture/Compare selection Bits */
 544:../STM32F10x_StdPeriph_Lib_V3.5.0/Libraries/STM32F10x_StdPeriph_Driver/src/stm32f10x_tim.c ****   tmpccmrx &= (uint16_t)(~((uint16_t)TIM_CCMR2_OC4M));
 1068              		.loc 1 544 0
 1069 003e BB89     		ldrh	r3, [r7, #12]	@ movhi
 1070 0040 23F4E043 		bic	r3, r3, #28672
 1071 0044 BB81     		strh	r3, [r7, #12]	@ movhi
 545:../STM32F10x_StdPeriph_Lib_V3.5.0/Libraries/STM32F10x_StdPeriph_Driver/src/stm32f10x_tim.c ****   tmpccmrx &= (uint16_t)(~((uint16_t)TIM_CCMR2_CC4S));
 1072              		.loc 1 545 0
 1073 0046 BB89     		ldrh	r3, [r7, #12]	@ movhi
 1074 0048 23F44073 		bic	r3, r3, #768
 1075 004c BB81     		strh	r3, [r7, #12]	@ movhi
 546:../STM32F10x_StdPeriph_Lib_V3.5.0/Libraries/STM32F10x_StdPeriph_Driver/src/stm32f10x_tim.c ****   
 547:../STM32F10x_StdPeriph_Lib_V3.5.0/Libraries/STM32F10x_StdPeriph_Driver/src/stm32f10x_tim.c ****   /* Select the Output Compare Mode */
 548:../STM32F10x_StdPeriph_Lib_V3.5.0/Libraries/STM32F10x_StdPeriph_Driver/src/stm32f10x_tim.c ****   tmpccmrx |= (uint16_t)(TIM_OCInitStruct->TIM_OCMode << 8);
 1076              		.loc 1 548 0
 1077 004e 3B68     		ldr	r3, [r7, #0]
 1078 0050 1B88     		ldrh	r3, [r3, #0]
 1079 0052 4FEA0323 		lsl	r3, r3, #8
 1080 0056 9AB2     		uxth	r2, r3
 1081 0058 BB89     		ldrh	r3, [r7, #12]	@ movhi
 1082 005a 1343     		orrs	r3, r3, r2
 1083 005c BB81     		strh	r3, [r7, #12]	@ movhi
 549:../STM32F10x_StdPeriph_Lib_V3.5.0/Libraries/STM32F10x_StdPeriph_Driver/src/stm32f10x_tim.c ****   
 550:../STM32F10x_StdPeriph_Lib_V3.5.0/Libraries/STM32F10x_StdPeriph_Driver/src/stm32f10x_tim.c ****   /* Reset the Output Polarity level */
 551:../STM32F10x_StdPeriph_Lib_V3.5.0/Libraries/STM32F10x_StdPeriph_Driver/src/stm32f10x_tim.c ****   tmpccer &= (uint16_t)(~((uint16_t)TIM_CCER_CC4P));
 1084              		.loc 1 551 0
 1085 005e 7B89     		ldrh	r3, [r7, #10]	@ movhi
 1086 0060 23F40053 		bic	r3, r3, #8192
 1087 0064 7B81     		strh	r3, [r7, #10]	@ movhi
 552:../STM32F10x_StdPeriph_Lib_V3.5.0/Libraries/STM32F10x_StdPeriph_Driver/src/stm32f10x_tim.c ****   /* Set the Output Compare Polarity */
 553:../STM32F10x_StdPeriph_Lib_V3.5.0/Libraries/STM32F10x_StdPeriph_Driver/src/stm32f10x_tim.c ****   tmpccer |= (uint16_t)(TIM_OCInitStruct->TIM_OCPolarity << 12);
 1088              		.loc 1 553 0
 1089 0066 3B68     		ldr	r3, [r7, #0]
 1090 0068 1B89     		ldrh	r3, [r3, #8]
 1091 006a 4FEA0333 		lsl	r3, r3, #12
 1092 006e 9AB2     		uxth	r2, r3
 1093 0070 7B89     		ldrh	r3, [r7, #10]	@ movhi
 1094 0072 1343     		orrs	r3, r3, r2
 1095 0074 7B81     		strh	r3, [r7, #10]	@ movhi
 554:../STM32F10x_StdPeriph_Lib_V3.5.0/Libraries/STM32F10x_StdPeriph_Driver/src/stm32f10x_tim.c ****   
 555:../STM32F10x_StdPeriph_Lib_V3.5.0/Libraries/STM32F10x_StdPeriph_Driver/src/stm32f10x_tim.c ****   /* Set the Output State */
 556:../STM32F10x_StdPeriph_Lib_V3.5.0/Libraries/STM32F10x_StdPeriph_Driver/src/stm32f10x_tim.c ****   tmpccer |= (uint16_t)(TIM_OCInitStruct->TIM_OutputState << 12);
 1096              		.loc 1 556 0
 1097 0076 3B68     		ldr	r3, [r7, #0]
 1098 0078 5B88     		ldrh	r3, [r3, #2]
 1099 007a 4FEA0333 		lsl	r3, r3, #12
 1100 007e 9AB2     		uxth	r2, r3
 1101 0080 7B89     		ldrh	r3, [r7, #10]	@ movhi
 1102 0082 1343     		orrs	r3, r3, r2
 1103 0084 7B81     		strh	r3, [r7, #10]	@ movhi
 557:../STM32F10x_StdPeriph_Lib_V3.5.0/Libraries/STM32F10x_StdPeriph_Driver/src/stm32f10x_tim.c ****     
 558:../STM32F10x_StdPeriph_Lib_V3.5.0/Libraries/STM32F10x_StdPeriph_Driver/src/stm32f10x_tim.c ****   if((TIMx == TIM1) || (TIMx == TIM8))
 1104              		.loc 1 558 0
 1105 0086 7A68     		ldr	r2, [r7, #4]
 1106 0088 124B     		ldr	r3, .L47
 1107 008a 9A42     		cmp	r2, r3
 1108 008c 03D0     		beq	.L45
 1109              		.loc 1 558 0 is_stmt 0 discriminator 1
 1110 008e 7A68     		ldr	r2, [r7, #4]
 1111 0090 114B     		ldr	r3, .L47+4
 1112 0092 9A42     		cmp	r2, r3
 1113 0094 0BD1     		bne	.L46
 1114              	.L45:
 559:../STM32F10x_StdPeriph_Lib_V3.5.0/Libraries/STM32F10x_StdPeriph_Driver/src/stm32f10x_tim.c ****   {
 560:../STM32F10x_StdPeriph_Lib_V3.5.0/Libraries/STM32F10x_StdPeriph_Driver/src/stm32f10x_tim.c ****     assert_param(IS_TIM_OCIDLE_STATE(TIM_OCInitStruct->TIM_OCIdleState));
 561:../STM32F10x_StdPeriph_Lib_V3.5.0/Libraries/STM32F10x_StdPeriph_Driver/src/stm32f10x_tim.c ****     /* Reset the Output Compare IDLE State */
 562:../STM32F10x_StdPeriph_Lib_V3.5.0/Libraries/STM32F10x_StdPeriph_Driver/src/stm32f10x_tim.c ****     tmpcr2 &= (uint16_t)(~((uint16_t)TIM_CR2_OIS4));
 1115              		.loc 1 562 0 is_stmt 1
 1116 0096 FB89     		ldrh	r3, [r7, #14]	@ movhi
 1117 0098 23F48043 		bic	r3, r3, #16384
 1118 009c FB81     		strh	r3, [r7, #14]	@ movhi
 563:../STM32F10x_StdPeriph_Lib_V3.5.0/Libraries/STM32F10x_StdPeriph_Driver/src/stm32f10x_tim.c ****     /* Set the Output Idle state */
 564:../STM32F10x_StdPeriph_Lib_V3.5.0/Libraries/STM32F10x_StdPeriph_Driver/src/stm32f10x_tim.c ****     tmpcr2 |= (uint16_t)(TIM_OCInitStruct->TIM_OCIdleState << 6);
 1119              		.loc 1 564 0
 1120 009e 3B68     		ldr	r3, [r7, #0]
 1121 00a0 9B89     		ldrh	r3, [r3, #12]
 1122 00a2 4FEA8313 		lsl	r3, r3, #6
 1123 00a6 9AB2     		uxth	r2, r3
 1124 00a8 FB89     		ldrh	r3, [r7, #14]	@ movhi
 1125 00aa 1343     		orrs	r3, r3, r2
 1126 00ac FB81     		strh	r3, [r7, #14]	@ movhi
 1127              	.L46:
 565:../STM32F10x_StdPeriph_Lib_V3.5.0/Libraries/STM32F10x_StdPeriph_Driver/src/stm32f10x_tim.c ****   }
 566:../STM32F10x_StdPeriph_Lib_V3.5.0/Libraries/STM32F10x_StdPeriph_Driver/src/stm32f10x_tim.c ****   /* Write to TIMx CR2 */
 567:../STM32F10x_StdPeriph_Lib_V3.5.0/Libraries/STM32F10x_StdPeriph_Driver/src/stm32f10x_tim.c ****   TIMx->CR2 = tmpcr2;
 1128              		.loc 1 567 0
 1129 00ae 7B68     		ldr	r3, [r7, #4]
 1130 00b0 FA89     		ldrh	r2, [r7, #14]	@ movhi
 1131 00b2 9A80     		strh	r2, [r3, #4]	@ movhi
 568:../STM32F10x_StdPeriph_Lib_V3.5.0/Libraries/STM32F10x_StdPeriph_Driver/src/stm32f10x_tim.c ****   
 569:../STM32F10x_StdPeriph_Lib_V3.5.0/Libraries/STM32F10x_StdPeriph_Driver/src/stm32f10x_tim.c ****   /* Write to TIMx CCMR2 */  
 570:../STM32F10x_StdPeriph_Lib_V3.5.0/Libraries/STM32F10x_StdPeriph_Driver/src/stm32f10x_tim.c ****   TIMx->CCMR2 = tmpccmrx;
 1132              		.loc 1 570 0
 1133 00b4 7B68     		ldr	r3, [r7, #4]
 1134 00b6 BA89     		ldrh	r2, [r7, #12]	@ movhi
 1135 00b8 9A83     		strh	r2, [r3, #28]	@ movhi
 571:../STM32F10x_StdPeriph_Lib_V3.5.0/Libraries/STM32F10x_StdPeriph_Driver/src/stm32f10x_tim.c **** 
 572:../STM32F10x_StdPeriph_Lib_V3.5.0/Libraries/STM32F10x_StdPeriph_Driver/src/stm32f10x_tim.c ****   /* Set the Capture Compare Register value */
 573:../STM32F10x_StdPeriph_Lib_V3.5.0/Libraries/STM32F10x_StdPeriph_Driver/src/stm32f10x_tim.c ****   TIMx->CCR4 = TIM_OCInitStruct->TIM_Pulse;
 1136              		.loc 1 573 0
 1137 00ba 3B68     		ldr	r3, [r7, #0]
 1138 00bc DA88     		ldrh	r2, [r3, #6]
 1139 00be 7B68     		ldr	r3, [r7, #4]
 1140 00c0 A3F84020 		strh	r2, [r3, #64]	@ movhi
 574:../STM32F10x_StdPeriph_Lib_V3.5.0/Libraries/STM32F10x_StdPeriph_Driver/src/stm32f10x_tim.c ****   
 575:../STM32F10x_StdPeriph_Lib_V3.5.0/Libraries/STM32F10x_StdPeriph_Driver/src/stm32f10x_tim.c ****   /* Write to TIMx CCER */
 576:../STM32F10x_StdPeriph_Lib_V3.5.0/Libraries/STM32F10x_StdPeriph_Driver/src/stm32f10x_tim.c ****   TIMx->CCER = tmpccer;
 1141              		.loc 1 576 0
 1142 00c4 7B68     		ldr	r3, [r7, #4]
 1143 00c6 7A89     		ldrh	r2, [r7, #10]	@ movhi
 1144 00c8 1A84     		strh	r2, [r3, #32]	@ movhi
 577:../STM32F10x_StdPeriph_Lib_V3.5.0/Libraries/STM32F10x_StdPeriph_Driver/src/stm32f10x_tim.c **** }
 1145              		.loc 1 577 0
 1146 00ca 07F11407 		add	r7, r7, #20
 1147 00ce BD46     		mov	sp, r7
 1148 00d0 80BC     		pop	{r7}
 1149 00d2 7047     		bx	lr
 1150              	.L48:
 1151              		.align	2
 1152              	.L47:
 1153 00d4 002C0140 		.word	1073818624
 1154 00d8 00340140 		.word	1073820672
 1155              		.cfi_endproc
 1156              	.LFE34:
 1158              		.section	.text.TIM_ICInit,"ax",%progbits
 1159              		.align	2
 1160              		.global	TIM_ICInit
 1161              		.thumb
 1162              		.thumb_func
 1164              	TIM_ICInit:
 1165              	.LFB35:
 578:../STM32F10x_StdPeriph_Lib_V3.5.0/Libraries/STM32F10x_StdPeriph_Driver/src/stm32f10x_tim.c **** 
 579:../STM32F10x_StdPeriph_Lib_V3.5.0/Libraries/STM32F10x_StdPeriph_Driver/src/stm32f10x_tim.c **** /**
 580:../STM32F10x_StdPeriph_Lib_V3.5.0/Libraries/STM32F10x_StdPeriph_Driver/src/stm32f10x_tim.c ****   * @brief  Initializes the TIM peripheral according to the specified
 581:../STM32F10x_StdPeriph_Lib_V3.5.0/Libraries/STM32F10x_StdPeriph_Driver/src/stm32f10x_tim.c ****   *         parameters in the TIM_ICInitStruct.
 582:../STM32F10x_StdPeriph_Lib_V3.5.0/Libraries/STM32F10x_StdPeriph_Driver/src/stm32f10x_tim.c ****   * @param  TIMx: where x can be  1 to 17 except 6 and 7 to select the TIM peripheral.
 583:../STM32F10x_StdPeriph_Lib_V3.5.0/Libraries/STM32F10x_StdPeriph_Driver/src/stm32f10x_tim.c ****   * @param  TIM_ICInitStruct: pointer to a TIM_ICInitTypeDef structure
 584:../STM32F10x_StdPeriph_Lib_V3.5.0/Libraries/STM32F10x_StdPeriph_Driver/src/stm32f10x_tim.c ****   *         that contains the configuration information for the specified TIM peripheral.
 585:../STM32F10x_StdPeriph_Lib_V3.5.0/Libraries/STM32F10x_StdPeriph_Driver/src/stm32f10x_tim.c ****   * @retval None
 586:../STM32F10x_StdPeriph_Lib_V3.5.0/Libraries/STM32F10x_StdPeriph_Driver/src/stm32f10x_tim.c ****   */
 587:../STM32F10x_StdPeriph_Lib_V3.5.0/Libraries/STM32F10x_StdPeriph_Driver/src/stm32f10x_tim.c **** void TIM_ICInit(TIM_TypeDef* TIMx, TIM_ICInitTypeDef* TIM_ICInitStruct)
 588:../STM32F10x_StdPeriph_Lib_V3.5.0/Libraries/STM32F10x_StdPeriph_Driver/src/stm32f10x_tim.c **** {
 1166              		.loc 1 588 0
 1167              		.cfi_startproc
 1168              		@ args = 0, pretend = 0, frame = 8
 1169              		@ frame_needed = 1, uses_anonymous_args = 0
 1170 0000 80B5     		push	{r7, lr}
 1171              	.LCFI18:
 1172              		.cfi_def_cfa_offset 8
 1173              		.cfi_offset 7, -8
 1174              		.cfi_offset 14, -4
 1175 0002 82B0     		sub	sp, sp, #8
 1176              	.LCFI19:
 1177              		.cfi_def_cfa_offset 16
 1178 0004 00AF     		add	r7, sp, #0
 1179              	.LCFI20:
 1180              		.cfi_def_cfa_register 7
 1181 0006 7860     		str	r0, [r7, #4]
 1182 0008 3960     		str	r1, [r7, #0]
 589:../STM32F10x_StdPeriph_Lib_V3.5.0/Libraries/STM32F10x_StdPeriph_Driver/src/stm32f10x_tim.c ****   /* Check the parameters */
 590:../STM32F10x_StdPeriph_Lib_V3.5.0/Libraries/STM32F10x_StdPeriph_Driver/src/stm32f10x_tim.c ****   assert_param(IS_TIM_CHANNEL(TIM_ICInitStruct->TIM_Channel));  
 591:../STM32F10x_StdPeriph_Lib_V3.5.0/Libraries/STM32F10x_StdPeriph_Driver/src/stm32f10x_tim.c ****   assert_param(IS_TIM_IC_SELECTION(TIM_ICInitStruct->TIM_ICSelection));
 592:../STM32F10x_StdPeriph_Lib_V3.5.0/Libraries/STM32F10x_StdPeriph_Driver/src/stm32f10x_tim.c ****   assert_param(IS_TIM_IC_PRESCALER(TIM_ICInitStruct->TIM_ICPrescaler));
 593:../STM32F10x_StdPeriph_Lib_V3.5.0/Libraries/STM32F10x_StdPeriph_Driver/src/stm32f10x_tim.c ****   assert_param(IS_TIM_IC_FILTER(TIM_ICInitStruct->TIM_ICFilter));
 594:../STM32F10x_StdPeriph_Lib_V3.5.0/Libraries/STM32F10x_StdPeriph_Driver/src/stm32f10x_tim.c ****   
 595:../STM32F10x_StdPeriph_Lib_V3.5.0/Libraries/STM32F10x_StdPeriph_Driver/src/stm32f10x_tim.c ****   if((TIMx == TIM1) || (TIMx == TIM8) || (TIMx == TIM2) || (TIMx == TIM3) ||
 596:../STM32F10x_StdPeriph_Lib_V3.5.0/Libraries/STM32F10x_StdPeriph_Driver/src/stm32f10x_tim.c ****      (TIMx == TIM4) ||(TIMx == TIM5))
 597:../STM32F10x_StdPeriph_Lib_V3.5.0/Libraries/STM32F10x_StdPeriph_Driver/src/stm32f10x_tim.c ****   {
 598:../STM32F10x_StdPeriph_Lib_V3.5.0/Libraries/STM32F10x_StdPeriph_Driver/src/stm32f10x_tim.c ****     assert_param(IS_TIM_IC_POLARITY(TIM_ICInitStruct->TIM_ICPolarity));
 599:../STM32F10x_StdPeriph_Lib_V3.5.0/Libraries/STM32F10x_StdPeriph_Driver/src/stm32f10x_tim.c ****   }
 600:../STM32F10x_StdPeriph_Lib_V3.5.0/Libraries/STM32F10x_StdPeriph_Driver/src/stm32f10x_tim.c ****   else
 601:../STM32F10x_StdPeriph_Lib_V3.5.0/Libraries/STM32F10x_StdPeriph_Driver/src/stm32f10x_tim.c ****   {
 602:../STM32F10x_StdPeriph_Lib_V3.5.0/Libraries/STM32F10x_StdPeriph_Driver/src/stm32f10x_tim.c ****     assert_param(IS_TIM_IC_POLARITY_LITE(TIM_ICInitStruct->TIM_ICPolarity));
 603:../STM32F10x_StdPeriph_Lib_V3.5.0/Libraries/STM32F10x_StdPeriph_Driver/src/stm32f10x_tim.c ****   }
 604:../STM32F10x_StdPeriph_Lib_V3.5.0/Libraries/STM32F10x_StdPeriph_Driver/src/stm32f10x_tim.c ****   if (TIM_ICInitStruct->TIM_Channel == TIM_Channel_1)
 1183              		.loc 1 604 0
 1184 000a 3B68     		ldr	r3, [r7, #0]
 1185 000c 1B88     		ldrh	r3, [r3, #0]
 1186 000e 002B     		cmp	r3, #0
 1187 0010 0FD1     		bne	.L50
 605:../STM32F10x_StdPeriph_Lib_V3.5.0/Libraries/STM32F10x_StdPeriph_Driver/src/stm32f10x_tim.c ****   {
 606:../STM32F10x_StdPeriph_Lib_V3.5.0/Libraries/STM32F10x_StdPeriph_Driver/src/stm32f10x_tim.c ****     assert_param(IS_TIM_LIST8_PERIPH(TIMx));
 607:../STM32F10x_StdPeriph_Lib_V3.5.0/Libraries/STM32F10x_StdPeriph_Driver/src/stm32f10x_tim.c ****     /* TI1 Configuration */
 608:../STM32F10x_StdPeriph_Lib_V3.5.0/Libraries/STM32F10x_StdPeriph_Driver/src/stm32f10x_tim.c ****     TI1_Config(TIMx, TIM_ICInitStruct->TIM_ICPolarity,
 1188              		.loc 1 608 0
 1189 0012 3B68     		ldr	r3, [r7, #0]
 1190 0014 5988     		ldrh	r1, [r3, #2]
 609:../STM32F10x_StdPeriph_Lib_V3.5.0/Libraries/STM32F10x_StdPeriph_Driver/src/stm32f10x_tim.c ****                TIM_ICInitStruct->TIM_ICSelection,
 1191              		.loc 1 609 0
 1192 0016 3B68     		ldr	r3, [r7, #0]
 608:../STM32F10x_StdPeriph_Lib_V3.5.0/Libraries/STM32F10x_StdPeriph_Driver/src/stm32f10x_tim.c ****     TI1_Config(TIMx, TIM_ICInitStruct->TIM_ICPolarity,
 1193              		.loc 1 608 0
 1194 0018 9A88     		ldrh	r2, [r3, #4]
 610:../STM32F10x_StdPeriph_Lib_V3.5.0/Libraries/STM32F10x_StdPeriph_Driver/src/stm32f10x_tim.c ****                TIM_ICInitStruct->TIM_ICFilter);
 1195              		.loc 1 610 0
 1196 001a 3B68     		ldr	r3, [r7, #0]
 608:../STM32F10x_StdPeriph_Lib_V3.5.0/Libraries/STM32F10x_StdPeriph_Driver/src/stm32f10x_tim.c ****     TI1_Config(TIMx, TIM_ICInitStruct->TIM_ICPolarity,
 1197              		.loc 1 608 0
 1198 001c 1B89     		ldrh	r3, [r3, #8]
 1199 001e 7868     		ldr	r0, [r7, #4]
 1200 0020 FFF7FEFF 		bl	TI1_Config
 611:../STM32F10x_StdPeriph_Lib_V3.5.0/Libraries/STM32F10x_StdPeriph_Driver/src/stm32f10x_tim.c ****     /* Set the Input Capture Prescaler value */
 612:../STM32F10x_StdPeriph_Lib_V3.5.0/Libraries/STM32F10x_StdPeriph_Driver/src/stm32f10x_tim.c ****     TIM_SetIC1Prescaler(TIMx, TIM_ICInitStruct->TIM_ICPrescaler);
 1201              		.loc 1 612 0
 1202 0024 3B68     		ldr	r3, [r7, #0]
 1203 0026 DB88     		ldrh	r3, [r3, #6]
 1204 0028 7868     		ldr	r0, [r7, #4]
 1205 002a 1946     		mov	r1, r3
 1206 002c FFF7FEFF 		bl	TIM_SetIC1Prescaler
 1207 0030 36E0     		b	.L49
 1208              	.L50:
 613:../STM32F10x_StdPeriph_Lib_V3.5.0/Libraries/STM32F10x_StdPeriph_Driver/src/stm32f10x_tim.c ****   }
 614:../STM32F10x_StdPeriph_Lib_V3.5.0/Libraries/STM32F10x_StdPeriph_Driver/src/stm32f10x_tim.c ****   else if (TIM_ICInitStruct->TIM_Channel == TIM_Channel_2)
 1209              		.loc 1 614 0
 1210 0032 3B68     		ldr	r3, [r7, #0]
 1211 0034 1B88     		ldrh	r3, [r3, #0]
 1212 0036 042B     		cmp	r3, #4
 1213 0038 0FD1     		bne	.L52
 615:../STM32F10x_StdPeriph_Lib_V3.5.0/Libraries/STM32F10x_StdPeriph_Driver/src/stm32f10x_tim.c ****   {
 616:../STM32F10x_StdPeriph_Lib_V3.5.0/Libraries/STM32F10x_StdPeriph_Driver/src/stm32f10x_tim.c ****     assert_param(IS_TIM_LIST6_PERIPH(TIMx));
 617:../STM32F10x_StdPeriph_Lib_V3.5.0/Libraries/STM32F10x_StdPeriph_Driver/src/stm32f10x_tim.c ****     /* TI2 Configuration */
 618:../STM32F10x_StdPeriph_Lib_V3.5.0/Libraries/STM32F10x_StdPeriph_Driver/src/stm32f10x_tim.c ****     TI2_Config(TIMx, TIM_ICInitStruct->TIM_ICPolarity,
 1214              		.loc 1 618 0
 1215 003a 3B68     		ldr	r3, [r7, #0]
 1216 003c 5988     		ldrh	r1, [r3, #2]
 619:../STM32F10x_StdPeriph_Lib_V3.5.0/Libraries/STM32F10x_StdPeriph_Driver/src/stm32f10x_tim.c ****                TIM_ICInitStruct->TIM_ICSelection,
 1217              		.loc 1 619 0
 1218 003e 3B68     		ldr	r3, [r7, #0]
 618:../STM32F10x_StdPeriph_Lib_V3.5.0/Libraries/STM32F10x_StdPeriph_Driver/src/stm32f10x_tim.c ****     TI2_Config(TIMx, TIM_ICInitStruct->TIM_ICPolarity,
 1219              		.loc 1 618 0
 1220 0040 9A88     		ldrh	r2, [r3, #4]
 620:../STM32F10x_StdPeriph_Lib_V3.5.0/Libraries/STM32F10x_StdPeriph_Driver/src/stm32f10x_tim.c ****                TIM_ICInitStruct->TIM_ICFilter);
 1221              		.loc 1 620 0
 1222 0042 3B68     		ldr	r3, [r7, #0]
 618:../STM32F10x_StdPeriph_Lib_V3.5.0/Libraries/STM32F10x_StdPeriph_Driver/src/stm32f10x_tim.c ****     TI2_Config(TIMx, TIM_ICInitStruct->TIM_ICPolarity,
 1223              		.loc 1 618 0
 1224 0044 1B89     		ldrh	r3, [r3, #8]
 1225 0046 7868     		ldr	r0, [r7, #4]
 1226 0048 FFF7FEFF 		bl	TI2_Config
 621:../STM32F10x_StdPeriph_Lib_V3.5.0/Libraries/STM32F10x_StdPeriph_Driver/src/stm32f10x_tim.c ****     /* Set the Input Capture Prescaler value */
 622:../STM32F10x_StdPeriph_Lib_V3.5.0/Libraries/STM32F10x_StdPeriph_Driver/src/stm32f10x_tim.c ****     TIM_SetIC2Prescaler(TIMx, TIM_ICInitStruct->TIM_ICPrescaler);
 1227              		.loc 1 622 0
 1228 004c 3B68     		ldr	r3, [r7, #0]
 1229 004e DB88     		ldrh	r3, [r3, #6]
 1230 0050 7868     		ldr	r0, [r7, #4]
 1231 0052 1946     		mov	r1, r3
 1232 0054 FFF7FEFF 		bl	TIM_SetIC2Prescaler
 1233 0058 22E0     		b	.L49
 1234              	.L52:
 623:../STM32F10x_StdPeriph_Lib_V3.5.0/Libraries/STM32F10x_StdPeriph_Driver/src/stm32f10x_tim.c ****   }
 624:../STM32F10x_StdPeriph_Lib_V3.5.0/Libraries/STM32F10x_StdPeriph_Driver/src/stm32f10x_tim.c ****   else if (TIM_ICInitStruct->TIM_Channel == TIM_Channel_3)
 1235              		.loc 1 624 0
 1236 005a 3B68     		ldr	r3, [r7, #0]
 1237 005c 1B88     		ldrh	r3, [r3, #0]
 1238 005e 082B     		cmp	r3, #8
 1239 0060 0FD1     		bne	.L53
 625:../STM32F10x_StdPeriph_Lib_V3.5.0/Libraries/STM32F10x_StdPeriph_Driver/src/stm32f10x_tim.c ****   {
 626:../STM32F10x_StdPeriph_Lib_V3.5.0/Libraries/STM32F10x_StdPeriph_Driver/src/stm32f10x_tim.c ****     assert_param(IS_TIM_LIST3_PERIPH(TIMx));
 627:../STM32F10x_StdPeriph_Lib_V3.5.0/Libraries/STM32F10x_StdPeriph_Driver/src/stm32f10x_tim.c ****     /* TI3 Configuration */
 628:../STM32F10x_StdPeriph_Lib_V3.5.0/Libraries/STM32F10x_StdPeriph_Driver/src/stm32f10x_tim.c ****     TI3_Config(TIMx,  TIM_ICInitStruct->TIM_ICPolarity,
 1240              		.loc 1 628 0
 1241 0062 3B68     		ldr	r3, [r7, #0]
 1242 0064 5988     		ldrh	r1, [r3, #2]
 629:../STM32F10x_StdPeriph_Lib_V3.5.0/Libraries/STM32F10x_StdPeriph_Driver/src/stm32f10x_tim.c ****                TIM_ICInitStruct->TIM_ICSelection,
 1243              		.loc 1 629 0
 1244 0066 3B68     		ldr	r3, [r7, #0]
 628:../STM32F10x_StdPeriph_Lib_V3.5.0/Libraries/STM32F10x_StdPeriph_Driver/src/stm32f10x_tim.c ****     TI3_Config(TIMx,  TIM_ICInitStruct->TIM_ICPolarity,
 1245              		.loc 1 628 0
 1246 0068 9A88     		ldrh	r2, [r3, #4]
 630:../STM32F10x_StdPeriph_Lib_V3.5.0/Libraries/STM32F10x_StdPeriph_Driver/src/stm32f10x_tim.c ****                TIM_ICInitStruct->TIM_ICFilter);
 1247              		.loc 1 630 0
 1248 006a 3B68     		ldr	r3, [r7, #0]
 628:../STM32F10x_StdPeriph_Lib_V3.5.0/Libraries/STM32F10x_StdPeriph_Driver/src/stm32f10x_tim.c ****     TI3_Config(TIMx,  TIM_ICInitStruct->TIM_ICPolarity,
 1249              		.loc 1 628 0
 1250 006c 1B89     		ldrh	r3, [r3, #8]
 1251 006e 7868     		ldr	r0, [r7, #4]
 1252 0070 FFF7FEFF 		bl	TI3_Config
 631:../STM32F10x_StdPeriph_Lib_V3.5.0/Libraries/STM32F10x_StdPeriph_Driver/src/stm32f10x_tim.c ****     /* Set the Input Capture Prescaler value */
 632:../STM32F10x_StdPeriph_Lib_V3.5.0/Libraries/STM32F10x_StdPeriph_Driver/src/stm32f10x_tim.c ****     TIM_SetIC3Prescaler(TIMx, TIM_ICInitStruct->TIM_ICPrescaler);
 1253              		.loc 1 632 0
 1254 0074 3B68     		ldr	r3, [r7, #0]
 1255 0076 DB88     		ldrh	r3, [r3, #6]
 1256 0078 7868     		ldr	r0, [r7, #4]
 1257 007a 1946     		mov	r1, r3
 1258 007c FFF7FEFF 		bl	TIM_SetIC3Prescaler
 1259 0080 0EE0     		b	.L49
 1260              	.L53:
 633:../STM32F10x_StdPeriph_Lib_V3.5.0/Libraries/STM32F10x_StdPeriph_Driver/src/stm32f10x_tim.c ****   }
 634:../STM32F10x_StdPeriph_Lib_V3.5.0/Libraries/STM32F10x_StdPeriph_Driver/src/stm32f10x_tim.c ****   else
 635:../STM32F10x_StdPeriph_Lib_V3.5.0/Libraries/STM32F10x_StdPeriph_Driver/src/stm32f10x_tim.c ****   {
 636:../STM32F10x_StdPeriph_Lib_V3.5.0/Libraries/STM32F10x_StdPeriph_Driver/src/stm32f10x_tim.c ****     assert_param(IS_TIM_LIST3_PERIPH(TIMx));
 637:../STM32F10x_StdPeriph_Lib_V3.5.0/Libraries/STM32F10x_StdPeriph_Driver/src/stm32f10x_tim.c ****     /* TI4 Configuration */
 638:../STM32F10x_StdPeriph_Lib_V3.5.0/Libraries/STM32F10x_StdPeriph_Driver/src/stm32f10x_tim.c ****     TI4_Config(TIMx, TIM_ICInitStruct->TIM_ICPolarity,
 1261              		.loc 1 638 0
 1262 0082 3B68     		ldr	r3, [r7, #0]
 1263 0084 5988     		ldrh	r1, [r3, #2]
 639:../STM32F10x_StdPeriph_Lib_V3.5.0/Libraries/STM32F10x_StdPeriph_Driver/src/stm32f10x_tim.c ****                TIM_ICInitStruct->TIM_ICSelection,
 1264              		.loc 1 639 0
 1265 0086 3B68     		ldr	r3, [r7, #0]
 638:../STM32F10x_StdPeriph_Lib_V3.5.0/Libraries/STM32F10x_StdPeriph_Driver/src/stm32f10x_tim.c ****     TI4_Config(TIMx, TIM_ICInitStruct->TIM_ICPolarity,
 1266              		.loc 1 638 0
 1267 0088 9A88     		ldrh	r2, [r3, #4]
 640:../STM32F10x_StdPeriph_Lib_V3.5.0/Libraries/STM32F10x_StdPeriph_Driver/src/stm32f10x_tim.c ****                TIM_ICInitStruct->TIM_ICFilter);
 1268              		.loc 1 640 0
 1269 008a 3B68     		ldr	r3, [r7, #0]
 638:../STM32F10x_StdPeriph_Lib_V3.5.0/Libraries/STM32F10x_StdPeriph_Driver/src/stm32f10x_tim.c ****     TI4_Config(TIMx, TIM_ICInitStruct->TIM_ICPolarity,
 1270              		.loc 1 638 0
 1271 008c 1B89     		ldrh	r3, [r3, #8]
 1272 008e 7868     		ldr	r0, [r7, #4]
 1273 0090 FFF7FEFF 		bl	TI4_Config
 641:../STM32F10x_StdPeriph_Lib_V3.5.0/Libraries/STM32F10x_StdPeriph_Driver/src/stm32f10x_tim.c ****     /* Set the Input Capture Prescaler value */
 642:../STM32F10x_StdPeriph_Lib_V3.5.0/Libraries/STM32F10x_StdPeriph_Driver/src/stm32f10x_tim.c ****     TIM_SetIC4Prescaler(TIMx, TIM_ICInitStruct->TIM_ICPrescaler);
 1274              		.loc 1 642 0
 1275 0094 3B68     		ldr	r3, [r7, #0]
 1276 0096 DB88     		ldrh	r3, [r3, #6]
 1277 0098 7868     		ldr	r0, [r7, #4]
 1278 009a 1946     		mov	r1, r3
 1279 009c FFF7FEFF 		bl	TIM_SetIC4Prescaler
 1280              	.L49:
 643:../STM32F10x_StdPeriph_Lib_V3.5.0/Libraries/STM32F10x_StdPeriph_Driver/src/stm32f10x_tim.c ****   }
 644:../STM32F10x_StdPeriph_Lib_V3.5.0/Libraries/STM32F10x_StdPeriph_Driver/src/stm32f10x_tim.c **** }
 1281              		.loc 1 644 0
 1282 00a0 07F10807 		add	r7, r7, #8
 1283 00a4 BD46     		mov	sp, r7
 1284 00a6 80BD     		pop	{r7, pc}
 1285              		.cfi_endproc
 1286              	.LFE35:
 1288              		.section	.text.TIM_PWMIConfig,"ax",%progbits
 1289              		.align	2
 1290              		.global	TIM_PWMIConfig
 1291              		.thumb
 1292              		.thumb_func
 1294              	TIM_PWMIConfig:
 1295              	.LFB36:
 645:../STM32F10x_StdPeriph_Lib_V3.5.0/Libraries/STM32F10x_StdPeriph_Driver/src/stm32f10x_tim.c **** 
 646:../STM32F10x_StdPeriph_Lib_V3.5.0/Libraries/STM32F10x_StdPeriph_Driver/src/stm32f10x_tim.c **** /**
 647:../STM32F10x_StdPeriph_Lib_V3.5.0/Libraries/STM32F10x_StdPeriph_Driver/src/stm32f10x_tim.c ****   * @brief  Configures the TIM peripheral according to the specified
 648:../STM32F10x_StdPeriph_Lib_V3.5.0/Libraries/STM32F10x_StdPeriph_Driver/src/stm32f10x_tim.c ****   *         parameters in the TIM_ICInitStruct to measure an external PWM signal.
 649:../STM32F10x_StdPeriph_Lib_V3.5.0/Libraries/STM32F10x_StdPeriph_Driver/src/stm32f10x_tim.c ****   * @param  TIMx: where x can be  1, 2, 3, 4, 5, 8, 9, 12 or 15 to select the TIM peripheral.
 650:../STM32F10x_StdPeriph_Lib_V3.5.0/Libraries/STM32F10x_StdPeriph_Driver/src/stm32f10x_tim.c ****   * @param  TIM_ICInitStruct: pointer to a TIM_ICInitTypeDef structure
 651:../STM32F10x_StdPeriph_Lib_V3.5.0/Libraries/STM32F10x_StdPeriph_Driver/src/stm32f10x_tim.c ****   *         that contains the configuration information for the specified TIM peripheral.
 652:../STM32F10x_StdPeriph_Lib_V3.5.0/Libraries/STM32F10x_StdPeriph_Driver/src/stm32f10x_tim.c ****   * @retval None
 653:../STM32F10x_StdPeriph_Lib_V3.5.0/Libraries/STM32F10x_StdPeriph_Driver/src/stm32f10x_tim.c ****   */
 654:../STM32F10x_StdPeriph_Lib_V3.5.0/Libraries/STM32F10x_StdPeriph_Driver/src/stm32f10x_tim.c **** void TIM_PWMIConfig(TIM_TypeDef* TIMx, TIM_ICInitTypeDef* TIM_ICInitStruct)
 655:../STM32F10x_StdPeriph_Lib_V3.5.0/Libraries/STM32F10x_StdPeriph_Driver/src/stm32f10x_tim.c **** {
 1296              		.loc 1 655 0
 1297              		.cfi_startproc
 1298              		@ args = 0, pretend = 0, frame = 16
 1299              		@ frame_needed = 1, uses_anonymous_args = 0
 1300 0000 80B5     		push	{r7, lr}
 1301              	.LCFI21:
 1302              		.cfi_def_cfa_offset 8
 1303              		.cfi_offset 7, -8
 1304              		.cfi_offset 14, -4
 1305 0002 84B0     		sub	sp, sp, #16
 1306              	.LCFI22:
 1307              		.cfi_def_cfa_offset 24
 1308 0004 00AF     		add	r7, sp, #0
 1309              	.LCFI23:
 1310              		.cfi_def_cfa_register 7
 1311 0006 7860     		str	r0, [r7, #4]
 1312 0008 3960     		str	r1, [r7, #0]
 656:../STM32F10x_StdPeriph_Lib_V3.5.0/Libraries/STM32F10x_StdPeriph_Driver/src/stm32f10x_tim.c ****   uint16_t icoppositepolarity = TIM_ICPolarity_Rising;
 1313              		.loc 1 656 0
 1314 000a 4FF00003 		mov	r3, #0
 1315 000e FB81     		strh	r3, [r7, #14]	@ movhi
 657:../STM32F10x_StdPeriph_Lib_V3.5.0/Libraries/STM32F10x_StdPeriph_Driver/src/stm32f10x_tim.c ****   uint16_t icoppositeselection = TIM_ICSelection_DirectTI;
 1316              		.loc 1 657 0
 1317 0010 4FF00103 		mov	r3, #1
 1318 0014 BB81     		strh	r3, [r7, #12]	@ movhi
 658:../STM32F10x_StdPeriph_Lib_V3.5.0/Libraries/STM32F10x_StdPeriph_Driver/src/stm32f10x_tim.c ****   /* Check the parameters */
 659:../STM32F10x_StdPeriph_Lib_V3.5.0/Libraries/STM32F10x_StdPeriph_Driver/src/stm32f10x_tim.c ****   assert_param(IS_TIM_LIST6_PERIPH(TIMx));
 660:../STM32F10x_StdPeriph_Lib_V3.5.0/Libraries/STM32F10x_StdPeriph_Driver/src/stm32f10x_tim.c ****   /* Select the Opposite Input Polarity */
 661:../STM32F10x_StdPeriph_Lib_V3.5.0/Libraries/STM32F10x_StdPeriph_Driver/src/stm32f10x_tim.c ****   if (TIM_ICInitStruct->TIM_ICPolarity == TIM_ICPolarity_Rising)
 1319              		.loc 1 661 0
 1320 0016 3B68     		ldr	r3, [r7, #0]
 1321 0018 5B88     		ldrh	r3, [r3, #2]
 1322 001a 002B     		cmp	r3, #0
 1323 001c 03D1     		bne	.L55
 662:../STM32F10x_StdPeriph_Lib_V3.5.0/Libraries/STM32F10x_StdPeriph_Driver/src/stm32f10x_tim.c ****   {
 663:../STM32F10x_StdPeriph_Lib_V3.5.0/Libraries/STM32F10x_StdPeriph_Driver/src/stm32f10x_tim.c ****     icoppositepolarity = TIM_ICPolarity_Falling;
 1324              		.loc 1 663 0
 1325 001e 4FF00203 		mov	r3, #2
 1326 0022 FB81     		strh	r3, [r7, #14]	@ movhi
 1327 0024 02E0     		b	.L56
 1328              	.L55:
 664:../STM32F10x_StdPeriph_Lib_V3.5.0/Libraries/STM32F10x_StdPeriph_Driver/src/stm32f10x_tim.c ****   }
 665:../STM32F10x_StdPeriph_Lib_V3.5.0/Libraries/STM32F10x_StdPeriph_Driver/src/stm32f10x_tim.c ****   else
 666:../STM32F10x_StdPeriph_Lib_V3.5.0/Libraries/STM32F10x_StdPeriph_Driver/src/stm32f10x_tim.c ****   {
 667:../STM32F10x_StdPeriph_Lib_V3.5.0/Libraries/STM32F10x_StdPeriph_Driver/src/stm32f10x_tim.c ****     icoppositepolarity = TIM_ICPolarity_Rising;
 1329              		.loc 1 667 0
 1330 0026 4FF00003 		mov	r3, #0
 1331 002a FB81     		strh	r3, [r7, #14]	@ movhi
 1332              	.L56:
 668:../STM32F10x_StdPeriph_Lib_V3.5.0/Libraries/STM32F10x_StdPeriph_Driver/src/stm32f10x_tim.c ****   }
 669:../STM32F10x_StdPeriph_Lib_V3.5.0/Libraries/STM32F10x_StdPeriph_Driver/src/stm32f10x_tim.c ****   /* Select the Opposite Input */
 670:../STM32F10x_StdPeriph_Lib_V3.5.0/Libraries/STM32F10x_StdPeriph_Driver/src/stm32f10x_tim.c ****   if (TIM_ICInitStruct->TIM_ICSelection == TIM_ICSelection_DirectTI)
 1333              		.loc 1 670 0
 1334 002c 3B68     		ldr	r3, [r7, #0]
 1335 002e 9B88     		ldrh	r3, [r3, #4]
 1336 0030 012B     		cmp	r3, #1
 1337 0032 03D1     		bne	.L57
 671:../STM32F10x_StdPeriph_Lib_V3.5.0/Libraries/STM32F10x_StdPeriph_Driver/src/stm32f10x_tim.c ****   {
 672:../STM32F10x_StdPeriph_Lib_V3.5.0/Libraries/STM32F10x_StdPeriph_Driver/src/stm32f10x_tim.c ****     icoppositeselection = TIM_ICSelection_IndirectTI;
 1338              		.loc 1 672 0
 1339 0034 4FF00203 		mov	r3, #2
 1340 0038 BB81     		strh	r3, [r7, #12]	@ movhi
 1341 003a 02E0     		b	.L58
 1342              	.L57:
 673:../STM32F10x_StdPeriph_Lib_V3.5.0/Libraries/STM32F10x_StdPeriph_Driver/src/stm32f10x_tim.c ****   }
 674:../STM32F10x_StdPeriph_Lib_V3.5.0/Libraries/STM32F10x_StdPeriph_Driver/src/stm32f10x_tim.c ****   else
 675:../STM32F10x_StdPeriph_Lib_V3.5.0/Libraries/STM32F10x_StdPeriph_Driver/src/stm32f10x_tim.c ****   {
 676:../STM32F10x_StdPeriph_Lib_V3.5.0/Libraries/STM32F10x_StdPeriph_Driver/src/stm32f10x_tim.c ****     icoppositeselection = TIM_ICSelection_DirectTI;
 1343              		.loc 1 676 0
 1344 003c 4FF00103 		mov	r3, #1
 1345 0040 BB81     		strh	r3, [r7, #12]	@ movhi
 1346              	.L58:
 677:../STM32F10x_StdPeriph_Lib_V3.5.0/Libraries/STM32F10x_StdPeriph_Driver/src/stm32f10x_tim.c ****   }
 678:../STM32F10x_StdPeriph_Lib_V3.5.0/Libraries/STM32F10x_StdPeriph_Driver/src/stm32f10x_tim.c ****   if (TIM_ICInitStruct->TIM_Channel == TIM_Channel_1)
 1347              		.loc 1 678 0
 1348 0042 3B68     		ldr	r3, [r7, #0]
 1349 0044 1B88     		ldrh	r3, [r3, #0]
 1350 0046 002B     		cmp	r3, #0
 1351 0048 1CD1     		bne	.L59
 679:../STM32F10x_StdPeriph_Lib_V3.5.0/Libraries/STM32F10x_StdPeriph_Driver/src/stm32f10x_tim.c ****   {
 680:../STM32F10x_StdPeriph_Lib_V3.5.0/Libraries/STM32F10x_StdPeriph_Driver/src/stm32f10x_tim.c ****     /* TI1 Configuration */
 681:../STM32F10x_StdPeriph_Lib_V3.5.0/Libraries/STM32F10x_StdPeriph_Driver/src/stm32f10x_tim.c ****     TI1_Config(TIMx, TIM_ICInitStruct->TIM_ICPolarity, TIM_ICInitStruct->TIM_ICSelection,
 1352              		.loc 1 681 0
 1353 004a 3B68     		ldr	r3, [r7, #0]
 1354 004c 5988     		ldrh	r1, [r3, #2]
 1355 004e 3B68     		ldr	r3, [r7, #0]
 1356 0050 9A88     		ldrh	r2, [r3, #4]
 682:../STM32F10x_StdPeriph_Lib_V3.5.0/Libraries/STM32F10x_StdPeriph_Driver/src/stm32f10x_tim.c ****                TIM_ICInitStruct->TIM_ICFilter);
 1357              		.loc 1 682 0
 1358 0052 3B68     		ldr	r3, [r7, #0]
 681:../STM32F10x_StdPeriph_Lib_V3.5.0/Libraries/STM32F10x_StdPeriph_Driver/src/stm32f10x_tim.c ****     TI1_Config(TIMx, TIM_ICInitStruct->TIM_ICPolarity, TIM_ICInitStruct->TIM_ICSelection,
 1359              		.loc 1 681 0
 1360 0054 1B89     		ldrh	r3, [r3, #8]
 1361 0056 7868     		ldr	r0, [r7, #4]
 1362 0058 FFF7FEFF 		bl	TI1_Config
 683:../STM32F10x_StdPeriph_Lib_V3.5.0/Libraries/STM32F10x_StdPeriph_Driver/src/stm32f10x_tim.c ****     /* Set the Input Capture Prescaler value */
 684:../STM32F10x_StdPeriph_Lib_V3.5.0/Libraries/STM32F10x_StdPeriph_Driver/src/stm32f10x_tim.c ****     TIM_SetIC1Prescaler(TIMx, TIM_ICInitStruct->TIM_ICPrescaler);
 1363              		.loc 1 684 0
 1364 005c 3B68     		ldr	r3, [r7, #0]
 1365 005e DB88     		ldrh	r3, [r3, #6]
 1366 0060 7868     		ldr	r0, [r7, #4]
 1367 0062 1946     		mov	r1, r3
 1368 0064 FFF7FEFF 		bl	TIM_SetIC1Prescaler
 685:../STM32F10x_StdPeriph_Lib_V3.5.0/Libraries/STM32F10x_StdPeriph_Driver/src/stm32f10x_tim.c ****     /* TI2 Configuration */
 686:../STM32F10x_StdPeriph_Lib_V3.5.0/Libraries/STM32F10x_StdPeriph_Driver/src/stm32f10x_tim.c ****     TI2_Config(TIMx, icoppositepolarity, icoppositeselection, TIM_ICInitStruct->TIM_ICFilter);
 1369              		.loc 1 686 0
 1370 0068 3B68     		ldr	r3, [r7, #0]
 1371 006a 1B89     		ldrh	r3, [r3, #8]
 1372 006c F989     		ldrh	r1, [r7, #14]
 1373 006e BA89     		ldrh	r2, [r7, #12]
 1374 0070 7868     		ldr	r0, [r7, #4]
 1375 0072 FFF7FEFF 		bl	TI2_Config
 687:../STM32F10x_StdPeriph_Lib_V3.5.0/Libraries/STM32F10x_StdPeriph_Driver/src/stm32f10x_tim.c ****     /* Set the Input Capture Prescaler value */
 688:../STM32F10x_StdPeriph_Lib_V3.5.0/Libraries/STM32F10x_StdPeriph_Driver/src/stm32f10x_tim.c ****     TIM_SetIC2Prescaler(TIMx, TIM_ICInitStruct->TIM_ICPrescaler);
 1376              		.loc 1 688 0
 1377 0076 3B68     		ldr	r3, [r7, #0]
 1378 0078 DB88     		ldrh	r3, [r3, #6]
 1379 007a 7868     		ldr	r0, [r7, #4]
 1380 007c 1946     		mov	r1, r3
 1381 007e FFF7FEFF 		bl	TIM_SetIC2Prescaler
 1382 0082 1BE0     		b	.L54
 1383              	.L59:
 689:../STM32F10x_StdPeriph_Lib_V3.5.0/Libraries/STM32F10x_StdPeriph_Driver/src/stm32f10x_tim.c ****   }
 690:../STM32F10x_StdPeriph_Lib_V3.5.0/Libraries/STM32F10x_StdPeriph_Driver/src/stm32f10x_tim.c ****   else
 691:../STM32F10x_StdPeriph_Lib_V3.5.0/Libraries/STM32F10x_StdPeriph_Driver/src/stm32f10x_tim.c ****   { 
 692:../STM32F10x_StdPeriph_Lib_V3.5.0/Libraries/STM32F10x_StdPeriph_Driver/src/stm32f10x_tim.c ****     /* TI2 Configuration */
 693:../STM32F10x_StdPeriph_Lib_V3.5.0/Libraries/STM32F10x_StdPeriph_Driver/src/stm32f10x_tim.c ****     TI2_Config(TIMx, TIM_ICInitStruct->TIM_ICPolarity, TIM_ICInitStruct->TIM_ICSelection,
 1384              		.loc 1 693 0
 1385 0084 3B68     		ldr	r3, [r7, #0]
 1386 0086 5988     		ldrh	r1, [r3, #2]
 1387 0088 3B68     		ldr	r3, [r7, #0]
 1388 008a 9A88     		ldrh	r2, [r3, #4]
 694:../STM32F10x_StdPeriph_Lib_V3.5.0/Libraries/STM32F10x_StdPeriph_Driver/src/stm32f10x_tim.c ****                TIM_ICInitStruct->TIM_ICFilter);
 1389              		.loc 1 694 0
 1390 008c 3B68     		ldr	r3, [r7, #0]
 693:../STM32F10x_StdPeriph_Lib_V3.5.0/Libraries/STM32F10x_StdPeriph_Driver/src/stm32f10x_tim.c ****     TI2_Config(TIMx, TIM_ICInitStruct->TIM_ICPolarity, TIM_ICInitStruct->TIM_ICSelection,
 1391              		.loc 1 693 0
 1392 008e 1B89     		ldrh	r3, [r3, #8]
 1393 0090 7868     		ldr	r0, [r7, #4]
 1394 0092 FFF7FEFF 		bl	TI2_Config
 695:../STM32F10x_StdPeriph_Lib_V3.5.0/Libraries/STM32F10x_StdPeriph_Driver/src/stm32f10x_tim.c ****     /* Set the Input Capture Prescaler value */
 696:../STM32F10x_StdPeriph_Lib_V3.5.0/Libraries/STM32F10x_StdPeriph_Driver/src/stm32f10x_tim.c ****     TIM_SetIC2Prescaler(TIMx, TIM_ICInitStruct->TIM_ICPrescaler);
 1395              		.loc 1 696 0
 1396 0096 3B68     		ldr	r3, [r7, #0]
 1397 0098 DB88     		ldrh	r3, [r3, #6]
 1398 009a 7868     		ldr	r0, [r7, #4]
 1399 009c 1946     		mov	r1, r3
 1400 009e FFF7FEFF 		bl	TIM_SetIC2Prescaler
 697:../STM32F10x_StdPeriph_Lib_V3.5.0/Libraries/STM32F10x_StdPeriph_Driver/src/stm32f10x_tim.c ****     /* TI1 Configuration */
 698:../STM32F10x_StdPeriph_Lib_V3.5.0/Libraries/STM32F10x_StdPeriph_Driver/src/stm32f10x_tim.c ****     TI1_Config(TIMx, icoppositepolarity, icoppositeselection, TIM_ICInitStruct->TIM_ICFilter);
 1401              		.loc 1 698 0
 1402 00a2 3B68     		ldr	r3, [r7, #0]
 1403 00a4 1B89     		ldrh	r3, [r3, #8]
 1404 00a6 F989     		ldrh	r1, [r7, #14]
 1405 00a8 BA89     		ldrh	r2, [r7, #12]
 1406 00aa 7868     		ldr	r0, [r7, #4]
 1407 00ac FFF7FEFF 		bl	TI1_Config
 699:../STM32F10x_StdPeriph_Lib_V3.5.0/Libraries/STM32F10x_StdPeriph_Driver/src/stm32f10x_tim.c ****     /* Set the Input Capture Prescaler value */
 700:../STM32F10x_StdPeriph_Lib_V3.5.0/Libraries/STM32F10x_StdPeriph_Driver/src/stm32f10x_tim.c ****     TIM_SetIC1Prescaler(TIMx, TIM_ICInitStruct->TIM_ICPrescaler);
 1408              		.loc 1 700 0
 1409 00b0 3B68     		ldr	r3, [r7, #0]
 1410 00b2 DB88     		ldrh	r3, [r3, #6]
 1411 00b4 7868     		ldr	r0, [r7, #4]
 1412 00b6 1946     		mov	r1, r3
 1413 00b8 FFF7FEFF 		bl	TIM_SetIC1Prescaler
 1414              	.L54:
 701:../STM32F10x_StdPeriph_Lib_V3.5.0/Libraries/STM32F10x_StdPeriph_Driver/src/stm32f10x_tim.c ****   }
 702:../STM32F10x_StdPeriph_Lib_V3.5.0/Libraries/STM32F10x_StdPeriph_Driver/src/stm32f10x_tim.c **** }
 1415              		.loc 1 702 0
 1416 00bc 07F11007 		add	r7, r7, #16
 1417 00c0 BD46     		mov	sp, r7
 1418 00c2 80BD     		pop	{r7, pc}
 1419              		.cfi_endproc
 1420              	.LFE36:
 1422              		.section	.text.TIM_BDTRConfig,"ax",%progbits
 1423              		.align	2
 1424              		.global	TIM_BDTRConfig
 1425              		.thumb
 1426              		.thumb_func
 1428              	TIM_BDTRConfig:
 1429              	.LFB37:
 703:../STM32F10x_StdPeriph_Lib_V3.5.0/Libraries/STM32F10x_StdPeriph_Driver/src/stm32f10x_tim.c **** 
 704:../STM32F10x_StdPeriph_Lib_V3.5.0/Libraries/STM32F10x_StdPeriph_Driver/src/stm32f10x_tim.c **** /**
 705:../STM32F10x_StdPeriph_Lib_V3.5.0/Libraries/STM32F10x_StdPeriph_Driver/src/stm32f10x_tim.c ****   * @brief  Configures the: Break feature, dead time, Lock level, the OSSI,
 706:../STM32F10x_StdPeriph_Lib_V3.5.0/Libraries/STM32F10x_StdPeriph_Driver/src/stm32f10x_tim.c ****   *         the OSSR State and the AOE(automatic output enable).
 707:../STM32F10x_StdPeriph_Lib_V3.5.0/Libraries/STM32F10x_StdPeriph_Driver/src/stm32f10x_tim.c ****   * @param  TIMx: where x can be  1 or 8 to select the TIM 
 708:../STM32F10x_StdPeriph_Lib_V3.5.0/Libraries/STM32F10x_StdPeriph_Driver/src/stm32f10x_tim.c ****   * @param  TIM_BDTRInitStruct: pointer to a TIM_BDTRInitTypeDef structure that
 709:../STM32F10x_StdPeriph_Lib_V3.5.0/Libraries/STM32F10x_StdPeriph_Driver/src/stm32f10x_tim.c ****   *         contains the BDTR Register configuration  information for the TIM peripheral.
 710:../STM32F10x_StdPeriph_Lib_V3.5.0/Libraries/STM32F10x_StdPeriph_Driver/src/stm32f10x_tim.c ****   * @retval None
 711:../STM32F10x_StdPeriph_Lib_V3.5.0/Libraries/STM32F10x_StdPeriph_Driver/src/stm32f10x_tim.c ****   */
 712:../STM32F10x_StdPeriph_Lib_V3.5.0/Libraries/STM32F10x_StdPeriph_Driver/src/stm32f10x_tim.c **** void TIM_BDTRConfig(TIM_TypeDef* TIMx, TIM_BDTRInitTypeDef *TIM_BDTRInitStruct)
 713:../STM32F10x_StdPeriph_Lib_V3.5.0/Libraries/STM32F10x_StdPeriph_Driver/src/stm32f10x_tim.c **** {
 1430              		.loc 1 713 0
 1431              		.cfi_startproc
 1432              		@ args = 0, pretend = 0, frame = 8
 1433              		@ frame_needed = 1, uses_anonymous_args = 0
 1434              		@ link register save eliminated.
 1435 0000 80B4     		push	{r7}
 1436              	.LCFI24:
 1437              		.cfi_def_cfa_offset 4
 1438              		.cfi_offset 7, -4
 1439 0002 83B0     		sub	sp, sp, #12
 1440              	.LCFI25:
 1441              		.cfi_def_cfa_offset 16
 1442 0004 00AF     		add	r7, sp, #0
 1443              	.LCFI26:
 1444              		.cfi_def_cfa_register 7
 1445 0006 7860     		str	r0, [r7, #4]
 1446 0008 3960     		str	r1, [r7, #0]
 714:../STM32F10x_StdPeriph_Lib_V3.5.0/Libraries/STM32F10x_StdPeriph_Driver/src/stm32f10x_tim.c ****   /* Check the parameters */
 715:../STM32F10x_StdPeriph_Lib_V3.5.0/Libraries/STM32F10x_StdPeriph_Driver/src/stm32f10x_tim.c ****   assert_param(IS_TIM_LIST2_PERIPH(TIMx));
 716:../STM32F10x_StdPeriph_Lib_V3.5.0/Libraries/STM32F10x_StdPeriph_Driver/src/stm32f10x_tim.c ****   assert_param(IS_TIM_OSSR_STATE(TIM_BDTRInitStruct->TIM_OSSRState));
 717:../STM32F10x_StdPeriph_Lib_V3.5.0/Libraries/STM32F10x_StdPeriph_Driver/src/stm32f10x_tim.c ****   assert_param(IS_TIM_OSSI_STATE(TIM_BDTRInitStruct->TIM_OSSIState));
 718:../STM32F10x_StdPeriph_Lib_V3.5.0/Libraries/STM32F10x_StdPeriph_Driver/src/stm32f10x_tim.c ****   assert_param(IS_TIM_LOCK_LEVEL(TIM_BDTRInitStruct->TIM_LOCKLevel));
 719:../STM32F10x_StdPeriph_Lib_V3.5.0/Libraries/STM32F10x_StdPeriph_Driver/src/stm32f10x_tim.c ****   assert_param(IS_TIM_BREAK_STATE(TIM_BDTRInitStruct->TIM_Break));
 720:../STM32F10x_StdPeriph_Lib_V3.5.0/Libraries/STM32F10x_StdPeriph_Driver/src/stm32f10x_tim.c ****   assert_param(IS_TIM_BREAK_POLARITY(TIM_BDTRInitStruct->TIM_BreakPolarity));
 721:../STM32F10x_StdPeriph_Lib_V3.5.0/Libraries/STM32F10x_StdPeriph_Driver/src/stm32f10x_tim.c ****   assert_param(IS_TIM_AUTOMATIC_OUTPUT_STATE(TIM_BDTRInitStruct->TIM_AutomaticOutput));
 722:../STM32F10x_StdPeriph_Lib_V3.5.0/Libraries/STM32F10x_StdPeriph_Driver/src/stm32f10x_tim.c ****   /* Set the Lock level, the Break enable Bit and the Ploarity, the OSSR State,
 723:../STM32F10x_StdPeriph_Lib_V3.5.0/Libraries/STM32F10x_StdPeriph_Driver/src/stm32f10x_tim.c ****      the OSSI State, the dead time value and the Automatic Output Enable Bit */
 724:../STM32F10x_StdPeriph_Lib_V3.5.0/Libraries/STM32F10x_StdPeriph_Driver/src/stm32f10x_tim.c ****   TIMx->BDTR = (uint32_t)TIM_BDTRInitStruct->TIM_OSSRState | TIM_BDTRInitStruct->TIM_OSSIState |
 1447              		.loc 1 724 0
 1448 000a 3B68     		ldr	r3, [r7, #0]
 1449 000c 1A88     		ldrh	r2, [r3, #0]
 1450 000e 3B68     		ldr	r3, [r7, #0]
 1451 0010 5B88     		ldrh	r3, [r3, #2]
 1452 0012 1343     		orrs	r3, r3, r2
 1453 0014 9AB2     		uxth	r2, r3
 725:../STM32F10x_StdPeriph_Lib_V3.5.0/Libraries/STM32F10x_StdPeriph_Driver/src/stm32f10x_tim.c ****              TIM_BDTRInitStruct->TIM_LOCKLevel | TIM_BDTRInitStruct->TIM_DeadTime |
 1454              		.loc 1 725 0
 1455 0016 3B68     		ldr	r3, [r7, #0]
 1456 0018 9B88     		ldrh	r3, [r3, #4]
 724:../STM32F10x_StdPeriph_Lib_V3.5.0/Libraries/STM32F10x_StdPeriph_Driver/src/stm32f10x_tim.c ****   TIMx->BDTR = (uint32_t)TIM_BDTRInitStruct->TIM_OSSRState | TIM_BDTRInitStruct->TIM_OSSIState |
 1457              		.loc 1 724 0
 1458 001a 1343     		orrs	r3, r3, r2
 1459 001c 9AB2     		uxth	r2, r3
 1460              		.loc 1 725 0
 1461 001e 3B68     		ldr	r3, [r7, #0]
 1462 0020 DB88     		ldrh	r3, [r3, #6]
 724:../STM32F10x_StdPeriph_Lib_V3.5.0/Libraries/STM32F10x_StdPeriph_Driver/src/stm32f10x_tim.c ****   TIMx->BDTR = (uint32_t)TIM_BDTRInitStruct->TIM_OSSRState | TIM_BDTRInitStruct->TIM_OSSIState |
 1463              		.loc 1 724 0
 1464 0022 1343     		orrs	r3, r3, r2
 1465 0024 9AB2     		uxth	r2, r3
 726:../STM32F10x_StdPeriph_Lib_V3.5.0/Libraries/STM32F10x_StdPeriph_Driver/src/stm32f10x_tim.c ****              TIM_BDTRInitStruct->TIM_Break | TIM_BDTRInitStruct->TIM_BreakPolarity |
 1466              		.loc 1 726 0
 1467 0026 3B68     		ldr	r3, [r7, #0]
 1468 0028 1B89     		ldrh	r3, [r3, #8]
 724:../STM32F10x_StdPeriph_Lib_V3.5.0/Libraries/STM32F10x_StdPeriph_Driver/src/stm32f10x_tim.c ****   TIMx->BDTR = (uint32_t)TIM_BDTRInitStruct->TIM_OSSRState | TIM_BDTRInitStruct->TIM_OSSIState |
 1469              		.loc 1 724 0
 1470 002a 1343     		orrs	r3, r3, r2
 1471 002c 9AB2     		uxth	r2, r3
 1472              		.loc 1 726 0
 1473 002e 3B68     		ldr	r3, [r7, #0]
 1474 0030 5B89     		ldrh	r3, [r3, #10]
 724:../STM32F10x_StdPeriph_Lib_V3.5.0/Libraries/STM32F10x_StdPeriph_Driver/src/stm32f10x_tim.c ****   TIMx->BDTR = (uint32_t)TIM_BDTRInitStruct->TIM_OSSRState | TIM_BDTRInitStruct->TIM_OSSIState |
 1475              		.loc 1 724 0
 1476 0032 1343     		orrs	r3, r3, r2
 1477 0034 9AB2     		uxth	r2, r3
 727:../STM32F10x_StdPeriph_Lib_V3.5.0/Libraries/STM32F10x_StdPeriph_Driver/src/stm32f10x_tim.c ****              TIM_BDTRInitStruct->TIM_AutomaticOutput;
 1478              		.loc 1 727 0
 1479 0036 3B68     		ldr	r3, [r7, #0]
 1480 0038 9B89     		ldrh	r3, [r3, #12]
 724:../STM32F10x_StdPeriph_Lib_V3.5.0/Libraries/STM32F10x_StdPeriph_Driver/src/stm32f10x_tim.c ****   TIMx->BDTR = (uint32_t)TIM_BDTRInitStruct->TIM_OSSRState | TIM_BDTRInitStruct->TIM_OSSIState |
 1481              		.loc 1 724 0
 1482 003a 1343     		orrs	r3, r3, r2
 1483 003c 9AB2     		uxth	r2, r3
 1484 003e 7B68     		ldr	r3, [r7, #4]
 1485 0040 A3F84420 		strh	r2, [r3, #68]	@ movhi
 728:../STM32F10x_StdPeriph_Lib_V3.5.0/Libraries/STM32F10x_StdPeriph_Driver/src/stm32f10x_tim.c **** }
 1486              		.loc 1 728 0
 1487 0044 07F10C07 		add	r7, r7, #12
 1488 0048 BD46     		mov	sp, r7
 1489 004a 80BC     		pop	{r7}
 1490 004c 7047     		bx	lr
 1491              		.cfi_endproc
 1492              	.LFE37:
 1494 004e 00BF     		.section	.text.TIM_TimeBaseStructInit,"ax",%progbits
 1495              		.align	2
 1496              		.global	TIM_TimeBaseStructInit
 1497              		.thumb
 1498              		.thumb_func
 1500              	TIM_TimeBaseStructInit:
 1501              	.LFB38:
 729:../STM32F10x_StdPeriph_Lib_V3.5.0/Libraries/STM32F10x_StdPeriph_Driver/src/stm32f10x_tim.c **** 
 730:../STM32F10x_StdPeriph_Lib_V3.5.0/Libraries/STM32F10x_StdPeriph_Driver/src/stm32f10x_tim.c **** /**
 731:../STM32F10x_StdPeriph_Lib_V3.5.0/Libraries/STM32F10x_StdPeriph_Driver/src/stm32f10x_tim.c ****   * @brief  Fills each TIM_TimeBaseInitStruct member with its default value.
 732:../STM32F10x_StdPeriph_Lib_V3.5.0/Libraries/STM32F10x_StdPeriph_Driver/src/stm32f10x_tim.c ****   * @param  TIM_TimeBaseInitStruct : pointer to a TIM_TimeBaseInitTypeDef
 733:../STM32F10x_StdPeriph_Lib_V3.5.0/Libraries/STM32F10x_StdPeriph_Driver/src/stm32f10x_tim.c ****   *         structure which will be initialized.
 734:../STM32F10x_StdPeriph_Lib_V3.5.0/Libraries/STM32F10x_StdPeriph_Driver/src/stm32f10x_tim.c ****   * @retval None
 735:../STM32F10x_StdPeriph_Lib_V3.5.0/Libraries/STM32F10x_StdPeriph_Driver/src/stm32f10x_tim.c ****   */
 736:../STM32F10x_StdPeriph_Lib_V3.5.0/Libraries/STM32F10x_StdPeriph_Driver/src/stm32f10x_tim.c **** void TIM_TimeBaseStructInit(TIM_TimeBaseInitTypeDef* TIM_TimeBaseInitStruct)
 737:../STM32F10x_StdPeriph_Lib_V3.5.0/Libraries/STM32F10x_StdPeriph_Driver/src/stm32f10x_tim.c **** {
 1502              		.loc 1 737 0
 1503              		.cfi_startproc
 1504              		@ args = 0, pretend = 0, frame = 8
 1505              		@ frame_needed = 1, uses_anonymous_args = 0
 1506              		@ link register save eliminated.
 1507 0000 80B4     		push	{r7}
 1508              	.LCFI27:
 1509              		.cfi_def_cfa_offset 4
 1510              		.cfi_offset 7, -4
 1511 0002 83B0     		sub	sp, sp, #12
 1512              	.LCFI28:
 1513              		.cfi_def_cfa_offset 16
 1514 0004 00AF     		add	r7, sp, #0
 1515              	.LCFI29:
 1516              		.cfi_def_cfa_register 7
 1517 0006 7860     		str	r0, [r7, #4]
 738:../STM32F10x_StdPeriph_Lib_V3.5.0/Libraries/STM32F10x_StdPeriph_Driver/src/stm32f10x_tim.c ****   /* Set the default configuration */
 739:../STM32F10x_StdPeriph_Lib_V3.5.0/Libraries/STM32F10x_StdPeriph_Driver/src/stm32f10x_tim.c ****   TIM_TimeBaseInitStruct->TIM_Period = 0xFFFF;
 1518              		.loc 1 739 0
 1519 0008 7B68     		ldr	r3, [r7, #4]
 1520 000a 4FF6FF72 		movw	r2, #65535
 1521 000e 9A80     		strh	r2, [r3, #4]	@ movhi
 740:../STM32F10x_StdPeriph_Lib_V3.5.0/Libraries/STM32F10x_StdPeriph_Driver/src/stm32f10x_tim.c ****   TIM_TimeBaseInitStruct->TIM_Prescaler = 0x0000;
 1522              		.loc 1 740 0
 1523 0010 7B68     		ldr	r3, [r7, #4]
 1524 0012 4FF00002 		mov	r2, #0
 1525 0016 1A80     		strh	r2, [r3, #0]	@ movhi
 741:../STM32F10x_StdPeriph_Lib_V3.5.0/Libraries/STM32F10x_StdPeriph_Driver/src/stm32f10x_tim.c ****   TIM_TimeBaseInitStruct->TIM_ClockDivision = TIM_CKD_DIV1;
 1526              		.loc 1 741 0
 1527 0018 7B68     		ldr	r3, [r7, #4]
 1528 001a 4FF00002 		mov	r2, #0
 1529 001e DA80     		strh	r2, [r3, #6]	@ movhi
 742:../STM32F10x_StdPeriph_Lib_V3.5.0/Libraries/STM32F10x_StdPeriph_Driver/src/stm32f10x_tim.c ****   TIM_TimeBaseInitStruct->TIM_CounterMode = TIM_CounterMode_Up;
 1530              		.loc 1 742 0
 1531 0020 7B68     		ldr	r3, [r7, #4]
 1532 0022 4FF00002 		mov	r2, #0
 1533 0026 5A80     		strh	r2, [r3, #2]	@ movhi
 743:../STM32F10x_StdPeriph_Lib_V3.5.0/Libraries/STM32F10x_StdPeriph_Driver/src/stm32f10x_tim.c ****   TIM_TimeBaseInitStruct->TIM_RepetitionCounter = 0x0000;
 1534              		.loc 1 743 0
 1535 0028 7B68     		ldr	r3, [r7, #4]
 1536 002a 4FF00002 		mov	r2, #0
 1537 002e 1A72     		strb	r2, [r3, #8]
 744:../STM32F10x_StdPeriph_Lib_V3.5.0/Libraries/STM32F10x_StdPeriph_Driver/src/stm32f10x_tim.c **** }
 1538              		.loc 1 744 0
 1539 0030 07F10C07 		add	r7, r7, #12
 1540 0034 BD46     		mov	sp, r7
 1541 0036 80BC     		pop	{r7}
 1542 0038 7047     		bx	lr
 1543              		.cfi_endproc
 1544              	.LFE38:
 1546 003a 00BF     		.section	.text.TIM_OCStructInit,"ax",%progbits
 1547              		.align	2
 1548              		.global	TIM_OCStructInit
 1549              		.thumb
 1550              		.thumb_func
 1552              	TIM_OCStructInit:
 1553              	.LFB39:
 745:../STM32F10x_StdPeriph_Lib_V3.5.0/Libraries/STM32F10x_StdPeriph_Driver/src/stm32f10x_tim.c **** 
 746:../STM32F10x_StdPeriph_Lib_V3.5.0/Libraries/STM32F10x_StdPeriph_Driver/src/stm32f10x_tim.c **** /**
 747:../STM32F10x_StdPeriph_Lib_V3.5.0/Libraries/STM32F10x_StdPeriph_Driver/src/stm32f10x_tim.c ****   * @brief  Fills each TIM_OCInitStruct member with its default value.
 748:../STM32F10x_StdPeriph_Lib_V3.5.0/Libraries/STM32F10x_StdPeriph_Driver/src/stm32f10x_tim.c ****   * @param  TIM_OCInitStruct : pointer to a TIM_OCInitTypeDef structure which will
 749:../STM32F10x_StdPeriph_Lib_V3.5.0/Libraries/STM32F10x_StdPeriph_Driver/src/stm32f10x_tim.c ****   *         be initialized.
 750:../STM32F10x_StdPeriph_Lib_V3.5.0/Libraries/STM32F10x_StdPeriph_Driver/src/stm32f10x_tim.c ****   * @retval None
 751:../STM32F10x_StdPeriph_Lib_V3.5.0/Libraries/STM32F10x_StdPeriph_Driver/src/stm32f10x_tim.c ****   */
 752:../STM32F10x_StdPeriph_Lib_V3.5.0/Libraries/STM32F10x_StdPeriph_Driver/src/stm32f10x_tim.c **** void TIM_OCStructInit(TIM_OCInitTypeDef* TIM_OCInitStruct)
 753:../STM32F10x_StdPeriph_Lib_V3.5.0/Libraries/STM32F10x_StdPeriph_Driver/src/stm32f10x_tim.c **** {
 1554              		.loc 1 753 0
 1555              		.cfi_startproc
 1556              		@ args = 0, pretend = 0, frame = 8
 1557              		@ frame_needed = 1, uses_anonymous_args = 0
 1558              		@ link register save eliminated.
 1559 0000 80B4     		push	{r7}
 1560              	.LCFI30:
 1561              		.cfi_def_cfa_offset 4
 1562              		.cfi_offset 7, -4
 1563 0002 83B0     		sub	sp, sp, #12
 1564              	.LCFI31:
 1565              		.cfi_def_cfa_offset 16
 1566 0004 00AF     		add	r7, sp, #0
 1567              	.LCFI32:
 1568              		.cfi_def_cfa_register 7
 1569 0006 7860     		str	r0, [r7, #4]
 754:../STM32F10x_StdPeriph_Lib_V3.5.0/Libraries/STM32F10x_StdPeriph_Driver/src/stm32f10x_tim.c ****   /* Set the default configuration */
 755:../STM32F10x_StdPeriph_Lib_V3.5.0/Libraries/STM32F10x_StdPeriph_Driver/src/stm32f10x_tim.c ****   TIM_OCInitStruct->TIM_OCMode = TIM_OCMode_Timing;
 1570              		.loc 1 755 0
 1571 0008 7B68     		ldr	r3, [r7, #4]
 1572 000a 4FF00002 		mov	r2, #0
 1573 000e 1A80     		strh	r2, [r3, #0]	@ movhi
 756:../STM32F10x_StdPeriph_Lib_V3.5.0/Libraries/STM32F10x_StdPeriph_Driver/src/stm32f10x_tim.c ****   TIM_OCInitStruct->TIM_OutputState = TIM_OutputState_Disable;
 1574              		.loc 1 756 0
 1575 0010 7B68     		ldr	r3, [r7, #4]
 1576 0012 4FF00002 		mov	r2, #0
 1577 0016 5A80     		strh	r2, [r3, #2]	@ movhi
 757:../STM32F10x_StdPeriph_Lib_V3.5.0/Libraries/STM32F10x_StdPeriph_Driver/src/stm32f10x_tim.c ****   TIM_OCInitStruct->TIM_OutputNState = TIM_OutputNState_Disable;
 1578              		.loc 1 757 0
 1579 0018 7B68     		ldr	r3, [r7, #4]
 1580 001a 4FF00002 		mov	r2, #0
 1581 001e 9A80     		strh	r2, [r3, #4]	@ movhi
 758:../STM32F10x_StdPeriph_Lib_V3.5.0/Libraries/STM32F10x_StdPeriph_Driver/src/stm32f10x_tim.c ****   TIM_OCInitStruct->TIM_Pulse = 0x0000;
 1582              		.loc 1 758 0
 1583 0020 7B68     		ldr	r3, [r7, #4]
 1584 0022 4FF00002 		mov	r2, #0
 1585 0026 DA80     		strh	r2, [r3, #6]	@ movhi
 759:../STM32F10x_StdPeriph_Lib_V3.5.0/Libraries/STM32F10x_StdPeriph_Driver/src/stm32f10x_tim.c ****   TIM_OCInitStruct->TIM_OCPolarity = TIM_OCPolarity_High;
 1586              		.loc 1 759 0
 1587 0028 7B68     		ldr	r3, [r7, #4]
 1588 002a 4FF00002 		mov	r2, #0
 1589 002e 1A81     		strh	r2, [r3, #8]	@ movhi
 760:../STM32F10x_StdPeriph_Lib_V3.5.0/Libraries/STM32F10x_StdPeriph_Driver/src/stm32f10x_tim.c ****   TIM_OCInitStruct->TIM_OCNPolarity = TIM_OCPolarity_High;
 1590              		.loc 1 760 0
 1591 0030 7B68     		ldr	r3, [r7, #4]
 1592 0032 4FF00002 		mov	r2, #0
 1593 0036 5A81     		strh	r2, [r3, #10]	@ movhi
 761:../STM32F10x_StdPeriph_Lib_V3.5.0/Libraries/STM32F10x_StdPeriph_Driver/src/stm32f10x_tim.c ****   TIM_OCInitStruct->TIM_OCIdleState = TIM_OCIdleState_Reset;
 1594              		.loc 1 761 0
 1595 0038 7B68     		ldr	r3, [r7, #4]
 1596 003a 4FF00002 		mov	r2, #0
 1597 003e 9A81     		strh	r2, [r3, #12]	@ movhi
 762:../STM32F10x_StdPeriph_Lib_V3.5.0/Libraries/STM32F10x_StdPeriph_Driver/src/stm32f10x_tim.c ****   TIM_OCInitStruct->TIM_OCNIdleState = TIM_OCNIdleState_Reset;
 1598              		.loc 1 762 0
 1599 0040 7B68     		ldr	r3, [r7, #4]
 1600 0042 4FF00002 		mov	r2, #0
 1601 0046 DA81     		strh	r2, [r3, #14]	@ movhi
 763:../STM32F10x_StdPeriph_Lib_V3.5.0/Libraries/STM32F10x_StdPeriph_Driver/src/stm32f10x_tim.c **** }
 1602              		.loc 1 763 0
 1603 0048 07F10C07 		add	r7, r7, #12
 1604 004c BD46     		mov	sp, r7
 1605 004e 80BC     		pop	{r7}
 1606 0050 7047     		bx	lr
 1607              		.cfi_endproc
 1608              	.LFE39:
 1610 0052 00BF     		.section	.text.TIM_ICStructInit,"ax",%progbits
 1611              		.align	2
 1612              		.global	TIM_ICStructInit
 1613              		.thumb
 1614              		.thumb_func
 1616              	TIM_ICStructInit:
 1617              	.LFB40:
 764:../STM32F10x_StdPeriph_Lib_V3.5.0/Libraries/STM32F10x_StdPeriph_Driver/src/stm32f10x_tim.c **** 
 765:../STM32F10x_StdPeriph_Lib_V3.5.0/Libraries/STM32F10x_StdPeriph_Driver/src/stm32f10x_tim.c **** /**
 766:../STM32F10x_StdPeriph_Lib_V3.5.0/Libraries/STM32F10x_StdPeriph_Driver/src/stm32f10x_tim.c ****   * @brief  Fills each TIM_ICInitStruct member with its default value.
 767:../STM32F10x_StdPeriph_Lib_V3.5.0/Libraries/STM32F10x_StdPeriph_Driver/src/stm32f10x_tim.c ****   * @param  TIM_ICInitStruct: pointer to a TIM_ICInitTypeDef structure which will
 768:../STM32F10x_StdPeriph_Lib_V3.5.0/Libraries/STM32F10x_StdPeriph_Driver/src/stm32f10x_tim.c ****   *         be initialized.
 769:../STM32F10x_StdPeriph_Lib_V3.5.0/Libraries/STM32F10x_StdPeriph_Driver/src/stm32f10x_tim.c ****   * @retval None
 770:../STM32F10x_StdPeriph_Lib_V3.5.0/Libraries/STM32F10x_StdPeriph_Driver/src/stm32f10x_tim.c ****   */
 771:../STM32F10x_StdPeriph_Lib_V3.5.0/Libraries/STM32F10x_StdPeriph_Driver/src/stm32f10x_tim.c **** void TIM_ICStructInit(TIM_ICInitTypeDef* TIM_ICInitStruct)
 772:../STM32F10x_StdPeriph_Lib_V3.5.0/Libraries/STM32F10x_StdPeriph_Driver/src/stm32f10x_tim.c **** {
 1618              		.loc 1 772 0
 1619              		.cfi_startproc
 1620              		@ args = 0, pretend = 0, frame = 8
 1621              		@ frame_needed = 1, uses_anonymous_args = 0
 1622              		@ link register save eliminated.
 1623 0000 80B4     		push	{r7}
 1624              	.LCFI33:
 1625              		.cfi_def_cfa_offset 4
 1626              		.cfi_offset 7, -4
 1627 0002 83B0     		sub	sp, sp, #12
 1628              	.LCFI34:
 1629              		.cfi_def_cfa_offset 16
 1630 0004 00AF     		add	r7, sp, #0
 1631              	.LCFI35:
 1632              		.cfi_def_cfa_register 7
 1633 0006 7860     		str	r0, [r7, #4]
 773:../STM32F10x_StdPeriph_Lib_V3.5.0/Libraries/STM32F10x_StdPeriph_Driver/src/stm32f10x_tim.c ****   /* Set the default configuration */
 774:../STM32F10x_StdPeriph_Lib_V3.5.0/Libraries/STM32F10x_StdPeriph_Driver/src/stm32f10x_tim.c ****   TIM_ICInitStruct->TIM_Channel = TIM_Channel_1;
 1634              		.loc 1 774 0
 1635 0008 7B68     		ldr	r3, [r7, #4]
 1636 000a 4FF00002 		mov	r2, #0
 1637 000e 1A80     		strh	r2, [r3, #0]	@ movhi
 775:../STM32F10x_StdPeriph_Lib_V3.5.0/Libraries/STM32F10x_StdPeriph_Driver/src/stm32f10x_tim.c ****   TIM_ICInitStruct->TIM_ICPolarity = TIM_ICPolarity_Rising;
 1638              		.loc 1 775 0
 1639 0010 7B68     		ldr	r3, [r7, #4]
 1640 0012 4FF00002 		mov	r2, #0
 1641 0016 5A80     		strh	r2, [r3, #2]	@ movhi
 776:../STM32F10x_StdPeriph_Lib_V3.5.0/Libraries/STM32F10x_StdPeriph_Driver/src/stm32f10x_tim.c ****   TIM_ICInitStruct->TIM_ICSelection = TIM_ICSelection_DirectTI;
 1642              		.loc 1 776 0
 1643 0018 7B68     		ldr	r3, [r7, #4]
 1644 001a 4FF00102 		mov	r2, #1
 1645 001e 9A80     		strh	r2, [r3, #4]	@ movhi
 777:../STM32F10x_StdPeriph_Lib_V3.5.0/Libraries/STM32F10x_StdPeriph_Driver/src/stm32f10x_tim.c ****   TIM_ICInitStruct->TIM_ICPrescaler = TIM_ICPSC_DIV1;
 1646              		.loc 1 777 0
 1647 0020 7B68     		ldr	r3, [r7, #4]
 1648 0022 4FF00002 		mov	r2, #0
 1649 0026 DA80     		strh	r2, [r3, #6]	@ movhi
 778:../STM32F10x_StdPeriph_Lib_V3.5.0/Libraries/STM32F10x_StdPeriph_Driver/src/stm32f10x_tim.c ****   TIM_ICInitStruct->TIM_ICFilter = 0x00;
 1650              		.loc 1 778 0
 1651 0028 7B68     		ldr	r3, [r7, #4]
 1652 002a 4FF00002 		mov	r2, #0
 1653 002e 1A81     		strh	r2, [r3, #8]	@ movhi
 779:../STM32F10x_StdPeriph_Lib_V3.5.0/Libraries/STM32F10x_StdPeriph_Driver/src/stm32f10x_tim.c **** }
 1654              		.loc 1 779 0
 1655 0030 07F10C07 		add	r7, r7, #12
 1656 0034 BD46     		mov	sp, r7
 1657 0036 80BC     		pop	{r7}
 1658 0038 7047     		bx	lr
 1659              		.cfi_endproc
 1660              	.LFE40:
 1662 003a 00BF     		.section	.text.TIM_BDTRStructInit,"ax",%progbits
 1663              		.align	2
 1664              		.global	TIM_BDTRStructInit
 1665              		.thumb
 1666              		.thumb_func
 1668              	TIM_BDTRStructInit:
 1669              	.LFB41:
 780:../STM32F10x_StdPeriph_Lib_V3.5.0/Libraries/STM32F10x_StdPeriph_Driver/src/stm32f10x_tim.c **** 
 781:../STM32F10x_StdPeriph_Lib_V3.5.0/Libraries/STM32F10x_StdPeriph_Driver/src/stm32f10x_tim.c **** /**
 782:../STM32F10x_StdPeriph_Lib_V3.5.0/Libraries/STM32F10x_StdPeriph_Driver/src/stm32f10x_tim.c ****   * @brief  Fills each TIM_BDTRInitStruct member with its default value.
 783:../STM32F10x_StdPeriph_Lib_V3.5.0/Libraries/STM32F10x_StdPeriph_Driver/src/stm32f10x_tim.c ****   * @param  TIM_BDTRInitStruct: pointer to a TIM_BDTRInitTypeDef structure which
 784:../STM32F10x_StdPeriph_Lib_V3.5.0/Libraries/STM32F10x_StdPeriph_Driver/src/stm32f10x_tim.c ****   *         will be initialized.
 785:../STM32F10x_StdPeriph_Lib_V3.5.0/Libraries/STM32F10x_StdPeriph_Driver/src/stm32f10x_tim.c ****   * @retval None
 786:../STM32F10x_StdPeriph_Lib_V3.5.0/Libraries/STM32F10x_StdPeriph_Driver/src/stm32f10x_tim.c ****   */
 787:../STM32F10x_StdPeriph_Lib_V3.5.0/Libraries/STM32F10x_StdPeriph_Driver/src/stm32f10x_tim.c **** void TIM_BDTRStructInit(TIM_BDTRInitTypeDef* TIM_BDTRInitStruct)
 788:../STM32F10x_StdPeriph_Lib_V3.5.0/Libraries/STM32F10x_StdPeriph_Driver/src/stm32f10x_tim.c **** {
 1670              		.loc 1 788 0
 1671              		.cfi_startproc
 1672              		@ args = 0, pretend = 0, frame = 8
 1673              		@ frame_needed = 1, uses_anonymous_args = 0
 1674              		@ link register save eliminated.
 1675 0000 80B4     		push	{r7}
 1676              	.LCFI36:
 1677              		.cfi_def_cfa_offset 4
 1678              		.cfi_offset 7, -4
 1679 0002 83B0     		sub	sp, sp, #12
 1680              	.LCFI37:
 1681              		.cfi_def_cfa_offset 16
 1682 0004 00AF     		add	r7, sp, #0
 1683              	.LCFI38:
 1684              		.cfi_def_cfa_register 7
 1685 0006 7860     		str	r0, [r7, #4]
 789:../STM32F10x_StdPeriph_Lib_V3.5.0/Libraries/STM32F10x_StdPeriph_Driver/src/stm32f10x_tim.c ****   /* Set the default configuration */
 790:../STM32F10x_StdPeriph_Lib_V3.5.0/Libraries/STM32F10x_StdPeriph_Driver/src/stm32f10x_tim.c ****   TIM_BDTRInitStruct->TIM_OSSRState = TIM_OSSRState_Disable;
 1686              		.loc 1 790 0
 1687 0008 7B68     		ldr	r3, [r7, #4]
 1688 000a 4FF00002 		mov	r2, #0
 1689 000e 1A80     		strh	r2, [r3, #0]	@ movhi
 791:../STM32F10x_StdPeriph_Lib_V3.5.0/Libraries/STM32F10x_StdPeriph_Driver/src/stm32f10x_tim.c ****   TIM_BDTRInitStruct->TIM_OSSIState = TIM_OSSIState_Disable;
 1690              		.loc 1 791 0
 1691 0010 7B68     		ldr	r3, [r7, #4]
 1692 0012 4FF00002 		mov	r2, #0
 1693 0016 5A80     		strh	r2, [r3, #2]	@ movhi
 792:../STM32F10x_StdPeriph_Lib_V3.5.0/Libraries/STM32F10x_StdPeriph_Driver/src/stm32f10x_tim.c ****   TIM_BDTRInitStruct->TIM_LOCKLevel = TIM_LOCKLevel_OFF;
 1694              		.loc 1 792 0
 1695 0018 7B68     		ldr	r3, [r7, #4]
 1696 001a 4FF00002 		mov	r2, #0
 1697 001e 9A80     		strh	r2, [r3, #4]	@ movhi
 793:../STM32F10x_StdPeriph_Lib_V3.5.0/Libraries/STM32F10x_StdPeriph_Driver/src/stm32f10x_tim.c ****   TIM_BDTRInitStruct->TIM_DeadTime = 0x00;
 1698              		.loc 1 793 0
 1699 0020 7B68     		ldr	r3, [r7, #4]
 1700 0022 4FF00002 		mov	r2, #0
 1701 0026 DA80     		strh	r2, [r3, #6]	@ movhi
 794:../STM32F10x_StdPeriph_Lib_V3.5.0/Libraries/STM32F10x_StdPeriph_Driver/src/stm32f10x_tim.c ****   TIM_BDTRInitStruct->TIM_Break = TIM_Break_Disable;
 1702              		.loc 1 794 0
 1703 0028 7B68     		ldr	r3, [r7, #4]
 1704 002a 4FF00002 		mov	r2, #0
 1705 002e 1A81     		strh	r2, [r3, #8]	@ movhi
 795:../STM32F10x_StdPeriph_Lib_V3.5.0/Libraries/STM32F10x_StdPeriph_Driver/src/stm32f10x_tim.c ****   TIM_BDTRInitStruct->TIM_BreakPolarity = TIM_BreakPolarity_Low;
 1706              		.loc 1 795 0
 1707 0030 7B68     		ldr	r3, [r7, #4]
 1708 0032 4FF00002 		mov	r2, #0
 1709 0036 5A81     		strh	r2, [r3, #10]	@ movhi
 796:../STM32F10x_StdPeriph_Lib_V3.5.0/Libraries/STM32F10x_StdPeriph_Driver/src/stm32f10x_tim.c ****   TIM_BDTRInitStruct->TIM_AutomaticOutput = TIM_AutomaticOutput_Disable;
 1710              		.loc 1 796 0
 1711 0038 7B68     		ldr	r3, [r7, #4]
 1712 003a 4FF00002 		mov	r2, #0
 1713 003e 9A81     		strh	r2, [r3, #12]	@ movhi
 797:../STM32F10x_StdPeriph_Lib_V3.5.0/Libraries/STM32F10x_StdPeriph_Driver/src/stm32f10x_tim.c **** }
 1714              		.loc 1 797 0
 1715 0040 07F10C07 		add	r7, r7, #12
 1716 0044 BD46     		mov	sp, r7
 1717 0046 80BC     		pop	{r7}
 1718 0048 7047     		bx	lr
 1719              		.cfi_endproc
 1720              	.LFE41:
 1722 004a 00BF     		.section	.text.TIM_Cmd,"ax",%progbits
 1723              		.align	2
 1724              		.global	TIM_Cmd
 1725              		.thumb
 1726              		.thumb_func
 1728              	TIM_Cmd:
 1729              	.LFB42:
 798:../STM32F10x_StdPeriph_Lib_V3.5.0/Libraries/STM32F10x_StdPeriph_Driver/src/stm32f10x_tim.c **** 
 799:../STM32F10x_StdPeriph_Lib_V3.5.0/Libraries/STM32F10x_StdPeriph_Driver/src/stm32f10x_tim.c **** /**
 800:../STM32F10x_StdPeriph_Lib_V3.5.0/Libraries/STM32F10x_StdPeriph_Driver/src/stm32f10x_tim.c ****   * @brief  Enables or disables the specified TIM peripheral.
 801:../STM32F10x_StdPeriph_Lib_V3.5.0/Libraries/STM32F10x_StdPeriph_Driver/src/stm32f10x_tim.c ****   * @param  TIMx: where x can be 1 to 17 to select the TIMx peripheral.
 802:../STM32F10x_StdPeriph_Lib_V3.5.0/Libraries/STM32F10x_StdPeriph_Driver/src/stm32f10x_tim.c ****   * @param  NewState: new state of the TIMx peripheral.
 803:../STM32F10x_StdPeriph_Lib_V3.5.0/Libraries/STM32F10x_StdPeriph_Driver/src/stm32f10x_tim.c ****   *   This parameter can be: ENABLE or DISABLE.
 804:../STM32F10x_StdPeriph_Lib_V3.5.0/Libraries/STM32F10x_StdPeriph_Driver/src/stm32f10x_tim.c ****   * @retval None
 805:../STM32F10x_StdPeriph_Lib_V3.5.0/Libraries/STM32F10x_StdPeriph_Driver/src/stm32f10x_tim.c ****   */
 806:../STM32F10x_StdPeriph_Lib_V3.5.0/Libraries/STM32F10x_StdPeriph_Driver/src/stm32f10x_tim.c **** void TIM_Cmd(TIM_TypeDef* TIMx, FunctionalState NewState)
 807:../STM32F10x_StdPeriph_Lib_V3.5.0/Libraries/STM32F10x_StdPeriph_Driver/src/stm32f10x_tim.c **** {
 1730              		.loc 1 807 0
 1731              		.cfi_startproc
 1732              		@ args = 0, pretend = 0, frame = 8
 1733              		@ frame_needed = 1, uses_anonymous_args = 0
 1734              		@ link register save eliminated.
 1735 0000 80B4     		push	{r7}
 1736              	.LCFI39:
 1737              		.cfi_def_cfa_offset 4
 1738              		.cfi_offset 7, -4
 1739 0002 83B0     		sub	sp, sp, #12
 1740              	.LCFI40:
 1741              		.cfi_def_cfa_offset 16
 1742 0004 00AF     		add	r7, sp, #0
 1743              	.LCFI41:
 1744              		.cfi_def_cfa_register 7
 1745 0006 7860     		str	r0, [r7, #4]
 1746 0008 0B46     		mov	r3, r1
 1747 000a FB70     		strb	r3, [r7, #3]
 808:../STM32F10x_StdPeriph_Lib_V3.5.0/Libraries/STM32F10x_StdPeriph_Driver/src/stm32f10x_tim.c ****   /* Check the parameters */
 809:../STM32F10x_StdPeriph_Lib_V3.5.0/Libraries/STM32F10x_StdPeriph_Driver/src/stm32f10x_tim.c ****   assert_param(IS_TIM_ALL_PERIPH(TIMx));
 810:../STM32F10x_StdPeriph_Lib_V3.5.0/Libraries/STM32F10x_StdPeriph_Driver/src/stm32f10x_tim.c ****   assert_param(IS_FUNCTIONAL_STATE(NewState));
 811:../STM32F10x_StdPeriph_Lib_V3.5.0/Libraries/STM32F10x_StdPeriph_Driver/src/stm32f10x_tim.c ****   
 812:../STM32F10x_StdPeriph_Lib_V3.5.0/Libraries/STM32F10x_StdPeriph_Driver/src/stm32f10x_tim.c ****   if (NewState != DISABLE)
 1748              		.loc 1 812 0
 1749 000c FB78     		ldrb	r3, [r7, #3]	@ zero_extendqisi2
 1750 000e 002B     		cmp	r3, #0
 1751 0010 08D0     		beq	.L67
 813:../STM32F10x_StdPeriph_Lib_V3.5.0/Libraries/STM32F10x_StdPeriph_Driver/src/stm32f10x_tim.c ****   {
 814:../STM32F10x_StdPeriph_Lib_V3.5.0/Libraries/STM32F10x_StdPeriph_Driver/src/stm32f10x_tim.c ****     /* Enable the TIM Counter */
 815:../STM32F10x_StdPeriph_Lib_V3.5.0/Libraries/STM32F10x_StdPeriph_Driver/src/stm32f10x_tim.c ****     TIMx->CR1 |= TIM_CR1_CEN;
 1752              		.loc 1 815 0
 1753 0012 7B68     		ldr	r3, [r7, #4]
 1754 0014 1B88     		ldrh	r3, [r3, #0]	@ movhi
 1755 0016 9BB2     		uxth	r3, r3
 1756 0018 43F00103 		orr	r3, r3, #1
 1757 001c 9AB2     		uxth	r2, r3
 1758 001e 7B68     		ldr	r3, [r7, #4]
 1759 0020 1A80     		strh	r2, [r3, #0]	@ movhi
 1760 0022 07E0     		b	.L66
 1761              	.L67:
 816:../STM32F10x_StdPeriph_Lib_V3.5.0/Libraries/STM32F10x_StdPeriph_Driver/src/stm32f10x_tim.c ****   }
 817:../STM32F10x_StdPeriph_Lib_V3.5.0/Libraries/STM32F10x_StdPeriph_Driver/src/stm32f10x_tim.c ****   else
 818:../STM32F10x_StdPeriph_Lib_V3.5.0/Libraries/STM32F10x_StdPeriph_Driver/src/stm32f10x_tim.c ****   {
 819:../STM32F10x_StdPeriph_Lib_V3.5.0/Libraries/STM32F10x_StdPeriph_Driver/src/stm32f10x_tim.c ****     /* Disable the TIM Counter */
 820:../STM32F10x_StdPeriph_Lib_V3.5.0/Libraries/STM32F10x_StdPeriph_Driver/src/stm32f10x_tim.c ****     TIMx->CR1 &= (uint16_t)(~((uint16_t)TIM_CR1_CEN));
 1762              		.loc 1 820 0
 1763 0024 7B68     		ldr	r3, [r7, #4]
 1764 0026 1B88     		ldrh	r3, [r3, #0]	@ movhi
 1765 0028 9BB2     		uxth	r3, r3
 1766 002a 23F00103 		bic	r3, r3, #1
 1767 002e 9AB2     		uxth	r2, r3
 1768 0030 7B68     		ldr	r3, [r7, #4]
 1769 0032 1A80     		strh	r2, [r3, #0]	@ movhi
 1770              	.L66:
 821:../STM32F10x_StdPeriph_Lib_V3.5.0/Libraries/STM32F10x_StdPeriph_Driver/src/stm32f10x_tim.c ****   }
 822:../STM32F10x_StdPeriph_Lib_V3.5.0/Libraries/STM32F10x_StdPeriph_Driver/src/stm32f10x_tim.c **** }
 1771              		.loc 1 822 0
 1772 0034 07F10C07 		add	r7, r7, #12
 1773 0038 BD46     		mov	sp, r7
 1774 003a 80BC     		pop	{r7}
 1775 003c 7047     		bx	lr
 1776              		.cfi_endproc
 1777              	.LFE42:
 1779 003e 00BF     		.section	.text.TIM_CtrlPWMOutputs,"ax",%progbits
 1780              		.align	2
 1781              		.global	TIM_CtrlPWMOutputs
 1782              		.thumb
 1783              		.thumb_func
 1785              	TIM_CtrlPWMOutputs:
 1786              	.LFB43:
 823:../STM32F10x_StdPeriph_Lib_V3.5.0/Libraries/STM32F10x_StdPeriph_Driver/src/stm32f10x_tim.c **** 
 824:../STM32F10x_StdPeriph_Lib_V3.5.0/Libraries/STM32F10x_StdPeriph_Driver/src/stm32f10x_tim.c **** /**
 825:../STM32F10x_StdPeriph_Lib_V3.5.0/Libraries/STM32F10x_StdPeriph_Driver/src/stm32f10x_tim.c ****   * @brief  Enables or disables the TIM peripheral Main Outputs.
 826:../STM32F10x_StdPeriph_Lib_V3.5.0/Libraries/STM32F10x_StdPeriph_Driver/src/stm32f10x_tim.c ****   * @param  TIMx: where x can be 1, 8, 15, 16 or 17 to select the TIMx peripheral.
 827:../STM32F10x_StdPeriph_Lib_V3.5.0/Libraries/STM32F10x_StdPeriph_Driver/src/stm32f10x_tim.c ****   * @param  NewState: new state of the TIM peripheral Main Outputs.
 828:../STM32F10x_StdPeriph_Lib_V3.5.0/Libraries/STM32F10x_StdPeriph_Driver/src/stm32f10x_tim.c ****   *   This parameter can be: ENABLE or DISABLE.
 829:../STM32F10x_StdPeriph_Lib_V3.5.0/Libraries/STM32F10x_StdPeriph_Driver/src/stm32f10x_tim.c ****   * @retval None
 830:../STM32F10x_StdPeriph_Lib_V3.5.0/Libraries/STM32F10x_StdPeriph_Driver/src/stm32f10x_tim.c ****   */
 831:../STM32F10x_StdPeriph_Lib_V3.5.0/Libraries/STM32F10x_StdPeriph_Driver/src/stm32f10x_tim.c **** void TIM_CtrlPWMOutputs(TIM_TypeDef* TIMx, FunctionalState NewState)
 832:../STM32F10x_StdPeriph_Lib_V3.5.0/Libraries/STM32F10x_StdPeriph_Driver/src/stm32f10x_tim.c **** {
 1787              		.loc 1 832 0
 1788              		.cfi_startproc
 1789              		@ args = 0, pretend = 0, frame = 8
 1790              		@ frame_needed = 1, uses_anonymous_args = 0
 1791              		@ link register save eliminated.
 1792 0000 80B4     		push	{r7}
 1793              	.LCFI42:
 1794              		.cfi_def_cfa_offset 4
 1795              		.cfi_offset 7, -4
 1796 0002 83B0     		sub	sp, sp, #12
 1797              	.LCFI43:
 1798              		.cfi_def_cfa_offset 16
 1799 0004 00AF     		add	r7, sp, #0
 1800              	.LCFI44:
 1801              		.cfi_def_cfa_register 7
 1802 0006 7860     		str	r0, [r7, #4]
 1803 0008 0B46     		mov	r3, r1
 1804 000a FB70     		strb	r3, [r7, #3]
 833:../STM32F10x_StdPeriph_Lib_V3.5.0/Libraries/STM32F10x_StdPeriph_Driver/src/stm32f10x_tim.c ****   /* Check the parameters */
 834:../STM32F10x_StdPeriph_Lib_V3.5.0/Libraries/STM32F10x_StdPeriph_Driver/src/stm32f10x_tim.c ****   assert_param(IS_TIM_LIST2_PERIPH(TIMx));
 835:../STM32F10x_StdPeriph_Lib_V3.5.0/Libraries/STM32F10x_StdPeriph_Driver/src/stm32f10x_tim.c ****   assert_param(IS_FUNCTIONAL_STATE(NewState));
 836:../STM32F10x_StdPeriph_Lib_V3.5.0/Libraries/STM32F10x_StdPeriph_Driver/src/stm32f10x_tim.c ****   if (NewState != DISABLE)
 1805              		.loc 1 836 0
 1806 000c FB78     		ldrb	r3, [r7, #3]	@ zero_extendqisi2
 1807 000e 002B     		cmp	r3, #0
 1808 0010 0CD0     		beq	.L70
 837:../STM32F10x_StdPeriph_Lib_V3.5.0/Libraries/STM32F10x_StdPeriph_Driver/src/stm32f10x_tim.c ****   {
 838:../STM32F10x_StdPeriph_Lib_V3.5.0/Libraries/STM32F10x_StdPeriph_Driver/src/stm32f10x_tim.c ****     /* Enable the TIM Main Output */
 839:../STM32F10x_StdPeriph_Lib_V3.5.0/Libraries/STM32F10x_StdPeriph_Driver/src/stm32f10x_tim.c ****     TIMx->BDTR |= TIM_BDTR_MOE;
 1809              		.loc 1 839 0
 1810 0012 7B68     		ldr	r3, [r7, #4]
 1811 0014 B3F84430 		ldrh	r3, [r3, #68]	@ movhi
 1812 0018 9BB2     		uxth	r3, r3
 1813 001a 6FEA4343 		mvn	r3, r3, lsl #17
 1814 001e 6FEA5343 		mvn	r3, r3, lsr #17
 1815 0022 9AB2     		uxth	r2, r3
 1816 0024 7B68     		ldr	r3, [r7, #4]
 1817 0026 A3F84420 		strh	r2, [r3, #68]	@ movhi
 1818 002a 0BE0     		b	.L69
 1819              	.L70:
 840:../STM32F10x_StdPeriph_Lib_V3.5.0/Libraries/STM32F10x_StdPeriph_Driver/src/stm32f10x_tim.c ****   }
 841:../STM32F10x_StdPeriph_Lib_V3.5.0/Libraries/STM32F10x_StdPeriph_Driver/src/stm32f10x_tim.c ****   else
 842:../STM32F10x_StdPeriph_Lib_V3.5.0/Libraries/STM32F10x_StdPeriph_Driver/src/stm32f10x_tim.c ****   {
 843:../STM32F10x_StdPeriph_Lib_V3.5.0/Libraries/STM32F10x_StdPeriph_Driver/src/stm32f10x_tim.c ****     /* Disable the TIM Main Output */
 844:../STM32F10x_StdPeriph_Lib_V3.5.0/Libraries/STM32F10x_StdPeriph_Driver/src/stm32f10x_tim.c ****     TIMx->BDTR &= (uint16_t)(~((uint16_t)TIM_BDTR_MOE));
 1820              		.loc 1 844 0
 1821 002c 7B68     		ldr	r3, [r7, #4]
 1822 002e B3F84430 		ldrh	r3, [r3, #68]	@ movhi
 1823 0032 9BB2     		uxth	r3, r3
 1824 0034 4FEA4343 		lsl	r3, r3, #17
 1825 0038 4FEA5343 		lsr	r3, r3, #17
 1826 003c 9AB2     		uxth	r2, r3
 1827 003e 7B68     		ldr	r3, [r7, #4]
 1828 0040 A3F84420 		strh	r2, [r3, #68]	@ movhi
 1829              	.L69:
 845:../STM32F10x_StdPeriph_Lib_V3.5.0/Libraries/STM32F10x_StdPeriph_Driver/src/stm32f10x_tim.c ****   }  
 846:../STM32F10x_StdPeriph_Lib_V3.5.0/Libraries/STM32F10x_StdPeriph_Driver/src/stm32f10x_tim.c **** }
 1830              		.loc 1 846 0
 1831 0044 07F10C07 		add	r7, r7, #12
 1832 0048 BD46     		mov	sp, r7
 1833 004a 80BC     		pop	{r7}
 1834 004c 7047     		bx	lr
 1835              		.cfi_endproc
 1836              	.LFE43:
 1838 004e 00BF     		.section	.text.TIM_ITConfig,"ax",%progbits
 1839              		.align	2
 1840              		.global	TIM_ITConfig
 1841              		.thumb
 1842              		.thumb_func
 1844              	TIM_ITConfig:
 1845              	.LFB44:
 847:../STM32F10x_StdPeriph_Lib_V3.5.0/Libraries/STM32F10x_StdPeriph_Driver/src/stm32f10x_tim.c **** 
 848:../STM32F10x_StdPeriph_Lib_V3.5.0/Libraries/STM32F10x_StdPeriph_Driver/src/stm32f10x_tim.c **** /**
 849:../STM32F10x_StdPeriph_Lib_V3.5.0/Libraries/STM32F10x_StdPeriph_Driver/src/stm32f10x_tim.c ****   * @brief  Enables or disables the specified TIM interrupts.
 850:../STM32F10x_StdPeriph_Lib_V3.5.0/Libraries/STM32F10x_StdPeriph_Driver/src/stm32f10x_tim.c ****   * @param  TIMx: where x can be 1 to 17 to select the TIMx peripheral.
 851:../STM32F10x_StdPeriph_Lib_V3.5.0/Libraries/STM32F10x_StdPeriph_Driver/src/stm32f10x_tim.c ****   * @param  TIM_IT: specifies the TIM interrupts sources to be enabled or disabled.
 852:../STM32F10x_StdPeriph_Lib_V3.5.0/Libraries/STM32F10x_StdPeriph_Driver/src/stm32f10x_tim.c ****   *   This parameter can be any combination of the following values:
 853:../STM32F10x_StdPeriph_Lib_V3.5.0/Libraries/STM32F10x_StdPeriph_Driver/src/stm32f10x_tim.c ****   *     @arg TIM_IT_Update: TIM update Interrupt source
 854:../STM32F10x_StdPeriph_Lib_V3.5.0/Libraries/STM32F10x_StdPeriph_Driver/src/stm32f10x_tim.c ****   *     @arg TIM_IT_CC1: TIM Capture Compare 1 Interrupt source
 855:../STM32F10x_StdPeriph_Lib_V3.5.0/Libraries/STM32F10x_StdPeriph_Driver/src/stm32f10x_tim.c ****   *     @arg TIM_IT_CC2: TIM Capture Compare 2 Interrupt source
 856:../STM32F10x_StdPeriph_Lib_V3.5.0/Libraries/STM32F10x_StdPeriph_Driver/src/stm32f10x_tim.c ****   *     @arg TIM_IT_CC3: TIM Capture Compare 3 Interrupt source
 857:../STM32F10x_StdPeriph_Lib_V3.5.0/Libraries/STM32F10x_StdPeriph_Driver/src/stm32f10x_tim.c ****   *     @arg TIM_IT_CC4: TIM Capture Compare 4 Interrupt source
 858:../STM32F10x_StdPeriph_Lib_V3.5.0/Libraries/STM32F10x_StdPeriph_Driver/src/stm32f10x_tim.c ****   *     @arg TIM_IT_COM: TIM Commutation Interrupt source
 859:../STM32F10x_StdPeriph_Lib_V3.5.0/Libraries/STM32F10x_StdPeriph_Driver/src/stm32f10x_tim.c ****   *     @arg TIM_IT_Trigger: TIM Trigger Interrupt source
 860:../STM32F10x_StdPeriph_Lib_V3.5.0/Libraries/STM32F10x_StdPeriph_Driver/src/stm32f10x_tim.c ****   *     @arg TIM_IT_Break: TIM Break Interrupt source
 861:../STM32F10x_StdPeriph_Lib_V3.5.0/Libraries/STM32F10x_StdPeriph_Driver/src/stm32f10x_tim.c ****   * @note 
 862:../STM32F10x_StdPeriph_Lib_V3.5.0/Libraries/STM32F10x_StdPeriph_Driver/src/stm32f10x_tim.c ****   *   - TIM6 and TIM7 can only generate an update interrupt.
 863:../STM32F10x_StdPeriph_Lib_V3.5.0/Libraries/STM32F10x_StdPeriph_Driver/src/stm32f10x_tim.c ****   *   - TIM9, TIM12 and TIM15 can have only TIM_IT_Update, TIM_IT_CC1,
 864:../STM32F10x_StdPeriph_Lib_V3.5.0/Libraries/STM32F10x_StdPeriph_Driver/src/stm32f10x_tim.c ****   *      TIM_IT_CC2 or TIM_IT_Trigger. 
 865:../STM32F10x_StdPeriph_Lib_V3.5.0/Libraries/STM32F10x_StdPeriph_Driver/src/stm32f10x_tim.c ****   *   - TIM10, TIM11, TIM13, TIM14, TIM16 and TIM17 can have TIM_IT_Update or TIM_IT_CC1.   
 866:../STM32F10x_StdPeriph_Lib_V3.5.0/Libraries/STM32F10x_StdPeriph_Driver/src/stm32f10x_tim.c ****   *   - TIM_IT_Break is used only with TIM1, TIM8 and TIM15. 
 867:../STM32F10x_StdPeriph_Lib_V3.5.0/Libraries/STM32F10x_StdPeriph_Driver/src/stm32f10x_tim.c ****   *   - TIM_IT_COM is used only with TIM1, TIM8, TIM15, TIM16 and TIM17.    
 868:../STM32F10x_StdPeriph_Lib_V3.5.0/Libraries/STM32F10x_StdPeriph_Driver/src/stm32f10x_tim.c ****   * @param  NewState: new state of the TIM interrupts.
 869:../STM32F10x_StdPeriph_Lib_V3.5.0/Libraries/STM32F10x_StdPeriph_Driver/src/stm32f10x_tim.c ****   *   This parameter can be: ENABLE or DISABLE.
 870:../STM32F10x_StdPeriph_Lib_V3.5.0/Libraries/STM32F10x_StdPeriph_Driver/src/stm32f10x_tim.c ****   * @retval None
 871:../STM32F10x_StdPeriph_Lib_V3.5.0/Libraries/STM32F10x_StdPeriph_Driver/src/stm32f10x_tim.c ****   */
 872:../STM32F10x_StdPeriph_Lib_V3.5.0/Libraries/STM32F10x_StdPeriph_Driver/src/stm32f10x_tim.c **** void TIM_ITConfig(TIM_TypeDef* TIMx, uint16_t TIM_IT, FunctionalState NewState)
 873:../STM32F10x_StdPeriph_Lib_V3.5.0/Libraries/STM32F10x_StdPeriph_Driver/src/stm32f10x_tim.c **** {  
 1846              		.loc 1 873 0
 1847              		.cfi_startproc
 1848              		@ args = 0, pretend = 0, frame = 8
 1849              		@ frame_needed = 1, uses_anonymous_args = 0
 1850              		@ link register save eliminated.
 1851 0000 80B4     		push	{r7}
 1852              	.LCFI45:
 1853              		.cfi_def_cfa_offset 4
 1854              		.cfi_offset 7, -4
 1855 0002 83B0     		sub	sp, sp, #12
 1856              	.LCFI46:
 1857              		.cfi_def_cfa_offset 16
 1858 0004 00AF     		add	r7, sp, #0
 1859              	.LCFI47:
 1860              		.cfi_def_cfa_register 7
 1861 0006 7860     		str	r0, [r7, #4]
 1862 0008 1346     		mov	r3, r2
 1863 000a 0A46     		mov	r2, r1	@ movhi
 1864 000c 7A80     		strh	r2, [r7, #2]	@ movhi
 1865 000e 7B70     		strb	r3, [r7, #1]
 874:../STM32F10x_StdPeriph_Lib_V3.5.0/Libraries/STM32F10x_StdPeriph_Driver/src/stm32f10x_tim.c ****   /* Check the parameters */
 875:../STM32F10x_StdPeriph_Lib_V3.5.0/Libraries/STM32F10x_StdPeriph_Driver/src/stm32f10x_tim.c ****   assert_param(IS_TIM_ALL_PERIPH(TIMx));
 876:../STM32F10x_StdPeriph_Lib_V3.5.0/Libraries/STM32F10x_StdPeriph_Driver/src/stm32f10x_tim.c ****   assert_param(IS_TIM_IT(TIM_IT));
 877:../STM32F10x_StdPeriph_Lib_V3.5.0/Libraries/STM32F10x_StdPeriph_Driver/src/stm32f10x_tim.c ****   assert_param(IS_FUNCTIONAL_STATE(NewState));
 878:../STM32F10x_StdPeriph_Lib_V3.5.0/Libraries/STM32F10x_StdPeriph_Driver/src/stm32f10x_tim.c ****   
 879:../STM32F10x_StdPeriph_Lib_V3.5.0/Libraries/STM32F10x_StdPeriph_Driver/src/stm32f10x_tim.c ****   if (NewState != DISABLE)
 1866              		.loc 1 879 0
 1867 0010 7B78     		ldrb	r3, [r7, #1]	@ zero_extendqisi2
 1868 0012 002B     		cmp	r3, #0
 1869 0014 08D0     		beq	.L73
 880:../STM32F10x_StdPeriph_Lib_V3.5.0/Libraries/STM32F10x_StdPeriph_Driver/src/stm32f10x_tim.c ****   {
 881:../STM32F10x_StdPeriph_Lib_V3.5.0/Libraries/STM32F10x_StdPeriph_Driver/src/stm32f10x_tim.c ****     /* Enable the Interrupt sources */
 882:../STM32F10x_StdPeriph_Lib_V3.5.0/Libraries/STM32F10x_StdPeriph_Driver/src/stm32f10x_tim.c ****     TIMx->DIER |= TIM_IT;
 1870              		.loc 1 882 0
 1871 0016 7B68     		ldr	r3, [r7, #4]
 1872 0018 9B89     		ldrh	r3, [r3, #12]	@ movhi
 1873 001a 9AB2     		uxth	r2, r3
 1874 001c 7B88     		ldrh	r3, [r7, #2]	@ movhi
 1875 001e 1343     		orrs	r3, r3, r2
 1876 0020 9AB2     		uxth	r2, r3
 1877 0022 7B68     		ldr	r3, [r7, #4]
 1878 0024 9A81     		strh	r2, [r3, #12]	@ movhi
 1879 0026 0AE0     		b	.L72
 1880              	.L73:
 883:../STM32F10x_StdPeriph_Lib_V3.5.0/Libraries/STM32F10x_StdPeriph_Driver/src/stm32f10x_tim.c ****   }
 884:../STM32F10x_StdPeriph_Lib_V3.5.0/Libraries/STM32F10x_StdPeriph_Driver/src/stm32f10x_tim.c ****   else
 885:../STM32F10x_StdPeriph_Lib_V3.5.0/Libraries/STM32F10x_StdPeriph_Driver/src/stm32f10x_tim.c ****   {
 886:../STM32F10x_StdPeriph_Lib_V3.5.0/Libraries/STM32F10x_StdPeriph_Driver/src/stm32f10x_tim.c ****     /* Disable the Interrupt sources */
 887:../STM32F10x_StdPeriph_Lib_V3.5.0/Libraries/STM32F10x_StdPeriph_Driver/src/stm32f10x_tim.c ****     TIMx->DIER &= (uint16_t)~TIM_IT;
 1881              		.loc 1 887 0
 1882 0028 7B68     		ldr	r3, [r7, #4]
 1883 002a 9B89     		ldrh	r3, [r3, #12]	@ movhi
 1884 002c 9AB2     		uxth	r2, r3
 1885 002e 7B88     		ldrh	r3, [r7, #2]	@ movhi
 1886 0030 6FEA0303 		mvn	r3, r3
 1887 0034 9BB2     		uxth	r3, r3
 1888 0036 1340     		ands	r3, r3, r2
 1889 0038 9AB2     		uxth	r2, r3
 1890 003a 7B68     		ldr	r3, [r7, #4]
 1891 003c 9A81     		strh	r2, [r3, #12]	@ movhi
 1892              	.L72:
 888:../STM32F10x_StdPeriph_Lib_V3.5.0/Libraries/STM32F10x_StdPeriph_Driver/src/stm32f10x_tim.c ****   }
 889:../STM32F10x_StdPeriph_Lib_V3.5.0/Libraries/STM32F10x_StdPeriph_Driver/src/stm32f10x_tim.c **** }
 1893              		.loc 1 889 0
 1894 003e 07F10C07 		add	r7, r7, #12
 1895 0042 BD46     		mov	sp, r7
 1896 0044 80BC     		pop	{r7}
 1897 0046 7047     		bx	lr
 1898              		.cfi_endproc
 1899              	.LFE44:
 1901              		.section	.text.TIM_GenerateEvent,"ax",%progbits
 1902              		.align	2
 1903              		.global	TIM_GenerateEvent
 1904              		.thumb
 1905              		.thumb_func
 1907              	TIM_GenerateEvent:
 1908              	.LFB45:
 890:../STM32F10x_StdPeriph_Lib_V3.5.0/Libraries/STM32F10x_StdPeriph_Driver/src/stm32f10x_tim.c **** 
 891:../STM32F10x_StdPeriph_Lib_V3.5.0/Libraries/STM32F10x_StdPeriph_Driver/src/stm32f10x_tim.c **** /**
 892:../STM32F10x_StdPeriph_Lib_V3.5.0/Libraries/STM32F10x_StdPeriph_Driver/src/stm32f10x_tim.c ****   * @brief  Configures the TIMx event to be generate by software.
 893:../STM32F10x_StdPeriph_Lib_V3.5.0/Libraries/STM32F10x_StdPeriph_Driver/src/stm32f10x_tim.c ****   * @param  TIMx: where x can be 1 to 17 to select the TIM peripheral.
 894:../STM32F10x_StdPeriph_Lib_V3.5.0/Libraries/STM32F10x_StdPeriph_Driver/src/stm32f10x_tim.c ****   * @param  TIM_EventSource: specifies the event source.
 895:../STM32F10x_StdPeriph_Lib_V3.5.0/Libraries/STM32F10x_StdPeriph_Driver/src/stm32f10x_tim.c ****   *   This parameter can be one or more of the following values:	   
 896:../STM32F10x_StdPeriph_Lib_V3.5.0/Libraries/STM32F10x_StdPeriph_Driver/src/stm32f10x_tim.c ****   *     @arg TIM_EventSource_Update: Timer update Event source
 897:../STM32F10x_StdPeriph_Lib_V3.5.0/Libraries/STM32F10x_StdPeriph_Driver/src/stm32f10x_tim.c ****   *     @arg TIM_EventSource_CC1: Timer Capture Compare 1 Event source
 898:../STM32F10x_StdPeriph_Lib_V3.5.0/Libraries/STM32F10x_StdPeriph_Driver/src/stm32f10x_tim.c ****   *     @arg TIM_EventSource_CC2: Timer Capture Compare 2 Event source
 899:../STM32F10x_StdPeriph_Lib_V3.5.0/Libraries/STM32F10x_StdPeriph_Driver/src/stm32f10x_tim.c ****   *     @arg TIM_EventSource_CC3: Timer Capture Compare 3 Event source
 900:../STM32F10x_StdPeriph_Lib_V3.5.0/Libraries/STM32F10x_StdPeriph_Driver/src/stm32f10x_tim.c ****   *     @arg TIM_EventSource_CC4: Timer Capture Compare 4 Event source
 901:../STM32F10x_StdPeriph_Lib_V3.5.0/Libraries/STM32F10x_StdPeriph_Driver/src/stm32f10x_tim.c ****   *     @arg TIM_EventSource_COM: Timer COM event source  
 902:../STM32F10x_StdPeriph_Lib_V3.5.0/Libraries/STM32F10x_StdPeriph_Driver/src/stm32f10x_tim.c ****   *     @arg TIM_EventSource_Trigger: Timer Trigger Event source
 903:../STM32F10x_StdPeriph_Lib_V3.5.0/Libraries/STM32F10x_StdPeriph_Driver/src/stm32f10x_tim.c ****   *     @arg TIM_EventSource_Break: Timer Break event source
 904:../STM32F10x_StdPeriph_Lib_V3.5.0/Libraries/STM32F10x_StdPeriph_Driver/src/stm32f10x_tim.c ****   * @note 
 905:../STM32F10x_StdPeriph_Lib_V3.5.0/Libraries/STM32F10x_StdPeriph_Driver/src/stm32f10x_tim.c ****   *   - TIM6 and TIM7 can only generate an update event. 
 906:../STM32F10x_StdPeriph_Lib_V3.5.0/Libraries/STM32F10x_StdPeriph_Driver/src/stm32f10x_tim.c ****   *   - TIM_EventSource_COM and TIM_EventSource_Break are used only with TIM1 and TIM8.      
 907:../STM32F10x_StdPeriph_Lib_V3.5.0/Libraries/STM32F10x_StdPeriph_Driver/src/stm32f10x_tim.c ****   * @retval None
 908:../STM32F10x_StdPeriph_Lib_V3.5.0/Libraries/STM32F10x_StdPeriph_Driver/src/stm32f10x_tim.c ****   */
 909:../STM32F10x_StdPeriph_Lib_V3.5.0/Libraries/STM32F10x_StdPeriph_Driver/src/stm32f10x_tim.c **** void TIM_GenerateEvent(TIM_TypeDef* TIMx, uint16_t TIM_EventSource)
 910:../STM32F10x_StdPeriph_Lib_V3.5.0/Libraries/STM32F10x_StdPeriph_Driver/src/stm32f10x_tim.c **** { 
 1909              		.loc 1 910 0
 1910              		.cfi_startproc
 1911              		@ args = 0, pretend = 0, frame = 8
 1912              		@ frame_needed = 1, uses_anonymous_args = 0
 1913              		@ link register save eliminated.
 1914 0000 80B4     		push	{r7}
 1915              	.LCFI48:
 1916              		.cfi_def_cfa_offset 4
 1917              		.cfi_offset 7, -4
 1918 0002 83B0     		sub	sp, sp, #12
 1919              	.LCFI49:
 1920              		.cfi_def_cfa_offset 16
 1921 0004 00AF     		add	r7, sp, #0
 1922              	.LCFI50:
 1923              		.cfi_def_cfa_register 7
 1924 0006 7860     		str	r0, [r7, #4]
 1925 0008 0B46     		mov	r3, r1
 1926 000a 7B80     		strh	r3, [r7, #2]	@ movhi
 911:../STM32F10x_StdPeriph_Lib_V3.5.0/Libraries/STM32F10x_StdPeriph_Driver/src/stm32f10x_tim.c ****   /* Check the parameters */
 912:../STM32F10x_StdPeriph_Lib_V3.5.0/Libraries/STM32F10x_StdPeriph_Driver/src/stm32f10x_tim.c ****   assert_param(IS_TIM_ALL_PERIPH(TIMx));
 913:../STM32F10x_StdPeriph_Lib_V3.5.0/Libraries/STM32F10x_StdPeriph_Driver/src/stm32f10x_tim.c ****   assert_param(IS_TIM_EVENT_SOURCE(TIM_EventSource));
 914:../STM32F10x_StdPeriph_Lib_V3.5.0/Libraries/STM32F10x_StdPeriph_Driver/src/stm32f10x_tim.c ****   
 915:../STM32F10x_StdPeriph_Lib_V3.5.0/Libraries/STM32F10x_StdPeriph_Driver/src/stm32f10x_tim.c ****   /* Set the event sources */
 916:../STM32F10x_StdPeriph_Lib_V3.5.0/Libraries/STM32F10x_StdPeriph_Driver/src/stm32f10x_tim.c ****   TIMx->EGR = TIM_EventSource;
 1927              		.loc 1 916 0
 1928 000c 7B68     		ldr	r3, [r7, #4]
 1929 000e 7A88     		ldrh	r2, [r7, #2]	@ movhi
 1930 0010 9A82     		strh	r2, [r3, #20]	@ movhi
 917:../STM32F10x_StdPeriph_Lib_V3.5.0/Libraries/STM32F10x_StdPeriph_Driver/src/stm32f10x_tim.c **** }
 1931              		.loc 1 917 0
 1932 0012 07F10C07 		add	r7, r7, #12
 1933 0016 BD46     		mov	sp, r7
 1934 0018 80BC     		pop	{r7}
 1935 001a 7047     		bx	lr
 1936              		.cfi_endproc
 1937              	.LFE45:
 1939              		.section	.text.TIM_DMAConfig,"ax",%progbits
 1940              		.align	2
 1941              		.global	TIM_DMAConfig
 1942              		.thumb
 1943              		.thumb_func
 1945              	TIM_DMAConfig:
 1946              	.LFB46:
 918:../STM32F10x_StdPeriph_Lib_V3.5.0/Libraries/STM32F10x_StdPeriph_Driver/src/stm32f10x_tim.c **** 
 919:../STM32F10x_StdPeriph_Lib_V3.5.0/Libraries/STM32F10x_StdPeriph_Driver/src/stm32f10x_tim.c **** /**
 920:../STM32F10x_StdPeriph_Lib_V3.5.0/Libraries/STM32F10x_StdPeriph_Driver/src/stm32f10x_tim.c ****   * @brief  Configures the TIMx's DMA interface.
 921:../STM32F10x_StdPeriph_Lib_V3.5.0/Libraries/STM32F10x_StdPeriph_Driver/src/stm32f10x_tim.c ****   * @param  TIMx: where x can be  1, 2, 3, 4, 5, 8, 15, 16 or 17 to select 
 922:../STM32F10x_StdPeriph_Lib_V3.5.0/Libraries/STM32F10x_StdPeriph_Driver/src/stm32f10x_tim.c ****   *   the TIM peripheral.
 923:../STM32F10x_StdPeriph_Lib_V3.5.0/Libraries/STM32F10x_StdPeriph_Driver/src/stm32f10x_tim.c ****   * @param  TIM_DMABase: DMA Base address.
 924:../STM32F10x_StdPeriph_Lib_V3.5.0/Libraries/STM32F10x_StdPeriph_Driver/src/stm32f10x_tim.c ****   *   This parameter can be one of the following values:
 925:../STM32F10x_StdPeriph_Lib_V3.5.0/Libraries/STM32F10x_StdPeriph_Driver/src/stm32f10x_tim.c ****   *     @arg TIM_DMABase_CR, TIM_DMABase_CR2, TIM_DMABase_SMCR,
 926:../STM32F10x_StdPeriph_Lib_V3.5.0/Libraries/STM32F10x_StdPeriph_Driver/src/stm32f10x_tim.c ****   *          TIM_DMABase_DIER, TIM1_DMABase_SR, TIM_DMABase_EGR,
 927:../STM32F10x_StdPeriph_Lib_V3.5.0/Libraries/STM32F10x_StdPeriph_Driver/src/stm32f10x_tim.c ****   *          TIM_DMABase_CCMR1, TIM_DMABase_CCMR2, TIM_DMABase_CCER,
 928:../STM32F10x_StdPeriph_Lib_V3.5.0/Libraries/STM32F10x_StdPeriph_Driver/src/stm32f10x_tim.c ****   *          TIM_DMABase_CNT, TIM_DMABase_PSC, TIM_DMABase_ARR,
 929:../STM32F10x_StdPeriph_Lib_V3.5.0/Libraries/STM32F10x_StdPeriph_Driver/src/stm32f10x_tim.c ****   *          TIM_DMABase_RCR, TIM_DMABase_CCR1, TIM_DMABase_CCR2,
 930:../STM32F10x_StdPeriph_Lib_V3.5.0/Libraries/STM32F10x_StdPeriph_Driver/src/stm32f10x_tim.c ****   *          TIM_DMABase_CCR3, TIM_DMABase_CCR4, TIM_DMABase_BDTR,
 931:../STM32F10x_StdPeriph_Lib_V3.5.0/Libraries/STM32F10x_StdPeriph_Driver/src/stm32f10x_tim.c ****   *          TIM_DMABase_DCR.
 932:../STM32F10x_StdPeriph_Lib_V3.5.0/Libraries/STM32F10x_StdPeriph_Driver/src/stm32f10x_tim.c ****   * @param  TIM_DMABurstLength: DMA Burst length.
 933:../STM32F10x_StdPeriph_Lib_V3.5.0/Libraries/STM32F10x_StdPeriph_Driver/src/stm32f10x_tim.c ****   *   This parameter can be one value between:
 934:../STM32F10x_StdPeriph_Lib_V3.5.0/Libraries/STM32F10x_StdPeriph_Driver/src/stm32f10x_tim.c ****   *   TIM_DMABurstLength_1Transfer and TIM_DMABurstLength_18Transfers.
 935:../STM32F10x_StdPeriph_Lib_V3.5.0/Libraries/STM32F10x_StdPeriph_Driver/src/stm32f10x_tim.c ****   * @retval None
 936:../STM32F10x_StdPeriph_Lib_V3.5.0/Libraries/STM32F10x_StdPeriph_Driver/src/stm32f10x_tim.c ****   */
 937:../STM32F10x_StdPeriph_Lib_V3.5.0/Libraries/STM32F10x_StdPeriph_Driver/src/stm32f10x_tim.c **** void TIM_DMAConfig(TIM_TypeDef* TIMx, uint16_t TIM_DMABase, uint16_t TIM_DMABurstLength)
 938:../STM32F10x_StdPeriph_Lib_V3.5.0/Libraries/STM32F10x_StdPeriph_Driver/src/stm32f10x_tim.c **** {
 1947              		.loc 1 938 0
 1948              		.cfi_startproc
 1949              		@ args = 0, pretend = 0, frame = 8
 1950              		@ frame_needed = 1, uses_anonymous_args = 0
 1951              		@ link register save eliminated.
 1952 0000 80B4     		push	{r7}
 1953              	.LCFI51:
 1954              		.cfi_def_cfa_offset 4
 1955              		.cfi_offset 7, -4
 1956 0002 83B0     		sub	sp, sp, #12
 1957              	.LCFI52:
 1958              		.cfi_def_cfa_offset 16
 1959 0004 00AF     		add	r7, sp, #0
 1960              	.LCFI53:
 1961              		.cfi_def_cfa_register 7
 1962 0006 7860     		str	r0, [r7, #4]
 1963 0008 1346     		mov	r3, r2
 1964 000a 0A46     		mov	r2, r1	@ movhi
 1965 000c 7A80     		strh	r2, [r7, #2]	@ movhi
 1966 000e 3B80     		strh	r3, [r7, #0]	@ movhi
 939:../STM32F10x_StdPeriph_Lib_V3.5.0/Libraries/STM32F10x_StdPeriph_Driver/src/stm32f10x_tim.c ****   /* Check the parameters */
 940:../STM32F10x_StdPeriph_Lib_V3.5.0/Libraries/STM32F10x_StdPeriph_Driver/src/stm32f10x_tim.c ****   assert_param(IS_TIM_LIST4_PERIPH(TIMx));
 941:../STM32F10x_StdPeriph_Lib_V3.5.0/Libraries/STM32F10x_StdPeriph_Driver/src/stm32f10x_tim.c ****   assert_param(IS_TIM_DMA_BASE(TIM_DMABase));
 942:../STM32F10x_StdPeriph_Lib_V3.5.0/Libraries/STM32F10x_StdPeriph_Driver/src/stm32f10x_tim.c ****   assert_param(IS_TIM_DMA_LENGTH(TIM_DMABurstLength));
 943:../STM32F10x_StdPeriph_Lib_V3.5.0/Libraries/STM32F10x_StdPeriph_Driver/src/stm32f10x_tim.c ****   /* Set the DMA Base and the DMA Burst Length */
 944:../STM32F10x_StdPeriph_Lib_V3.5.0/Libraries/STM32F10x_StdPeriph_Driver/src/stm32f10x_tim.c ****   TIMx->DCR = TIM_DMABase | TIM_DMABurstLength;
 1967              		.loc 1 944 0
 1968 0010 7A88     		ldrh	r2, [r7, #2]	@ movhi
 1969 0012 3B88     		ldrh	r3, [r7, #0]	@ movhi
 1970 0014 1343     		orrs	r3, r3, r2
 1971 0016 9AB2     		uxth	r2, r3
 1972 0018 7B68     		ldr	r3, [r7, #4]
 1973 001a A3F84820 		strh	r2, [r3, #72]	@ movhi
 945:../STM32F10x_StdPeriph_Lib_V3.5.0/Libraries/STM32F10x_StdPeriph_Driver/src/stm32f10x_tim.c **** }
 1974              		.loc 1 945 0
 1975 001e 07F10C07 		add	r7, r7, #12
 1976 0022 BD46     		mov	sp, r7
 1977 0024 80BC     		pop	{r7}
 1978 0026 7047     		bx	lr
 1979              		.cfi_endproc
 1980              	.LFE46:
 1982              		.section	.text.TIM_DMACmd,"ax",%progbits
 1983              		.align	2
 1984              		.global	TIM_DMACmd
 1985              		.thumb
 1986              		.thumb_func
 1988              	TIM_DMACmd:
 1989              	.LFB47:
 946:../STM32F10x_StdPeriph_Lib_V3.5.0/Libraries/STM32F10x_StdPeriph_Driver/src/stm32f10x_tim.c **** 
 947:../STM32F10x_StdPeriph_Lib_V3.5.0/Libraries/STM32F10x_StdPeriph_Driver/src/stm32f10x_tim.c **** /**
 948:../STM32F10x_StdPeriph_Lib_V3.5.0/Libraries/STM32F10x_StdPeriph_Driver/src/stm32f10x_tim.c ****   * @brief  Enables or disables the TIMx's DMA Requests.
 949:../STM32F10x_StdPeriph_Lib_V3.5.0/Libraries/STM32F10x_StdPeriph_Driver/src/stm32f10x_tim.c ****   * @param  TIMx: where x can be  1, 2, 3, 4, 5, 6, 7, 8, 15, 16 or 17 
 950:../STM32F10x_StdPeriph_Lib_V3.5.0/Libraries/STM32F10x_StdPeriph_Driver/src/stm32f10x_tim.c ****   *   to select the TIM peripheral. 
 951:../STM32F10x_StdPeriph_Lib_V3.5.0/Libraries/STM32F10x_StdPeriph_Driver/src/stm32f10x_tim.c ****   * @param  TIM_DMASource: specifies the DMA Request sources.
 952:../STM32F10x_StdPeriph_Lib_V3.5.0/Libraries/STM32F10x_StdPeriph_Driver/src/stm32f10x_tim.c ****   *   This parameter can be any combination of the following values:
 953:../STM32F10x_StdPeriph_Lib_V3.5.0/Libraries/STM32F10x_StdPeriph_Driver/src/stm32f10x_tim.c ****   *     @arg TIM_DMA_Update: TIM update Interrupt source
 954:../STM32F10x_StdPeriph_Lib_V3.5.0/Libraries/STM32F10x_StdPeriph_Driver/src/stm32f10x_tim.c ****   *     @arg TIM_DMA_CC1: TIM Capture Compare 1 DMA source
 955:../STM32F10x_StdPeriph_Lib_V3.5.0/Libraries/STM32F10x_StdPeriph_Driver/src/stm32f10x_tim.c ****   *     @arg TIM_DMA_CC2: TIM Capture Compare 2 DMA source
 956:../STM32F10x_StdPeriph_Lib_V3.5.0/Libraries/STM32F10x_StdPeriph_Driver/src/stm32f10x_tim.c ****   *     @arg TIM_DMA_CC3: TIM Capture Compare 3 DMA source
 957:../STM32F10x_StdPeriph_Lib_V3.5.0/Libraries/STM32F10x_StdPeriph_Driver/src/stm32f10x_tim.c ****   *     @arg TIM_DMA_CC4: TIM Capture Compare 4 DMA source
 958:../STM32F10x_StdPeriph_Lib_V3.5.0/Libraries/STM32F10x_StdPeriph_Driver/src/stm32f10x_tim.c ****   *     @arg TIM_DMA_COM: TIM Commutation DMA source
 959:../STM32F10x_StdPeriph_Lib_V3.5.0/Libraries/STM32F10x_StdPeriph_Driver/src/stm32f10x_tim.c ****   *     @arg TIM_DMA_Trigger: TIM Trigger DMA source
 960:../STM32F10x_StdPeriph_Lib_V3.5.0/Libraries/STM32F10x_StdPeriph_Driver/src/stm32f10x_tim.c ****   * @param  NewState: new state of the DMA Request sources.
 961:../STM32F10x_StdPeriph_Lib_V3.5.0/Libraries/STM32F10x_StdPeriph_Driver/src/stm32f10x_tim.c ****   *   This parameter can be: ENABLE or DISABLE.
 962:../STM32F10x_StdPeriph_Lib_V3.5.0/Libraries/STM32F10x_StdPeriph_Driver/src/stm32f10x_tim.c ****   * @retval None
 963:../STM32F10x_StdPeriph_Lib_V3.5.0/Libraries/STM32F10x_StdPeriph_Driver/src/stm32f10x_tim.c ****   */
 964:../STM32F10x_StdPeriph_Lib_V3.5.0/Libraries/STM32F10x_StdPeriph_Driver/src/stm32f10x_tim.c **** void TIM_DMACmd(TIM_TypeDef* TIMx, uint16_t TIM_DMASource, FunctionalState NewState)
 965:../STM32F10x_StdPeriph_Lib_V3.5.0/Libraries/STM32F10x_StdPeriph_Driver/src/stm32f10x_tim.c **** { 
 1990              		.loc 1 965 0
 1991              		.cfi_startproc
 1992              		@ args = 0, pretend = 0, frame = 8
 1993              		@ frame_needed = 1, uses_anonymous_args = 0
 1994              		@ link register save eliminated.
 1995 0000 80B4     		push	{r7}
 1996              	.LCFI54:
 1997              		.cfi_def_cfa_offset 4
 1998              		.cfi_offset 7, -4
 1999 0002 83B0     		sub	sp, sp, #12
 2000              	.LCFI55:
 2001              		.cfi_def_cfa_offset 16
 2002 0004 00AF     		add	r7, sp, #0
 2003              	.LCFI56:
 2004              		.cfi_def_cfa_register 7
 2005 0006 7860     		str	r0, [r7, #4]
 2006 0008 1346     		mov	r3, r2
 2007 000a 0A46     		mov	r2, r1	@ movhi
 2008 000c 7A80     		strh	r2, [r7, #2]	@ movhi
 2009 000e 7B70     		strb	r3, [r7, #1]
 966:../STM32F10x_StdPeriph_Lib_V3.5.0/Libraries/STM32F10x_StdPeriph_Driver/src/stm32f10x_tim.c ****   /* Check the parameters */
 967:../STM32F10x_StdPeriph_Lib_V3.5.0/Libraries/STM32F10x_StdPeriph_Driver/src/stm32f10x_tim.c ****   assert_param(IS_TIM_LIST9_PERIPH(TIMx));
 968:../STM32F10x_StdPeriph_Lib_V3.5.0/Libraries/STM32F10x_StdPeriph_Driver/src/stm32f10x_tim.c ****   assert_param(IS_TIM_DMA_SOURCE(TIM_DMASource));
 969:../STM32F10x_StdPeriph_Lib_V3.5.0/Libraries/STM32F10x_StdPeriph_Driver/src/stm32f10x_tim.c ****   assert_param(IS_FUNCTIONAL_STATE(NewState));
 970:../STM32F10x_StdPeriph_Lib_V3.5.0/Libraries/STM32F10x_StdPeriph_Driver/src/stm32f10x_tim.c ****   
 971:../STM32F10x_StdPeriph_Lib_V3.5.0/Libraries/STM32F10x_StdPeriph_Driver/src/stm32f10x_tim.c ****   if (NewState != DISABLE)
 2010              		.loc 1 971 0
 2011 0010 7B78     		ldrb	r3, [r7, #1]	@ zero_extendqisi2
 2012 0012 002B     		cmp	r3, #0
 2013 0014 08D0     		beq	.L78
 972:../STM32F10x_StdPeriph_Lib_V3.5.0/Libraries/STM32F10x_StdPeriph_Driver/src/stm32f10x_tim.c ****   {
 973:../STM32F10x_StdPeriph_Lib_V3.5.0/Libraries/STM32F10x_StdPeriph_Driver/src/stm32f10x_tim.c ****     /* Enable the DMA sources */
 974:../STM32F10x_StdPeriph_Lib_V3.5.0/Libraries/STM32F10x_StdPeriph_Driver/src/stm32f10x_tim.c ****     TIMx->DIER |= TIM_DMASource; 
 2014              		.loc 1 974 0
 2015 0016 7B68     		ldr	r3, [r7, #4]
 2016 0018 9B89     		ldrh	r3, [r3, #12]	@ movhi
 2017 001a 9AB2     		uxth	r2, r3
 2018 001c 7B88     		ldrh	r3, [r7, #2]	@ movhi
 2019 001e 1343     		orrs	r3, r3, r2
 2020 0020 9AB2     		uxth	r2, r3
 2021 0022 7B68     		ldr	r3, [r7, #4]
 2022 0024 9A81     		strh	r2, [r3, #12]	@ movhi
 2023 0026 0AE0     		b	.L77
 2024              	.L78:
 975:../STM32F10x_StdPeriph_Lib_V3.5.0/Libraries/STM32F10x_StdPeriph_Driver/src/stm32f10x_tim.c ****   }
 976:../STM32F10x_StdPeriph_Lib_V3.5.0/Libraries/STM32F10x_StdPeriph_Driver/src/stm32f10x_tim.c ****   else
 977:../STM32F10x_StdPeriph_Lib_V3.5.0/Libraries/STM32F10x_StdPeriph_Driver/src/stm32f10x_tim.c ****   {
 978:../STM32F10x_StdPeriph_Lib_V3.5.0/Libraries/STM32F10x_StdPeriph_Driver/src/stm32f10x_tim.c ****     /* Disable the DMA sources */
 979:../STM32F10x_StdPeriph_Lib_V3.5.0/Libraries/STM32F10x_StdPeriph_Driver/src/stm32f10x_tim.c ****     TIMx->DIER &= (uint16_t)~TIM_DMASource;
 2025              		.loc 1 979 0
 2026 0028 7B68     		ldr	r3, [r7, #4]
 2027 002a 9B89     		ldrh	r3, [r3, #12]	@ movhi
 2028 002c 9AB2     		uxth	r2, r3
 2029 002e 7B88     		ldrh	r3, [r7, #2]	@ movhi
 2030 0030 6FEA0303 		mvn	r3, r3
 2031 0034 9BB2     		uxth	r3, r3
 2032 0036 1340     		ands	r3, r3, r2
 2033 0038 9AB2     		uxth	r2, r3
 2034 003a 7B68     		ldr	r3, [r7, #4]
 2035 003c 9A81     		strh	r2, [r3, #12]	@ movhi
 2036              	.L77:
 980:../STM32F10x_StdPeriph_Lib_V3.5.0/Libraries/STM32F10x_StdPeriph_Driver/src/stm32f10x_tim.c ****   }
 981:../STM32F10x_StdPeriph_Lib_V3.5.0/Libraries/STM32F10x_StdPeriph_Driver/src/stm32f10x_tim.c **** }
 2037              		.loc 1 981 0
 2038 003e 07F10C07 		add	r7, r7, #12
 2039 0042 BD46     		mov	sp, r7
 2040 0044 80BC     		pop	{r7}
 2041 0046 7047     		bx	lr
 2042              		.cfi_endproc
 2043              	.LFE47:
 2045              		.section	.text.TIM_InternalClockConfig,"ax",%progbits
 2046              		.align	2
 2047              		.global	TIM_InternalClockConfig
 2048              		.thumb
 2049              		.thumb_func
 2051              	TIM_InternalClockConfig:
 2052              	.LFB48:
 982:../STM32F10x_StdPeriph_Lib_V3.5.0/Libraries/STM32F10x_StdPeriph_Driver/src/stm32f10x_tim.c **** 
 983:../STM32F10x_StdPeriph_Lib_V3.5.0/Libraries/STM32F10x_StdPeriph_Driver/src/stm32f10x_tim.c **** /**
 984:../STM32F10x_StdPeriph_Lib_V3.5.0/Libraries/STM32F10x_StdPeriph_Driver/src/stm32f10x_tim.c ****   * @brief  Configures the TIMx internal Clock
 985:../STM32F10x_StdPeriph_Lib_V3.5.0/Libraries/STM32F10x_StdPeriph_Driver/src/stm32f10x_tim.c ****   * @param  TIMx: where x can be  1, 2, 3, 4, 5, 8, 9, 12 or 15
 986:../STM32F10x_StdPeriph_Lib_V3.5.0/Libraries/STM32F10x_StdPeriph_Driver/src/stm32f10x_tim.c ****   *         to select the TIM peripheral.
 987:../STM32F10x_StdPeriph_Lib_V3.5.0/Libraries/STM32F10x_StdPeriph_Driver/src/stm32f10x_tim.c ****   * @retval None
 988:../STM32F10x_StdPeriph_Lib_V3.5.0/Libraries/STM32F10x_StdPeriph_Driver/src/stm32f10x_tim.c ****   */
 989:../STM32F10x_StdPeriph_Lib_V3.5.0/Libraries/STM32F10x_StdPeriph_Driver/src/stm32f10x_tim.c **** void TIM_InternalClockConfig(TIM_TypeDef* TIMx)
 990:../STM32F10x_StdPeriph_Lib_V3.5.0/Libraries/STM32F10x_StdPeriph_Driver/src/stm32f10x_tim.c **** {
 2053              		.loc 1 990 0
 2054              		.cfi_startproc
 2055              		@ args = 0, pretend = 0, frame = 8
 2056              		@ frame_needed = 1, uses_anonymous_args = 0
 2057              		@ link register save eliminated.
 2058 0000 80B4     		push	{r7}
 2059              	.LCFI57:
 2060              		.cfi_def_cfa_offset 4
 2061              		.cfi_offset 7, -4
 2062 0002 83B0     		sub	sp, sp, #12
 2063              	.LCFI58:
 2064              		.cfi_def_cfa_offset 16
 2065 0004 00AF     		add	r7, sp, #0
 2066              	.LCFI59:
 2067              		.cfi_def_cfa_register 7
 2068 0006 7860     		str	r0, [r7, #4]
 991:../STM32F10x_StdPeriph_Lib_V3.5.0/Libraries/STM32F10x_StdPeriph_Driver/src/stm32f10x_tim.c ****   /* Check the parameters */
 992:../STM32F10x_StdPeriph_Lib_V3.5.0/Libraries/STM32F10x_StdPeriph_Driver/src/stm32f10x_tim.c ****   assert_param(IS_TIM_LIST6_PERIPH(TIMx));
 993:../STM32F10x_StdPeriph_Lib_V3.5.0/Libraries/STM32F10x_StdPeriph_Driver/src/stm32f10x_tim.c ****   /* Disable slave mode to clock the prescaler directly with the internal clock */
 994:../STM32F10x_StdPeriph_Lib_V3.5.0/Libraries/STM32F10x_StdPeriph_Driver/src/stm32f10x_tim.c ****   TIMx->SMCR &=  (uint16_t)(~((uint16_t)TIM_SMCR_SMS));
 2069              		.loc 1 994 0
 2070 0008 7B68     		ldr	r3, [r7, #4]
 2071 000a 1B89     		ldrh	r3, [r3, #8]	@ movhi
 2072 000c 9BB2     		uxth	r3, r3
 2073 000e 23F00703 		bic	r3, r3, #7
 2074 0012 9AB2     		uxth	r2, r3
 2075 0014 7B68     		ldr	r3, [r7, #4]
 2076 0016 1A81     		strh	r2, [r3, #8]	@ movhi
 995:../STM32F10x_StdPeriph_Lib_V3.5.0/Libraries/STM32F10x_StdPeriph_Driver/src/stm32f10x_tim.c **** }
 2077              		.loc 1 995 0
 2078 0018 07F10C07 		add	r7, r7, #12
 2079 001c BD46     		mov	sp, r7
 2080 001e 80BC     		pop	{r7}
 2081 0020 7047     		bx	lr
 2082              		.cfi_endproc
 2083              	.LFE48:
 2085 0022 00BF     		.section	.text.TIM_ITRxExternalClockConfig,"ax",%progbits
 2086              		.align	2
 2087              		.global	TIM_ITRxExternalClockConfig
 2088              		.thumb
 2089              		.thumb_func
 2091              	TIM_ITRxExternalClockConfig:
 2092              	.LFB49:
 996:../STM32F10x_StdPeriph_Lib_V3.5.0/Libraries/STM32F10x_StdPeriph_Driver/src/stm32f10x_tim.c **** 
 997:../STM32F10x_StdPeriph_Lib_V3.5.0/Libraries/STM32F10x_StdPeriph_Driver/src/stm32f10x_tim.c **** /**
 998:../STM32F10x_StdPeriph_Lib_V3.5.0/Libraries/STM32F10x_StdPeriph_Driver/src/stm32f10x_tim.c ****   * @brief  Configures the TIMx Internal Trigger as External Clock
 999:../STM32F10x_StdPeriph_Lib_V3.5.0/Libraries/STM32F10x_StdPeriph_Driver/src/stm32f10x_tim.c ****   * @param  TIMx: where x can be  1, 2, 3, 4, 5, 9, 12 or 15 to select the TIM peripheral.
1000:../STM32F10x_StdPeriph_Lib_V3.5.0/Libraries/STM32F10x_StdPeriph_Driver/src/stm32f10x_tim.c ****   * @param  TIM_ITRSource: Trigger source.
1001:../STM32F10x_StdPeriph_Lib_V3.5.0/Libraries/STM32F10x_StdPeriph_Driver/src/stm32f10x_tim.c ****   *   This parameter can be one of the following values:
1002:../STM32F10x_StdPeriph_Lib_V3.5.0/Libraries/STM32F10x_StdPeriph_Driver/src/stm32f10x_tim.c ****   * @param  TIM_TS_ITR0: Internal Trigger 0
1003:../STM32F10x_StdPeriph_Lib_V3.5.0/Libraries/STM32F10x_StdPeriph_Driver/src/stm32f10x_tim.c ****   * @param  TIM_TS_ITR1: Internal Trigger 1
1004:../STM32F10x_StdPeriph_Lib_V3.5.0/Libraries/STM32F10x_StdPeriph_Driver/src/stm32f10x_tim.c ****   * @param  TIM_TS_ITR2: Internal Trigger 2
1005:../STM32F10x_StdPeriph_Lib_V3.5.0/Libraries/STM32F10x_StdPeriph_Driver/src/stm32f10x_tim.c ****   * @param  TIM_TS_ITR3: Internal Trigger 3
1006:../STM32F10x_StdPeriph_Lib_V3.5.0/Libraries/STM32F10x_StdPeriph_Driver/src/stm32f10x_tim.c ****   * @retval None
1007:../STM32F10x_StdPeriph_Lib_V3.5.0/Libraries/STM32F10x_StdPeriph_Driver/src/stm32f10x_tim.c ****   */
1008:../STM32F10x_StdPeriph_Lib_V3.5.0/Libraries/STM32F10x_StdPeriph_Driver/src/stm32f10x_tim.c **** void TIM_ITRxExternalClockConfig(TIM_TypeDef* TIMx, uint16_t TIM_InputTriggerSource)
1009:../STM32F10x_StdPeriph_Lib_V3.5.0/Libraries/STM32F10x_StdPeriph_Driver/src/stm32f10x_tim.c **** {
 2093              		.loc 1 1009 0
 2094              		.cfi_startproc
 2095              		@ args = 0, pretend = 0, frame = 8
 2096              		@ frame_needed = 1, uses_anonymous_args = 0
 2097 0000 80B5     		push	{r7, lr}
 2098              	.LCFI60:
 2099              		.cfi_def_cfa_offset 8
 2100              		.cfi_offset 7, -8
 2101              		.cfi_offset 14, -4
 2102 0002 82B0     		sub	sp, sp, #8
 2103              	.LCFI61:
 2104              		.cfi_def_cfa_offset 16
 2105 0004 00AF     		add	r7, sp, #0
 2106              	.LCFI62:
 2107              		.cfi_def_cfa_register 7
 2108 0006 7860     		str	r0, [r7, #4]
 2109 0008 0B46     		mov	r3, r1
 2110 000a 7B80     		strh	r3, [r7, #2]	@ movhi
1010:../STM32F10x_StdPeriph_Lib_V3.5.0/Libraries/STM32F10x_StdPeriph_Driver/src/stm32f10x_tim.c ****   /* Check the parameters */
1011:../STM32F10x_StdPeriph_Lib_V3.5.0/Libraries/STM32F10x_StdPeriph_Driver/src/stm32f10x_tim.c ****   assert_param(IS_TIM_LIST6_PERIPH(TIMx));
1012:../STM32F10x_StdPeriph_Lib_V3.5.0/Libraries/STM32F10x_StdPeriph_Driver/src/stm32f10x_tim.c ****   assert_param(IS_TIM_INTERNAL_TRIGGER_SELECTION(TIM_InputTriggerSource));
1013:../STM32F10x_StdPeriph_Lib_V3.5.0/Libraries/STM32F10x_StdPeriph_Driver/src/stm32f10x_tim.c ****   /* Select the Internal Trigger */
1014:../STM32F10x_StdPeriph_Lib_V3.5.0/Libraries/STM32F10x_StdPeriph_Driver/src/stm32f10x_tim.c ****   TIM_SelectInputTrigger(TIMx, TIM_InputTriggerSource);
 2111              		.loc 1 1014 0
 2112 000c 7B88     		ldrh	r3, [r7, #2]
 2113 000e 7868     		ldr	r0, [r7, #4]
 2114 0010 1946     		mov	r1, r3
 2115 0012 FFF7FEFF 		bl	TIM_SelectInputTrigger
1015:../STM32F10x_StdPeriph_Lib_V3.5.0/Libraries/STM32F10x_StdPeriph_Driver/src/stm32f10x_tim.c ****   /* Select the External clock mode1 */
1016:../STM32F10x_StdPeriph_Lib_V3.5.0/Libraries/STM32F10x_StdPeriph_Driver/src/stm32f10x_tim.c ****   TIMx->SMCR |= TIM_SlaveMode_External1;
 2116              		.loc 1 1016 0
 2117 0016 7B68     		ldr	r3, [r7, #4]
 2118 0018 1B89     		ldrh	r3, [r3, #8]	@ movhi
 2119 001a 9BB2     		uxth	r3, r3
 2120 001c 43F00703 		orr	r3, r3, #7
 2121 0020 9AB2     		uxth	r2, r3
 2122 0022 7B68     		ldr	r3, [r7, #4]
 2123 0024 1A81     		strh	r2, [r3, #8]	@ movhi
1017:../STM32F10x_StdPeriph_Lib_V3.5.0/Libraries/STM32F10x_StdPeriph_Driver/src/stm32f10x_tim.c **** }
 2124              		.loc 1 1017 0
 2125 0026 07F10807 		add	r7, r7, #8
 2126 002a BD46     		mov	sp, r7
 2127 002c 80BD     		pop	{r7, pc}
 2128              		.cfi_endproc
 2129              	.LFE49:
 2131 002e 00BF     		.section	.text.TIM_TIxExternalClockConfig,"ax",%progbits
 2132              		.align	2
 2133              		.global	TIM_TIxExternalClockConfig
 2134              		.thumb
 2135              		.thumb_func
 2137              	TIM_TIxExternalClockConfig:
 2138              	.LFB50:
1018:../STM32F10x_StdPeriph_Lib_V3.5.0/Libraries/STM32F10x_StdPeriph_Driver/src/stm32f10x_tim.c **** 
1019:../STM32F10x_StdPeriph_Lib_V3.5.0/Libraries/STM32F10x_StdPeriph_Driver/src/stm32f10x_tim.c **** /**
1020:../STM32F10x_StdPeriph_Lib_V3.5.0/Libraries/STM32F10x_StdPeriph_Driver/src/stm32f10x_tim.c ****   * @brief  Configures the TIMx Trigger as External Clock
1021:../STM32F10x_StdPeriph_Lib_V3.5.0/Libraries/STM32F10x_StdPeriph_Driver/src/stm32f10x_tim.c ****   * @param  TIMx: where x can be  1, 2, 3, 4, 5, 9, 12 or 15 to select the TIM peripheral.
1022:../STM32F10x_StdPeriph_Lib_V3.5.0/Libraries/STM32F10x_StdPeriph_Driver/src/stm32f10x_tim.c ****   * @param  TIM_TIxExternalCLKSource: Trigger source.
1023:../STM32F10x_StdPeriph_Lib_V3.5.0/Libraries/STM32F10x_StdPeriph_Driver/src/stm32f10x_tim.c ****   *   This parameter can be one of the following values:
1024:../STM32F10x_StdPeriph_Lib_V3.5.0/Libraries/STM32F10x_StdPeriph_Driver/src/stm32f10x_tim.c ****   *     @arg TIM_TIxExternalCLK1Source_TI1ED: TI1 Edge Detector
1025:../STM32F10x_StdPeriph_Lib_V3.5.0/Libraries/STM32F10x_StdPeriph_Driver/src/stm32f10x_tim.c ****   *     @arg TIM_TIxExternalCLK1Source_TI1: Filtered Timer Input 1
1026:../STM32F10x_StdPeriph_Lib_V3.5.0/Libraries/STM32F10x_StdPeriph_Driver/src/stm32f10x_tim.c ****   *     @arg TIM_TIxExternalCLK1Source_TI2: Filtered Timer Input 2
1027:../STM32F10x_StdPeriph_Lib_V3.5.0/Libraries/STM32F10x_StdPeriph_Driver/src/stm32f10x_tim.c ****   * @param  TIM_ICPolarity: specifies the TIx Polarity.
1028:../STM32F10x_StdPeriph_Lib_V3.5.0/Libraries/STM32F10x_StdPeriph_Driver/src/stm32f10x_tim.c ****   *   This parameter can be one of the following values:
1029:../STM32F10x_StdPeriph_Lib_V3.5.0/Libraries/STM32F10x_StdPeriph_Driver/src/stm32f10x_tim.c ****   *     @arg TIM_ICPolarity_Rising
1030:../STM32F10x_StdPeriph_Lib_V3.5.0/Libraries/STM32F10x_StdPeriph_Driver/src/stm32f10x_tim.c ****   *     @arg TIM_ICPolarity_Falling
1031:../STM32F10x_StdPeriph_Lib_V3.5.0/Libraries/STM32F10x_StdPeriph_Driver/src/stm32f10x_tim.c ****   * @param  ICFilter : specifies the filter value.
1032:../STM32F10x_StdPeriph_Lib_V3.5.0/Libraries/STM32F10x_StdPeriph_Driver/src/stm32f10x_tim.c ****   *   This parameter must be a value between 0x0 and 0xF.
1033:../STM32F10x_StdPeriph_Lib_V3.5.0/Libraries/STM32F10x_StdPeriph_Driver/src/stm32f10x_tim.c ****   * @retval None
1034:../STM32F10x_StdPeriph_Lib_V3.5.0/Libraries/STM32F10x_StdPeriph_Driver/src/stm32f10x_tim.c ****   */
1035:../STM32F10x_StdPeriph_Lib_V3.5.0/Libraries/STM32F10x_StdPeriph_Driver/src/stm32f10x_tim.c **** void TIM_TIxExternalClockConfig(TIM_TypeDef* TIMx, uint16_t TIM_TIxExternalCLKSource,
1036:../STM32F10x_StdPeriph_Lib_V3.5.0/Libraries/STM32F10x_StdPeriph_Driver/src/stm32f10x_tim.c ****                                 uint16_t TIM_ICPolarity, uint16_t ICFilter)
1037:../STM32F10x_StdPeriph_Lib_V3.5.0/Libraries/STM32F10x_StdPeriph_Driver/src/stm32f10x_tim.c **** {
 2139              		.loc 1 1037 0
 2140              		.cfi_startproc
 2141              		@ args = 0, pretend = 0, frame = 16
 2142              		@ frame_needed = 1, uses_anonymous_args = 0
 2143 0000 80B5     		push	{r7, lr}
 2144              	.LCFI63:
 2145              		.cfi_def_cfa_offset 8
 2146              		.cfi_offset 7, -8
 2147              		.cfi_offset 14, -4
 2148 0002 84B0     		sub	sp, sp, #16
 2149              	.LCFI64:
 2150              		.cfi_def_cfa_offset 24
 2151 0004 00AF     		add	r7, sp, #0
 2152              	.LCFI65:
 2153              		.cfi_def_cfa_register 7
 2154 0006 F860     		str	r0, [r7, #12]
 2155 0008 7981     		strh	r1, [r7, #10]	@ movhi
 2156 000a 3A81     		strh	r2, [r7, #8]	@ movhi
 2157 000c FB80     		strh	r3, [r7, #6]	@ movhi
1038:../STM32F10x_StdPeriph_Lib_V3.5.0/Libraries/STM32F10x_StdPeriph_Driver/src/stm32f10x_tim.c ****   /* Check the parameters */
1039:../STM32F10x_StdPeriph_Lib_V3.5.0/Libraries/STM32F10x_StdPeriph_Driver/src/stm32f10x_tim.c ****   assert_param(IS_TIM_LIST6_PERIPH(TIMx));
1040:../STM32F10x_StdPeriph_Lib_V3.5.0/Libraries/STM32F10x_StdPeriph_Driver/src/stm32f10x_tim.c ****   assert_param(IS_TIM_TIXCLK_SOURCE(TIM_TIxExternalCLKSource));
1041:../STM32F10x_StdPeriph_Lib_V3.5.0/Libraries/STM32F10x_StdPeriph_Driver/src/stm32f10x_tim.c ****   assert_param(IS_TIM_IC_POLARITY(TIM_ICPolarity));
1042:../STM32F10x_StdPeriph_Lib_V3.5.0/Libraries/STM32F10x_StdPeriph_Driver/src/stm32f10x_tim.c ****   assert_param(IS_TIM_IC_FILTER(ICFilter));
1043:../STM32F10x_StdPeriph_Lib_V3.5.0/Libraries/STM32F10x_StdPeriph_Driver/src/stm32f10x_tim.c ****   /* Configure the Timer Input Clock Source */
1044:../STM32F10x_StdPeriph_Lib_V3.5.0/Libraries/STM32F10x_StdPeriph_Driver/src/stm32f10x_tim.c ****   if (TIM_TIxExternalCLKSource == TIM_TIxExternalCLK1Source_TI2)
 2158              		.loc 1 1044 0
 2159 000e 7B89     		ldrh	r3, [r7, #10]
 2160 0010 602B     		cmp	r3, #96
 2161 0012 08D1     		bne	.L83
1045:../STM32F10x_StdPeriph_Lib_V3.5.0/Libraries/STM32F10x_StdPeriph_Driver/src/stm32f10x_tim.c ****   {
1046:../STM32F10x_StdPeriph_Lib_V3.5.0/Libraries/STM32F10x_StdPeriph_Driver/src/stm32f10x_tim.c ****     TI2_Config(TIMx, TIM_ICPolarity, TIM_ICSelection_DirectTI, ICFilter);
 2162              		.loc 1 1046 0
 2163 0014 3A89     		ldrh	r2, [r7, #8]
 2164 0016 FB88     		ldrh	r3, [r7, #6]
 2165 0018 F868     		ldr	r0, [r7, #12]
 2166 001a 1146     		mov	r1, r2
 2167 001c 4FF00102 		mov	r2, #1
 2168 0020 FFF7FEFF 		bl	TI2_Config
 2169 0024 07E0     		b	.L84
 2170              	.L83:
1047:../STM32F10x_StdPeriph_Lib_V3.5.0/Libraries/STM32F10x_StdPeriph_Driver/src/stm32f10x_tim.c ****   }
1048:../STM32F10x_StdPeriph_Lib_V3.5.0/Libraries/STM32F10x_StdPeriph_Driver/src/stm32f10x_tim.c ****   else
1049:../STM32F10x_StdPeriph_Lib_V3.5.0/Libraries/STM32F10x_StdPeriph_Driver/src/stm32f10x_tim.c ****   {
1050:../STM32F10x_StdPeriph_Lib_V3.5.0/Libraries/STM32F10x_StdPeriph_Driver/src/stm32f10x_tim.c ****     TI1_Config(TIMx, TIM_ICPolarity, TIM_ICSelection_DirectTI, ICFilter);
 2171              		.loc 1 1050 0
 2172 0026 3A89     		ldrh	r2, [r7, #8]
 2173 0028 FB88     		ldrh	r3, [r7, #6]
 2174 002a F868     		ldr	r0, [r7, #12]
 2175 002c 1146     		mov	r1, r2
 2176 002e 4FF00102 		mov	r2, #1
 2177 0032 FFF7FEFF 		bl	TI1_Config
 2178              	.L84:
1051:../STM32F10x_StdPeriph_Lib_V3.5.0/Libraries/STM32F10x_StdPeriph_Driver/src/stm32f10x_tim.c ****   }
1052:../STM32F10x_StdPeriph_Lib_V3.5.0/Libraries/STM32F10x_StdPeriph_Driver/src/stm32f10x_tim.c ****   /* Select the Trigger source */
1053:../STM32F10x_StdPeriph_Lib_V3.5.0/Libraries/STM32F10x_StdPeriph_Driver/src/stm32f10x_tim.c ****   TIM_SelectInputTrigger(TIMx, TIM_TIxExternalCLKSource);
 2179              		.loc 1 1053 0
 2180 0036 7B89     		ldrh	r3, [r7, #10]
 2181 0038 F868     		ldr	r0, [r7, #12]
 2182 003a 1946     		mov	r1, r3
 2183 003c FFF7FEFF 		bl	TIM_SelectInputTrigger
1054:../STM32F10x_StdPeriph_Lib_V3.5.0/Libraries/STM32F10x_StdPeriph_Driver/src/stm32f10x_tim.c ****   /* Select the External clock mode1 */
1055:../STM32F10x_StdPeriph_Lib_V3.5.0/Libraries/STM32F10x_StdPeriph_Driver/src/stm32f10x_tim.c ****   TIMx->SMCR |= TIM_SlaveMode_External1;
 2184              		.loc 1 1055 0
 2185 0040 FB68     		ldr	r3, [r7, #12]
 2186 0042 1B89     		ldrh	r3, [r3, #8]	@ movhi
 2187 0044 9BB2     		uxth	r3, r3
 2188 0046 43F00703 		orr	r3, r3, #7
 2189 004a 9AB2     		uxth	r2, r3
 2190 004c FB68     		ldr	r3, [r7, #12]
 2191 004e 1A81     		strh	r2, [r3, #8]	@ movhi
1056:../STM32F10x_StdPeriph_Lib_V3.5.0/Libraries/STM32F10x_StdPeriph_Driver/src/stm32f10x_tim.c **** }
 2192              		.loc 1 1056 0
 2193 0050 07F11007 		add	r7, r7, #16
 2194 0054 BD46     		mov	sp, r7
 2195 0056 80BD     		pop	{r7, pc}
 2196              		.cfi_endproc
 2197              	.LFE50:
 2199              		.section	.text.TIM_ETRClockMode1Config,"ax",%progbits
 2200              		.align	2
 2201              		.global	TIM_ETRClockMode1Config
 2202              		.thumb
 2203              		.thumb_func
 2205              	TIM_ETRClockMode1Config:
 2206              	.LFB51:
1057:../STM32F10x_StdPeriph_Lib_V3.5.0/Libraries/STM32F10x_StdPeriph_Driver/src/stm32f10x_tim.c **** 
1058:../STM32F10x_StdPeriph_Lib_V3.5.0/Libraries/STM32F10x_StdPeriph_Driver/src/stm32f10x_tim.c **** /**
1059:../STM32F10x_StdPeriph_Lib_V3.5.0/Libraries/STM32F10x_StdPeriph_Driver/src/stm32f10x_tim.c ****   * @brief  Configures the External clock Mode1
1060:../STM32F10x_StdPeriph_Lib_V3.5.0/Libraries/STM32F10x_StdPeriph_Driver/src/stm32f10x_tim.c ****   * @param  TIMx: where x can be  1, 2, 3, 4, 5 or 8 to select the TIM peripheral.
1061:../STM32F10x_StdPeriph_Lib_V3.5.0/Libraries/STM32F10x_StdPeriph_Driver/src/stm32f10x_tim.c ****   * @param  TIM_ExtTRGPrescaler: The external Trigger Prescaler.
1062:../STM32F10x_StdPeriph_Lib_V3.5.0/Libraries/STM32F10x_StdPeriph_Driver/src/stm32f10x_tim.c ****   *   This parameter can be one of the following values:
1063:../STM32F10x_StdPeriph_Lib_V3.5.0/Libraries/STM32F10x_StdPeriph_Driver/src/stm32f10x_tim.c ****   *     @arg TIM_ExtTRGPSC_OFF: ETRP Prescaler OFF.
1064:../STM32F10x_StdPeriph_Lib_V3.5.0/Libraries/STM32F10x_StdPeriph_Driver/src/stm32f10x_tim.c ****   *     @arg TIM_ExtTRGPSC_DIV2: ETRP frequency divided by 2.
1065:../STM32F10x_StdPeriph_Lib_V3.5.0/Libraries/STM32F10x_StdPeriph_Driver/src/stm32f10x_tim.c ****   *     @arg TIM_ExtTRGPSC_DIV4: ETRP frequency divided by 4.
1066:../STM32F10x_StdPeriph_Lib_V3.5.0/Libraries/STM32F10x_StdPeriph_Driver/src/stm32f10x_tim.c ****   *     @arg TIM_ExtTRGPSC_DIV8: ETRP frequency divided by 8.
1067:../STM32F10x_StdPeriph_Lib_V3.5.0/Libraries/STM32F10x_StdPeriph_Driver/src/stm32f10x_tim.c ****   * @param  TIM_ExtTRGPolarity: The external Trigger Polarity.
1068:../STM32F10x_StdPeriph_Lib_V3.5.0/Libraries/STM32F10x_StdPeriph_Driver/src/stm32f10x_tim.c ****   *   This parameter can be one of the following values:
1069:../STM32F10x_StdPeriph_Lib_V3.5.0/Libraries/STM32F10x_StdPeriph_Driver/src/stm32f10x_tim.c ****   *     @arg TIM_ExtTRGPolarity_Inverted: active low or falling edge active.
1070:../STM32F10x_StdPeriph_Lib_V3.5.0/Libraries/STM32F10x_StdPeriph_Driver/src/stm32f10x_tim.c ****   *     @arg TIM_ExtTRGPolarity_NonInverted: active high or rising edge active.
1071:../STM32F10x_StdPeriph_Lib_V3.5.0/Libraries/STM32F10x_StdPeriph_Driver/src/stm32f10x_tim.c ****   * @param  ExtTRGFilter: External Trigger Filter.
1072:../STM32F10x_StdPeriph_Lib_V3.5.0/Libraries/STM32F10x_StdPeriph_Driver/src/stm32f10x_tim.c ****   *   This parameter must be a value between 0x00 and 0x0F
1073:../STM32F10x_StdPeriph_Lib_V3.5.0/Libraries/STM32F10x_StdPeriph_Driver/src/stm32f10x_tim.c ****   * @retval None
1074:../STM32F10x_StdPeriph_Lib_V3.5.0/Libraries/STM32F10x_StdPeriph_Driver/src/stm32f10x_tim.c ****   */
1075:../STM32F10x_StdPeriph_Lib_V3.5.0/Libraries/STM32F10x_StdPeriph_Driver/src/stm32f10x_tim.c **** void TIM_ETRClockMode1Config(TIM_TypeDef* TIMx, uint16_t TIM_ExtTRGPrescaler, uint16_t TIM_ExtTRGPo
1076:../STM32F10x_StdPeriph_Lib_V3.5.0/Libraries/STM32F10x_StdPeriph_Driver/src/stm32f10x_tim.c ****                              uint16_t ExtTRGFilter)
1077:../STM32F10x_StdPeriph_Lib_V3.5.0/Libraries/STM32F10x_StdPeriph_Driver/src/stm32f10x_tim.c **** {
 2207              		.loc 1 1077 0
 2208              		.cfi_startproc
 2209              		@ args = 0, pretend = 0, frame = 24
 2210              		@ frame_needed = 1, uses_anonymous_args = 0
 2211 0000 80B5     		push	{r7, lr}
 2212              	.LCFI66:
 2213              		.cfi_def_cfa_offset 8
 2214              		.cfi_offset 7, -8
 2215              		.cfi_offset 14, -4
 2216 0002 86B0     		sub	sp, sp, #24
 2217              	.LCFI67:
 2218              		.cfi_def_cfa_offset 32
 2219 0004 00AF     		add	r7, sp, #0
 2220              	.LCFI68:
 2221              		.cfi_def_cfa_register 7
 2222 0006 F860     		str	r0, [r7, #12]
 2223 0008 7981     		strh	r1, [r7, #10]	@ movhi
 2224 000a 3A81     		strh	r2, [r7, #8]	@ movhi
 2225 000c FB80     		strh	r3, [r7, #6]	@ movhi
1078:../STM32F10x_StdPeriph_Lib_V3.5.0/Libraries/STM32F10x_StdPeriph_Driver/src/stm32f10x_tim.c ****   uint16_t tmpsmcr = 0;
 2226              		.loc 1 1078 0
 2227 000e 4FF00003 		mov	r3, #0
 2228 0012 FB82     		strh	r3, [r7, #22]	@ movhi
1079:../STM32F10x_StdPeriph_Lib_V3.5.0/Libraries/STM32F10x_StdPeriph_Driver/src/stm32f10x_tim.c ****   /* Check the parameters */
1080:../STM32F10x_StdPeriph_Lib_V3.5.0/Libraries/STM32F10x_StdPeriph_Driver/src/stm32f10x_tim.c ****   assert_param(IS_TIM_LIST3_PERIPH(TIMx));
1081:../STM32F10x_StdPeriph_Lib_V3.5.0/Libraries/STM32F10x_StdPeriph_Driver/src/stm32f10x_tim.c ****   assert_param(IS_TIM_EXT_PRESCALER(TIM_ExtTRGPrescaler));
1082:../STM32F10x_StdPeriph_Lib_V3.5.0/Libraries/STM32F10x_StdPeriph_Driver/src/stm32f10x_tim.c ****   assert_param(IS_TIM_EXT_POLARITY(TIM_ExtTRGPolarity));
1083:../STM32F10x_StdPeriph_Lib_V3.5.0/Libraries/STM32F10x_StdPeriph_Driver/src/stm32f10x_tim.c ****   assert_param(IS_TIM_EXT_FILTER(ExtTRGFilter));
1084:../STM32F10x_StdPeriph_Lib_V3.5.0/Libraries/STM32F10x_StdPeriph_Driver/src/stm32f10x_tim.c ****   /* Configure the ETR Clock source */
1085:../STM32F10x_StdPeriph_Lib_V3.5.0/Libraries/STM32F10x_StdPeriph_Driver/src/stm32f10x_tim.c ****   TIM_ETRConfig(TIMx, TIM_ExtTRGPrescaler, TIM_ExtTRGPolarity, ExtTRGFilter);
 2229              		.loc 1 1085 0
 2230 0014 7989     		ldrh	r1, [r7, #10]
 2231 0016 3A89     		ldrh	r2, [r7, #8]
 2232 0018 FB88     		ldrh	r3, [r7, #6]
 2233 001a F868     		ldr	r0, [r7, #12]
 2234 001c FFF7FEFF 		bl	TIM_ETRConfig
1086:../STM32F10x_StdPeriph_Lib_V3.5.0/Libraries/STM32F10x_StdPeriph_Driver/src/stm32f10x_tim.c ****   
1087:../STM32F10x_StdPeriph_Lib_V3.5.0/Libraries/STM32F10x_StdPeriph_Driver/src/stm32f10x_tim.c ****   /* Get the TIMx SMCR register value */
1088:../STM32F10x_StdPeriph_Lib_V3.5.0/Libraries/STM32F10x_StdPeriph_Driver/src/stm32f10x_tim.c ****   tmpsmcr = TIMx->SMCR;
 2235              		.loc 1 1088 0
 2236 0020 FB68     		ldr	r3, [r7, #12]
 2237 0022 1B89     		ldrh	r3, [r3, #8]	@ movhi
 2238 0024 FB82     		strh	r3, [r7, #22]	@ movhi
1089:../STM32F10x_StdPeriph_Lib_V3.5.0/Libraries/STM32F10x_StdPeriph_Driver/src/stm32f10x_tim.c ****   /* Reset the SMS Bits */
1090:../STM32F10x_StdPeriph_Lib_V3.5.0/Libraries/STM32F10x_StdPeriph_Driver/src/stm32f10x_tim.c ****   tmpsmcr &= (uint16_t)(~((uint16_t)TIM_SMCR_SMS));
 2239              		.loc 1 1090 0
 2240 0026 FB8A     		ldrh	r3, [r7, #22]	@ movhi
 2241 0028 23F00703 		bic	r3, r3, #7
 2242 002c FB82     		strh	r3, [r7, #22]	@ movhi
1091:../STM32F10x_StdPeriph_Lib_V3.5.0/Libraries/STM32F10x_StdPeriph_Driver/src/stm32f10x_tim.c ****   /* Select the External clock mode1 */
1092:../STM32F10x_StdPeriph_Lib_V3.5.0/Libraries/STM32F10x_StdPeriph_Driver/src/stm32f10x_tim.c ****   tmpsmcr |= TIM_SlaveMode_External1;
 2243              		.loc 1 1092 0
 2244 002e FB8A     		ldrh	r3, [r7, #22]	@ movhi
 2245 0030 43F00703 		orr	r3, r3, #7
 2246 0034 FB82     		strh	r3, [r7, #22]	@ movhi
1093:../STM32F10x_StdPeriph_Lib_V3.5.0/Libraries/STM32F10x_StdPeriph_Driver/src/stm32f10x_tim.c ****   /* Select the Trigger selection : ETRF */
1094:../STM32F10x_StdPeriph_Lib_V3.5.0/Libraries/STM32F10x_StdPeriph_Driver/src/stm32f10x_tim.c ****   tmpsmcr &= (uint16_t)(~((uint16_t)TIM_SMCR_TS));
 2247              		.loc 1 1094 0
 2248 0036 FB8A     		ldrh	r3, [r7, #22]	@ movhi
 2249 0038 23F07003 		bic	r3, r3, #112
 2250 003c FB82     		strh	r3, [r7, #22]	@ movhi
1095:../STM32F10x_StdPeriph_Lib_V3.5.0/Libraries/STM32F10x_StdPeriph_Driver/src/stm32f10x_tim.c ****   tmpsmcr |= TIM_TS_ETRF;
 2251              		.loc 1 1095 0
 2252 003e FB8A     		ldrh	r3, [r7, #22]	@ movhi
 2253 0040 43F07003 		orr	r3, r3, #112
 2254 0044 FB82     		strh	r3, [r7, #22]	@ movhi
1096:../STM32F10x_StdPeriph_Lib_V3.5.0/Libraries/STM32F10x_StdPeriph_Driver/src/stm32f10x_tim.c ****   /* Write to TIMx SMCR */
1097:../STM32F10x_StdPeriph_Lib_V3.5.0/Libraries/STM32F10x_StdPeriph_Driver/src/stm32f10x_tim.c ****   TIMx->SMCR = tmpsmcr;
 2255              		.loc 1 1097 0
 2256 0046 FB68     		ldr	r3, [r7, #12]
 2257 0048 FA8A     		ldrh	r2, [r7, #22]	@ movhi
 2258 004a 1A81     		strh	r2, [r3, #8]	@ movhi
1098:../STM32F10x_StdPeriph_Lib_V3.5.0/Libraries/STM32F10x_StdPeriph_Driver/src/stm32f10x_tim.c **** }
 2259              		.loc 1 1098 0
 2260 004c 07F11807 		add	r7, r7, #24
 2261 0050 BD46     		mov	sp, r7
 2262 0052 80BD     		pop	{r7, pc}
 2263              		.cfi_endproc
 2264              	.LFE51:
 2266              		.section	.text.TIM_ETRClockMode2Config,"ax",%progbits
 2267              		.align	2
 2268              		.global	TIM_ETRClockMode2Config
 2269              		.thumb
 2270              		.thumb_func
 2272              	TIM_ETRClockMode2Config:
 2273              	.LFB52:
1099:../STM32F10x_StdPeriph_Lib_V3.5.0/Libraries/STM32F10x_StdPeriph_Driver/src/stm32f10x_tim.c **** 
1100:../STM32F10x_StdPeriph_Lib_V3.5.0/Libraries/STM32F10x_StdPeriph_Driver/src/stm32f10x_tim.c **** /**
1101:../STM32F10x_StdPeriph_Lib_V3.5.0/Libraries/STM32F10x_StdPeriph_Driver/src/stm32f10x_tim.c ****   * @brief  Configures the External clock Mode2
1102:../STM32F10x_StdPeriph_Lib_V3.5.0/Libraries/STM32F10x_StdPeriph_Driver/src/stm32f10x_tim.c ****   * @param  TIMx: where x can be  1, 2, 3, 4, 5 or 8 to select the TIM peripheral.
1103:../STM32F10x_StdPeriph_Lib_V3.5.0/Libraries/STM32F10x_StdPeriph_Driver/src/stm32f10x_tim.c ****   * @param  TIM_ExtTRGPrescaler: The external Trigger Prescaler.
1104:../STM32F10x_StdPeriph_Lib_V3.5.0/Libraries/STM32F10x_StdPeriph_Driver/src/stm32f10x_tim.c ****   *   This parameter can be one of the following values:
1105:../STM32F10x_StdPeriph_Lib_V3.5.0/Libraries/STM32F10x_StdPeriph_Driver/src/stm32f10x_tim.c ****   *     @arg TIM_ExtTRGPSC_OFF: ETRP Prescaler OFF.
1106:../STM32F10x_StdPeriph_Lib_V3.5.0/Libraries/STM32F10x_StdPeriph_Driver/src/stm32f10x_tim.c ****   *     @arg TIM_ExtTRGPSC_DIV2: ETRP frequency divided by 2.
1107:../STM32F10x_StdPeriph_Lib_V3.5.0/Libraries/STM32F10x_StdPeriph_Driver/src/stm32f10x_tim.c ****   *     @arg TIM_ExtTRGPSC_DIV4: ETRP frequency divided by 4.
1108:../STM32F10x_StdPeriph_Lib_V3.5.0/Libraries/STM32F10x_StdPeriph_Driver/src/stm32f10x_tim.c ****   *     @arg TIM_ExtTRGPSC_DIV8: ETRP frequency divided by 8.
1109:../STM32F10x_StdPeriph_Lib_V3.5.0/Libraries/STM32F10x_StdPeriph_Driver/src/stm32f10x_tim.c ****   * @param  TIM_ExtTRGPolarity: The external Trigger Polarity.
1110:../STM32F10x_StdPeriph_Lib_V3.5.0/Libraries/STM32F10x_StdPeriph_Driver/src/stm32f10x_tim.c ****   *   This parameter can be one of the following values:
1111:../STM32F10x_StdPeriph_Lib_V3.5.0/Libraries/STM32F10x_StdPeriph_Driver/src/stm32f10x_tim.c ****   *     @arg TIM_ExtTRGPolarity_Inverted: active low or falling edge active.
1112:../STM32F10x_StdPeriph_Lib_V3.5.0/Libraries/STM32F10x_StdPeriph_Driver/src/stm32f10x_tim.c ****   *     @arg TIM_ExtTRGPolarity_NonInverted: active high or rising edge active.
1113:../STM32F10x_StdPeriph_Lib_V3.5.0/Libraries/STM32F10x_StdPeriph_Driver/src/stm32f10x_tim.c ****   * @param  ExtTRGFilter: External Trigger Filter.
1114:../STM32F10x_StdPeriph_Lib_V3.5.0/Libraries/STM32F10x_StdPeriph_Driver/src/stm32f10x_tim.c ****   *   This parameter must be a value between 0x00 and 0x0F
1115:../STM32F10x_StdPeriph_Lib_V3.5.0/Libraries/STM32F10x_StdPeriph_Driver/src/stm32f10x_tim.c ****   * @retval None
1116:../STM32F10x_StdPeriph_Lib_V3.5.0/Libraries/STM32F10x_StdPeriph_Driver/src/stm32f10x_tim.c ****   */
1117:../STM32F10x_StdPeriph_Lib_V3.5.0/Libraries/STM32F10x_StdPeriph_Driver/src/stm32f10x_tim.c **** void TIM_ETRClockMode2Config(TIM_TypeDef* TIMx, uint16_t TIM_ExtTRGPrescaler, 
1118:../STM32F10x_StdPeriph_Lib_V3.5.0/Libraries/STM32F10x_StdPeriph_Driver/src/stm32f10x_tim.c ****                              uint16_t TIM_ExtTRGPolarity, uint16_t ExtTRGFilter)
1119:../STM32F10x_StdPeriph_Lib_V3.5.0/Libraries/STM32F10x_StdPeriph_Driver/src/stm32f10x_tim.c **** {
 2274              		.loc 1 1119 0
 2275              		.cfi_startproc
 2276              		@ args = 0, pretend = 0, frame = 16
 2277              		@ frame_needed = 1, uses_anonymous_args = 0
 2278 0000 80B5     		push	{r7, lr}
 2279              	.LCFI69:
 2280              		.cfi_def_cfa_offset 8
 2281              		.cfi_offset 7, -8
 2282              		.cfi_offset 14, -4
 2283 0002 84B0     		sub	sp, sp, #16
 2284              	.LCFI70:
 2285              		.cfi_def_cfa_offset 24
 2286 0004 00AF     		add	r7, sp, #0
 2287              	.LCFI71:
 2288              		.cfi_def_cfa_register 7
 2289 0006 F860     		str	r0, [r7, #12]
 2290 0008 7981     		strh	r1, [r7, #10]	@ movhi
 2291 000a 3A81     		strh	r2, [r7, #8]	@ movhi
 2292 000c FB80     		strh	r3, [r7, #6]	@ movhi
1120:../STM32F10x_StdPeriph_Lib_V3.5.0/Libraries/STM32F10x_StdPeriph_Driver/src/stm32f10x_tim.c ****   /* Check the parameters */
1121:../STM32F10x_StdPeriph_Lib_V3.5.0/Libraries/STM32F10x_StdPeriph_Driver/src/stm32f10x_tim.c ****   assert_param(IS_TIM_LIST3_PERIPH(TIMx));
1122:../STM32F10x_StdPeriph_Lib_V3.5.0/Libraries/STM32F10x_StdPeriph_Driver/src/stm32f10x_tim.c ****   assert_param(IS_TIM_EXT_PRESCALER(TIM_ExtTRGPrescaler));
1123:../STM32F10x_StdPeriph_Lib_V3.5.0/Libraries/STM32F10x_StdPeriph_Driver/src/stm32f10x_tim.c ****   assert_param(IS_TIM_EXT_POLARITY(TIM_ExtTRGPolarity));
1124:../STM32F10x_StdPeriph_Lib_V3.5.0/Libraries/STM32F10x_StdPeriph_Driver/src/stm32f10x_tim.c ****   assert_param(IS_TIM_EXT_FILTER(ExtTRGFilter));
1125:../STM32F10x_StdPeriph_Lib_V3.5.0/Libraries/STM32F10x_StdPeriph_Driver/src/stm32f10x_tim.c ****   /* Configure the ETR Clock source */
1126:../STM32F10x_StdPeriph_Lib_V3.5.0/Libraries/STM32F10x_StdPeriph_Driver/src/stm32f10x_tim.c ****   TIM_ETRConfig(TIMx, TIM_ExtTRGPrescaler, TIM_ExtTRGPolarity, ExtTRGFilter);
 2293              		.loc 1 1126 0
 2294 000e 7989     		ldrh	r1, [r7, #10]
 2295 0010 3A89     		ldrh	r2, [r7, #8]
 2296 0012 FB88     		ldrh	r3, [r7, #6]
 2297 0014 F868     		ldr	r0, [r7, #12]
 2298 0016 FFF7FEFF 		bl	TIM_ETRConfig
1127:../STM32F10x_StdPeriph_Lib_V3.5.0/Libraries/STM32F10x_StdPeriph_Driver/src/stm32f10x_tim.c ****   /* Enable the External clock mode2 */
1128:../STM32F10x_StdPeriph_Lib_V3.5.0/Libraries/STM32F10x_StdPeriph_Driver/src/stm32f10x_tim.c ****   TIMx->SMCR |= TIM_SMCR_ECE;
 2299              		.loc 1 1128 0
 2300 001a FB68     		ldr	r3, [r7, #12]
 2301 001c 1B89     		ldrh	r3, [r3, #8]	@ movhi
 2302 001e 9BB2     		uxth	r3, r3
 2303 0020 43F48043 		orr	r3, r3, #16384
 2304 0024 9AB2     		uxth	r2, r3
 2305 0026 FB68     		ldr	r3, [r7, #12]
 2306 0028 1A81     		strh	r2, [r3, #8]	@ movhi
1129:../STM32F10x_StdPeriph_Lib_V3.5.0/Libraries/STM32F10x_StdPeriph_Driver/src/stm32f10x_tim.c **** }
 2307              		.loc 1 1129 0
 2308 002a 07F11007 		add	r7, r7, #16
 2309 002e BD46     		mov	sp, r7
 2310 0030 80BD     		pop	{r7, pc}
 2311              		.cfi_endproc
 2312              	.LFE52:
 2314 0032 00BF     		.section	.text.TIM_ETRConfig,"ax",%progbits
 2315              		.align	2
 2316              		.global	TIM_ETRConfig
 2317              		.thumb
 2318              		.thumb_func
 2320              	TIM_ETRConfig:
 2321              	.LFB53:
1130:../STM32F10x_StdPeriph_Lib_V3.5.0/Libraries/STM32F10x_StdPeriph_Driver/src/stm32f10x_tim.c **** 
1131:../STM32F10x_StdPeriph_Lib_V3.5.0/Libraries/STM32F10x_StdPeriph_Driver/src/stm32f10x_tim.c **** /**
1132:../STM32F10x_StdPeriph_Lib_V3.5.0/Libraries/STM32F10x_StdPeriph_Driver/src/stm32f10x_tim.c ****   * @brief  Configures the TIMx External Trigger (ETR).
1133:../STM32F10x_StdPeriph_Lib_V3.5.0/Libraries/STM32F10x_StdPeriph_Driver/src/stm32f10x_tim.c ****   * @param  TIMx: where x can be  1, 2, 3, 4, 5 or 8 to select the TIM peripheral.
1134:../STM32F10x_StdPeriph_Lib_V3.5.0/Libraries/STM32F10x_StdPeriph_Driver/src/stm32f10x_tim.c ****   * @param  TIM_ExtTRGPrescaler: The external Trigger Prescaler.
1135:../STM32F10x_StdPeriph_Lib_V3.5.0/Libraries/STM32F10x_StdPeriph_Driver/src/stm32f10x_tim.c ****   *   This parameter can be one of the following values:
1136:../STM32F10x_StdPeriph_Lib_V3.5.0/Libraries/STM32F10x_StdPeriph_Driver/src/stm32f10x_tim.c ****   *     @arg TIM_ExtTRGPSC_OFF: ETRP Prescaler OFF.
1137:../STM32F10x_StdPeriph_Lib_V3.5.0/Libraries/STM32F10x_StdPeriph_Driver/src/stm32f10x_tim.c ****   *     @arg TIM_ExtTRGPSC_DIV2: ETRP frequency divided by 2.
1138:../STM32F10x_StdPeriph_Lib_V3.5.0/Libraries/STM32F10x_StdPeriph_Driver/src/stm32f10x_tim.c ****   *     @arg TIM_ExtTRGPSC_DIV4: ETRP frequency divided by 4.
1139:../STM32F10x_StdPeriph_Lib_V3.5.0/Libraries/STM32F10x_StdPeriph_Driver/src/stm32f10x_tim.c ****   *     @arg TIM_ExtTRGPSC_DIV8: ETRP frequency divided by 8.
1140:../STM32F10x_StdPeriph_Lib_V3.5.0/Libraries/STM32F10x_StdPeriph_Driver/src/stm32f10x_tim.c ****   * @param  TIM_ExtTRGPolarity: The external Trigger Polarity.
1141:../STM32F10x_StdPeriph_Lib_V3.5.0/Libraries/STM32F10x_StdPeriph_Driver/src/stm32f10x_tim.c ****   *   This parameter can be one of the following values:
1142:../STM32F10x_StdPeriph_Lib_V3.5.0/Libraries/STM32F10x_StdPeriph_Driver/src/stm32f10x_tim.c ****   *     @arg TIM_ExtTRGPolarity_Inverted: active low or falling edge active.
1143:../STM32F10x_StdPeriph_Lib_V3.5.0/Libraries/STM32F10x_StdPeriph_Driver/src/stm32f10x_tim.c ****   *     @arg TIM_ExtTRGPolarity_NonInverted: active high or rising edge active.
1144:../STM32F10x_StdPeriph_Lib_V3.5.0/Libraries/STM32F10x_StdPeriph_Driver/src/stm32f10x_tim.c ****   * @param  ExtTRGFilter: External Trigger Filter.
1145:../STM32F10x_StdPeriph_Lib_V3.5.0/Libraries/STM32F10x_StdPeriph_Driver/src/stm32f10x_tim.c ****   *   This parameter must be a value between 0x00 and 0x0F
1146:../STM32F10x_StdPeriph_Lib_V3.5.0/Libraries/STM32F10x_StdPeriph_Driver/src/stm32f10x_tim.c ****   * @retval None
1147:../STM32F10x_StdPeriph_Lib_V3.5.0/Libraries/STM32F10x_StdPeriph_Driver/src/stm32f10x_tim.c ****   */
1148:../STM32F10x_StdPeriph_Lib_V3.5.0/Libraries/STM32F10x_StdPeriph_Driver/src/stm32f10x_tim.c **** void TIM_ETRConfig(TIM_TypeDef* TIMx, uint16_t TIM_ExtTRGPrescaler, uint16_t TIM_ExtTRGPolarity,
1149:../STM32F10x_StdPeriph_Lib_V3.5.0/Libraries/STM32F10x_StdPeriph_Driver/src/stm32f10x_tim.c ****                    uint16_t ExtTRGFilter)
1150:../STM32F10x_StdPeriph_Lib_V3.5.0/Libraries/STM32F10x_StdPeriph_Driver/src/stm32f10x_tim.c **** {
 2322              		.loc 1 1150 0
 2323              		.cfi_startproc
 2324              		@ args = 0, pretend = 0, frame = 24
 2325              		@ frame_needed = 1, uses_anonymous_args = 0
 2326              		@ link register save eliminated.
 2327 0000 80B4     		push	{r7}
 2328              	.LCFI72:
 2329              		.cfi_def_cfa_offset 4
 2330              		.cfi_offset 7, -4
 2331 0002 87B0     		sub	sp, sp, #28
 2332              	.LCFI73:
 2333              		.cfi_def_cfa_offset 32
 2334 0004 00AF     		add	r7, sp, #0
 2335              	.LCFI74:
 2336              		.cfi_def_cfa_register 7
 2337 0006 F860     		str	r0, [r7, #12]
 2338 0008 7981     		strh	r1, [r7, #10]	@ movhi
 2339 000a 3A81     		strh	r2, [r7, #8]	@ movhi
 2340 000c FB80     		strh	r3, [r7, #6]	@ movhi
1151:../STM32F10x_StdPeriph_Lib_V3.5.0/Libraries/STM32F10x_StdPeriph_Driver/src/stm32f10x_tim.c ****   uint16_t tmpsmcr = 0;
 2341              		.loc 1 1151 0
 2342 000e 4FF00003 		mov	r3, #0
 2343 0012 FB82     		strh	r3, [r7, #22]	@ movhi
1152:../STM32F10x_StdPeriph_Lib_V3.5.0/Libraries/STM32F10x_StdPeriph_Driver/src/stm32f10x_tim.c ****   /* Check the parameters */
1153:../STM32F10x_StdPeriph_Lib_V3.5.0/Libraries/STM32F10x_StdPeriph_Driver/src/stm32f10x_tim.c ****   assert_param(IS_TIM_LIST3_PERIPH(TIMx));
1154:../STM32F10x_StdPeriph_Lib_V3.5.0/Libraries/STM32F10x_StdPeriph_Driver/src/stm32f10x_tim.c ****   assert_param(IS_TIM_EXT_PRESCALER(TIM_ExtTRGPrescaler));
1155:../STM32F10x_StdPeriph_Lib_V3.5.0/Libraries/STM32F10x_StdPeriph_Driver/src/stm32f10x_tim.c ****   assert_param(IS_TIM_EXT_POLARITY(TIM_ExtTRGPolarity));
1156:../STM32F10x_StdPeriph_Lib_V3.5.0/Libraries/STM32F10x_StdPeriph_Driver/src/stm32f10x_tim.c ****   assert_param(IS_TIM_EXT_FILTER(ExtTRGFilter));
1157:../STM32F10x_StdPeriph_Lib_V3.5.0/Libraries/STM32F10x_StdPeriph_Driver/src/stm32f10x_tim.c ****   tmpsmcr = TIMx->SMCR;
 2344              		.loc 1 1157 0
 2345 0014 FB68     		ldr	r3, [r7, #12]
 2346 0016 1B89     		ldrh	r3, [r3, #8]	@ movhi
 2347 0018 FB82     		strh	r3, [r7, #22]	@ movhi
1158:../STM32F10x_StdPeriph_Lib_V3.5.0/Libraries/STM32F10x_StdPeriph_Driver/src/stm32f10x_tim.c ****   /* Reset the ETR Bits */
1159:../STM32F10x_StdPeriph_Lib_V3.5.0/Libraries/STM32F10x_StdPeriph_Driver/src/stm32f10x_tim.c ****   tmpsmcr &= SMCR_ETR_Mask;
 2348              		.loc 1 1159 0
 2349 001a FB8A     		ldrh	r3, [r7, #22]	@ movhi
 2350 001c DBB2     		uxtb	r3, r3
 2351 001e FB82     		strh	r3, [r7, #22]	@ movhi
1160:../STM32F10x_StdPeriph_Lib_V3.5.0/Libraries/STM32F10x_StdPeriph_Driver/src/stm32f10x_tim.c ****   /* Set the Prescaler, the Filter value and the Polarity */
1161:../STM32F10x_StdPeriph_Lib_V3.5.0/Libraries/STM32F10x_StdPeriph_Driver/src/stm32f10x_tim.c ****   tmpsmcr |= (uint16_t)(TIM_ExtTRGPrescaler | (uint16_t)(TIM_ExtTRGPolarity | (uint16_t)(ExtTRGFilt
 2352              		.loc 1 1161 0
 2353 0020 FB88     		ldrh	r3, [r7, #6]	@ movhi
 2354 0022 4FEA0323 		lsl	r3, r3, #8
 2355 0026 9AB2     		uxth	r2, r3
 2356 0028 3B89     		ldrh	r3, [r7, #8]	@ movhi
 2357 002a 1343     		orrs	r3, r3, r2
 2358 002c 9AB2     		uxth	r2, r3
 2359 002e 7B89     		ldrh	r3, [r7, #10]	@ movhi
 2360 0030 1343     		orrs	r3, r3, r2
 2361 0032 9AB2     		uxth	r2, r3
 2362 0034 FB8A     		ldrh	r3, [r7, #22]	@ movhi
 2363 0036 1343     		orrs	r3, r3, r2
 2364 0038 FB82     		strh	r3, [r7, #22]	@ movhi
1162:../STM32F10x_StdPeriph_Lib_V3.5.0/Libraries/STM32F10x_StdPeriph_Driver/src/stm32f10x_tim.c ****   /* Write to TIMx SMCR */
1163:../STM32F10x_StdPeriph_Lib_V3.5.0/Libraries/STM32F10x_StdPeriph_Driver/src/stm32f10x_tim.c ****   TIMx->SMCR = tmpsmcr;
 2365              		.loc 1 1163 0
 2366 003a FB68     		ldr	r3, [r7, #12]
 2367 003c FA8A     		ldrh	r2, [r7, #22]	@ movhi
 2368 003e 1A81     		strh	r2, [r3, #8]	@ movhi
1164:../STM32F10x_StdPeriph_Lib_V3.5.0/Libraries/STM32F10x_StdPeriph_Driver/src/stm32f10x_tim.c **** }
 2369              		.loc 1 1164 0
 2370 0040 07F11C07 		add	r7, r7, #28
 2371 0044 BD46     		mov	sp, r7
 2372 0046 80BC     		pop	{r7}
 2373 0048 7047     		bx	lr
 2374              		.cfi_endproc
 2375              	.LFE53:
 2377 004a 00BF     		.section	.text.TIM_PrescalerConfig,"ax",%progbits
 2378              		.align	2
 2379              		.global	TIM_PrescalerConfig
 2380              		.thumb
 2381              		.thumb_func
 2383              	TIM_PrescalerConfig:
 2384              	.LFB54:
1165:../STM32F10x_StdPeriph_Lib_V3.5.0/Libraries/STM32F10x_StdPeriph_Driver/src/stm32f10x_tim.c **** 
1166:../STM32F10x_StdPeriph_Lib_V3.5.0/Libraries/STM32F10x_StdPeriph_Driver/src/stm32f10x_tim.c **** /**
1167:../STM32F10x_StdPeriph_Lib_V3.5.0/Libraries/STM32F10x_StdPeriph_Driver/src/stm32f10x_tim.c ****   * @brief  Configures the TIMx Prescaler.
1168:../STM32F10x_StdPeriph_Lib_V3.5.0/Libraries/STM32F10x_StdPeriph_Driver/src/stm32f10x_tim.c ****   * @param  TIMx: where x can be 1 to 17 to select the TIM peripheral.
1169:../STM32F10x_StdPeriph_Lib_V3.5.0/Libraries/STM32F10x_StdPeriph_Driver/src/stm32f10x_tim.c ****   * @param  Prescaler: specifies the Prescaler Register value
1170:../STM32F10x_StdPeriph_Lib_V3.5.0/Libraries/STM32F10x_StdPeriph_Driver/src/stm32f10x_tim.c ****   * @param  TIM_PSCReloadMode: specifies the TIM Prescaler Reload mode
1171:../STM32F10x_StdPeriph_Lib_V3.5.0/Libraries/STM32F10x_StdPeriph_Driver/src/stm32f10x_tim.c ****   *   This parameter can be one of the following values:
1172:../STM32F10x_StdPeriph_Lib_V3.5.0/Libraries/STM32F10x_StdPeriph_Driver/src/stm32f10x_tim.c ****   *     @arg TIM_PSCReloadMode_Update: The Prescaler is loaded at the update event.
1173:../STM32F10x_StdPeriph_Lib_V3.5.0/Libraries/STM32F10x_StdPeriph_Driver/src/stm32f10x_tim.c ****   *     @arg TIM_PSCReloadMode_Immediate: The Prescaler is loaded immediately.
1174:../STM32F10x_StdPeriph_Lib_V3.5.0/Libraries/STM32F10x_StdPeriph_Driver/src/stm32f10x_tim.c ****   * @retval None
1175:../STM32F10x_StdPeriph_Lib_V3.5.0/Libraries/STM32F10x_StdPeriph_Driver/src/stm32f10x_tim.c ****   */
1176:../STM32F10x_StdPeriph_Lib_V3.5.0/Libraries/STM32F10x_StdPeriph_Driver/src/stm32f10x_tim.c **** void TIM_PrescalerConfig(TIM_TypeDef* TIMx, uint16_t Prescaler, uint16_t TIM_PSCReloadMode)
1177:../STM32F10x_StdPeriph_Lib_V3.5.0/Libraries/STM32F10x_StdPeriph_Driver/src/stm32f10x_tim.c **** {
 2385              		.loc 1 1177 0
 2386              		.cfi_startproc
 2387              		@ args = 0, pretend = 0, frame = 8
 2388              		@ frame_needed = 1, uses_anonymous_args = 0
 2389              		@ link register save eliminated.
 2390 0000 80B4     		push	{r7}
 2391              	.LCFI75:
 2392              		.cfi_def_cfa_offset 4
 2393              		.cfi_offset 7, -4
 2394 0002 83B0     		sub	sp, sp, #12
 2395              	.LCFI76:
 2396              		.cfi_def_cfa_offset 16
 2397 0004 00AF     		add	r7, sp, #0
 2398              	.LCFI77:
 2399              		.cfi_def_cfa_register 7
 2400 0006 7860     		str	r0, [r7, #4]
 2401 0008 1346     		mov	r3, r2
 2402 000a 0A46     		mov	r2, r1	@ movhi
 2403 000c 7A80     		strh	r2, [r7, #2]	@ movhi
 2404 000e 3B80     		strh	r3, [r7, #0]	@ movhi
1178:../STM32F10x_StdPeriph_Lib_V3.5.0/Libraries/STM32F10x_StdPeriph_Driver/src/stm32f10x_tim.c ****   /* Check the parameters */
1179:../STM32F10x_StdPeriph_Lib_V3.5.0/Libraries/STM32F10x_StdPeriph_Driver/src/stm32f10x_tim.c ****   assert_param(IS_TIM_ALL_PERIPH(TIMx));
1180:../STM32F10x_StdPeriph_Lib_V3.5.0/Libraries/STM32F10x_StdPeriph_Driver/src/stm32f10x_tim.c ****   assert_param(IS_TIM_PRESCALER_RELOAD(TIM_PSCReloadMode));
1181:../STM32F10x_StdPeriph_Lib_V3.5.0/Libraries/STM32F10x_StdPeriph_Driver/src/stm32f10x_tim.c ****   /* Set the Prescaler value */
1182:../STM32F10x_StdPeriph_Lib_V3.5.0/Libraries/STM32F10x_StdPeriph_Driver/src/stm32f10x_tim.c ****   TIMx->PSC = Prescaler;
 2405              		.loc 1 1182 0
 2406 0010 7B68     		ldr	r3, [r7, #4]
 2407 0012 7A88     		ldrh	r2, [r7, #2]	@ movhi
 2408 0014 1A85     		strh	r2, [r3, #40]	@ movhi
1183:../STM32F10x_StdPeriph_Lib_V3.5.0/Libraries/STM32F10x_StdPeriph_Driver/src/stm32f10x_tim.c ****   /* Set or reset the UG Bit */
1184:../STM32F10x_StdPeriph_Lib_V3.5.0/Libraries/STM32F10x_StdPeriph_Driver/src/stm32f10x_tim.c ****   TIMx->EGR = TIM_PSCReloadMode;
 2409              		.loc 1 1184 0
 2410 0016 7B68     		ldr	r3, [r7, #4]
 2411 0018 3A88     		ldrh	r2, [r7, #0]	@ movhi
 2412 001a 9A82     		strh	r2, [r3, #20]	@ movhi
1185:../STM32F10x_StdPeriph_Lib_V3.5.0/Libraries/STM32F10x_StdPeriph_Driver/src/stm32f10x_tim.c **** }
 2413              		.loc 1 1185 0
 2414 001c 07F10C07 		add	r7, r7, #12
 2415 0020 BD46     		mov	sp, r7
 2416 0022 80BC     		pop	{r7}
 2417 0024 7047     		bx	lr
 2418              		.cfi_endproc
 2419              	.LFE54:
 2421 0026 00BF     		.section	.text.TIM_CounterModeConfig,"ax",%progbits
 2422              		.align	2
 2423              		.global	TIM_CounterModeConfig
 2424              		.thumb
 2425              		.thumb_func
 2427              	TIM_CounterModeConfig:
 2428              	.LFB55:
1186:../STM32F10x_StdPeriph_Lib_V3.5.0/Libraries/STM32F10x_StdPeriph_Driver/src/stm32f10x_tim.c **** 
1187:../STM32F10x_StdPeriph_Lib_V3.5.0/Libraries/STM32F10x_StdPeriph_Driver/src/stm32f10x_tim.c **** /**
1188:../STM32F10x_StdPeriph_Lib_V3.5.0/Libraries/STM32F10x_StdPeriph_Driver/src/stm32f10x_tim.c ****   * @brief  Specifies the TIMx Counter Mode to be used.
1189:../STM32F10x_StdPeriph_Lib_V3.5.0/Libraries/STM32F10x_StdPeriph_Driver/src/stm32f10x_tim.c ****   * @param  TIMx: where x can be  1, 2, 3, 4, 5 or 8 to select the TIM peripheral.
1190:../STM32F10x_StdPeriph_Lib_V3.5.0/Libraries/STM32F10x_StdPeriph_Driver/src/stm32f10x_tim.c ****   * @param  TIM_CounterMode: specifies the Counter Mode to be used
1191:../STM32F10x_StdPeriph_Lib_V3.5.0/Libraries/STM32F10x_StdPeriph_Driver/src/stm32f10x_tim.c ****   *   This parameter can be one of the following values:
1192:../STM32F10x_StdPeriph_Lib_V3.5.0/Libraries/STM32F10x_StdPeriph_Driver/src/stm32f10x_tim.c ****   *     @arg TIM_CounterMode_Up: TIM Up Counting Mode
1193:../STM32F10x_StdPeriph_Lib_V3.5.0/Libraries/STM32F10x_StdPeriph_Driver/src/stm32f10x_tim.c ****   *     @arg TIM_CounterMode_Down: TIM Down Counting Mode
1194:../STM32F10x_StdPeriph_Lib_V3.5.0/Libraries/STM32F10x_StdPeriph_Driver/src/stm32f10x_tim.c ****   *     @arg TIM_CounterMode_CenterAligned1: TIM Center Aligned Mode1
1195:../STM32F10x_StdPeriph_Lib_V3.5.0/Libraries/STM32F10x_StdPeriph_Driver/src/stm32f10x_tim.c ****   *     @arg TIM_CounterMode_CenterAligned2: TIM Center Aligned Mode2
1196:../STM32F10x_StdPeriph_Lib_V3.5.0/Libraries/STM32F10x_StdPeriph_Driver/src/stm32f10x_tim.c ****   *     @arg TIM_CounterMode_CenterAligned3: TIM Center Aligned Mode3
1197:../STM32F10x_StdPeriph_Lib_V3.5.0/Libraries/STM32F10x_StdPeriph_Driver/src/stm32f10x_tim.c ****   * @retval None
1198:../STM32F10x_StdPeriph_Lib_V3.5.0/Libraries/STM32F10x_StdPeriph_Driver/src/stm32f10x_tim.c ****   */
1199:../STM32F10x_StdPeriph_Lib_V3.5.0/Libraries/STM32F10x_StdPeriph_Driver/src/stm32f10x_tim.c **** void TIM_CounterModeConfig(TIM_TypeDef* TIMx, uint16_t TIM_CounterMode)
1200:../STM32F10x_StdPeriph_Lib_V3.5.0/Libraries/STM32F10x_StdPeriph_Driver/src/stm32f10x_tim.c **** {
 2429              		.loc 1 1200 0
 2430              		.cfi_startproc
 2431              		@ args = 0, pretend = 0, frame = 16
 2432              		@ frame_needed = 1, uses_anonymous_args = 0
 2433              		@ link register save eliminated.
 2434 0000 80B4     		push	{r7}
 2435              	.LCFI78:
 2436              		.cfi_def_cfa_offset 4
 2437              		.cfi_offset 7, -4
 2438 0002 85B0     		sub	sp, sp, #20
 2439              	.LCFI79:
 2440              		.cfi_def_cfa_offset 24
 2441 0004 00AF     		add	r7, sp, #0
 2442              	.LCFI80:
 2443              		.cfi_def_cfa_register 7
 2444 0006 7860     		str	r0, [r7, #4]
 2445 0008 0B46     		mov	r3, r1
 2446 000a 7B80     		strh	r3, [r7, #2]	@ movhi
1201:../STM32F10x_StdPeriph_Lib_V3.5.0/Libraries/STM32F10x_StdPeriph_Driver/src/stm32f10x_tim.c ****   uint16_t tmpcr1 = 0;
 2447              		.loc 1 1201 0
 2448 000c 4FF00003 		mov	r3, #0
 2449 0010 FB81     		strh	r3, [r7, #14]	@ movhi
1202:../STM32F10x_StdPeriph_Lib_V3.5.0/Libraries/STM32F10x_StdPeriph_Driver/src/stm32f10x_tim.c ****   /* Check the parameters */
1203:../STM32F10x_StdPeriph_Lib_V3.5.0/Libraries/STM32F10x_StdPeriph_Driver/src/stm32f10x_tim.c ****   assert_param(IS_TIM_LIST3_PERIPH(TIMx));
1204:../STM32F10x_StdPeriph_Lib_V3.5.0/Libraries/STM32F10x_StdPeriph_Driver/src/stm32f10x_tim.c ****   assert_param(IS_TIM_COUNTER_MODE(TIM_CounterMode));
1205:../STM32F10x_StdPeriph_Lib_V3.5.0/Libraries/STM32F10x_StdPeriph_Driver/src/stm32f10x_tim.c ****   tmpcr1 = TIMx->CR1;
 2450              		.loc 1 1205 0
 2451 0012 7B68     		ldr	r3, [r7, #4]
 2452 0014 1B88     		ldrh	r3, [r3, #0]	@ movhi
 2453 0016 FB81     		strh	r3, [r7, #14]	@ movhi
1206:../STM32F10x_StdPeriph_Lib_V3.5.0/Libraries/STM32F10x_StdPeriph_Driver/src/stm32f10x_tim.c ****   /* Reset the CMS and DIR Bits */
1207:../STM32F10x_StdPeriph_Lib_V3.5.0/Libraries/STM32F10x_StdPeriph_Driver/src/stm32f10x_tim.c ****   tmpcr1 &= (uint16_t)(~((uint16_t)(TIM_CR1_DIR | TIM_CR1_CMS)));
 2454              		.loc 1 1207 0
 2455 0018 FB89     		ldrh	r3, [r7, #14]	@ movhi
 2456 001a 23F07003 		bic	r3, r3, #112
 2457 001e FB81     		strh	r3, [r7, #14]	@ movhi
1208:../STM32F10x_StdPeriph_Lib_V3.5.0/Libraries/STM32F10x_StdPeriph_Driver/src/stm32f10x_tim.c ****   /* Set the Counter Mode */
1209:../STM32F10x_StdPeriph_Lib_V3.5.0/Libraries/STM32F10x_StdPeriph_Driver/src/stm32f10x_tim.c ****   tmpcr1 |= TIM_CounterMode;
 2458              		.loc 1 1209 0
 2459 0020 FA89     		ldrh	r2, [r7, #14]	@ movhi
 2460 0022 7B88     		ldrh	r3, [r7, #2]	@ movhi
 2461 0024 1343     		orrs	r3, r3, r2
 2462 0026 FB81     		strh	r3, [r7, #14]	@ movhi
1210:../STM32F10x_StdPeriph_Lib_V3.5.0/Libraries/STM32F10x_StdPeriph_Driver/src/stm32f10x_tim.c ****   /* Write to TIMx CR1 register */
1211:../STM32F10x_StdPeriph_Lib_V3.5.0/Libraries/STM32F10x_StdPeriph_Driver/src/stm32f10x_tim.c ****   TIMx->CR1 = tmpcr1;
 2463              		.loc 1 1211 0
 2464 0028 7B68     		ldr	r3, [r7, #4]
 2465 002a FA89     		ldrh	r2, [r7, #14]	@ movhi
 2466 002c 1A80     		strh	r2, [r3, #0]	@ movhi
1212:../STM32F10x_StdPeriph_Lib_V3.5.0/Libraries/STM32F10x_StdPeriph_Driver/src/stm32f10x_tim.c **** }
 2467              		.loc 1 1212 0
 2468 002e 07F11407 		add	r7, r7, #20
 2469 0032 BD46     		mov	sp, r7
 2470 0034 80BC     		pop	{r7}
 2471 0036 7047     		bx	lr
 2472              		.cfi_endproc
 2473              	.LFE55:
 2475              		.section	.text.TIM_SelectInputTrigger,"ax",%progbits
 2476              		.align	2
 2477              		.global	TIM_SelectInputTrigger
 2478              		.thumb
 2479              		.thumb_func
 2481              	TIM_SelectInputTrigger:
 2482              	.LFB56:
1213:../STM32F10x_StdPeriph_Lib_V3.5.0/Libraries/STM32F10x_StdPeriph_Driver/src/stm32f10x_tim.c **** 
1214:../STM32F10x_StdPeriph_Lib_V3.5.0/Libraries/STM32F10x_StdPeriph_Driver/src/stm32f10x_tim.c **** /**
1215:../STM32F10x_StdPeriph_Lib_V3.5.0/Libraries/STM32F10x_StdPeriph_Driver/src/stm32f10x_tim.c ****   * @brief  Selects the Input Trigger source
1216:../STM32F10x_StdPeriph_Lib_V3.5.0/Libraries/STM32F10x_StdPeriph_Driver/src/stm32f10x_tim.c ****   * @param  TIMx: where x can be  1, 2, 3, 4, 5, 8, 9, 12 or 15 to select the TIM peripheral.
1217:../STM32F10x_StdPeriph_Lib_V3.5.0/Libraries/STM32F10x_StdPeriph_Driver/src/stm32f10x_tim.c ****   * @param  TIM_InputTriggerSource: The Input Trigger source.
1218:../STM32F10x_StdPeriph_Lib_V3.5.0/Libraries/STM32F10x_StdPeriph_Driver/src/stm32f10x_tim.c ****   *   This parameter can be one of the following values:
1219:../STM32F10x_StdPeriph_Lib_V3.5.0/Libraries/STM32F10x_StdPeriph_Driver/src/stm32f10x_tim.c ****   *     @arg TIM_TS_ITR0: Internal Trigger 0
1220:../STM32F10x_StdPeriph_Lib_V3.5.0/Libraries/STM32F10x_StdPeriph_Driver/src/stm32f10x_tim.c ****   *     @arg TIM_TS_ITR1: Internal Trigger 1
1221:../STM32F10x_StdPeriph_Lib_V3.5.0/Libraries/STM32F10x_StdPeriph_Driver/src/stm32f10x_tim.c ****   *     @arg TIM_TS_ITR2: Internal Trigger 2
1222:../STM32F10x_StdPeriph_Lib_V3.5.0/Libraries/STM32F10x_StdPeriph_Driver/src/stm32f10x_tim.c ****   *     @arg TIM_TS_ITR3: Internal Trigger 3
1223:../STM32F10x_StdPeriph_Lib_V3.5.0/Libraries/STM32F10x_StdPeriph_Driver/src/stm32f10x_tim.c ****   *     @arg TIM_TS_TI1F_ED: TI1 Edge Detector
1224:../STM32F10x_StdPeriph_Lib_V3.5.0/Libraries/STM32F10x_StdPeriph_Driver/src/stm32f10x_tim.c ****   *     @arg TIM_TS_TI1FP1: Filtered Timer Input 1
1225:../STM32F10x_StdPeriph_Lib_V3.5.0/Libraries/STM32F10x_StdPeriph_Driver/src/stm32f10x_tim.c ****   *     @arg TIM_TS_TI2FP2: Filtered Timer Input 2
1226:../STM32F10x_StdPeriph_Lib_V3.5.0/Libraries/STM32F10x_StdPeriph_Driver/src/stm32f10x_tim.c ****   *     @arg TIM_TS_ETRF: External Trigger input
1227:../STM32F10x_StdPeriph_Lib_V3.5.0/Libraries/STM32F10x_StdPeriph_Driver/src/stm32f10x_tim.c ****   * @retval None
1228:../STM32F10x_StdPeriph_Lib_V3.5.0/Libraries/STM32F10x_StdPeriph_Driver/src/stm32f10x_tim.c ****   */
1229:../STM32F10x_StdPeriph_Lib_V3.5.0/Libraries/STM32F10x_StdPeriph_Driver/src/stm32f10x_tim.c **** void TIM_SelectInputTrigger(TIM_TypeDef* TIMx, uint16_t TIM_InputTriggerSource)
1230:../STM32F10x_StdPeriph_Lib_V3.5.0/Libraries/STM32F10x_StdPeriph_Driver/src/stm32f10x_tim.c **** {
 2483              		.loc 1 1230 0
 2484              		.cfi_startproc
 2485              		@ args = 0, pretend = 0, frame = 16
 2486              		@ frame_needed = 1, uses_anonymous_args = 0
 2487              		@ link register save eliminated.
 2488 0000 80B4     		push	{r7}
 2489              	.LCFI81:
 2490              		.cfi_def_cfa_offset 4
 2491              		.cfi_offset 7, -4
 2492 0002 85B0     		sub	sp, sp, #20
 2493              	.LCFI82:
 2494              		.cfi_def_cfa_offset 24
 2495 0004 00AF     		add	r7, sp, #0
 2496              	.LCFI83:
 2497              		.cfi_def_cfa_register 7
 2498 0006 7860     		str	r0, [r7, #4]
 2499 0008 0B46     		mov	r3, r1
 2500 000a 7B80     		strh	r3, [r7, #2]	@ movhi
1231:../STM32F10x_StdPeriph_Lib_V3.5.0/Libraries/STM32F10x_StdPeriph_Driver/src/stm32f10x_tim.c ****   uint16_t tmpsmcr = 0;
 2501              		.loc 1 1231 0
 2502 000c 4FF00003 		mov	r3, #0
 2503 0010 FB81     		strh	r3, [r7, #14]	@ movhi
1232:../STM32F10x_StdPeriph_Lib_V3.5.0/Libraries/STM32F10x_StdPeriph_Driver/src/stm32f10x_tim.c ****   /* Check the parameters */
1233:../STM32F10x_StdPeriph_Lib_V3.5.0/Libraries/STM32F10x_StdPeriph_Driver/src/stm32f10x_tim.c ****   assert_param(IS_TIM_LIST6_PERIPH(TIMx));
1234:../STM32F10x_StdPeriph_Lib_V3.5.0/Libraries/STM32F10x_StdPeriph_Driver/src/stm32f10x_tim.c ****   assert_param(IS_TIM_TRIGGER_SELECTION(TIM_InputTriggerSource));
1235:../STM32F10x_StdPeriph_Lib_V3.5.0/Libraries/STM32F10x_StdPeriph_Driver/src/stm32f10x_tim.c ****   /* Get the TIMx SMCR register value */
1236:../STM32F10x_StdPeriph_Lib_V3.5.0/Libraries/STM32F10x_StdPeriph_Driver/src/stm32f10x_tim.c ****   tmpsmcr = TIMx->SMCR;
 2504              		.loc 1 1236 0
 2505 0012 7B68     		ldr	r3, [r7, #4]
 2506 0014 1B89     		ldrh	r3, [r3, #8]	@ movhi
 2507 0016 FB81     		strh	r3, [r7, #14]	@ movhi
1237:../STM32F10x_StdPeriph_Lib_V3.5.0/Libraries/STM32F10x_StdPeriph_Driver/src/stm32f10x_tim.c ****   /* Reset the TS Bits */
1238:../STM32F10x_StdPeriph_Lib_V3.5.0/Libraries/STM32F10x_StdPeriph_Driver/src/stm32f10x_tim.c ****   tmpsmcr &= (uint16_t)(~((uint16_t)TIM_SMCR_TS));
 2508              		.loc 1 1238 0
 2509 0018 FB89     		ldrh	r3, [r7, #14]	@ movhi
 2510 001a 23F07003 		bic	r3, r3, #112
 2511 001e FB81     		strh	r3, [r7, #14]	@ movhi
1239:../STM32F10x_StdPeriph_Lib_V3.5.0/Libraries/STM32F10x_StdPeriph_Driver/src/stm32f10x_tim.c ****   /* Set the Input Trigger source */
1240:../STM32F10x_StdPeriph_Lib_V3.5.0/Libraries/STM32F10x_StdPeriph_Driver/src/stm32f10x_tim.c ****   tmpsmcr |= TIM_InputTriggerSource;
 2512              		.loc 1 1240 0
 2513 0020 FA89     		ldrh	r2, [r7, #14]	@ movhi
 2514 0022 7B88     		ldrh	r3, [r7, #2]	@ movhi
 2515 0024 1343     		orrs	r3, r3, r2
 2516 0026 FB81     		strh	r3, [r7, #14]	@ movhi
1241:../STM32F10x_StdPeriph_Lib_V3.5.0/Libraries/STM32F10x_StdPeriph_Driver/src/stm32f10x_tim.c ****   /* Write to TIMx SMCR */
1242:../STM32F10x_StdPeriph_Lib_V3.5.0/Libraries/STM32F10x_StdPeriph_Driver/src/stm32f10x_tim.c ****   TIMx->SMCR = tmpsmcr;
 2517              		.loc 1 1242 0
 2518 0028 7B68     		ldr	r3, [r7, #4]
 2519 002a FA89     		ldrh	r2, [r7, #14]	@ movhi
 2520 002c 1A81     		strh	r2, [r3, #8]	@ movhi
1243:../STM32F10x_StdPeriph_Lib_V3.5.0/Libraries/STM32F10x_StdPeriph_Driver/src/stm32f10x_tim.c **** }
 2521              		.loc 1 1243 0
 2522 002e 07F11407 		add	r7, r7, #20
 2523 0032 BD46     		mov	sp, r7
 2524 0034 80BC     		pop	{r7}
 2525 0036 7047     		bx	lr
 2526              		.cfi_endproc
 2527              	.LFE56:
 2529              		.section	.text.TIM_EncoderInterfaceConfig,"ax",%progbits
 2530              		.align	2
 2531              		.global	TIM_EncoderInterfaceConfig
 2532              		.thumb
 2533              		.thumb_func
 2535              	TIM_EncoderInterfaceConfig:
 2536              	.LFB57:
1244:../STM32F10x_StdPeriph_Lib_V3.5.0/Libraries/STM32F10x_StdPeriph_Driver/src/stm32f10x_tim.c **** 
1245:../STM32F10x_StdPeriph_Lib_V3.5.0/Libraries/STM32F10x_StdPeriph_Driver/src/stm32f10x_tim.c **** /**
1246:../STM32F10x_StdPeriph_Lib_V3.5.0/Libraries/STM32F10x_StdPeriph_Driver/src/stm32f10x_tim.c ****   * @brief  Configures the TIMx Encoder Interface.
1247:../STM32F10x_StdPeriph_Lib_V3.5.0/Libraries/STM32F10x_StdPeriph_Driver/src/stm32f10x_tim.c ****   * @param  TIMx: where x can be  1, 2, 3, 4, 5 or 8 to select the TIM peripheral.
1248:../STM32F10x_StdPeriph_Lib_V3.5.0/Libraries/STM32F10x_StdPeriph_Driver/src/stm32f10x_tim.c ****   * @param  TIM_EncoderMode: specifies the TIMx Encoder Mode.
1249:../STM32F10x_StdPeriph_Lib_V3.5.0/Libraries/STM32F10x_StdPeriph_Driver/src/stm32f10x_tim.c ****   *   This parameter can be one of the following values:
1250:../STM32F10x_StdPeriph_Lib_V3.5.0/Libraries/STM32F10x_StdPeriph_Driver/src/stm32f10x_tim.c ****   *     @arg TIM_EncoderMode_TI1: Counter counts on TI1FP1 edge depending on TI2FP2 level.
1251:../STM32F10x_StdPeriph_Lib_V3.5.0/Libraries/STM32F10x_StdPeriph_Driver/src/stm32f10x_tim.c ****   *     @arg TIM_EncoderMode_TI2: Counter counts on TI2FP2 edge depending on TI1FP1 level.
1252:../STM32F10x_StdPeriph_Lib_V3.5.0/Libraries/STM32F10x_StdPeriph_Driver/src/stm32f10x_tim.c ****   *     @arg TIM_EncoderMode_TI12: Counter counts on both TI1FP1 and TI2FP2 edges depending
1253:../STM32F10x_StdPeriph_Lib_V3.5.0/Libraries/STM32F10x_StdPeriph_Driver/src/stm32f10x_tim.c ****   *                                on the level of the other input.
1254:../STM32F10x_StdPeriph_Lib_V3.5.0/Libraries/STM32F10x_StdPeriph_Driver/src/stm32f10x_tim.c ****   * @param  TIM_IC1Polarity: specifies the IC1 Polarity
1255:../STM32F10x_StdPeriph_Lib_V3.5.0/Libraries/STM32F10x_StdPeriph_Driver/src/stm32f10x_tim.c ****   *   This parameter can be one of the following values:
1256:../STM32F10x_StdPeriph_Lib_V3.5.0/Libraries/STM32F10x_StdPeriph_Driver/src/stm32f10x_tim.c ****   *     @arg TIM_ICPolarity_Falling: IC Falling edge.
1257:../STM32F10x_StdPeriph_Lib_V3.5.0/Libraries/STM32F10x_StdPeriph_Driver/src/stm32f10x_tim.c ****   *     @arg TIM_ICPolarity_Rising: IC Rising edge.
1258:../STM32F10x_StdPeriph_Lib_V3.5.0/Libraries/STM32F10x_StdPeriph_Driver/src/stm32f10x_tim.c ****   * @param  TIM_IC2Polarity: specifies the IC2 Polarity
1259:../STM32F10x_StdPeriph_Lib_V3.5.0/Libraries/STM32F10x_StdPeriph_Driver/src/stm32f10x_tim.c ****   *   This parameter can be one of the following values:
1260:../STM32F10x_StdPeriph_Lib_V3.5.0/Libraries/STM32F10x_StdPeriph_Driver/src/stm32f10x_tim.c ****   *     @arg TIM_ICPolarity_Falling: IC Falling edge.
1261:../STM32F10x_StdPeriph_Lib_V3.5.0/Libraries/STM32F10x_StdPeriph_Driver/src/stm32f10x_tim.c ****   *     @arg TIM_ICPolarity_Rising: IC Rising edge.
1262:../STM32F10x_StdPeriph_Lib_V3.5.0/Libraries/STM32F10x_StdPeriph_Driver/src/stm32f10x_tim.c ****   * @retval None
1263:../STM32F10x_StdPeriph_Lib_V3.5.0/Libraries/STM32F10x_StdPeriph_Driver/src/stm32f10x_tim.c ****   */
1264:../STM32F10x_StdPeriph_Lib_V3.5.0/Libraries/STM32F10x_StdPeriph_Driver/src/stm32f10x_tim.c **** void TIM_EncoderInterfaceConfig(TIM_TypeDef* TIMx, uint16_t TIM_EncoderMode,
1265:../STM32F10x_StdPeriph_Lib_V3.5.0/Libraries/STM32F10x_StdPeriph_Driver/src/stm32f10x_tim.c ****                                 uint16_t TIM_IC1Polarity, uint16_t TIM_IC2Polarity)
1266:../STM32F10x_StdPeriph_Lib_V3.5.0/Libraries/STM32F10x_StdPeriph_Driver/src/stm32f10x_tim.c **** {
 2537              		.loc 1 1266 0
 2538              		.cfi_startproc
 2539              		@ args = 0, pretend = 0, frame = 24
 2540              		@ frame_needed = 1, uses_anonymous_args = 0
 2541              		@ link register save eliminated.
 2542 0000 80B4     		push	{r7}
 2543              	.LCFI84:
 2544              		.cfi_def_cfa_offset 4
 2545              		.cfi_offset 7, -4
 2546 0002 87B0     		sub	sp, sp, #28
 2547              	.LCFI85:
 2548              		.cfi_def_cfa_offset 32
 2549 0004 00AF     		add	r7, sp, #0
 2550              	.LCFI86:
 2551              		.cfi_def_cfa_register 7
 2552 0006 F860     		str	r0, [r7, #12]
 2553 0008 7981     		strh	r1, [r7, #10]	@ movhi
 2554 000a 3A81     		strh	r2, [r7, #8]	@ movhi
 2555 000c FB80     		strh	r3, [r7, #6]	@ movhi
1267:../STM32F10x_StdPeriph_Lib_V3.5.0/Libraries/STM32F10x_StdPeriph_Driver/src/stm32f10x_tim.c ****   uint16_t tmpsmcr = 0;
 2556              		.loc 1 1267 0
 2557 000e 4FF00003 		mov	r3, #0
 2558 0012 FB82     		strh	r3, [r7, #22]	@ movhi
1268:../STM32F10x_StdPeriph_Lib_V3.5.0/Libraries/STM32F10x_StdPeriph_Driver/src/stm32f10x_tim.c ****   uint16_t tmpccmr1 = 0;
 2559              		.loc 1 1268 0
 2560 0014 4FF00003 		mov	r3, #0
 2561 0018 BB82     		strh	r3, [r7, #20]	@ movhi
1269:../STM32F10x_StdPeriph_Lib_V3.5.0/Libraries/STM32F10x_StdPeriph_Driver/src/stm32f10x_tim.c ****   uint16_t tmpccer = 0;
 2562              		.loc 1 1269 0
 2563 001a 4FF00003 		mov	r3, #0
 2564 001e 7B82     		strh	r3, [r7, #18]	@ movhi
1270:../STM32F10x_StdPeriph_Lib_V3.5.0/Libraries/STM32F10x_StdPeriph_Driver/src/stm32f10x_tim.c ****     
1271:../STM32F10x_StdPeriph_Lib_V3.5.0/Libraries/STM32F10x_StdPeriph_Driver/src/stm32f10x_tim.c ****   /* Check the parameters */
1272:../STM32F10x_StdPeriph_Lib_V3.5.0/Libraries/STM32F10x_StdPeriph_Driver/src/stm32f10x_tim.c ****   assert_param(IS_TIM_LIST5_PERIPH(TIMx));
1273:../STM32F10x_StdPeriph_Lib_V3.5.0/Libraries/STM32F10x_StdPeriph_Driver/src/stm32f10x_tim.c ****   assert_param(IS_TIM_ENCODER_MODE(TIM_EncoderMode));
1274:../STM32F10x_StdPeriph_Lib_V3.5.0/Libraries/STM32F10x_StdPeriph_Driver/src/stm32f10x_tim.c ****   assert_param(IS_TIM_IC_POLARITY(TIM_IC1Polarity));
1275:../STM32F10x_StdPeriph_Lib_V3.5.0/Libraries/STM32F10x_StdPeriph_Driver/src/stm32f10x_tim.c ****   assert_param(IS_TIM_IC_POLARITY(TIM_IC2Polarity));
1276:../STM32F10x_StdPeriph_Lib_V3.5.0/Libraries/STM32F10x_StdPeriph_Driver/src/stm32f10x_tim.c **** 
1277:../STM32F10x_StdPeriph_Lib_V3.5.0/Libraries/STM32F10x_StdPeriph_Driver/src/stm32f10x_tim.c ****   /* Get the TIMx SMCR register value */
1278:../STM32F10x_StdPeriph_Lib_V3.5.0/Libraries/STM32F10x_StdPeriph_Driver/src/stm32f10x_tim.c ****   tmpsmcr = TIMx->SMCR;
 2565              		.loc 1 1278 0
 2566 0020 FB68     		ldr	r3, [r7, #12]
 2567 0022 1B89     		ldrh	r3, [r3, #8]	@ movhi
 2568 0024 FB82     		strh	r3, [r7, #22]	@ movhi
1279:../STM32F10x_StdPeriph_Lib_V3.5.0/Libraries/STM32F10x_StdPeriph_Driver/src/stm32f10x_tim.c ****   
1280:../STM32F10x_StdPeriph_Lib_V3.5.0/Libraries/STM32F10x_StdPeriph_Driver/src/stm32f10x_tim.c ****   /* Get the TIMx CCMR1 register value */
1281:../STM32F10x_StdPeriph_Lib_V3.5.0/Libraries/STM32F10x_StdPeriph_Driver/src/stm32f10x_tim.c ****   tmpccmr1 = TIMx->CCMR1;
 2569              		.loc 1 1281 0
 2570 0026 FB68     		ldr	r3, [r7, #12]
 2571 0028 1B8B     		ldrh	r3, [r3, #24]	@ movhi
 2572 002a BB82     		strh	r3, [r7, #20]	@ movhi
1282:../STM32F10x_StdPeriph_Lib_V3.5.0/Libraries/STM32F10x_StdPeriph_Driver/src/stm32f10x_tim.c ****   
1283:../STM32F10x_StdPeriph_Lib_V3.5.0/Libraries/STM32F10x_StdPeriph_Driver/src/stm32f10x_tim.c ****   /* Get the TIMx CCER register value */
1284:../STM32F10x_StdPeriph_Lib_V3.5.0/Libraries/STM32F10x_StdPeriph_Driver/src/stm32f10x_tim.c ****   tmpccer = TIMx->CCER;
 2573              		.loc 1 1284 0
 2574 002c FB68     		ldr	r3, [r7, #12]
 2575 002e 1B8C     		ldrh	r3, [r3, #32]	@ movhi
 2576 0030 7B82     		strh	r3, [r7, #18]	@ movhi
1285:../STM32F10x_StdPeriph_Lib_V3.5.0/Libraries/STM32F10x_StdPeriph_Driver/src/stm32f10x_tim.c ****   
1286:../STM32F10x_StdPeriph_Lib_V3.5.0/Libraries/STM32F10x_StdPeriph_Driver/src/stm32f10x_tim.c ****   /* Set the encoder Mode */
1287:../STM32F10x_StdPeriph_Lib_V3.5.0/Libraries/STM32F10x_StdPeriph_Driver/src/stm32f10x_tim.c ****   tmpsmcr &= (uint16_t)(~((uint16_t)TIM_SMCR_SMS));
 2577              		.loc 1 1287 0
 2578 0032 FB8A     		ldrh	r3, [r7, #22]	@ movhi
 2579 0034 23F00703 		bic	r3, r3, #7
 2580 0038 FB82     		strh	r3, [r7, #22]	@ movhi
1288:../STM32F10x_StdPeriph_Lib_V3.5.0/Libraries/STM32F10x_StdPeriph_Driver/src/stm32f10x_tim.c ****   tmpsmcr |= TIM_EncoderMode;
 2581              		.loc 1 1288 0
 2582 003a FA8A     		ldrh	r2, [r7, #22]	@ movhi
 2583 003c 7B89     		ldrh	r3, [r7, #10]	@ movhi
 2584 003e 1343     		orrs	r3, r3, r2
 2585 0040 FB82     		strh	r3, [r7, #22]	@ movhi
1289:../STM32F10x_StdPeriph_Lib_V3.5.0/Libraries/STM32F10x_StdPeriph_Driver/src/stm32f10x_tim.c ****   
1290:../STM32F10x_StdPeriph_Lib_V3.5.0/Libraries/STM32F10x_StdPeriph_Driver/src/stm32f10x_tim.c ****   /* Select the Capture Compare 1 and the Capture Compare 2 as input */
1291:../STM32F10x_StdPeriph_Lib_V3.5.0/Libraries/STM32F10x_StdPeriph_Driver/src/stm32f10x_tim.c ****   tmpccmr1 &= (uint16_t)(((uint16_t)~((uint16_t)TIM_CCMR1_CC1S)) & (uint16_t)(~((uint16_t)TIM_CCMR1
 2586              		.loc 1 1291 0
 2587 0042 BB8A     		ldrh	r3, [r7, #20]	@ movhi
 2588 0044 23F44073 		bic	r3, r3, #768
 2589 0048 23F00303 		bic	r3, r3, #3
 2590 004c BB82     		strh	r3, [r7, #20]	@ movhi
1292:../STM32F10x_StdPeriph_Lib_V3.5.0/Libraries/STM32F10x_StdPeriph_Driver/src/stm32f10x_tim.c ****   tmpccmr1 |= TIM_CCMR1_CC1S_0 | TIM_CCMR1_CC2S_0;
 2591              		.loc 1 1292 0
 2592 004e BB8A     		ldrh	r3, [r7, #20]	@ movhi
 2593 0050 43F48073 		orr	r3, r3, #256
 2594 0054 43F00103 		orr	r3, r3, #1
 2595 0058 BB82     		strh	r3, [r7, #20]	@ movhi
1293:../STM32F10x_StdPeriph_Lib_V3.5.0/Libraries/STM32F10x_StdPeriph_Driver/src/stm32f10x_tim.c ****   
1294:../STM32F10x_StdPeriph_Lib_V3.5.0/Libraries/STM32F10x_StdPeriph_Driver/src/stm32f10x_tim.c ****   /* Set the TI1 and the TI2 Polarities */
1295:../STM32F10x_StdPeriph_Lib_V3.5.0/Libraries/STM32F10x_StdPeriph_Driver/src/stm32f10x_tim.c ****   tmpccer &= (uint16_t)(((uint16_t)~((uint16_t)TIM_CCER_CC1P)) & ((uint16_t)~((uint16_t)TIM_CCER_CC
 2596              		.loc 1 1295 0
 2597 005a 7B8A     		ldrh	r3, [r7, #18]	@ movhi
 2598 005c 23F02203 		bic	r3, r3, #34
 2599 0060 7B82     		strh	r3, [r7, #18]	@ movhi
1296:../STM32F10x_StdPeriph_Lib_V3.5.0/Libraries/STM32F10x_StdPeriph_Driver/src/stm32f10x_tim.c ****   tmpccer |= (uint16_t)(TIM_IC1Polarity | (uint16_t)(TIM_IC2Polarity << (uint16_t)4));
 2600              		.loc 1 1296 0
 2601 0062 FB88     		ldrh	r3, [r7, #6]	@ movhi
 2602 0064 4FEA0313 		lsl	r3, r3, #4
 2603 0068 9AB2     		uxth	r2, r3
 2604 006a 3B89     		ldrh	r3, [r7, #8]	@ movhi
 2605 006c 1343     		orrs	r3, r3, r2
 2606 006e 9AB2     		uxth	r2, r3
 2607 0070 7B8A     		ldrh	r3, [r7, #18]	@ movhi
 2608 0072 1343     		orrs	r3, r3, r2
 2609 0074 7B82     		strh	r3, [r7, #18]	@ movhi
1297:../STM32F10x_StdPeriph_Lib_V3.5.0/Libraries/STM32F10x_StdPeriph_Driver/src/stm32f10x_tim.c ****   
1298:../STM32F10x_StdPeriph_Lib_V3.5.0/Libraries/STM32F10x_StdPeriph_Driver/src/stm32f10x_tim.c ****   /* Write to TIMx SMCR */
1299:../STM32F10x_StdPeriph_Lib_V3.5.0/Libraries/STM32F10x_StdPeriph_Driver/src/stm32f10x_tim.c ****   TIMx->SMCR = tmpsmcr;
 2610              		.loc 1 1299 0
 2611 0076 FB68     		ldr	r3, [r7, #12]
 2612 0078 FA8A     		ldrh	r2, [r7, #22]	@ movhi
 2613 007a 1A81     		strh	r2, [r3, #8]	@ movhi
1300:../STM32F10x_StdPeriph_Lib_V3.5.0/Libraries/STM32F10x_StdPeriph_Driver/src/stm32f10x_tim.c ****   /* Write to TIMx CCMR1 */
1301:../STM32F10x_StdPeriph_Lib_V3.5.0/Libraries/STM32F10x_StdPeriph_Driver/src/stm32f10x_tim.c ****   TIMx->CCMR1 = tmpccmr1;
 2614              		.loc 1 1301 0
 2615 007c FB68     		ldr	r3, [r7, #12]
 2616 007e BA8A     		ldrh	r2, [r7, #20]	@ movhi
 2617 0080 1A83     		strh	r2, [r3, #24]	@ movhi
1302:../STM32F10x_StdPeriph_Lib_V3.5.0/Libraries/STM32F10x_StdPeriph_Driver/src/stm32f10x_tim.c ****   /* Write to TIMx CCER */
1303:../STM32F10x_StdPeriph_Lib_V3.5.0/Libraries/STM32F10x_StdPeriph_Driver/src/stm32f10x_tim.c ****   TIMx->CCER = tmpccer;
 2618              		.loc 1 1303 0
 2619 0082 FB68     		ldr	r3, [r7, #12]
 2620 0084 7A8A     		ldrh	r2, [r7, #18]	@ movhi
 2621 0086 1A84     		strh	r2, [r3, #32]	@ movhi
1304:../STM32F10x_StdPeriph_Lib_V3.5.0/Libraries/STM32F10x_StdPeriph_Driver/src/stm32f10x_tim.c **** }
 2622              		.loc 1 1304 0
 2623 0088 07F11C07 		add	r7, r7, #28
 2624 008c BD46     		mov	sp, r7
 2625 008e 80BC     		pop	{r7}
 2626 0090 7047     		bx	lr
 2627              		.cfi_endproc
 2628              	.LFE57:
 2630 0092 00BF     		.section	.text.TIM_ForcedOC1Config,"ax",%progbits
 2631              		.align	2
 2632              		.global	TIM_ForcedOC1Config
 2633              		.thumb
 2634              		.thumb_func
 2636              	TIM_ForcedOC1Config:
 2637              	.LFB58:
1305:../STM32F10x_StdPeriph_Lib_V3.5.0/Libraries/STM32F10x_StdPeriph_Driver/src/stm32f10x_tim.c **** 
1306:../STM32F10x_StdPeriph_Lib_V3.5.0/Libraries/STM32F10x_StdPeriph_Driver/src/stm32f10x_tim.c **** /**
1307:../STM32F10x_StdPeriph_Lib_V3.5.0/Libraries/STM32F10x_StdPeriph_Driver/src/stm32f10x_tim.c ****   * @brief  Forces the TIMx output 1 waveform to active or inactive level.
1308:../STM32F10x_StdPeriph_Lib_V3.5.0/Libraries/STM32F10x_StdPeriph_Driver/src/stm32f10x_tim.c ****   * @param  TIMx: where x can be  1 to 17 except 6 and 7 to select the TIM peripheral.
1309:../STM32F10x_StdPeriph_Lib_V3.5.0/Libraries/STM32F10x_StdPeriph_Driver/src/stm32f10x_tim.c ****   * @param  TIM_ForcedAction: specifies the forced Action to be set to the output waveform.
1310:../STM32F10x_StdPeriph_Lib_V3.5.0/Libraries/STM32F10x_StdPeriph_Driver/src/stm32f10x_tim.c ****   *   This parameter can be one of the following values:
1311:../STM32F10x_StdPeriph_Lib_V3.5.0/Libraries/STM32F10x_StdPeriph_Driver/src/stm32f10x_tim.c ****   *     @arg TIM_ForcedAction_Active: Force active level on OC1REF
1312:../STM32F10x_StdPeriph_Lib_V3.5.0/Libraries/STM32F10x_StdPeriph_Driver/src/stm32f10x_tim.c ****   *     @arg TIM_ForcedAction_InActive: Force inactive level on OC1REF.
1313:../STM32F10x_StdPeriph_Lib_V3.5.0/Libraries/STM32F10x_StdPeriph_Driver/src/stm32f10x_tim.c ****   * @retval None
1314:../STM32F10x_StdPeriph_Lib_V3.5.0/Libraries/STM32F10x_StdPeriph_Driver/src/stm32f10x_tim.c ****   */
1315:../STM32F10x_StdPeriph_Lib_V3.5.0/Libraries/STM32F10x_StdPeriph_Driver/src/stm32f10x_tim.c **** void TIM_ForcedOC1Config(TIM_TypeDef* TIMx, uint16_t TIM_ForcedAction)
1316:../STM32F10x_StdPeriph_Lib_V3.5.0/Libraries/STM32F10x_StdPeriph_Driver/src/stm32f10x_tim.c **** {
 2638              		.loc 1 1316 0
 2639              		.cfi_startproc
 2640              		@ args = 0, pretend = 0, frame = 16
 2641              		@ frame_needed = 1, uses_anonymous_args = 0
 2642              		@ link register save eliminated.
 2643 0000 80B4     		push	{r7}
 2644              	.LCFI87:
 2645              		.cfi_def_cfa_offset 4
 2646              		.cfi_offset 7, -4
 2647 0002 85B0     		sub	sp, sp, #20
 2648              	.LCFI88:
 2649              		.cfi_def_cfa_offset 24
 2650 0004 00AF     		add	r7, sp, #0
 2651              	.LCFI89:
 2652              		.cfi_def_cfa_register 7
 2653 0006 7860     		str	r0, [r7, #4]
 2654 0008 0B46     		mov	r3, r1
 2655 000a 7B80     		strh	r3, [r7, #2]	@ movhi
1317:../STM32F10x_StdPeriph_Lib_V3.5.0/Libraries/STM32F10x_StdPeriph_Driver/src/stm32f10x_tim.c ****   uint16_t tmpccmr1 = 0;
 2656              		.loc 1 1317 0
 2657 000c 4FF00003 		mov	r3, #0
 2658 0010 FB81     		strh	r3, [r7, #14]	@ movhi
1318:../STM32F10x_StdPeriph_Lib_V3.5.0/Libraries/STM32F10x_StdPeriph_Driver/src/stm32f10x_tim.c ****   /* Check the parameters */
1319:../STM32F10x_StdPeriph_Lib_V3.5.0/Libraries/STM32F10x_StdPeriph_Driver/src/stm32f10x_tim.c ****   assert_param(IS_TIM_LIST8_PERIPH(TIMx));
1320:../STM32F10x_StdPeriph_Lib_V3.5.0/Libraries/STM32F10x_StdPeriph_Driver/src/stm32f10x_tim.c ****   assert_param(IS_TIM_FORCED_ACTION(TIM_ForcedAction));
1321:../STM32F10x_StdPeriph_Lib_V3.5.0/Libraries/STM32F10x_StdPeriph_Driver/src/stm32f10x_tim.c ****   tmpccmr1 = TIMx->CCMR1;
 2659              		.loc 1 1321 0
 2660 0012 7B68     		ldr	r3, [r7, #4]
 2661 0014 1B8B     		ldrh	r3, [r3, #24]	@ movhi
 2662 0016 FB81     		strh	r3, [r7, #14]	@ movhi
1322:../STM32F10x_StdPeriph_Lib_V3.5.0/Libraries/STM32F10x_StdPeriph_Driver/src/stm32f10x_tim.c ****   /* Reset the OC1M Bits */
1323:../STM32F10x_StdPeriph_Lib_V3.5.0/Libraries/STM32F10x_StdPeriph_Driver/src/stm32f10x_tim.c ****   tmpccmr1 &= (uint16_t)~((uint16_t)TIM_CCMR1_OC1M);
 2663              		.loc 1 1323 0
 2664 0018 FB89     		ldrh	r3, [r7, #14]	@ movhi
 2665 001a 23F07003 		bic	r3, r3, #112
 2666 001e FB81     		strh	r3, [r7, #14]	@ movhi
1324:../STM32F10x_StdPeriph_Lib_V3.5.0/Libraries/STM32F10x_StdPeriph_Driver/src/stm32f10x_tim.c ****   /* Configure The Forced output Mode */
1325:../STM32F10x_StdPeriph_Lib_V3.5.0/Libraries/STM32F10x_StdPeriph_Driver/src/stm32f10x_tim.c ****   tmpccmr1 |= TIM_ForcedAction;
 2667              		.loc 1 1325 0
 2668 0020 FA89     		ldrh	r2, [r7, #14]	@ movhi
 2669 0022 7B88     		ldrh	r3, [r7, #2]	@ movhi
 2670 0024 1343     		orrs	r3, r3, r2
 2671 0026 FB81     		strh	r3, [r7, #14]	@ movhi
1326:../STM32F10x_StdPeriph_Lib_V3.5.0/Libraries/STM32F10x_StdPeriph_Driver/src/stm32f10x_tim.c ****   /* Write to TIMx CCMR1 register */
1327:../STM32F10x_StdPeriph_Lib_V3.5.0/Libraries/STM32F10x_StdPeriph_Driver/src/stm32f10x_tim.c ****   TIMx->CCMR1 = tmpccmr1;
 2672              		.loc 1 1327 0
 2673 0028 7B68     		ldr	r3, [r7, #4]
 2674 002a FA89     		ldrh	r2, [r7, #14]	@ movhi
 2675 002c 1A83     		strh	r2, [r3, #24]	@ movhi
1328:../STM32F10x_StdPeriph_Lib_V3.5.0/Libraries/STM32F10x_StdPeriph_Driver/src/stm32f10x_tim.c **** }
 2676              		.loc 1 1328 0
 2677 002e 07F11407 		add	r7, r7, #20
 2678 0032 BD46     		mov	sp, r7
 2679 0034 80BC     		pop	{r7}
 2680 0036 7047     		bx	lr
 2681              		.cfi_endproc
 2682              	.LFE58:
 2684              		.section	.text.TIM_ForcedOC2Config,"ax",%progbits
 2685              		.align	2
 2686              		.global	TIM_ForcedOC2Config
 2687              		.thumb
 2688              		.thumb_func
 2690              	TIM_ForcedOC2Config:
 2691              	.LFB59:
1329:../STM32F10x_StdPeriph_Lib_V3.5.0/Libraries/STM32F10x_StdPeriph_Driver/src/stm32f10x_tim.c **** 
1330:../STM32F10x_StdPeriph_Lib_V3.5.0/Libraries/STM32F10x_StdPeriph_Driver/src/stm32f10x_tim.c **** /**
1331:../STM32F10x_StdPeriph_Lib_V3.5.0/Libraries/STM32F10x_StdPeriph_Driver/src/stm32f10x_tim.c ****   * @brief  Forces the TIMx output 2 waveform to active or inactive level.
1332:../STM32F10x_StdPeriph_Lib_V3.5.0/Libraries/STM32F10x_StdPeriph_Driver/src/stm32f10x_tim.c ****   * @param  TIMx: where x can be  1, 2, 3, 4, 5, 8, 9, 12 or 15 to select the TIM peripheral.
1333:../STM32F10x_StdPeriph_Lib_V3.5.0/Libraries/STM32F10x_StdPeriph_Driver/src/stm32f10x_tim.c ****   * @param  TIM_ForcedAction: specifies the forced Action to be set to the output waveform.
1334:../STM32F10x_StdPeriph_Lib_V3.5.0/Libraries/STM32F10x_StdPeriph_Driver/src/stm32f10x_tim.c ****   *   This parameter can be one of the following values:
1335:../STM32F10x_StdPeriph_Lib_V3.5.0/Libraries/STM32F10x_StdPeriph_Driver/src/stm32f10x_tim.c ****   *     @arg TIM_ForcedAction_Active: Force active level on OC2REF
1336:../STM32F10x_StdPeriph_Lib_V3.5.0/Libraries/STM32F10x_StdPeriph_Driver/src/stm32f10x_tim.c ****   *     @arg TIM_ForcedAction_InActive: Force inactive level on OC2REF.
1337:../STM32F10x_StdPeriph_Lib_V3.5.0/Libraries/STM32F10x_StdPeriph_Driver/src/stm32f10x_tim.c ****   * @retval None
1338:../STM32F10x_StdPeriph_Lib_V3.5.0/Libraries/STM32F10x_StdPeriph_Driver/src/stm32f10x_tim.c ****   */
1339:../STM32F10x_StdPeriph_Lib_V3.5.0/Libraries/STM32F10x_StdPeriph_Driver/src/stm32f10x_tim.c **** void TIM_ForcedOC2Config(TIM_TypeDef* TIMx, uint16_t TIM_ForcedAction)
1340:../STM32F10x_StdPeriph_Lib_V3.5.0/Libraries/STM32F10x_StdPeriph_Driver/src/stm32f10x_tim.c **** {
 2692              		.loc 1 1340 0
 2693              		.cfi_startproc
 2694              		@ args = 0, pretend = 0, frame = 16
 2695              		@ frame_needed = 1, uses_anonymous_args = 0
 2696              		@ link register save eliminated.
 2697 0000 80B4     		push	{r7}
 2698              	.LCFI90:
 2699              		.cfi_def_cfa_offset 4
 2700              		.cfi_offset 7, -4
 2701 0002 85B0     		sub	sp, sp, #20
 2702              	.LCFI91:
 2703              		.cfi_def_cfa_offset 24
 2704 0004 00AF     		add	r7, sp, #0
 2705              	.LCFI92:
 2706              		.cfi_def_cfa_register 7
 2707 0006 7860     		str	r0, [r7, #4]
 2708 0008 0B46     		mov	r3, r1
 2709 000a 7B80     		strh	r3, [r7, #2]	@ movhi
1341:../STM32F10x_StdPeriph_Lib_V3.5.0/Libraries/STM32F10x_StdPeriph_Driver/src/stm32f10x_tim.c ****   uint16_t tmpccmr1 = 0;
 2710              		.loc 1 1341 0
 2711 000c 4FF00003 		mov	r3, #0
 2712 0010 FB81     		strh	r3, [r7, #14]	@ movhi
1342:../STM32F10x_StdPeriph_Lib_V3.5.0/Libraries/STM32F10x_StdPeriph_Driver/src/stm32f10x_tim.c ****   /* Check the parameters */
1343:../STM32F10x_StdPeriph_Lib_V3.5.0/Libraries/STM32F10x_StdPeriph_Driver/src/stm32f10x_tim.c ****   assert_param(IS_TIM_LIST6_PERIPH(TIMx));
1344:../STM32F10x_StdPeriph_Lib_V3.5.0/Libraries/STM32F10x_StdPeriph_Driver/src/stm32f10x_tim.c ****   assert_param(IS_TIM_FORCED_ACTION(TIM_ForcedAction));
1345:../STM32F10x_StdPeriph_Lib_V3.5.0/Libraries/STM32F10x_StdPeriph_Driver/src/stm32f10x_tim.c ****   tmpccmr1 = TIMx->CCMR1;
 2713              		.loc 1 1345 0
 2714 0012 7B68     		ldr	r3, [r7, #4]
 2715 0014 1B8B     		ldrh	r3, [r3, #24]	@ movhi
 2716 0016 FB81     		strh	r3, [r7, #14]	@ movhi
1346:../STM32F10x_StdPeriph_Lib_V3.5.0/Libraries/STM32F10x_StdPeriph_Driver/src/stm32f10x_tim.c ****   /* Reset the OC2M Bits */
1347:../STM32F10x_StdPeriph_Lib_V3.5.0/Libraries/STM32F10x_StdPeriph_Driver/src/stm32f10x_tim.c ****   tmpccmr1 &= (uint16_t)~((uint16_t)TIM_CCMR1_OC2M);
 2717              		.loc 1 1347 0
 2718 0018 FB89     		ldrh	r3, [r7, #14]	@ movhi
 2719 001a 23F4E043 		bic	r3, r3, #28672
 2720 001e FB81     		strh	r3, [r7, #14]	@ movhi
1348:../STM32F10x_StdPeriph_Lib_V3.5.0/Libraries/STM32F10x_StdPeriph_Driver/src/stm32f10x_tim.c ****   /* Configure The Forced output Mode */
1349:../STM32F10x_StdPeriph_Lib_V3.5.0/Libraries/STM32F10x_StdPeriph_Driver/src/stm32f10x_tim.c ****   tmpccmr1 |= (uint16_t)(TIM_ForcedAction << 8);
 2721              		.loc 1 1349 0
 2722 0020 7B88     		ldrh	r3, [r7, #2]	@ movhi
 2723 0022 4FEA0323 		lsl	r3, r3, #8
 2724 0026 9AB2     		uxth	r2, r3
 2725 0028 FB89     		ldrh	r3, [r7, #14]	@ movhi
 2726 002a 1343     		orrs	r3, r3, r2
 2727 002c FB81     		strh	r3, [r7, #14]	@ movhi
1350:../STM32F10x_StdPeriph_Lib_V3.5.0/Libraries/STM32F10x_StdPeriph_Driver/src/stm32f10x_tim.c ****   /* Write to TIMx CCMR1 register */
1351:../STM32F10x_StdPeriph_Lib_V3.5.0/Libraries/STM32F10x_StdPeriph_Driver/src/stm32f10x_tim.c ****   TIMx->CCMR1 = tmpccmr1;
 2728              		.loc 1 1351 0
 2729 002e 7B68     		ldr	r3, [r7, #4]
 2730 0030 FA89     		ldrh	r2, [r7, #14]	@ movhi
 2731 0032 1A83     		strh	r2, [r3, #24]	@ movhi
1352:../STM32F10x_StdPeriph_Lib_V3.5.0/Libraries/STM32F10x_StdPeriph_Driver/src/stm32f10x_tim.c **** }
 2732              		.loc 1 1352 0
 2733 0034 07F11407 		add	r7, r7, #20
 2734 0038 BD46     		mov	sp, r7
 2735 003a 80BC     		pop	{r7}
 2736 003c 7047     		bx	lr
 2737              		.cfi_endproc
 2738              	.LFE59:
 2740 003e 00BF     		.section	.text.TIM_ForcedOC3Config,"ax",%progbits
 2741              		.align	2
 2742              		.global	TIM_ForcedOC3Config
 2743              		.thumb
 2744              		.thumb_func
 2746              	TIM_ForcedOC3Config:
 2747              	.LFB60:
1353:../STM32F10x_StdPeriph_Lib_V3.5.0/Libraries/STM32F10x_StdPeriph_Driver/src/stm32f10x_tim.c **** 
1354:../STM32F10x_StdPeriph_Lib_V3.5.0/Libraries/STM32F10x_StdPeriph_Driver/src/stm32f10x_tim.c **** /**
1355:../STM32F10x_StdPeriph_Lib_V3.5.0/Libraries/STM32F10x_StdPeriph_Driver/src/stm32f10x_tim.c ****   * @brief  Forces the TIMx output 3 waveform to active or inactive level.
1356:../STM32F10x_StdPeriph_Lib_V3.5.0/Libraries/STM32F10x_StdPeriph_Driver/src/stm32f10x_tim.c ****   * @param  TIMx: where x can be  1, 2, 3, 4, 5 or 8 to select the TIM peripheral.
1357:../STM32F10x_StdPeriph_Lib_V3.5.0/Libraries/STM32F10x_StdPeriph_Driver/src/stm32f10x_tim.c ****   * @param  TIM_ForcedAction: specifies the forced Action to be set to the output waveform.
1358:../STM32F10x_StdPeriph_Lib_V3.5.0/Libraries/STM32F10x_StdPeriph_Driver/src/stm32f10x_tim.c ****   *   This parameter can be one of the following values:
1359:../STM32F10x_StdPeriph_Lib_V3.5.0/Libraries/STM32F10x_StdPeriph_Driver/src/stm32f10x_tim.c ****   *     @arg TIM_ForcedAction_Active: Force active level on OC3REF
1360:../STM32F10x_StdPeriph_Lib_V3.5.0/Libraries/STM32F10x_StdPeriph_Driver/src/stm32f10x_tim.c ****   *     @arg TIM_ForcedAction_InActive: Force inactive level on OC3REF.
1361:../STM32F10x_StdPeriph_Lib_V3.5.0/Libraries/STM32F10x_StdPeriph_Driver/src/stm32f10x_tim.c ****   * @retval None
1362:../STM32F10x_StdPeriph_Lib_V3.5.0/Libraries/STM32F10x_StdPeriph_Driver/src/stm32f10x_tim.c ****   */
1363:../STM32F10x_StdPeriph_Lib_V3.5.0/Libraries/STM32F10x_StdPeriph_Driver/src/stm32f10x_tim.c **** void TIM_ForcedOC3Config(TIM_TypeDef* TIMx, uint16_t TIM_ForcedAction)
1364:../STM32F10x_StdPeriph_Lib_V3.5.0/Libraries/STM32F10x_StdPeriph_Driver/src/stm32f10x_tim.c **** {
 2748              		.loc 1 1364 0
 2749              		.cfi_startproc
 2750              		@ args = 0, pretend = 0, frame = 16
 2751              		@ frame_needed = 1, uses_anonymous_args = 0
 2752              		@ link register save eliminated.
 2753 0000 80B4     		push	{r7}
 2754              	.LCFI93:
 2755              		.cfi_def_cfa_offset 4
 2756              		.cfi_offset 7, -4
 2757 0002 85B0     		sub	sp, sp, #20
 2758              	.LCFI94:
 2759              		.cfi_def_cfa_offset 24
 2760 0004 00AF     		add	r7, sp, #0
 2761              	.LCFI95:
 2762              		.cfi_def_cfa_register 7
 2763 0006 7860     		str	r0, [r7, #4]
 2764 0008 0B46     		mov	r3, r1
 2765 000a 7B80     		strh	r3, [r7, #2]	@ movhi
1365:../STM32F10x_StdPeriph_Lib_V3.5.0/Libraries/STM32F10x_StdPeriph_Driver/src/stm32f10x_tim.c ****   uint16_t tmpccmr2 = 0;
 2766              		.loc 1 1365 0
 2767 000c 4FF00003 		mov	r3, #0
 2768 0010 FB81     		strh	r3, [r7, #14]	@ movhi
1366:../STM32F10x_StdPeriph_Lib_V3.5.0/Libraries/STM32F10x_StdPeriph_Driver/src/stm32f10x_tim.c ****   /* Check the parameters */
1367:../STM32F10x_StdPeriph_Lib_V3.5.0/Libraries/STM32F10x_StdPeriph_Driver/src/stm32f10x_tim.c ****   assert_param(IS_TIM_LIST3_PERIPH(TIMx));
1368:../STM32F10x_StdPeriph_Lib_V3.5.0/Libraries/STM32F10x_StdPeriph_Driver/src/stm32f10x_tim.c ****   assert_param(IS_TIM_FORCED_ACTION(TIM_ForcedAction));
1369:../STM32F10x_StdPeriph_Lib_V3.5.0/Libraries/STM32F10x_StdPeriph_Driver/src/stm32f10x_tim.c ****   tmpccmr2 = TIMx->CCMR2;
 2769              		.loc 1 1369 0
 2770 0012 7B68     		ldr	r3, [r7, #4]
 2771 0014 9B8B     		ldrh	r3, [r3, #28]	@ movhi
 2772 0016 FB81     		strh	r3, [r7, #14]	@ movhi
1370:../STM32F10x_StdPeriph_Lib_V3.5.0/Libraries/STM32F10x_StdPeriph_Driver/src/stm32f10x_tim.c ****   /* Reset the OC1M Bits */
1371:../STM32F10x_StdPeriph_Lib_V3.5.0/Libraries/STM32F10x_StdPeriph_Driver/src/stm32f10x_tim.c ****   tmpccmr2 &= (uint16_t)~((uint16_t)TIM_CCMR2_OC3M);
 2773              		.loc 1 1371 0
 2774 0018 FB89     		ldrh	r3, [r7, #14]	@ movhi
 2775 001a 23F07003 		bic	r3, r3, #112
 2776 001e FB81     		strh	r3, [r7, #14]	@ movhi
1372:../STM32F10x_StdPeriph_Lib_V3.5.0/Libraries/STM32F10x_StdPeriph_Driver/src/stm32f10x_tim.c ****   /* Configure The Forced output Mode */
1373:../STM32F10x_StdPeriph_Lib_V3.5.0/Libraries/STM32F10x_StdPeriph_Driver/src/stm32f10x_tim.c ****   tmpccmr2 |= TIM_ForcedAction;
 2777              		.loc 1 1373 0
 2778 0020 FA89     		ldrh	r2, [r7, #14]	@ movhi
 2779 0022 7B88     		ldrh	r3, [r7, #2]	@ movhi
 2780 0024 1343     		orrs	r3, r3, r2
 2781 0026 FB81     		strh	r3, [r7, #14]	@ movhi
1374:../STM32F10x_StdPeriph_Lib_V3.5.0/Libraries/STM32F10x_StdPeriph_Driver/src/stm32f10x_tim.c ****   /* Write to TIMx CCMR2 register */
1375:../STM32F10x_StdPeriph_Lib_V3.5.0/Libraries/STM32F10x_StdPeriph_Driver/src/stm32f10x_tim.c ****   TIMx->CCMR2 = tmpccmr2;
 2782              		.loc 1 1375 0
 2783 0028 7B68     		ldr	r3, [r7, #4]
 2784 002a FA89     		ldrh	r2, [r7, #14]	@ movhi
 2785 002c 9A83     		strh	r2, [r3, #28]	@ movhi
1376:../STM32F10x_StdPeriph_Lib_V3.5.0/Libraries/STM32F10x_StdPeriph_Driver/src/stm32f10x_tim.c **** }
 2786              		.loc 1 1376 0
 2787 002e 07F11407 		add	r7, r7, #20
 2788 0032 BD46     		mov	sp, r7
 2789 0034 80BC     		pop	{r7}
 2790 0036 7047     		bx	lr
 2791              		.cfi_endproc
 2792              	.LFE60:
 2794              		.section	.text.TIM_ForcedOC4Config,"ax",%progbits
 2795              		.align	2
 2796              		.global	TIM_ForcedOC4Config
 2797              		.thumb
 2798              		.thumb_func
 2800              	TIM_ForcedOC4Config:
 2801              	.LFB61:
1377:../STM32F10x_StdPeriph_Lib_V3.5.0/Libraries/STM32F10x_StdPeriph_Driver/src/stm32f10x_tim.c **** 
1378:../STM32F10x_StdPeriph_Lib_V3.5.0/Libraries/STM32F10x_StdPeriph_Driver/src/stm32f10x_tim.c **** /**
1379:../STM32F10x_StdPeriph_Lib_V3.5.0/Libraries/STM32F10x_StdPeriph_Driver/src/stm32f10x_tim.c ****   * @brief  Forces the TIMx output 4 waveform to active or inactive level.
1380:../STM32F10x_StdPeriph_Lib_V3.5.0/Libraries/STM32F10x_StdPeriph_Driver/src/stm32f10x_tim.c ****   * @param  TIMx: where x can be  1, 2, 3, 4, 5 or 8 to select the TIM peripheral.
1381:../STM32F10x_StdPeriph_Lib_V3.5.0/Libraries/STM32F10x_StdPeriph_Driver/src/stm32f10x_tim.c ****   * @param  TIM_ForcedAction: specifies the forced Action to be set to the output waveform.
1382:../STM32F10x_StdPeriph_Lib_V3.5.0/Libraries/STM32F10x_StdPeriph_Driver/src/stm32f10x_tim.c ****   *   This parameter can be one of the following values:
1383:../STM32F10x_StdPeriph_Lib_V3.5.0/Libraries/STM32F10x_StdPeriph_Driver/src/stm32f10x_tim.c ****   *     @arg TIM_ForcedAction_Active: Force active level on OC4REF
1384:../STM32F10x_StdPeriph_Lib_V3.5.0/Libraries/STM32F10x_StdPeriph_Driver/src/stm32f10x_tim.c ****   *     @arg TIM_ForcedAction_InActive: Force inactive level on OC4REF.
1385:../STM32F10x_StdPeriph_Lib_V3.5.0/Libraries/STM32F10x_StdPeriph_Driver/src/stm32f10x_tim.c ****   * @retval None
1386:../STM32F10x_StdPeriph_Lib_V3.5.0/Libraries/STM32F10x_StdPeriph_Driver/src/stm32f10x_tim.c ****   */
1387:../STM32F10x_StdPeriph_Lib_V3.5.0/Libraries/STM32F10x_StdPeriph_Driver/src/stm32f10x_tim.c **** void TIM_ForcedOC4Config(TIM_TypeDef* TIMx, uint16_t TIM_ForcedAction)
1388:../STM32F10x_StdPeriph_Lib_V3.5.0/Libraries/STM32F10x_StdPeriph_Driver/src/stm32f10x_tim.c **** {
 2802              		.loc 1 1388 0
 2803              		.cfi_startproc
 2804              		@ args = 0, pretend = 0, frame = 16
 2805              		@ frame_needed = 1, uses_anonymous_args = 0
 2806              		@ link register save eliminated.
 2807 0000 80B4     		push	{r7}
 2808              	.LCFI96:
 2809              		.cfi_def_cfa_offset 4
 2810              		.cfi_offset 7, -4
 2811 0002 85B0     		sub	sp, sp, #20
 2812              	.LCFI97:
 2813              		.cfi_def_cfa_offset 24
 2814 0004 00AF     		add	r7, sp, #0
 2815              	.LCFI98:
 2816              		.cfi_def_cfa_register 7
 2817 0006 7860     		str	r0, [r7, #4]
 2818 0008 0B46     		mov	r3, r1
 2819 000a 7B80     		strh	r3, [r7, #2]	@ movhi
1389:../STM32F10x_StdPeriph_Lib_V3.5.0/Libraries/STM32F10x_StdPeriph_Driver/src/stm32f10x_tim.c ****   uint16_t tmpccmr2 = 0;
 2820              		.loc 1 1389 0
 2821 000c 4FF00003 		mov	r3, #0
 2822 0010 FB81     		strh	r3, [r7, #14]	@ movhi
1390:../STM32F10x_StdPeriph_Lib_V3.5.0/Libraries/STM32F10x_StdPeriph_Driver/src/stm32f10x_tim.c ****   /* Check the parameters */
1391:../STM32F10x_StdPeriph_Lib_V3.5.0/Libraries/STM32F10x_StdPeriph_Driver/src/stm32f10x_tim.c ****   assert_param(IS_TIM_LIST3_PERIPH(TIMx));
1392:../STM32F10x_StdPeriph_Lib_V3.5.0/Libraries/STM32F10x_StdPeriph_Driver/src/stm32f10x_tim.c ****   assert_param(IS_TIM_FORCED_ACTION(TIM_ForcedAction));
1393:../STM32F10x_StdPeriph_Lib_V3.5.0/Libraries/STM32F10x_StdPeriph_Driver/src/stm32f10x_tim.c ****   tmpccmr2 = TIMx->CCMR2;
 2823              		.loc 1 1393 0
 2824 0012 7B68     		ldr	r3, [r7, #4]
 2825 0014 9B8B     		ldrh	r3, [r3, #28]	@ movhi
 2826 0016 FB81     		strh	r3, [r7, #14]	@ movhi
1394:../STM32F10x_StdPeriph_Lib_V3.5.0/Libraries/STM32F10x_StdPeriph_Driver/src/stm32f10x_tim.c ****   /* Reset the OC2M Bits */
1395:../STM32F10x_StdPeriph_Lib_V3.5.0/Libraries/STM32F10x_StdPeriph_Driver/src/stm32f10x_tim.c ****   tmpccmr2 &= (uint16_t)~((uint16_t)TIM_CCMR2_OC4M);
 2827              		.loc 1 1395 0
 2828 0018 FB89     		ldrh	r3, [r7, #14]	@ movhi
 2829 001a 23F4E043 		bic	r3, r3, #28672
 2830 001e FB81     		strh	r3, [r7, #14]	@ movhi
1396:../STM32F10x_StdPeriph_Lib_V3.5.0/Libraries/STM32F10x_StdPeriph_Driver/src/stm32f10x_tim.c ****   /* Configure The Forced output Mode */
1397:../STM32F10x_StdPeriph_Lib_V3.5.0/Libraries/STM32F10x_StdPeriph_Driver/src/stm32f10x_tim.c ****   tmpccmr2 |= (uint16_t)(TIM_ForcedAction << 8);
 2831              		.loc 1 1397 0
 2832 0020 7B88     		ldrh	r3, [r7, #2]	@ movhi
 2833 0022 4FEA0323 		lsl	r3, r3, #8
 2834 0026 9AB2     		uxth	r2, r3
 2835 0028 FB89     		ldrh	r3, [r7, #14]	@ movhi
 2836 002a 1343     		orrs	r3, r3, r2
 2837 002c FB81     		strh	r3, [r7, #14]	@ movhi
1398:../STM32F10x_StdPeriph_Lib_V3.5.0/Libraries/STM32F10x_StdPeriph_Driver/src/stm32f10x_tim.c ****   /* Write to TIMx CCMR2 register */
1399:../STM32F10x_StdPeriph_Lib_V3.5.0/Libraries/STM32F10x_StdPeriph_Driver/src/stm32f10x_tim.c ****   TIMx->CCMR2 = tmpccmr2;
 2838              		.loc 1 1399 0
 2839 002e 7B68     		ldr	r3, [r7, #4]
 2840 0030 FA89     		ldrh	r2, [r7, #14]	@ movhi
 2841 0032 9A83     		strh	r2, [r3, #28]	@ movhi
1400:../STM32F10x_StdPeriph_Lib_V3.5.0/Libraries/STM32F10x_StdPeriph_Driver/src/stm32f10x_tim.c **** }
 2842              		.loc 1 1400 0
 2843 0034 07F11407 		add	r7, r7, #20
 2844 0038 BD46     		mov	sp, r7
 2845 003a 80BC     		pop	{r7}
 2846 003c 7047     		bx	lr
 2847              		.cfi_endproc
 2848              	.LFE61:
 2850 003e 00BF     		.section	.text.TIM_ARRPreloadConfig,"ax",%progbits
 2851              		.align	2
 2852              		.global	TIM_ARRPreloadConfig
 2853              		.thumb
 2854              		.thumb_func
 2856              	TIM_ARRPreloadConfig:
 2857              	.LFB62:
1401:../STM32F10x_StdPeriph_Lib_V3.5.0/Libraries/STM32F10x_StdPeriph_Driver/src/stm32f10x_tim.c **** 
1402:../STM32F10x_StdPeriph_Lib_V3.5.0/Libraries/STM32F10x_StdPeriph_Driver/src/stm32f10x_tim.c **** /**
1403:../STM32F10x_StdPeriph_Lib_V3.5.0/Libraries/STM32F10x_StdPeriph_Driver/src/stm32f10x_tim.c ****   * @brief  Enables or disables TIMx peripheral Preload register on ARR.
1404:../STM32F10x_StdPeriph_Lib_V3.5.0/Libraries/STM32F10x_StdPeriph_Driver/src/stm32f10x_tim.c ****   * @param  TIMx: where x can be  1 to 17 to select the TIM peripheral.
1405:../STM32F10x_StdPeriph_Lib_V3.5.0/Libraries/STM32F10x_StdPeriph_Driver/src/stm32f10x_tim.c ****   * @param  NewState: new state of the TIMx peripheral Preload register
1406:../STM32F10x_StdPeriph_Lib_V3.5.0/Libraries/STM32F10x_StdPeriph_Driver/src/stm32f10x_tim.c ****   *   This parameter can be: ENABLE or DISABLE.
1407:../STM32F10x_StdPeriph_Lib_V3.5.0/Libraries/STM32F10x_StdPeriph_Driver/src/stm32f10x_tim.c ****   * @retval None
1408:../STM32F10x_StdPeriph_Lib_V3.5.0/Libraries/STM32F10x_StdPeriph_Driver/src/stm32f10x_tim.c ****   */
1409:../STM32F10x_StdPeriph_Lib_V3.5.0/Libraries/STM32F10x_StdPeriph_Driver/src/stm32f10x_tim.c **** void TIM_ARRPreloadConfig(TIM_TypeDef* TIMx, FunctionalState NewState)
1410:../STM32F10x_StdPeriph_Lib_V3.5.0/Libraries/STM32F10x_StdPeriph_Driver/src/stm32f10x_tim.c **** {
 2858              		.loc 1 1410 0
 2859              		.cfi_startproc
 2860              		@ args = 0, pretend = 0, frame = 8
 2861              		@ frame_needed = 1, uses_anonymous_args = 0
 2862              		@ link register save eliminated.
 2863 0000 80B4     		push	{r7}
 2864              	.LCFI99:
 2865              		.cfi_def_cfa_offset 4
 2866              		.cfi_offset 7, -4
 2867 0002 83B0     		sub	sp, sp, #12
 2868              	.LCFI100:
 2869              		.cfi_def_cfa_offset 16
 2870 0004 00AF     		add	r7, sp, #0
 2871              	.LCFI101:
 2872              		.cfi_def_cfa_register 7
 2873 0006 7860     		str	r0, [r7, #4]
 2874 0008 0B46     		mov	r3, r1
 2875 000a FB70     		strb	r3, [r7, #3]
1411:../STM32F10x_StdPeriph_Lib_V3.5.0/Libraries/STM32F10x_StdPeriph_Driver/src/stm32f10x_tim.c ****   /* Check the parameters */
1412:../STM32F10x_StdPeriph_Lib_V3.5.0/Libraries/STM32F10x_StdPeriph_Driver/src/stm32f10x_tim.c ****   assert_param(IS_TIM_ALL_PERIPH(TIMx));
1413:../STM32F10x_StdPeriph_Lib_V3.5.0/Libraries/STM32F10x_StdPeriph_Driver/src/stm32f10x_tim.c ****   assert_param(IS_FUNCTIONAL_STATE(NewState));
1414:../STM32F10x_StdPeriph_Lib_V3.5.0/Libraries/STM32F10x_StdPeriph_Driver/src/stm32f10x_tim.c ****   if (NewState != DISABLE)
 2876              		.loc 1 1414 0
 2877 000c FB78     		ldrb	r3, [r7, #3]	@ zero_extendqisi2
 2878 000e 002B     		cmp	r3, #0
 2879 0010 08D0     		beq	.L97
1415:../STM32F10x_StdPeriph_Lib_V3.5.0/Libraries/STM32F10x_StdPeriph_Driver/src/stm32f10x_tim.c ****   {
1416:../STM32F10x_StdPeriph_Lib_V3.5.0/Libraries/STM32F10x_StdPeriph_Driver/src/stm32f10x_tim.c ****     /* Set the ARR Preload Bit */
1417:../STM32F10x_StdPeriph_Lib_V3.5.0/Libraries/STM32F10x_StdPeriph_Driver/src/stm32f10x_tim.c ****     TIMx->CR1 |= TIM_CR1_ARPE;
 2880              		.loc 1 1417 0
 2881 0012 7B68     		ldr	r3, [r7, #4]
 2882 0014 1B88     		ldrh	r3, [r3, #0]	@ movhi
 2883 0016 9BB2     		uxth	r3, r3
 2884 0018 43F08003 		orr	r3, r3, #128
 2885 001c 9AB2     		uxth	r2, r3
 2886 001e 7B68     		ldr	r3, [r7, #4]
 2887 0020 1A80     		strh	r2, [r3, #0]	@ movhi
 2888 0022 07E0     		b	.L96
 2889              	.L97:
1418:../STM32F10x_StdPeriph_Lib_V3.5.0/Libraries/STM32F10x_StdPeriph_Driver/src/stm32f10x_tim.c ****   }
1419:../STM32F10x_StdPeriph_Lib_V3.5.0/Libraries/STM32F10x_StdPeriph_Driver/src/stm32f10x_tim.c ****   else
1420:../STM32F10x_StdPeriph_Lib_V3.5.0/Libraries/STM32F10x_StdPeriph_Driver/src/stm32f10x_tim.c ****   {
1421:../STM32F10x_StdPeriph_Lib_V3.5.0/Libraries/STM32F10x_StdPeriph_Driver/src/stm32f10x_tim.c ****     /* Reset the ARR Preload Bit */
1422:../STM32F10x_StdPeriph_Lib_V3.5.0/Libraries/STM32F10x_StdPeriph_Driver/src/stm32f10x_tim.c ****     TIMx->CR1 &= (uint16_t)~((uint16_t)TIM_CR1_ARPE);
 2890              		.loc 1 1422 0
 2891 0024 7B68     		ldr	r3, [r7, #4]
 2892 0026 1B88     		ldrh	r3, [r3, #0]	@ movhi
 2893 0028 9BB2     		uxth	r3, r3
 2894 002a 23F08003 		bic	r3, r3, #128
 2895 002e 9AB2     		uxth	r2, r3
 2896 0030 7B68     		ldr	r3, [r7, #4]
 2897 0032 1A80     		strh	r2, [r3, #0]	@ movhi
 2898              	.L96:
1423:../STM32F10x_StdPeriph_Lib_V3.5.0/Libraries/STM32F10x_StdPeriph_Driver/src/stm32f10x_tim.c ****   }
1424:../STM32F10x_StdPeriph_Lib_V3.5.0/Libraries/STM32F10x_StdPeriph_Driver/src/stm32f10x_tim.c **** }
 2899              		.loc 1 1424 0
 2900 0034 07F10C07 		add	r7, r7, #12
 2901 0038 BD46     		mov	sp, r7
 2902 003a 80BC     		pop	{r7}
 2903 003c 7047     		bx	lr
 2904              		.cfi_endproc
 2905              	.LFE62:
 2907 003e 00BF     		.section	.text.TIM_SelectCOM,"ax",%progbits
 2908              		.align	2
 2909              		.global	TIM_SelectCOM
 2910              		.thumb
 2911              		.thumb_func
 2913              	TIM_SelectCOM:
 2914              	.LFB63:
1425:../STM32F10x_StdPeriph_Lib_V3.5.0/Libraries/STM32F10x_StdPeriph_Driver/src/stm32f10x_tim.c **** 
1426:../STM32F10x_StdPeriph_Lib_V3.5.0/Libraries/STM32F10x_StdPeriph_Driver/src/stm32f10x_tim.c **** /**
1427:../STM32F10x_StdPeriph_Lib_V3.5.0/Libraries/STM32F10x_StdPeriph_Driver/src/stm32f10x_tim.c ****   * @brief  Selects the TIM peripheral Commutation event.
1428:../STM32F10x_StdPeriph_Lib_V3.5.0/Libraries/STM32F10x_StdPeriph_Driver/src/stm32f10x_tim.c ****   * @param  TIMx: where x can be  1, 8, 15, 16 or 17 to select the TIMx peripheral
1429:../STM32F10x_StdPeriph_Lib_V3.5.0/Libraries/STM32F10x_StdPeriph_Driver/src/stm32f10x_tim.c ****   * @param  NewState: new state of the Commutation event.
1430:../STM32F10x_StdPeriph_Lib_V3.5.0/Libraries/STM32F10x_StdPeriph_Driver/src/stm32f10x_tim.c ****   *   This parameter can be: ENABLE or DISABLE.
1431:../STM32F10x_StdPeriph_Lib_V3.5.0/Libraries/STM32F10x_StdPeriph_Driver/src/stm32f10x_tim.c ****   * @retval None
1432:../STM32F10x_StdPeriph_Lib_V3.5.0/Libraries/STM32F10x_StdPeriph_Driver/src/stm32f10x_tim.c ****   */
1433:../STM32F10x_StdPeriph_Lib_V3.5.0/Libraries/STM32F10x_StdPeriph_Driver/src/stm32f10x_tim.c **** void TIM_SelectCOM(TIM_TypeDef* TIMx, FunctionalState NewState)
1434:../STM32F10x_StdPeriph_Lib_V3.5.0/Libraries/STM32F10x_StdPeriph_Driver/src/stm32f10x_tim.c **** {
 2915              		.loc 1 1434 0
 2916              		.cfi_startproc
 2917              		@ args = 0, pretend = 0, frame = 8
 2918              		@ frame_needed = 1, uses_anonymous_args = 0
 2919              		@ link register save eliminated.
 2920 0000 80B4     		push	{r7}
 2921              	.LCFI102:
 2922              		.cfi_def_cfa_offset 4
 2923              		.cfi_offset 7, -4
 2924 0002 83B0     		sub	sp, sp, #12
 2925              	.LCFI103:
 2926              		.cfi_def_cfa_offset 16
 2927 0004 00AF     		add	r7, sp, #0
 2928              	.LCFI104:
 2929              		.cfi_def_cfa_register 7
 2930 0006 7860     		str	r0, [r7, #4]
 2931 0008 0B46     		mov	r3, r1
 2932 000a FB70     		strb	r3, [r7, #3]
1435:../STM32F10x_StdPeriph_Lib_V3.5.0/Libraries/STM32F10x_StdPeriph_Driver/src/stm32f10x_tim.c ****   /* Check the parameters */
1436:../STM32F10x_StdPeriph_Lib_V3.5.0/Libraries/STM32F10x_StdPeriph_Driver/src/stm32f10x_tim.c ****   assert_param(IS_TIM_LIST2_PERIPH(TIMx));
1437:../STM32F10x_StdPeriph_Lib_V3.5.0/Libraries/STM32F10x_StdPeriph_Driver/src/stm32f10x_tim.c ****   assert_param(IS_FUNCTIONAL_STATE(NewState));
1438:../STM32F10x_StdPeriph_Lib_V3.5.0/Libraries/STM32F10x_StdPeriph_Driver/src/stm32f10x_tim.c ****   if (NewState != DISABLE)
 2933              		.loc 1 1438 0
 2934 000c FB78     		ldrb	r3, [r7, #3]	@ zero_extendqisi2
 2935 000e 002B     		cmp	r3, #0
 2936 0010 08D0     		beq	.L100
1439:../STM32F10x_StdPeriph_Lib_V3.5.0/Libraries/STM32F10x_StdPeriph_Driver/src/stm32f10x_tim.c ****   {
1440:../STM32F10x_StdPeriph_Lib_V3.5.0/Libraries/STM32F10x_StdPeriph_Driver/src/stm32f10x_tim.c ****     /* Set the COM Bit */
1441:../STM32F10x_StdPeriph_Lib_V3.5.0/Libraries/STM32F10x_StdPeriph_Driver/src/stm32f10x_tim.c ****     TIMx->CR2 |= TIM_CR2_CCUS;
 2937              		.loc 1 1441 0
 2938 0012 7B68     		ldr	r3, [r7, #4]
 2939 0014 9B88     		ldrh	r3, [r3, #4]	@ movhi
 2940 0016 9BB2     		uxth	r3, r3
 2941 0018 43F00403 		orr	r3, r3, #4
 2942 001c 9AB2     		uxth	r2, r3
 2943 001e 7B68     		ldr	r3, [r7, #4]
 2944 0020 9A80     		strh	r2, [r3, #4]	@ movhi
 2945 0022 07E0     		b	.L99
 2946              	.L100:
1442:../STM32F10x_StdPeriph_Lib_V3.5.0/Libraries/STM32F10x_StdPeriph_Driver/src/stm32f10x_tim.c ****   }
1443:../STM32F10x_StdPeriph_Lib_V3.5.0/Libraries/STM32F10x_StdPeriph_Driver/src/stm32f10x_tim.c ****   else
1444:../STM32F10x_StdPeriph_Lib_V3.5.0/Libraries/STM32F10x_StdPeriph_Driver/src/stm32f10x_tim.c ****   {
1445:../STM32F10x_StdPeriph_Lib_V3.5.0/Libraries/STM32F10x_StdPeriph_Driver/src/stm32f10x_tim.c ****     /* Reset the COM Bit */
1446:../STM32F10x_StdPeriph_Lib_V3.5.0/Libraries/STM32F10x_StdPeriph_Driver/src/stm32f10x_tim.c ****     TIMx->CR2 &= (uint16_t)~((uint16_t)TIM_CR2_CCUS);
 2947              		.loc 1 1446 0
 2948 0024 7B68     		ldr	r3, [r7, #4]
 2949 0026 9B88     		ldrh	r3, [r3, #4]	@ movhi
 2950 0028 9BB2     		uxth	r3, r3
 2951 002a 23F00403 		bic	r3, r3, #4
 2952 002e 9AB2     		uxth	r2, r3
 2953 0030 7B68     		ldr	r3, [r7, #4]
 2954 0032 9A80     		strh	r2, [r3, #4]	@ movhi
 2955              	.L99:
1447:../STM32F10x_StdPeriph_Lib_V3.5.0/Libraries/STM32F10x_StdPeriph_Driver/src/stm32f10x_tim.c ****   }
1448:../STM32F10x_StdPeriph_Lib_V3.5.0/Libraries/STM32F10x_StdPeriph_Driver/src/stm32f10x_tim.c **** }
 2956              		.loc 1 1448 0
 2957 0034 07F10C07 		add	r7, r7, #12
 2958 0038 BD46     		mov	sp, r7
 2959 003a 80BC     		pop	{r7}
 2960 003c 7047     		bx	lr
 2961              		.cfi_endproc
 2962              	.LFE63:
 2964 003e 00BF     		.section	.text.TIM_SelectCCDMA,"ax",%progbits
 2965              		.align	2
 2966              		.global	TIM_SelectCCDMA
 2967              		.thumb
 2968              		.thumb_func
 2970              	TIM_SelectCCDMA:
 2971              	.LFB64:
1449:../STM32F10x_StdPeriph_Lib_V3.5.0/Libraries/STM32F10x_StdPeriph_Driver/src/stm32f10x_tim.c **** 
1450:../STM32F10x_StdPeriph_Lib_V3.5.0/Libraries/STM32F10x_StdPeriph_Driver/src/stm32f10x_tim.c **** /**
1451:../STM32F10x_StdPeriph_Lib_V3.5.0/Libraries/STM32F10x_StdPeriph_Driver/src/stm32f10x_tim.c ****   * @brief  Selects the TIMx peripheral Capture Compare DMA source.
1452:../STM32F10x_StdPeriph_Lib_V3.5.0/Libraries/STM32F10x_StdPeriph_Driver/src/stm32f10x_tim.c ****   * @param  TIMx: where x can be  1, 2, 3, 4, 5, 8, 15, 16 or 17 to select 
1453:../STM32F10x_StdPeriph_Lib_V3.5.0/Libraries/STM32F10x_StdPeriph_Driver/src/stm32f10x_tim.c ****   *         the TIM peripheral.
1454:../STM32F10x_StdPeriph_Lib_V3.5.0/Libraries/STM32F10x_StdPeriph_Driver/src/stm32f10x_tim.c ****   * @param  NewState: new state of the Capture Compare DMA source
1455:../STM32F10x_StdPeriph_Lib_V3.5.0/Libraries/STM32F10x_StdPeriph_Driver/src/stm32f10x_tim.c ****   *   This parameter can be: ENABLE or DISABLE.
1456:../STM32F10x_StdPeriph_Lib_V3.5.0/Libraries/STM32F10x_StdPeriph_Driver/src/stm32f10x_tim.c ****   * @retval None
1457:../STM32F10x_StdPeriph_Lib_V3.5.0/Libraries/STM32F10x_StdPeriph_Driver/src/stm32f10x_tim.c ****   */
1458:../STM32F10x_StdPeriph_Lib_V3.5.0/Libraries/STM32F10x_StdPeriph_Driver/src/stm32f10x_tim.c **** void TIM_SelectCCDMA(TIM_TypeDef* TIMx, FunctionalState NewState)
1459:../STM32F10x_StdPeriph_Lib_V3.5.0/Libraries/STM32F10x_StdPeriph_Driver/src/stm32f10x_tim.c **** {
 2972              		.loc 1 1459 0
 2973              		.cfi_startproc
 2974              		@ args = 0, pretend = 0, frame = 8
 2975              		@ frame_needed = 1, uses_anonymous_args = 0
 2976              		@ link register save eliminated.
 2977 0000 80B4     		push	{r7}
 2978              	.LCFI105:
 2979              		.cfi_def_cfa_offset 4
 2980              		.cfi_offset 7, -4
 2981 0002 83B0     		sub	sp, sp, #12
 2982              	.LCFI106:
 2983              		.cfi_def_cfa_offset 16
 2984 0004 00AF     		add	r7, sp, #0
 2985              	.LCFI107:
 2986              		.cfi_def_cfa_register 7
 2987 0006 7860     		str	r0, [r7, #4]
 2988 0008 0B46     		mov	r3, r1
 2989 000a FB70     		strb	r3, [r7, #3]
1460:../STM32F10x_StdPeriph_Lib_V3.5.0/Libraries/STM32F10x_StdPeriph_Driver/src/stm32f10x_tim.c ****   /* Check the parameters */
1461:../STM32F10x_StdPeriph_Lib_V3.5.0/Libraries/STM32F10x_StdPeriph_Driver/src/stm32f10x_tim.c ****   assert_param(IS_TIM_LIST4_PERIPH(TIMx));
1462:../STM32F10x_StdPeriph_Lib_V3.5.0/Libraries/STM32F10x_StdPeriph_Driver/src/stm32f10x_tim.c ****   assert_param(IS_FUNCTIONAL_STATE(NewState));
1463:../STM32F10x_StdPeriph_Lib_V3.5.0/Libraries/STM32F10x_StdPeriph_Driver/src/stm32f10x_tim.c ****   if (NewState != DISABLE)
 2990              		.loc 1 1463 0
 2991 000c FB78     		ldrb	r3, [r7, #3]	@ zero_extendqisi2
 2992 000e 002B     		cmp	r3, #0
 2993 0010 08D0     		beq	.L103
1464:../STM32F10x_StdPeriph_Lib_V3.5.0/Libraries/STM32F10x_StdPeriph_Driver/src/stm32f10x_tim.c ****   {
1465:../STM32F10x_StdPeriph_Lib_V3.5.0/Libraries/STM32F10x_StdPeriph_Driver/src/stm32f10x_tim.c ****     /* Set the CCDS Bit */
1466:../STM32F10x_StdPeriph_Lib_V3.5.0/Libraries/STM32F10x_StdPeriph_Driver/src/stm32f10x_tim.c ****     TIMx->CR2 |= TIM_CR2_CCDS;
 2994              		.loc 1 1466 0
 2995 0012 7B68     		ldr	r3, [r7, #4]
 2996 0014 9B88     		ldrh	r3, [r3, #4]	@ movhi
 2997 0016 9BB2     		uxth	r3, r3
 2998 0018 43F00803 		orr	r3, r3, #8
 2999 001c 9AB2     		uxth	r2, r3
 3000 001e 7B68     		ldr	r3, [r7, #4]
 3001 0020 9A80     		strh	r2, [r3, #4]	@ movhi
 3002 0022 07E0     		b	.L102
 3003              	.L103:
1467:../STM32F10x_StdPeriph_Lib_V3.5.0/Libraries/STM32F10x_StdPeriph_Driver/src/stm32f10x_tim.c ****   }
1468:../STM32F10x_StdPeriph_Lib_V3.5.0/Libraries/STM32F10x_StdPeriph_Driver/src/stm32f10x_tim.c ****   else
1469:../STM32F10x_StdPeriph_Lib_V3.5.0/Libraries/STM32F10x_StdPeriph_Driver/src/stm32f10x_tim.c ****   {
1470:../STM32F10x_StdPeriph_Lib_V3.5.0/Libraries/STM32F10x_StdPeriph_Driver/src/stm32f10x_tim.c ****     /* Reset the CCDS Bit */
1471:../STM32F10x_StdPeriph_Lib_V3.5.0/Libraries/STM32F10x_StdPeriph_Driver/src/stm32f10x_tim.c ****     TIMx->CR2 &= (uint16_t)~((uint16_t)TIM_CR2_CCDS);
 3004              		.loc 1 1471 0
 3005 0024 7B68     		ldr	r3, [r7, #4]
 3006 0026 9B88     		ldrh	r3, [r3, #4]	@ movhi
 3007 0028 9BB2     		uxth	r3, r3
 3008 002a 23F00803 		bic	r3, r3, #8
 3009 002e 9AB2     		uxth	r2, r3
 3010 0030 7B68     		ldr	r3, [r7, #4]
 3011 0032 9A80     		strh	r2, [r3, #4]	@ movhi
 3012              	.L102:
1472:../STM32F10x_StdPeriph_Lib_V3.5.0/Libraries/STM32F10x_StdPeriph_Driver/src/stm32f10x_tim.c ****   }
1473:../STM32F10x_StdPeriph_Lib_V3.5.0/Libraries/STM32F10x_StdPeriph_Driver/src/stm32f10x_tim.c **** }
 3013              		.loc 1 1473 0
 3014 0034 07F10C07 		add	r7, r7, #12
 3015 0038 BD46     		mov	sp, r7
 3016 003a 80BC     		pop	{r7}
 3017 003c 7047     		bx	lr
 3018              		.cfi_endproc
 3019              	.LFE64:
 3021 003e 00BF     		.section	.text.TIM_CCPreloadControl,"ax",%progbits
 3022              		.align	2
 3023              		.global	TIM_CCPreloadControl
 3024              		.thumb
 3025              		.thumb_func
 3027              	TIM_CCPreloadControl:
 3028              	.LFB65:
1474:../STM32F10x_StdPeriph_Lib_V3.5.0/Libraries/STM32F10x_StdPeriph_Driver/src/stm32f10x_tim.c **** 
1475:../STM32F10x_StdPeriph_Lib_V3.5.0/Libraries/STM32F10x_StdPeriph_Driver/src/stm32f10x_tim.c **** /**
1476:../STM32F10x_StdPeriph_Lib_V3.5.0/Libraries/STM32F10x_StdPeriph_Driver/src/stm32f10x_tim.c ****   * @brief  Sets or Resets the TIM peripheral Capture Compare Preload Control bit.
1477:../STM32F10x_StdPeriph_Lib_V3.5.0/Libraries/STM32F10x_StdPeriph_Driver/src/stm32f10x_tim.c ****   * @param  TIMx: where x can be   1, 2, 3, 4, 5, 8 or 15 
1478:../STM32F10x_StdPeriph_Lib_V3.5.0/Libraries/STM32F10x_StdPeriph_Driver/src/stm32f10x_tim.c ****   *         to select the TIMx peripheral
1479:../STM32F10x_StdPeriph_Lib_V3.5.0/Libraries/STM32F10x_StdPeriph_Driver/src/stm32f10x_tim.c ****   * @param  NewState: new state of the Capture Compare Preload Control bit
1480:../STM32F10x_StdPeriph_Lib_V3.5.0/Libraries/STM32F10x_StdPeriph_Driver/src/stm32f10x_tim.c ****   *   This parameter can be: ENABLE or DISABLE.
1481:../STM32F10x_StdPeriph_Lib_V3.5.0/Libraries/STM32F10x_StdPeriph_Driver/src/stm32f10x_tim.c ****   * @retval None
1482:../STM32F10x_StdPeriph_Lib_V3.5.0/Libraries/STM32F10x_StdPeriph_Driver/src/stm32f10x_tim.c ****   */
1483:../STM32F10x_StdPeriph_Lib_V3.5.0/Libraries/STM32F10x_StdPeriph_Driver/src/stm32f10x_tim.c **** void TIM_CCPreloadControl(TIM_TypeDef* TIMx, FunctionalState NewState)
1484:../STM32F10x_StdPeriph_Lib_V3.5.0/Libraries/STM32F10x_StdPeriph_Driver/src/stm32f10x_tim.c **** { 
 3029              		.loc 1 1484 0
 3030              		.cfi_startproc
 3031              		@ args = 0, pretend = 0, frame = 8
 3032              		@ frame_needed = 1, uses_anonymous_args = 0
 3033              		@ link register save eliminated.
 3034 0000 80B4     		push	{r7}
 3035              	.LCFI108:
 3036              		.cfi_def_cfa_offset 4
 3037              		.cfi_offset 7, -4
 3038 0002 83B0     		sub	sp, sp, #12
 3039              	.LCFI109:
 3040              		.cfi_def_cfa_offset 16
 3041 0004 00AF     		add	r7, sp, #0
 3042              	.LCFI110:
 3043              		.cfi_def_cfa_register 7
 3044 0006 7860     		str	r0, [r7, #4]
 3045 0008 0B46     		mov	r3, r1
 3046 000a FB70     		strb	r3, [r7, #3]
1485:../STM32F10x_StdPeriph_Lib_V3.5.0/Libraries/STM32F10x_StdPeriph_Driver/src/stm32f10x_tim.c ****   /* Check the parameters */
1486:../STM32F10x_StdPeriph_Lib_V3.5.0/Libraries/STM32F10x_StdPeriph_Driver/src/stm32f10x_tim.c ****   assert_param(IS_TIM_LIST5_PERIPH(TIMx));
1487:../STM32F10x_StdPeriph_Lib_V3.5.0/Libraries/STM32F10x_StdPeriph_Driver/src/stm32f10x_tim.c ****   assert_param(IS_FUNCTIONAL_STATE(NewState));
1488:../STM32F10x_StdPeriph_Lib_V3.5.0/Libraries/STM32F10x_StdPeriph_Driver/src/stm32f10x_tim.c ****   if (NewState != DISABLE)
 3047              		.loc 1 1488 0
 3048 000c FB78     		ldrb	r3, [r7, #3]	@ zero_extendqisi2
 3049 000e 002B     		cmp	r3, #0
 3050 0010 08D0     		beq	.L106
1489:../STM32F10x_StdPeriph_Lib_V3.5.0/Libraries/STM32F10x_StdPeriph_Driver/src/stm32f10x_tim.c ****   {
1490:../STM32F10x_StdPeriph_Lib_V3.5.0/Libraries/STM32F10x_StdPeriph_Driver/src/stm32f10x_tim.c ****     /* Set the CCPC Bit */
1491:../STM32F10x_StdPeriph_Lib_V3.5.0/Libraries/STM32F10x_StdPeriph_Driver/src/stm32f10x_tim.c ****     TIMx->CR2 |= TIM_CR2_CCPC;
 3051              		.loc 1 1491 0
 3052 0012 7B68     		ldr	r3, [r7, #4]
 3053 0014 9B88     		ldrh	r3, [r3, #4]	@ movhi
 3054 0016 9BB2     		uxth	r3, r3
 3055 0018 43F00103 		orr	r3, r3, #1
 3056 001c 9AB2     		uxth	r2, r3
 3057 001e 7B68     		ldr	r3, [r7, #4]
 3058 0020 9A80     		strh	r2, [r3, #4]	@ movhi
 3059 0022 07E0     		b	.L105
 3060              	.L106:
1492:../STM32F10x_StdPeriph_Lib_V3.5.0/Libraries/STM32F10x_StdPeriph_Driver/src/stm32f10x_tim.c ****   }
1493:../STM32F10x_StdPeriph_Lib_V3.5.0/Libraries/STM32F10x_StdPeriph_Driver/src/stm32f10x_tim.c ****   else
1494:../STM32F10x_StdPeriph_Lib_V3.5.0/Libraries/STM32F10x_StdPeriph_Driver/src/stm32f10x_tim.c ****   {
1495:../STM32F10x_StdPeriph_Lib_V3.5.0/Libraries/STM32F10x_StdPeriph_Driver/src/stm32f10x_tim.c ****     /* Reset the CCPC Bit */
1496:../STM32F10x_StdPeriph_Lib_V3.5.0/Libraries/STM32F10x_StdPeriph_Driver/src/stm32f10x_tim.c ****     TIMx->CR2 &= (uint16_t)~((uint16_t)TIM_CR2_CCPC);
 3061              		.loc 1 1496 0
 3062 0024 7B68     		ldr	r3, [r7, #4]
 3063 0026 9B88     		ldrh	r3, [r3, #4]	@ movhi
 3064 0028 9BB2     		uxth	r3, r3
 3065 002a 23F00103 		bic	r3, r3, #1
 3066 002e 9AB2     		uxth	r2, r3
 3067 0030 7B68     		ldr	r3, [r7, #4]
 3068 0032 9A80     		strh	r2, [r3, #4]	@ movhi
 3069              	.L105:
1497:../STM32F10x_StdPeriph_Lib_V3.5.0/Libraries/STM32F10x_StdPeriph_Driver/src/stm32f10x_tim.c ****   }
1498:../STM32F10x_StdPeriph_Lib_V3.5.0/Libraries/STM32F10x_StdPeriph_Driver/src/stm32f10x_tim.c **** }
 3070              		.loc 1 1498 0
 3071 0034 07F10C07 		add	r7, r7, #12
 3072 0038 BD46     		mov	sp, r7
 3073 003a 80BC     		pop	{r7}
 3074 003c 7047     		bx	lr
 3075              		.cfi_endproc
 3076              	.LFE65:
 3078 003e 00BF     		.section	.text.TIM_OC1PreloadConfig,"ax",%progbits
 3079              		.align	2
 3080              		.global	TIM_OC1PreloadConfig
 3081              		.thumb
 3082              		.thumb_func
 3084              	TIM_OC1PreloadConfig:
 3085              	.LFB66:
1499:../STM32F10x_StdPeriph_Lib_V3.5.0/Libraries/STM32F10x_StdPeriph_Driver/src/stm32f10x_tim.c **** 
1500:../STM32F10x_StdPeriph_Lib_V3.5.0/Libraries/STM32F10x_StdPeriph_Driver/src/stm32f10x_tim.c **** /**
1501:../STM32F10x_StdPeriph_Lib_V3.5.0/Libraries/STM32F10x_StdPeriph_Driver/src/stm32f10x_tim.c ****   * @brief  Enables or disables the TIMx peripheral Preload register on CCR1.
1502:../STM32F10x_StdPeriph_Lib_V3.5.0/Libraries/STM32F10x_StdPeriph_Driver/src/stm32f10x_tim.c ****   * @param  TIMx: where x can be  1 to 17 except 6 and 7 to select the TIM peripheral.
1503:../STM32F10x_StdPeriph_Lib_V3.5.0/Libraries/STM32F10x_StdPeriph_Driver/src/stm32f10x_tim.c ****   * @param  TIM_OCPreload: new state of the TIMx peripheral Preload register
1504:../STM32F10x_StdPeriph_Lib_V3.5.0/Libraries/STM32F10x_StdPeriph_Driver/src/stm32f10x_tim.c ****   *   This parameter can be one of the following values:
1505:../STM32F10x_StdPeriph_Lib_V3.5.0/Libraries/STM32F10x_StdPeriph_Driver/src/stm32f10x_tim.c ****   *     @arg TIM_OCPreload_Enable
1506:../STM32F10x_StdPeriph_Lib_V3.5.0/Libraries/STM32F10x_StdPeriph_Driver/src/stm32f10x_tim.c ****   *     @arg TIM_OCPreload_Disable
1507:../STM32F10x_StdPeriph_Lib_V3.5.0/Libraries/STM32F10x_StdPeriph_Driver/src/stm32f10x_tim.c ****   * @retval None
1508:../STM32F10x_StdPeriph_Lib_V3.5.0/Libraries/STM32F10x_StdPeriph_Driver/src/stm32f10x_tim.c ****   */
1509:../STM32F10x_StdPeriph_Lib_V3.5.0/Libraries/STM32F10x_StdPeriph_Driver/src/stm32f10x_tim.c **** void TIM_OC1PreloadConfig(TIM_TypeDef* TIMx, uint16_t TIM_OCPreload)
1510:../STM32F10x_StdPeriph_Lib_V3.5.0/Libraries/STM32F10x_StdPeriph_Driver/src/stm32f10x_tim.c **** {
 3086              		.loc 1 1510 0
 3087              		.cfi_startproc
 3088              		@ args = 0, pretend = 0, frame = 16
 3089              		@ frame_needed = 1, uses_anonymous_args = 0
 3090              		@ link register save eliminated.
 3091 0000 80B4     		push	{r7}
 3092              	.LCFI111:
 3093              		.cfi_def_cfa_offset 4
 3094              		.cfi_offset 7, -4
 3095 0002 85B0     		sub	sp, sp, #20
 3096              	.LCFI112:
 3097              		.cfi_def_cfa_offset 24
 3098 0004 00AF     		add	r7, sp, #0
 3099              	.LCFI113:
 3100              		.cfi_def_cfa_register 7
 3101 0006 7860     		str	r0, [r7, #4]
 3102 0008 0B46     		mov	r3, r1
 3103 000a 7B80     		strh	r3, [r7, #2]	@ movhi
1511:../STM32F10x_StdPeriph_Lib_V3.5.0/Libraries/STM32F10x_StdPeriph_Driver/src/stm32f10x_tim.c ****   uint16_t tmpccmr1 = 0;
 3104              		.loc 1 1511 0
 3105 000c 4FF00003 		mov	r3, #0
 3106 0010 FB81     		strh	r3, [r7, #14]	@ movhi
1512:../STM32F10x_StdPeriph_Lib_V3.5.0/Libraries/STM32F10x_StdPeriph_Driver/src/stm32f10x_tim.c ****   /* Check the parameters */
1513:../STM32F10x_StdPeriph_Lib_V3.5.0/Libraries/STM32F10x_StdPeriph_Driver/src/stm32f10x_tim.c ****   assert_param(IS_TIM_LIST8_PERIPH(TIMx));
1514:../STM32F10x_StdPeriph_Lib_V3.5.0/Libraries/STM32F10x_StdPeriph_Driver/src/stm32f10x_tim.c ****   assert_param(IS_TIM_OCPRELOAD_STATE(TIM_OCPreload));
1515:../STM32F10x_StdPeriph_Lib_V3.5.0/Libraries/STM32F10x_StdPeriph_Driver/src/stm32f10x_tim.c ****   tmpccmr1 = TIMx->CCMR1;
 3107              		.loc 1 1515 0
 3108 0012 7B68     		ldr	r3, [r7, #4]
 3109 0014 1B8B     		ldrh	r3, [r3, #24]	@ movhi
 3110 0016 FB81     		strh	r3, [r7, #14]	@ movhi
1516:../STM32F10x_StdPeriph_Lib_V3.5.0/Libraries/STM32F10x_StdPeriph_Driver/src/stm32f10x_tim.c ****   /* Reset the OC1PE Bit */
1517:../STM32F10x_StdPeriph_Lib_V3.5.0/Libraries/STM32F10x_StdPeriph_Driver/src/stm32f10x_tim.c ****   tmpccmr1 &= (uint16_t)~((uint16_t)TIM_CCMR1_OC1PE);
 3111              		.loc 1 1517 0
 3112 0018 FB89     		ldrh	r3, [r7, #14]	@ movhi
 3113 001a 23F00803 		bic	r3, r3, #8
 3114 001e FB81     		strh	r3, [r7, #14]	@ movhi
1518:../STM32F10x_StdPeriph_Lib_V3.5.0/Libraries/STM32F10x_StdPeriph_Driver/src/stm32f10x_tim.c ****   /* Enable or Disable the Output Compare Preload feature */
1519:../STM32F10x_StdPeriph_Lib_V3.5.0/Libraries/STM32F10x_StdPeriph_Driver/src/stm32f10x_tim.c ****   tmpccmr1 |= TIM_OCPreload;
 3115              		.loc 1 1519 0
 3116 0020 FA89     		ldrh	r2, [r7, #14]	@ movhi
 3117 0022 7B88     		ldrh	r3, [r7, #2]	@ movhi
 3118 0024 1343     		orrs	r3, r3, r2
 3119 0026 FB81     		strh	r3, [r7, #14]	@ movhi
1520:../STM32F10x_StdPeriph_Lib_V3.5.0/Libraries/STM32F10x_StdPeriph_Driver/src/stm32f10x_tim.c ****   /* Write to TIMx CCMR1 register */
1521:../STM32F10x_StdPeriph_Lib_V3.5.0/Libraries/STM32F10x_StdPeriph_Driver/src/stm32f10x_tim.c ****   TIMx->CCMR1 = tmpccmr1;
 3120              		.loc 1 1521 0
 3121 0028 7B68     		ldr	r3, [r7, #4]
 3122 002a FA89     		ldrh	r2, [r7, #14]	@ movhi
 3123 002c 1A83     		strh	r2, [r3, #24]	@ movhi
1522:../STM32F10x_StdPeriph_Lib_V3.5.0/Libraries/STM32F10x_StdPeriph_Driver/src/stm32f10x_tim.c **** }
 3124              		.loc 1 1522 0
 3125 002e 07F11407 		add	r7, r7, #20
 3126 0032 BD46     		mov	sp, r7
 3127 0034 80BC     		pop	{r7}
 3128 0036 7047     		bx	lr
 3129              		.cfi_endproc
 3130              	.LFE66:
 3132              		.section	.text.TIM_OC2PreloadConfig,"ax",%progbits
 3133              		.align	2
 3134              		.global	TIM_OC2PreloadConfig
 3135              		.thumb
 3136              		.thumb_func
 3138              	TIM_OC2PreloadConfig:
 3139              	.LFB67:
1523:../STM32F10x_StdPeriph_Lib_V3.5.0/Libraries/STM32F10x_StdPeriph_Driver/src/stm32f10x_tim.c **** 
1524:../STM32F10x_StdPeriph_Lib_V3.5.0/Libraries/STM32F10x_StdPeriph_Driver/src/stm32f10x_tim.c **** /**
1525:../STM32F10x_StdPeriph_Lib_V3.5.0/Libraries/STM32F10x_StdPeriph_Driver/src/stm32f10x_tim.c ****   * @brief  Enables or disables the TIMx peripheral Preload register on CCR2.
1526:../STM32F10x_StdPeriph_Lib_V3.5.0/Libraries/STM32F10x_StdPeriph_Driver/src/stm32f10x_tim.c ****   * @param  TIMx: where x can be  1, 2, 3, 4, 5, 8, 9, 12 or 15 to select 
1527:../STM32F10x_StdPeriph_Lib_V3.5.0/Libraries/STM32F10x_StdPeriph_Driver/src/stm32f10x_tim.c ****   *         the TIM peripheral.
1528:../STM32F10x_StdPeriph_Lib_V3.5.0/Libraries/STM32F10x_StdPeriph_Driver/src/stm32f10x_tim.c ****   * @param  TIM_OCPreload: new state of the TIMx peripheral Preload register
1529:../STM32F10x_StdPeriph_Lib_V3.5.0/Libraries/STM32F10x_StdPeriph_Driver/src/stm32f10x_tim.c ****   *   This parameter can be one of the following values:
1530:../STM32F10x_StdPeriph_Lib_V3.5.0/Libraries/STM32F10x_StdPeriph_Driver/src/stm32f10x_tim.c ****   *     @arg TIM_OCPreload_Enable
1531:../STM32F10x_StdPeriph_Lib_V3.5.0/Libraries/STM32F10x_StdPeriph_Driver/src/stm32f10x_tim.c ****   *     @arg TIM_OCPreload_Disable
1532:../STM32F10x_StdPeriph_Lib_V3.5.0/Libraries/STM32F10x_StdPeriph_Driver/src/stm32f10x_tim.c ****   * @retval None
1533:../STM32F10x_StdPeriph_Lib_V3.5.0/Libraries/STM32F10x_StdPeriph_Driver/src/stm32f10x_tim.c ****   */
1534:../STM32F10x_StdPeriph_Lib_V3.5.0/Libraries/STM32F10x_StdPeriph_Driver/src/stm32f10x_tim.c **** void TIM_OC2PreloadConfig(TIM_TypeDef* TIMx, uint16_t TIM_OCPreload)
1535:../STM32F10x_StdPeriph_Lib_V3.5.0/Libraries/STM32F10x_StdPeriph_Driver/src/stm32f10x_tim.c **** {
 3140              		.loc 1 1535 0
 3141              		.cfi_startproc
 3142              		@ args = 0, pretend = 0, frame = 16
 3143              		@ frame_needed = 1, uses_anonymous_args = 0
 3144              		@ link register save eliminated.
 3145 0000 80B4     		push	{r7}
 3146              	.LCFI114:
 3147              		.cfi_def_cfa_offset 4
 3148              		.cfi_offset 7, -4
 3149 0002 85B0     		sub	sp, sp, #20
 3150              	.LCFI115:
 3151              		.cfi_def_cfa_offset 24
 3152 0004 00AF     		add	r7, sp, #0
 3153              	.LCFI116:
 3154              		.cfi_def_cfa_register 7
 3155 0006 7860     		str	r0, [r7, #4]
 3156 0008 0B46     		mov	r3, r1
 3157 000a 7B80     		strh	r3, [r7, #2]	@ movhi
1536:../STM32F10x_StdPeriph_Lib_V3.5.0/Libraries/STM32F10x_StdPeriph_Driver/src/stm32f10x_tim.c ****   uint16_t tmpccmr1 = 0;
 3158              		.loc 1 1536 0
 3159 000c 4FF00003 		mov	r3, #0
 3160 0010 FB81     		strh	r3, [r7, #14]	@ movhi
1537:../STM32F10x_StdPeriph_Lib_V3.5.0/Libraries/STM32F10x_StdPeriph_Driver/src/stm32f10x_tim.c ****   /* Check the parameters */
1538:../STM32F10x_StdPeriph_Lib_V3.5.0/Libraries/STM32F10x_StdPeriph_Driver/src/stm32f10x_tim.c ****   assert_param(IS_TIM_LIST6_PERIPH(TIMx));
1539:../STM32F10x_StdPeriph_Lib_V3.5.0/Libraries/STM32F10x_StdPeriph_Driver/src/stm32f10x_tim.c ****   assert_param(IS_TIM_OCPRELOAD_STATE(TIM_OCPreload));
1540:../STM32F10x_StdPeriph_Lib_V3.5.0/Libraries/STM32F10x_StdPeriph_Driver/src/stm32f10x_tim.c ****   tmpccmr1 = TIMx->CCMR1;
 3161              		.loc 1 1540 0
 3162 0012 7B68     		ldr	r3, [r7, #4]
 3163 0014 1B8B     		ldrh	r3, [r3, #24]	@ movhi
 3164 0016 FB81     		strh	r3, [r7, #14]	@ movhi
1541:../STM32F10x_StdPeriph_Lib_V3.5.0/Libraries/STM32F10x_StdPeriph_Driver/src/stm32f10x_tim.c ****   /* Reset the OC2PE Bit */
1542:../STM32F10x_StdPeriph_Lib_V3.5.0/Libraries/STM32F10x_StdPeriph_Driver/src/stm32f10x_tim.c ****   tmpccmr1 &= (uint16_t)~((uint16_t)TIM_CCMR1_OC2PE);
 3165              		.loc 1 1542 0
 3166 0018 FB89     		ldrh	r3, [r7, #14]	@ movhi
 3167 001a 23F40063 		bic	r3, r3, #2048
 3168 001e FB81     		strh	r3, [r7, #14]	@ movhi
1543:../STM32F10x_StdPeriph_Lib_V3.5.0/Libraries/STM32F10x_StdPeriph_Driver/src/stm32f10x_tim.c ****   /* Enable or Disable the Output Compare Preload feature */
1544:../STM32F10x_StdPeriph_Lib_V3.5.0/Libraries/STM32F10x_StdPeriph_Driver/src/stm32f10x_tim.c ****   tmpccmr1 |= (uint16_t)(TIM_OCPreload << 8);
 3169              		.loc 1 1544 0
 3170 0020 7B88     		ldrh	r3, [r7, #2]	@ movhi
 3171 0022 4FEA0323 		lsl	r3, r3, #8
 3172 0026 9AB2     		uxth	r2, r3
 3173 0028 FB89     		ldrh	r3, [r7, #14]	@ movhi
 3174 002a 1343     		orrs	r3, r3, r2
 3175 002c FB81     		strh	r3, [r7, #14]	@ movhi
1545:../STM32F10x_StdPeriph_Lib_V3.5.0/Libraries/STM32F10x_StdPeriph_Driver/src/stm32f10x_tim.c ****   /* Write to TIMx CCMR1 register */
1546:../STM32F10x_StdPeriph_Lib_V3.5.0/Libraries/STM32F10x_StdPeriph_Driver/src/stm32f10x_tim.c ****   TIMx->CCMR1 = tmpccmr1;
 3176              		.loc 1 1546 0
 3177 002e 7B68     		ldr	r3, [r7, #4]
 3178 0030 FA89     		ldrh	r2, [r7, #14]	@ movhi
 3179 0032 1A83     		strh	r2, [r3, #24]	@ movhi
1547:../STM32F10x_StdPeriph_Lib_V3.5.0/Libraries/STM32F10x_StdPeriph_Driver/src/stm32f10x_tim.c **** }
 3180              		.loc 1 1547 0
 3181 0034 07F11407 		add	r7, r7, #20
 3182 0038 BD46     		mov	sp, r7
 3183 003a 80BC     		pop	{r7}
 3184 003c 7047     		bx	lr
 3185              		.cfi_endproc
 3186              	.LFE67:
 3188 003e 00BF     		.section	.text.TIM_OC3PreloadConfig,"ax",%progbits
 3189              		.align	2
 3190              		.global	TIM_OC3PreloadConfig
 3191              		.thumb
 3192              		.thumb_func
 3194              	TIM_OC3PreloadConfig:
 3195              	.LFB68:
1548:../STM32F10x_StdPeriph_Lib_V3.5.0/Libraries/STM32F10x_StdPeriph_Driver/src/stm32f10x_tim.c **** 
1549:../STM32F10x_StdPeriph_Lib_V3.5.0/Libraries/STM32F10x_StdPeriph_Driver/src/stm32f10x_tim.c **** /**
1550:../STM32F10x_StdPeriph_Lib_V3.5.0/Libraries/STM32F10x_StdPeriph_Driver/src/stm32f10x_tim.c ****   * @brief  Enables or disables the TIMx peripheral Preload register on CCR3.
1551:../STM32F10x_StdPeriph_Lib_V3.5.0/Libraries/STM32F10x_StdPeriph_Driver/src/stm32f10x_tim.c ****   * @param  TIMx: where x can be  1, 2, 3, 4, 5 or 8 to select the TIM peripheral.
1552:../STM32F10x_StdPeriph_Lib_V3.5.0/Libraries/STM32F10x_StdPeriph_Driver/src/stm32f10x_tim.c ****   * @param  TIM_OCPreload: new state of the TIMx peripheral Preload register
1553:../STM32F10x_StdPeriph_Lib_V3.5.0/Libraries/STM32F10x_StdPeriph_Driver/src/stm32f10x_tim.c ****   *   This parameter can be one of the following values:
1554:../STM32F10x_StdPeriph_Lib_V3.5.0/Libraries/STM32F10x_StdPeriph_Driver/src/stm32f10x_tim.c ****   *     @arg TIM_OCPreload_Enable
1555:../STM32F10x_StdPeriph_Lib_V3.5.0/Libraries/STM32F10x_StdPeriph_Driver/src/stm32f10x_tim.c ****   *     @arg TIM_OCPreload_Disable
1556:../STM32F10x_StdPeriph_Lib_V3.5.0/Libraries/STM32F10x_StdPeriph_Driver/src/stm32f10x_tim.c ****   * @retval None
1557:../STM32F10x_StdPeriph_Lib_V3.5.0/Libraries/STM32F10x_StdPeriph_Driver/src/stm32f10x_tim.c ****   */
1558:../STM32F10x_StdPeriph_Lib_V3.5.0/Libraries/STM32F10x_StdPeriph_Driver/src/stm32f10x_tim.c **** void TIM_OC3PreloadConfig(TIM_TypeDef* TIMx, uint16_t TIM_OCPreload)
1559:../STM32F10x_StdPeriph_Lib_V3.5.0/Libraries/STM32F10x_StdPeriph_Driver/src/stm32f10x_tim.c **** {
 3196              		.loc 1 1559 0
 3197              		.cfi_startproc
 3198              		@ args = 0, pretend = 0, frame = 16
 3199              		@ frame_needed = 1, uses_anonymous_args = 0
 3200              		@ link register save eliminated.
 3201 0000 80B4     		push	{r7}
 3202              	.LCFI117:
 3203              		.cfi_def_cfa_offset 4
 3204              		.cfi_offset 7, -4
 3205 0002 85B0     		sub	sp, sp, #20
 3206              	.LCFI118:
 3207              		.cfi_def_cfa_offset 24
 3208 0004 00AF     		add	r7, sp, #0
 3209              	.LCFI119:
 3210              		.cfi_def_cfa_register 7
 3211 0006 7860     		str	r0, [r7, #4]
 3212 0008 0B46     		mov	r3, r1
 3213 000a 7B80     		strh	r3, [r7, #2]	@ movhi
1560:../STM32F10x_StdPeriph_Lib_V3.5.0/Libraries/STM32F10x_StdPeriph_Driver/src/stm32f10x_tim.c ****   uint16_t tmpccmr2 = 0;
 3214              		.loc 1 1560 0
 3215 000c 4FF00003 		mov	r3, #0
 3216 0010 FB81     		strh	r3, [r7, #14]	@ movhi
1561:../STM32F10x_StdPeriph_Lib_V3.5.0/Libraries/STM32F10x_StdPeriph_Driver/src/stm32f10x_tim.c ****   /* Check the parameters */
1562:../STM32F10x_StdPeriph_Lib_V3.5.0/Libraries/STM32F10x_StdPeriph_Driver/src/stm32f10x_tim.c ****   assert_param(IS_TIM_LIST3_PERIPH(TIMx));
1563:../STM32F10x_StdPeriph_Lib_V3.5.0/Libraries/STM32F10x_StdPeriph_Driver/src/stm32f10x_tim.c ****   assert_param(IS_TIM_OCPRELOAD_STATE(TIM_OCPreload));
1564:../STM32F10x_StdPeriph_Lib_V3.5.0/Libraries/STM32F10x_StdPeriph_Driver/src/stm32f10x_tim.c ****   tmpccmr2 = TIMx->CCMR2;
 3217              		.loc 1 1564 0
 3218 0012 7B68     		ldr	r3, [r7, #4]
 3219 0014 9B8B     		ldrh	r3, [r3, #28]	@ movhi
 3220 0016 FB81     		strh	r3, [r7, #14]	@ movhi
1565:../STM32F10x_StdPeriph_Lib_V3.5.0/Libraries/STM32F10x_StdPeriph_Driver/src/stm32f10x_tim.c ****   /* Reset the OC3PE Bit */
1566:../STM32F10x_StdPeriph_Lib_V3.5.0/Libraries/STM32F10x_StdPeriph_Driver/src/stm32f10x_tim.c ****   tmpccmr2 &= (uint16_t)~((uint16_t)TIM_CCMR2_OC3PE);
 3221              		.loc 1 1566 0
 3222 0018 FB89     		ldrh	r3, [r7, #14]	@ movhi
 3223 001a 23F00803 		bic	r3, r3, #8
 3224 001e FB81     		strh	r3, [r7, #14]	@ movhi
1567:../STM32F10x_StdPeriph_Lib_V3.5.0/Libraries/STM32F10x_StdPeriph_Driver/src/stm32f10x_tim.c ****   /* Enable or Disable the Output Compare Preload feature */
1568:../STM32F10x_StdPeriph_Lib_V3.5.0/Libraries/STM32F10x_StdPeriph_Driver/src/stm32f10x_tim.c ****   tmpccmr2 |= TIM_OCPreload;
 3225              		.loc 1 1568 0
 3226 0020 FA89     		ldrh	r2, [r7, #14]	@ movhi
 3227 0022 7B88     		ldrh	r3, [r7, #2]	@ movhi
 3228 0024 1343     		orrs	r3, r3, r2
 3229 0026 FB81     		strh	r3, [r7, #14]	@ movhi
1569:../STM32F10x_StdPeriph_Lib_V3.5.0/Libraries/STM32F10x_StdPeriph_Driver/src/stm32f10x_tim.c ****   /* Write to TIMx CCMR2 register */
1570:../STM32F10x_StdPeriph_Lib_V3.5.0/Libraries/STM32F10x_StdPeriph_Driver/src/stm32f10x_tim.c ****   TIMx->CCMR2 = tmpccmr2;
 3230              		.loc 1 1570 0
 3231 0028 7B68     		ldr	r3, [r7, #4]
 3232 002a FA89     		ldrh	r2, [r7, #14]	@ movhi
 3233 002c 9A83     		strh	r2, [r3, #28]	@ movhi
1571:../STM32F10x_StdPeriph_Lib_V3.5.0/Libraries/STM32F10x_StdPeriph_Driver/src/stm32f10x_tim.c **** }
 3234              		.loc 1 1571 0
 3235 002e 07F11407 		add	r7, r7, #20
 3236 0032 BD46     		mov	sp, r7
 3237 0034 80BC     		pop	{r7}
 3238 0036 7047     		bx	lr
 3239              		.cfi_endproc
 3240              	.LFE68:
 3242              		.section	.text.TIM_OC4PreloadConfig,"ax",%progbits
 3243              		.align	2
 3244              		.global	TIM_OC4PreloadConfig
 3245              		.thumb
 3246              		.thumb_func
 3248              	TIM_OC4PreloadConfig:
 3249              	.LFB69:
1572:../STM32F10x_StdPeriph_Lib_V3.5.0/Libraries/STM32F10x_StdPeriph_Driver/src/stm32f10x_tim.c **** 
1573:../STM32F10x_StdPeriph_Lib_V3.5.0/Libraries/STM32F10x_StdPeriph_Driver/src/stm32f10x_tim.c **** /**
1574:../STM32F10x_StdPeriph_Lib_V3.5.0/Libraries/STM32F10x_StdPeriph_Driver/src/stm32f10x_tim.c ****   * @brief  Enables or disables the TIMx peripheral Preload register on CCR4.
1575:../STM32F10x_StdPeriph_Lib_V3.5.0/Libraries/STM32F10x_StdPeriph_Driver/src/stm32f10x_tim.c ****   * @param  TIMx: where x can be  1, 2, 3, 4, 5 or 8 to select the TIM peripheral.
1576:../STM32F10x_StdPeriph_Lib_V3.5.0/Libraries/STM32F10x_StdPeriph_Driver/src/stm32f10x_tim.c ****   * @param  TIM_OCPreload: new state of the TIMx peripheral Preload register
1577:../STM32F10x_StdPeriph_Lib_V3.5.0/Libraries/STM32F10x_StdPeriph_Driver/src/stm32f10x_tim.c ****   *   This parameter can be one of the following values:
1578:../STM32F10x_StdPeriph_Lib_V3.5.0/Libraries/STM32F10x_StdPeriph_Driver/src/stm32f10x_tim.c ****   *     @arg TIM_OCPreload_Enable
1579:../STM32F10x_StdPeriph_Lib_V3.5.0/Libraries/STM32F10x_StdPeriph_Driver/src/stm32f10x_tim.c ****   *     @arg TIM_OCPreload_Disable
1580:../STM32F10x_StdPeriph_Lib_V3.5.0/Libraries/STM32F10x_StdPeriph_Driver/src/stm32f10x_tim.c ****   * @retval None
1581:../STM32F10x_StdPeriph_Lib_V3.5.0/Libraries/STM32F10x_StdPeriph_Driver/src/stm32f10x_tim.c ****   */
1582:../STM32F10x_StdPeriph_Lib_V3.5.0/Libraries/STM32F10x_StdPeriph_Driver/src/stm32f10x_tim.c **** void TIM_OC4PreloadConfig(TIM_TypeDef* TIMx, uint16_t TIM_OCPreload)
1583:../STM32F10x_StdPeriph_Lib_V3.5.0/Libraries/STM32F10x_StdPeriph_Driver/src/stm32f10x_tim.c **** {
 3250              		.loc 1 1583 0
 3251              		.cfi_startproc
 3252              		@ args = 0, pretend = 0, frame = 16
 3253              		@ frame_needed = 1, uses_anonymous_args = 0
 3254              		@ link register save eliminated.
 3255 0000 80B4     		push	{r7}
 3256              	.LCFI120:
 3257              		.cfi_def_cfa_offset 4
 3258              		.cfi_offset 7, -4
 3259 0002 85B0     		sub	sp, sp, #20
 3260              	.LCFI121:
 3261              		.cfi_def_cfa_offset 24
 3262 0004 00AF     		add	r7, sp, #0
 3263              	.LCFI122:
 3264              		.cfi_def_cfa_register 7
 3265 0006 7860     		str	r0, [r7, #4]
 3266 0008 0B46     		mov	r3, r1
 3267 000a 7B80     		strh	r3, [r7, #2]	@ movhi
1584:../STM32F10x_StdPeriph_Lib_V3.5.0/Libraries/STM32F10x_StdPeriph_Driver/src/stm32f10x_tim.c ****   uint16_t tmpccmr2 = 0;
 3268              		.loc 1 1584 0
 3269 000c 4FF00003 		mov	r3, #0
 3270 0010 FB81     		strh	r3, [r7, #14]	@ movhi
1585:../STM32F10x_StdPeriph_Lib_V3.5.0/Libraries/STM32F10x_StdPeriph_Driver/src/stm32f10x_tim.c ****   /* Check the parameters */
1586:../STM32F10x_StdPeriph_Lib_V3.5.0/Libraries/STM32F10x_StdPeriph_Driver/src/stm32f10x_tim.c ****   assert_param(IS_TIM_LIST3_PERIPH(TIMx));
1587:../STM32F10x_StdPeriph_Lib_V3.5.0/Libraries/STM32F10x_StdPeriph_Driver/src/stm32f10x_tim.c ****   assert_param(IS_TIM_OCPRELOAD_STATE(TIM_OCPreload));
1588:../STM32F10x_StdPeriph_Lib_V3.5.0/Libraries/STM32F10x_StdPeriph_Driver/src/stm32f10x_tim.c ****   tmpccmr2 = TIMx->CCMR2;
 3271              		.loc 1 1588 0
 3272 0012 7B68     		ldr	r3, [r7, #4]
 3273 0014 9B8B     		ldrh	r3, [r3, #28]	@ movhi
 3274 0016 FB81     		strh	r3, [r7, #14]	@ movhi
1589:../STM32F10x_StdPeriph_Lib_V3.5.0/Libraries/STM32F10x_StdPeriph_Driver/src/stm32f10x_tim.c ****   /* Reset the OC4PE Bit */
1590:../STM32F10x_StdPeriph_Lib_V3.5.0/Libraries/STM32F10x_StdPeriph_Driver/src/stm32f10x_tim.c ****   tmpccmr2 &= (uint16_t)~((uint16_t)TIM_CCMR2_OC4PE);
 3275              		.loc 1 1590 0
 3276 0018 FB89     		ldrh	r3, [r7, #14]	@ movhi
 3277 001a 23F40063 		bic	r3, r3, #2048
 3278 001e FB81     		strh	r3, [r7, #14]	@ movhi
1591:../STM32F10x_StdPeriph_Lib_V3.5.0/Libraries/STM32F10x_StdPeriph_Driver/src/stm32f10x_tim.c ****   /* Enable or Disable the Output Compare Preload feature */
1592:../STM32F10x_StdPeriph_Lib_V3.5.0/Libraries/STM32F10x_StdPeriph_Driver/src/stm32f10x_tim.c ****   tmpccmr2 |= (uint16_t)(TIM_OCPreload << 8);
 3279              		.loc 1 1592 0
 3280 0020 7B88     		ldrh	r3, [r7, #2]	@ movhi
 3281 0022 4FEA0323 		lsl	r3, r3, #8
 3282 0026 9AB2     		uxth	r2, r3
 3283 0028 FB89     		ldrh	r3, [r7, #14]	@ movhi
 3284 002a 1343     		orrs	r3, r3, r2
 3285 002c FB81     		strh	r3, [r7, #14]	@ movhi
1593:../STM32F10x_StdPeriph_Lib_V3.5.0/Libraries/STM32F10x_StdPeriph_Driver/src/stm32f10x_tim.c ****   /* Write to TIMx CCMR2 register */
1594:../STM32F10x_StdPeriph_Lib_V3.5.0/Libraries/STM32F10x_StdPeriph_Driver/src/stm32f10x_tim.c ****   TIMx->CCMR2 = tmpccmr2;
 3286              		.loc 1 1594 0
 3287 002e 7B68     		ldr	r3, [r7, #4]
 3288 0030 FA89     		ldrh	r2, [r7, #14]	@ movhi
 3289 0032 9A83     		strh	r2, [r3, #28]	@ movhi
1595:../STM32F10x_StdPeriph_Lib_V3.5.0/Libraries/STM32F10x_StdPeriph_Driver/src/stm32f10x_tim.c **** }
 3290              		.loc 1 1595 0
 3291 0034 07F11407 		add	r7, r7, #20
 3292 0038 BD46     		mov	sp, r7
 3293 003a 80BC     		pop	{r7}
 3294 003c 7047     		bx	lr
 3295              		.cfi_endproc
 3296              	.LFE69:
 3298 003e 00BF     		.section	.text.TIM_OC1FastConfig,"ax",%progbits
 3299              		.align	2
 3300              		.global	TIM_OC1FastConfig
 3301              		.thumb
 3302              		.thumb_func
 3304              	TIM_OC1FastConfig:
 3305              	.LFB70:
1596:../STM32F10x_StdPeriph_Lib_V3.5.0/Libraries/STM32F10x_StdPeriph_Driver/src/stm32f10x_tim.c **** 
1597:../STM32F10x_StdPeriph_Lib_V3.5.0/Libraries/STM32F10x_StdPeriph_Driver/src/stm32f10x_tim.c **** /**
1598:../STM32F10x_StdPeriph_Lib_V3.5.0/Libraries/STM32F10x_StdPeriph_Driver/src/stm32f10x_tim.c ****   * @brief  Configures the TIMx Output Compare 1 Fast feature.
1599:../STM32F10x_StdPeriph_Lib_V3.5.0/Libraries/STM32F10x_StdPeriph_Driver/src/stm32f10x_tim.c ****   * @param  TIMx: where x can be  1 to 17 except 6 and 7 to select the TIM peripheral.
1600:../STM32F10x_StdPeriph_Lib_V3.5.0/Libraries/STM32F10x_StdPeriph_Driver/src/stm32f10x_tim.c ****   * @param  TIM_OCFast: new state of the Output Compare Fast Enable Bit.
1601:../STM32F10x_StdPeriph_Lib_V3.5.0/Libraries/STM32F10x_StdPeriph_Driver/src/stm32f10x_tim.c ****   *   This parameter can be one of the following values:
1602:../STM32F10x_StdPeriph_Lib_V3.5.0/Libraries/STM32F10x_StdPeriph_Driver/src/stm32f10x_tim.c ****   *     @arg TIM_OCFast_Enable: TIM output compare fast enable
1603:../STM32F10x_StdPeriph_Lib_V3.5.0/Libraries/STM32F10x_StdPeriph_Driver/src/stm32f10x_tim.c ****   *     @arg TIM_OCFast_Disable: TIM output compare fast disable
1604:../STM32F10x_StdPeriph_Lib_V3.5.0/Libraries/STM32F10x_StdPeriph_Driver/src/stm32f10x_tim.c ****   * @retval None
1605:../STM32F10x_StdPeriph_Lib_V3.5.0/Libraries/STM32F10x_StdPeriph_Driver/src/stm32f10x_tim.c ****   */
1606:../STM32F10x_StdPeriph_Lib_V3.5.0/Libraries/STM32F10x_StdPeriph_Driver/src/stm32f10x_tim.c **** void TIM_OC1FastConfig(TIM_TypeDef* TIMx, uint16_t TIM_OCFast)
1607:../STM32F10x_StdPeriph_Lib_V3.5.0/Libraries/STM32F10x_StdPeriph_Driver/src/stm32f10x_tim.c **** {
 3306              		.loc 1 1607 0
 3307              		.cfi_startproc
 3308              		@ args = 0, pretend = 0, frame = 16
 3309              		@ frame_needed = 1, uses_anonymous_args = 0
 3310              		@ link register save eliminated.
 3311 0000 80B4     		push	{r7}
 3312              	.LCFI123:
 3313              		.cfi_def_cfa_offset 4
 3314              		.cfi_offset 7, -4
 3315 0002 85B0     		sub	sp, sp, #20
 3316              	.LCFI124:
 3317              		.cfi_def_cfa_offset 24
 3318 0004 00AF     		add	r7, sp, #0
 3319              	.LCFI125:
 3320              		.cfi_def_cfa_register 7
 3321 0006 7860     		str	r0, [r7, #4]
 3322 0008 0B46     		mov	r3, r1
 3323 000a 7B80     		strh	r3, [r7, #2]	@ movhi
1608:../STM32F10x_StdPeriph_Lib_V3.5.0/Libraries/STM32F10x_StdPeriph_Driver/src/stm32f10x_tim.c ****   uint16_t tmpccmr1 = 0;
 3324              		.loc 1 1608 0
 3325 000c 4FF00003 		mov	r3, #0
 3326 0010 FB81     		strh	r3, [r7, #14]	@ movhi
1609:../STM32F10x_StdPeriph_Lib_V3.5.0/Libraries/STM32F10x_StdPeriph_Driver/src/stm32f10x_tim.c ****   /* Check the parameters */
1610:../STM32F10x_StdPeriph_Lib_V3.5.0/Libraries/STM32F10x_StdPeriph_Driver/src/stm32f10x_tim.c ****   assert_param(IS_TIM_LIST8_PERIPH(TIMx));
1611:../STM32F10x_StdPeriph_Lib_V3.5.0/Libraries/STM32F10x_StdPeriph_Driver/src/stm32f10x_tim.c ****   assert_param(IS_TIM_OCFAST_STATE(TIM_OCFast));
1612:../STM32F10x_StdPeriph_Lib_V3.5.0/Libraries/STM32F10x_StdPeriph_Driver/src/stm32f10x_tim.c ****   /* Get the TIMx CCMR1 register value */
1613:../STM32F10x_StdPeriph_Lib_V3.5.0/Libraries/STM32F10x_StdPeriph_Driver/src/stm32f10x_tim.c ****   tmpccmr1 = TIMx->CCMR1;
 3327              		.loc 1 1613 0
 3328 0012 7B68     		ldr	r3, [r7, #4]
 3329 0014 1B8B     		ldrh	r3, [r3, #24]	@ movhi
 3330 0016 FB81     		strh	r3, [r7, #14]	@ movhi
1614:../STM32F10x_StdPeriph_Lib_V3.5.0/Libraries/STM32F10x_StdPeriph_Driver/src/stm32f10x_tim.c ****   /* Reset the OC1FE Bit */
1615:../STM32F10x_StdPeriph_Lib_V3.5.0/Libraries/STM32F10x_StdPeriph_Driver/src/stm32f10x_tim.c ****   tmpccmr1 &= (uint16_t)~((uint16_t)TIM_CCMR1_OC1FE);
 3331              		.loc 1 1615 0
 3332 0018 FB89     		ldrh	r3, [r7, #14]	@ movhi
 3333 001a 23F00403 		bic	r3, r3, #4
 3334 001e FB81     		strh	r3, [r7, #14]	@ movhi
1616:../STM32F10x_StdPeriph_Lib_V3.5.0/Libraries/STM32F10x_StdPeriph_Driver/src/stm32f10x_tim.c ****   /* Enable or Disable the Output Compare Fast Bit */
1617:../STM32F10x_StdPeriph_Lib_V3.5.0/Libraries/STM32F10x_StdPeriph_Driver/src/stm32f10x_tim.c ****   tmpccmr1 |= TIM_OCFast;
 3335              		.loc 1 1617 0
 3336 0020 FA89     		ldrh	r2, [r7, #14]	@ movhi
 3337 0022 7B88     		ldrh	r3, [r7, #2]	@ movhi
 3338 0024 1343     		orrs	r3, r3, r2
 3339 0026 FB81     		strh	r3, [r7, #14]	@ movhi
1618:../STM32F10x_StdPeriph_Lib_V3.5.0/Libraries/STM32F10x_StdPeriph_Driver/src/stm32f10x_tim.c ****   /* Write to TIMx CCMR1 */
1619:../STM32F10x_StdPeriph_Lib_V3.5.0/Libraries/STM32F10x_StdPeriph_Driver/src/stm32f10x_tim.c ****   TIMx->CCMR1 = tmpccmr1;
 3340              		.loc 1 1619 0
 3341 0028 7B68     		ldr	r3, [r7, #4]
 3342 002a FA89     		ldrh	r2, [r7, #14]	@ movhi
 3343 002c 1A83     		strh	r2, [r3, #24]	@ movhi
1620:../STM32F10x_StdPeriph_Lib_V3.5.0/Libraries/STM32F10x_StdPeriph_Driver/src/stm32f10x_tim.c **** }
 3344              		.loc 1 1620 0
 3345 002e 07F11407 		add	r7, r7, #20
 3346 0032 BD46     		mov	sp, r7
 3347 0034 80BC     		pop	{r7}
 3348 0036 7047     		bx	lr
 3349              		.cfi_endproc
 3350              	.LFE70:
 3352              		.section	.text.TIM_OC2FastConfig,"ax",%progbits
 3353              		.align	2
 3354              		.global	TIM_OC2FastConfig
 3355              		.thumb
 3356              		.thumb_func
 3358              	TIM_OC2FastConfig:
 3359              	.LFB71:
1621:../STM32F10x_StdPeriph_Lib_V3.5.0/Libraries/STM32F10x_StdPeriph_Driver/src/stm32f10x_tim.c **** 
1622:../STM32F10x_StdPeriph_Lib_V3.5.0/Libraries/STM32F10x_StdPeriph_Driver/src/stm32f10x_tim.c **** /**
1623:../STM32F10x_StdPeriph_Lib_V3.5.0/Libraries/STM32F10x_StdPeriph_Driver/src/stm32f10x_tim.c ****   * @brief  Configures the TIMx Output Compare 2 Fast feature.
1624:../STM32F10x_StdPeriph_Lib_V3.5.0/Libraries/STM32F10x_StdPeriph_Driver/src/stm32f10x_tim.c ****   * @param  TIMx: where x can be  1, 2, 3, 4, 5, 8, 9, 12 or 15 to select 
1625:../STM32F10x_StdPeriph_Lib_V3.5.0/Libraries/STM32F10x_StdPeriph_Driver/src/stm32f10x_tim.c ****   *         the TIM peripheral.
1626:../STM32F10x_StdPeriph_Lib_V3.5.0/Libraries/STM32F10x_StdPeriph_Driver/src/stm32f10x_tim.c ****   * @param  TIM_OCFast: new state of the Output Compare Fast Enable Bit.
1627:../STM32F10x_StdPeriph_Lib_V3.5.0/Libraries/STM32F10x_StdPeriph_Driver/src/stm32f10x_tim.c ****   *   This parameter can be one of the following values:
1628:../STM32F10x_StdPeriph_Lib_V3.5.0/Libraries/STM32F10x_StdPeriph_Driver/src/stm32f10x_tim.c ****   *     @arg TIM_OCFast_Enable: TIM output compare fast enable
1629:../STM32F10x_StdPeriph_Lib_V3.5.0/Libraries/STM32F10x_StdPeriph_Driver/src/stm32f10x_tim.c ****   *     @arg TIM_OCFast_Disable: TIM output compare fast disable
1630:../STM32F10x_StdPeriph_Lib_V3.5.0/Libraries/STM32F10x_StdPeriph_Driver/src/stm32f10x_tim.c ****   * @retval None
1631:../STM32F10x_StdPeriph_Lib_V3.5.0/Libraries/STM32F10x_StdPeriph_Driver/src/stm32f10x_tim.c ****   */
1632:../STM32F10x_StdPeriph_Lib_V3.5.0/Libraries/STM32F10x_StdPeriph_Driver/src/stm32f10x_tim.c **** void TIM_OC2FastConfig(TIM_TypeDef* TIMx, uint16_t TIM_OCFast)
1633:../STM32F10x_StdPeriph_Lib_V3.5.0/Libraries/STM32F10x_StdPeriph_Driver/src/stm32f10x_tim.c **** {
 3360              		.loc 1 1633 0
 3361              		.cfi_startproc
 3362              		@ args = 0, pretend = 0, frame = 16
 3363              		@ frame_needed = 1, uses_anonymous_args = 0
 3364              		@ link register save eliminated.
 3365 0000 80B4     		push	{r7}
 3366              	.LCFI126:
 3367              		.cfi_def_cfa_offset 4
 3368              		.cfi_offset 7, -4
 3369 0002 85B0     		sub	sp, sp, #20
 3370              	.LCFI127:
 3371              		.cfi_def_cfa_offset 24
 3372 0004 00AF     		add	r7, sp, #0
 3373              	.LCFI128:
 3374              		.cfi_def_cfa_register 7
 3375 0006 7860     		str	r0, [r7, #4]
 3376 0008 0B46     		mov	r3, r1
 3377 000a 7B80     		strh	r3, [r7, #2]	@ movhi
1634:../STM32F10x_StdPeriph_Lib_V3.5.0/Libraries/STM32F10x_StdPeriph_Driver/src/stm32f10x_tim.c ****   uint16_t tmpccmr1 = 0;
 3378              		.loc 1 1634 0
 3379 000c 4FF00003 		mov	r3, #0
 3380 0010 FB81     		strh	r3, [r7, #14]	@ movhi
1635:../STM32F10x_StdPeriph_Lib_V3.5.0/Libraries/STM32F10x_StdPeriph_Driver/src/stm32f10x_tim.c ****   /* Check the parameters */
1636:../STM32F10x_StdPeriph_Lib_V3.5.0/Libraries/STM32F10x_StdPeriph_Driver/src/stm32f10x_tim.c ****   assert_param(IS_TIM_LIST6_PERIPH(TIMx));
1637:../STM32F10x_StdPeriph_Lib_V3.5.0/Libraries/STM32F10x_StdPeriph_Driver/src/stm32f10x_tim.c ****   assert_param(IS_TIM_OCFAST_STATE(TIM_OCFast));
1638:../STM32F10x_StdPeriph_Lib_V3.5.0/Libraries/STM32F10x_StdPeriph_Driver/src/stm32f10x_tim.c ****   /* Get the TIMx CCMR1 register value */
1639:../STM32F10x_StdPeriph_Lib_V3.5.0/Libraries/STM32F10x_StdPeriph_Driver/src/stm32f10x_tim.c ****   tmpccmr1 = TIMx->CCMR1;
 3381              		.loc 1 1639 0
 3382 0012 7B68     		ldr	r3, [r7, #4]
 3383 0014 1B8B     		ldrh	r3, [r3, #24]	@ movhi
 3384 0016 FB81     		strh	r3, [r7, #14]	@ movhi
1640:../STM32F10x_StdPeriph_Lib_V3.5.0/Libraries/STM32F10x_StdPeriph_Driver/src/stm32f10x_tim.c ****   /* Reset the OC2FE Bit */
1641:../STM32F10x_StdPeriph_Lib_V3.5.0/Libraries/STM32F10x_StdPeriph_Driver/src/stm32f10x_tim.c ****   tmpccmr1 &= (uint16_t)~((uint16_t)TIM_CCMR1_OC2FE);
 3385              		.loc 1 1641 0
 3386 0018 FB89     		ldrh	r3, [r7, #14]	@ movhi
 3387 001a 23F48063 		bic	r3, r3, #1024
 3388 001e FB81     		strh	r3, [r7, #14]	@ movhi
1642:../STM32F10x_StdPeriph_Lib_V3.5.0/Libraries/STM32F10x_StdPeriph_Driver/src/stm32f10x_tim.c ****   /* Enable or Disable the Output Compare Fast Bit */
1643:../STM32F10x_StdPeriph_Lib_V3.5.0/Libraries/STM32F10x_StdPeriph_Driver/src/stm32f10x_tim.c ****   tmpccmr1 |= (uint16_t)(TIM_OCFast << 8);
 3389              		.loc 1 1643 0
 3390 0020 7B88     		ldrh	r3, [r7, #2]	@ movhi
 3391 0022 4FEA0323 		lsl	r3, r3, #8
 3392 0026 9AB2     		uxth	r2, r3
 3393 0028 FB89     		ldrh	r3, [r7, #14]	@ movhi
 3394 002a 1343     		orrs	r3, r3, r2
 3395 002c FB81     		strh	r3, [r7, #14]	@ movhi
1644:../STM32F10x_StdPeriph_Lib_V3.5.0/Libraries/STM32F10x_StdPeriph_Driver/src/stm32f10x_tim.c ****   /* Write to TIMx CCMR1 */
1645:../STM32F10x_StdPeriph_Lib_V3.5.0/Libraries/STM32F10x_StdPeriph_Driver/src/stm32f10x_tim.c ****   TIMx->CCMR1 = tmpccmr1;
 3396              		.loc 1 1645 0
 3397 002e 7B68     		ldr	r3, [r7, #4]
 3398 0030 FA89     		ldrh	r2, [r7, #14]	@ movhi
 3399 0032 1A83     		strh	r2, [r3, #24]	@ movhi
1646:../STM32F10x_StdPeriph_Lib_V3.5.0/Libraries/STM32F10x_StdPeriph_Driver/src/stm32f10x_tim.c **** }
 3400              		.loc 1 1646 0
 3401 0034 07F11407 		add	r7, r7, #20
 3402 0038 BD46     		mov	sp, r7
 3403 003a 80BC     		pop	{r7}
 3404 003c 7047     		bx	lr
 3405              		.cfi_endproc
 3406              	.LFE71:
 3408 003e 00BF     		.section	.text.TIM_OC3FastConfig,"ax",%progbits
 3409              		.align	2
 3410              		.global	TIM_OC3FastConfig
 3411              		.thumb
 3412              		.thumb_func
 3414              	TIM_OC3FastConfig:
 3415              	.LFB72:
1647:../STM32F10x_StdPeriph_Lib_V3.5.0/Libraries/STM32F10x_StdPeriph_Driver/src/stm32f10x_tim.c **** 
1648:../STM32F10x_StdPeriph_Lib_V3.5.0/Libraries/STM32F10x_StdPeriph_Driver/src/stm32f10x_tim.c **** /**
1649:../STM32F10x_StdPeriph_Lib_V3.5.0/Libraries/STM32F10x_StdPeriph_Driver/src/stm32f10x_tim.c ****   * @brief  Configures the TIMx Output Compare 3 Fast feature.
1650:../STM32F10x_StdPeriph_Lib_V3.5.0/Libraries/STM32F10x_StdPeriph_Driver/src/stm32f10x_tim.c ****   * @param  TIMx: where x can be  1, 2, 3, 4, 5 or 8 to select the TIM peripheral.
1651:../STM32F10x_StdPeriph_Lib_V3.5.0/Libraries/STM32F10x_StdPeriph_Driver/src/stm32f10x_tim.c ****   * @param  TIM_OCFast: new state of the Output Compare Fast Enable Bit.
1652:../STM32F10x_StdPeriph_Lib_V3.5.0/Libraries/STM32F10x_StdPeriph_Driver/src/stm32f10x_tim.c ****   *   This parameter can be one of the following values:
1653:../STM32F10x_StdPeriph_Lib_V3.5.0/Libraries/STM32F10x_StdPeriph_Driver/src/stm32f10x_tim.c ****   *     @arg TIM_OCFast_Enable: TIM output compare fast enable
1654:../STM32F10x_StdPeriph_Lib_V3.5.0/Libraries/STM32F10x_StdPeriph_Driver/src/stm32f10x_tim.c ****   *     @arg TIM_OCFast_Disable: TIM output compare fast disable
1655:../STM32F10x_StdPeriph_Lib_V3.5.0/Libraries/STM32F10x_StdPeriph_Driver/src/stm32f10x_tim.c ****   * @retval None
1656:../STM32F10x_StdPeriph_Lib_V3.5.0/Libraries/STM32F10x_StdPeriph_Driver/src/stm32f10x_tim.c ****   */
1657:../STM32F10x_StdPeriph_Lib_V3.5.0/Libraries/STM32F10x_StdPeriph_Driver/src/stm32f10x_tim.c **** void TIM_OC3FastConfig(TIM_TypeDef* TIMx, uint16_t TIM_OCFast)
1658:../STM32F10x_StdPeriph_Lib_V3.5.0/Libraries/STM32F10x_StdPeriph_Driver/src/stm32f10x_tim.c **** {
 3416              		.loc 1 1658 0
 3417              		.cfi_startproc
 3418              		@ args = 0, pretend = 0, frame = 16
 3419              		@ frame_needed = 1, uses_anonymous_args = 0
 3420              		@ link register save eliminated.
 3421 0000 80B4     		push	{r7}
 3422              	.LCFI129:
 3423              		.cfi_def_cfa_offset 4
 3424              		.cfi_offset 7, -4
 3425 0002 85B0     		sub	sp, sp, #20
 3426              	.LCFI130:
 3427              		.cfi_def_cfa_offset 24
 3428 0004 00AF     		add	r7, sp, #0
 3429              	.LCFI131:
 3430              		.cfi_def_cfa_register 7
 3431 0006 7860     		str	r0, [r7, #4]
 3432 0008 0B46     		mov	r3, r1
 3433 000a 7B80     		strh	r3, [r7, #2]	@ movhi
1659:../STM32F10x_StdPeriph_Lib_V3.5.0/Libraries/STM32F10x_StdPeriph_Driver/src/stm32f10x_tim.c ****   uint16_t tmpccmr2 = 0;
 3434              		.loc 1 1659 0
 3435 000c 4FF00003 		mov	r3, #0
 3436 0010 FB81     		strh	r3, [r7, #14]	@ movhi
1660:../STM32F10x_StdPeriph_Lib_V3.5.0/Libraries/STM32F10x_StdPeriph_Driver/src/stm32f10x_tim.c ****   /* Check the parameters */
1661:../STM32F10x_StdPeriph_Lib_V3.5.0/Libraries/STM32F10x_StdPeriph_Driver/src/stm32f10x_tim.c ****   assert_param(IS_TIM_LIST3_PERIPH(TIMx));
1662:../STM32F10x_StdPeriph_Lib_V3.5.0/Libraries/STM32F10x_StdPeriph_Driver/src/stm32f10x_tim.c ****   assert_param(IS_TIM_OCFAST_STATE(TIM_OCFast));
1663:../STM32F10x_StdPeriph_Lib_V3.5.0/Libraries/STM32F10x_StdPeriph_Driver/src/stm32f10x_tim.c ****   /* Get the TIMx CCMR2 register value */
1664:../STM32F10x_StdPeriph_Lib_V3.5.0/Libraries/STM32F10x_StdPeriph_Driver/src/stm32f10x_tim.c ****   tmpccmr2 = TIMx->CCMR2;
 3437              		.loc 1 1664 0
 3438 0012 7B68     		ldr	r3, [r7, #4]
 3439 0014 9B8B     		ldrh	r3, [r3, #28]	@ movhi
 3440 0016 FB81     		strh	r3, [r7, #14]	@ movhi
1665:../STM32F10x_StdPeriph_Lib_V3.5.0/Libraries/STM32F10x_StdPeriph_Driver/src/stm32f10x_tim.c ****   /* Reset the OC3FE Bit */
1666:../STM32F10x_StdPeriph_Lib_V3.5.0/Libraries/STM32F10x_StdPeriph_Driver/src/stm32f10x_tim.c ****   tmpccmr2 &= (uint16_t)~((uint16_t)TIM_CCMR2_OC3FE);
 3441              		.loc 1 1666 0
 3442 0018 FB89     		ldrh	r3, [r7, #14]	@ movhi
 3443 001a 23F00403 		bic	r3, r3, #4
 3444 001e FB81     		strh	r3, [r7, #14]	@ movhi
1667:../STM32F10x_StdPeriph_Lib_V3.5.0/Libraries/STM32F10x_StdPeriph_Driver/src/stm32f10x_tim.c ****   /* Enable or Disable the Output Compare Fast Bit */
1668:../STM32F10x_StdPeriph_Lib_V3.5.0/Libraries/STM32F10x_StdPeriph_Driver/src/stm32f10x_tim.c ****   tmpccmr2 |= TIM_OCFast;
 3445              		.loc 1 1668 0
 3446 0020 FA89     		ldrh	r2, [r7, #14]	@ movhi
 3447 0022 7B88     		ldrh	r3, [r7, #2]	@ movhi
 3448 0024 1343     		orrs	r3, r3, r2
 3449 0026 FB81     		strh	r3, [r7, #14]	@ movhi
1669:../STM32F10x_StdPeriph_Lib_V3.5.0/Libraries/STM32F10x_StdPeriph_Driver/src/stm32f10x_tim.c ****   /* Write to TIMx CCMR2 */
1670:../STM32F10x_StdPeriph_Lib_V3.5.0/Libraries/STM32F10x_StdPeriph_Driver/src/stm32f10x_tim.c ****   TIMx->CCMR2 = tmpccmr2;
 3450              		.loc 1 1670 0
 3451 0028 7B68     		ldr	r3, [r7, #4]
 3452 002a FA89     		ldrh	r2, [r7, #14]	@ movhi
 3453 002c 9A83     		strh	r2, [r3, #28]	@ movhi
1671:../STM32F10x_StdPeriph_Lib_V3.5.0/Libraries/STM32F10x_StdPeriph_Driver/src/stm32f10x_tim.c **** }
 3454              		.loc 1 1671 0
 3455 002e 07F11407 		add	r7, r7, #20
 3456 0032 BD46     		mov	sp, r7
 3457 0034 80BC     		pop	{r7}
 3458 0036 7047     		bx	lr
 3459              		.cfi_endproc
 3460              	.LFE72:
 3462              		.section	.text.TIM_OC4FastConfig,"ax",%progbits
 3463              		.align	2
 3464              		.global	TIM_OC4FastConfig
 3465              		.thumb
 3466              		.thumb_func
 3468              	TIM_OC4FastConfig:
 3469              	.LFB73:
1672:../STM32F10x_StdPeriph_Lib_V3.5.0/Libraries/STM32F10x_StdPeriph_Driver/src/stm32f10x_tim.c **** 
1673:../STM32F10x_StdPeriph_Lib_V3.5.0/Libraries/STM32F10x_StdPeriph_Driver/src/stm32f10x_tim.c **** /**
1674:../STM32F10x_StdPeriph_Lib_V3.5.0/Libraries/STM32F10x_StdPeriph_Driver/src/stm32f10x_tim.c ****   * @brief  Configures the TIMx Output Compare 4 Fast feature.
1675:../STM32F10x_StdPeriph_Lib_V3.5.0/Libraries/STM32F10x_StdPeriph_Driver/src/stm32f10x_tim.c ****   * @param  TIMx: where x can be  1, 2, 3, 4, 5 or 8 to select the TIM peripheral.
1676:../STM32F10x_StdPeriph_Lib_V3.5.0/Libraries/STM32F10x_StdPeriph_Driver/src/stm32f10x_tim.c ****   * @param  TIM_OCFast: new state of the Output Compare Fast Enable Bit.
1677:../STM32F10x_StdPeriph_Lib_V3.5.0/Libraries/STM32F10x_StdPeriph_Driver/src/stm32f10x_tim.c ****   *   This parameter can be one of the following values:
1678:../STM32F10x_StdPeriph_Lib_V3.5.0/Libraries/STM32F10x_StdPeriph_Driver/src/stm32f10x_tim.c ****   *     @arg TIM_OCFast_Enable: TIM output compare fast enable
1679:../STM32F10x_StdPeriph_Lib_V3.5.0/Libraries/STM32F10x_StdPeriph_Driver/src/stm32f10x_tim.c ****   *     @arg TIM_OCFast_Disable: TIM output compare fast disable
1680:../STM32F10x_StdPeriph_Lib_V3.5.0/Libraries/STM32F10x_StdPeriph_Driver/src/stm32f10x_tim.c ****   * @retval None
1681:../STM32F10x_StdPeriph_Lib_V3.5.0/Libraries/STM32F10x_StdPeriph_Driver/src/stm32f10x_tim.c ****   */
1682:../STM32F10x_StdPeriph_Lib_V3.5.0/Libraries/STM32F10x_StdPeriph_Driver/src/stm32f10x_tim.c **** void TIM_OC4FastConfig(TIM_TypeDef* TIMx, uint16_t TIM_OCFast)
1683:../STM32F10x_StdPeriph_Lib_V3.5.0/Libraries/STM32F10x_StdPeriph_Driver/src/stm32f10x_tim.c **** {
 3470              		.loc 1 1683 0
 3471              		.cfi_startproc
 3472              		@ args = 0, pretend = 0, frame = 16
 3473              		@ frame_needed = 1, uses_anonymous_args = 0
 3474              		@ link register save eliminated.
 3475 0000 80B4     		push	{r7}
 3476              	.LCFI132:
 3477              		.cfi_def_cfa_offset 4
 3478              		.cfi_offset 7, -4
 3479 0002 85B0     		sub	sp, sp, #20
 3480              	.LCFI133:
 3481              		.cfi_def_cfa_offset 24
 3482 0004 00AF     		add	r7, sp, #0
 3483              	.LCFI134:
 3484              		.cfi_def_cfa_register 7
 3485 0006 7860     		str	r0, [r7, #4]
 3486 0008 0B46     		mov	r3, r1
 3487 000a 7B80     		strh	r3, [r7, #2]	@ movhi
1684:../STM32F10x_StdPeriph_Lib_V3.5.0/Libraries/STM32F10x_StdPeriph_Driver/src/stm32f10x_tim.c ****   uint16_t tmpccmr2 = 0;
 3488              		.loc 1 1684 0
 3489 000c 4FF00003 		mov	r3, #0
 3490 0010 FB81     		strh	r3, [r7, #14]	@ movhi
1685:../STM32F10x_StdPeriph_Lib_V3.5.0/Libraries/STM32F10x_StdPeriph_Driver/src/stm32f10x_tim.c ****   /* Check the parameters */
1686:../STM32F10x_StdPeriph_Lib_V3.5.0/Libraries/STM32F10x_StdPeriph_Driver/src/stm32f10x_tim.c ****   assert_param(IS_TIM_LIST3_PERIPH(TIMx));
1687:../STM32F10x_StdPeriph_Lib_V3.5.0/Libraries/STM32F10x_StdPeriph_Driver/src/stm32f10x_tim.c ****   assert_param(IS_TIM_OCFAST_STATE(TIM_OCFast));
1688:../STM32F10x_StdPeriph_Lib_V3.5.0/Libraries/STM32F10x_StdPeriph_Driver/src/stm32f10x_tim.c ****   /* Get the TIMx CCMR2 register value */
1689:../STM32F10x_StdPeriph_Lib_V3.5.0/Libraries/STM32F10x_StdPeriph_Driver/src/stm32f10x_tim.c ****   tmpccmr2 = TIMx->CCMR2;
 3491              		.loc 1 1689 0
 3492 0012 7B68     		ldr	r3, [r7, #4]
 3493 0014 9B8B     		ldrh	r3, [r3, #28]	@ movhi
 3494 0016 FB81     		strh	r3, [r7, #14]	@ movhi
1690:../STM32F10x_StdPeriph_Lib_V3.5.0/Libraries/STM32F10x_StdPeriph_Driver/src/stm32f10x_tim.c ****   /* Reset the OC4FE Bit */
1691:../STM32F10x_StdPeriph_Lib_V3.5.0/Libraries/STM32F10x_StdPeriph_Driver/src/stm32f10x_tim.c ****   tmpccmr2 &= (uint16_t)~((uint16_t)TIM_CCMR2_OC4FE);
 3495              		.loc 1 1691 0
 3496 0018 FB89     		ldrh	r3, [r7, #14]	@ movhi
 3497 001a 23F48063 		bic	r3, r3, #1024
 3498 001e FB81     		strh	r3, [r7, #14]	@ movhi
1692:../STM32F10x_StdPeriph_Lib_V3.5.0/Libraries/STM32F10x_StdPeriph_Driver/src/stm32f10x_tim.c ****   /* Enable or Disable the Output Compare Fast Bit */
1693:../STM32F10x_StdPeriph_Lib_V3.5.0/Libraries/STM32F10x_StdPeriph_Driver/src/stm32f10x_tim.c ****   tmpccmr2 |= (uint16_t)(TIM_OCFast << 8);
 3499              		.loc 1 1693 0
 3500 0020 7B88     		ldrh	r3, [r7, #2]	@ movhi
 3501 0022 4FEA0323 		lsl	r3, r3, #8
 3502 0026 9AB2     		uxth	r2, r3
 3503 0028 FB89     		ldrh	r3, [r7, #14]	@ movhi
 3504 002a 1343     		orrs	r3, r3, r2
 3505 002c FB81     		strh	r3, [r7, #14]	@ movhi
1694:../STM32F10x_StdPeriph_Lib_V3.5.0/Libraries/STM32F10x_StdPeriph_Driver/src/stm32f10x_tim.c ****   /* Write to TIMx CCMR2 */
1695:../STM32F10x_StdPeriph_Lib_V3.5.0/Libraries/STM32F10x_StdPeriph_Driver/src/stm32f10x_tim.c ****   TIMx->CCMR2 = tmpccmr2;
 3506              		.loc 1 1695 0
 3507 002e 7B68     		ldr	r3, [r7, #4]
 3508 0030 FA89     		ldrh	r2, [r7, #14]	@ movhi
 3509 0032 9A83     		strh	r2, [r3, #28]	@ movhi
1696:../STM32F10x_StdPeriph_Lib_V3.5.0/Libraries/STM32F10x_StdPeriph_Driver/src/stm32f10x_tim.c **** }
 3510              		.loc 1 1696 0
 3511 0034 07F11407 		add	r7, r7, #20
 3512 0038 BD46     		mov	sp, r7
 3513 003a 80BC     		pop	{r7}
 3514 003c 7047     		bx	lr
 3515              		.cfi_endproc
 3516              	.LFE73:
 3518 003e 00BF     		.section	.text.TIM_ClearOC1Ref,"ax",%progbits
 3519              		.align	2
 3520              		.global	TIM_ClearOC1Ref
 3521              		.thumb
 3522              		.thumb_func
 3524              	TIM_ClearOC1Ref:
 3525              	.LFB74:
1697:../STM32F10x_StdPeriph_Lib_V3.5.0/Libraries/STM32F10x_StdPeriph_Driver/src/stm32f10x_tim.c **** 
1698:../STM32F10x_StdPeriph_Lib_V3.5.0/Libraries/STM32F10x_StdPeriph_Driver/src/stm32f10x_tim.c **** /**
1699:../STM32F10x_StdPeriph_Lib_V3.5.0/Libraries/STM32F10x_StdPeriph_Driver/src/stm32f10x_tim.c ****   * @brief  Clears or safeguards the OCREF1 signal on an external event
1700:../STM32F10x_StdPeriph_Lib_V3.5.0/Libraries/STM32F10x_StdPeriph_Driver/src/stm32f10x_tim.c ****   * @param  TIMx: where x can be  1, 2, 3, 4, 5 or 8 to select the TIM peripheral.
1701:../STM32F10x_StdPeriph_Lib_V3.5.0/Libraries/STM32F10x_StdPeriph_Driver/src/stm32f10x_tim.c ****   * @param  TIM_OCClear: new state of the Output Compare Clear Enable Bit.
1702:../STM32F10x_StdPeriph_Lib_V3.5.0/Libraries/STM32F10x_StdPeriph_Driver/src/stm32f10x_tim.c ****   *   This parameter can be one of the following values:
1703:../STM32F10x_StdPeriph_Lib_V3.5.0/Libraries/STM32F10x_StdPeriph_Driver/src/stm32f10x_tim.c ****   *     @arg TIM_OCClear_Enable: TIM Output clear enable
1704:../STM32F10x_StdPeriph_Lib_V3.5.0/Libraries/STM32F10x_StdPeriph_Driver/src/stm32f10x_tim.c ****   *     @arg TIM_OCClear_Disable: TIM Output clear disable
1705:../STM32F10x_StdPeriph_Lib_V3.5.0/Libraries/STM32F10x_StdPeriph_Driver/src/stm32f10x_tim.c ****   * @retval None
1706:../STM32F10x_StdPeriph_Lib_V3.5.0/Libraries/STM32F10x_StdPeriph_Driver/src/stm32f10x_tim.c ****   */
1707:../STM32F10x_StdPeriph_Lib_V3.5.0/Libraries/STM32F10x_StdPeriph_Driver/src/stm32f10x_tim.c **** void TIM_ClearOC1Ref(TIM_TypeDef* TIMx, uint16_t TIM_OCClear)
1708:../STM32F10x_StdPeriph_Lib_V3.5.0/Libraries/STM32F10x_StdPeriph_Driver/src/stm32f10x_tim.c **** {
 3526              		.loc 1 1708 0
 3527              		.cfi_startproc
 3528              		@ args = 0, pretend = 0, frame = 16
 3529              		@ frame_needed = 1, uses_anonymous_args = 0
 3530              		@ link register save eliminated.
 3531 0000 80B4     		push	{r7}
 3532              	.LCFI135:
 3533              		.cfi_def_cfa_offset 4
 3534              		.cfi_offset 7, -4
 3535 0002 85B0     		sub	sp, sp, #20
 3536              	.LCFI136:
 3537              		.cfi_def_cfa_offset 24
 3538 0004 00AF     		add	r7, sp, #0
 3539              	.LCFI137:
 3540              		.cfi_def_cfa_register 7
 3541 0006 7860     		str	r0, [r7, #4]
 3542 0008 0B46     		mov	r3, r1
 3543 000a 7B80     		strh	r3, [r7, #2]	@ movhi
1709:../STM32F10x_StdPeriph_Lib_V3.5.0/Libraries/STM32F10x_StdPeriph_Driver/src/stm32f10x_tim.c ****   uint16_t tmpccmr1 = 0;
 3544              		.loc 1 1709 0
 3545 000c 4FF00003 		mov	r3, #0
 3546 0010 FB81     		strh	r3, [r7, #14]	@ movhi
1710:../STM32F10x_StdPeriph_Lib_V3.5.0/Libraries/STM32F10x_StdPeriph_Driver/src/stm32f10x_tim.c ****   /* Check the parameters */
1711:../STM32F10x_StdPeriph_Lib_V3.5.0/Libraries/STM32F10x_StdPeriph_Driver/src/stm32f10x_tim.c ****   assert_param(IS_TIM_LIST3_PERIPH(TIMx));
1712:../STM32F10x_StdPeriph_Lib_V3.5.0/Libraries/STM32F10x_StdPeriph_Driver/src/stm32f10x_tim.c ****   assert_param(IS_TIM_OCCLEAR_STATE(TIM_OCClear));
1713:../STM32F10x_StdPeriph_Lib_V3.5.0/Libraries/STM32F10x_StdPeriph_Driver/src/stm32f10x_tim.c **** 
1714:../STM32F10x_StdPeriph_Lib_V3.5.0/Libraries/STM32F10x_StdPeriph_Driver/src/stm32f10x_tim.c ****   tmpccmr1 = TIMx->CCMR1;
 3547              		.loc 1 1714 0
 3548 0012 7B68     		ldr	r3, [r7, #4]
 3549 0014 1B8B     		ldrh	r3, [r3, #24]	@ movhi
 3550 0016 FB81     		strh	r3, [r7, #14]	@ movhi
1715:../STM32F10x_StdPeriph_Lib_V3.5.0/Libraries/STM32F10x_StdPeriph_Driver/src/stm32f10x_tim.c **** 
1716:../STM32F10x_StdPeriph_Lib_V3.5.0/Libraries/STM32F10x_StdPeriph_Driver/src/stm32f10x_tim.c ****   /* Reset the OC1CE Bit */
1717:../STM32F10x_StdPeriph_Lib_V3.5.0/Libraries/STM32F10x_StdPeriph_Driver/src/stm32f10x_tim.c ****   tmpccmr1 &= (uint16_t)~((uint16_t)TIM_CCMR1_OC1CE);
 3551              		.loc 1 1717 0
 3552 0018 FB89     		ldrh	r3, [r7, #14]	@ movhi
 3553 001a 23F08003 		bic	r3, r3, #128
 3554 001e FB81     		strh	r3, [r7, #14]	@ movhi
1718:../STM32F10x_StdPeriph_Lib_V3.5.0/Libraries/STM32F10x_StdPeriph_Driver/src/stm32f10x_tim.c ****   /* Enable or Disable the Output Compare Clear Bit */
1719:../STM32F10x_StdPeriph_Lib_V3.5.0/Libraries/STM32F10x_StdPeriph_Driver/src/stm32f10x_tim.c ****   tmpccmr1 |= TIM_OCClear;
 3555              		.loc 1 1719 0
 3556 0020 FA89     		ldrh	r2, [r7, #14]	@ movhi
 3557 0022 7B88     		ldrh	r3, [r7, #2]	@ movhi
 3558 0024 1343     		orrs	r3, r3, r2
 3559 0026 FB81     		strh	r3, [r7, #14]	@ movhi
1720:../STM32F10x_StdPeriph_Lib_V3.5.0/Libraries/STM32F10x_StdPeriph_Driver/src/stm32f10x_tim.c ****   /* Write to TIMx CCMR1 register */
1721:../STM32F10x_StdPeriph_Lib_V3.5.0/Libraries/STM32F10x_StdPeriph_Driver/src/stm32f10x_tim.c ****   TIMx->CCMR1 = tmpccmr1;
 3560              		.loc 1 1721 0
 3561 0028 7B68     		ldr	r3, [r7, #4]
 3562 002a FA89     		ldrh	r2, [r7, #14]	@ movhi
 3563 002c 1A83     		strh	r2, [r3, #24]	@ movhi
1722:../STM32F10x_StdPeriph_Lib_V3.5.0/Libraries/STM32F10x_StdPeriph_Driver/src/stm32f10x_tim.c **** }
 3564              		.loc 1 1722 0
 3565 002e 07F11407 		add	r7, r7, #20
 3566 0032 BD46     		mov	sp, r7
 3567 0034 80BC     		pop	{r7}
 3568 0036 7047     		bx	lr
 3569              		.cfi_endproc
 3570              	.LFE74:
 3572              		.section	.text.TIM_ClearOC2Ref,"ax",%progbits
 3573              		.align	2
 3574              		.global	TIM_ClearOC2Ref
 3575              		.thumb
 3576              		.thumb_func
 3578              	TIM_ClearOC2Ref:
 3579              	.LFB75:
1723:../STM32F10x_StdPeriph_Lib_V3.5.0/Libraries/STM32F10x_StdPeriph_Driver/src/stm32f10x_tim.c **** 
1724:../STM32F10x_StdPeriph_Lib_V3.5.0/Libraries/STM32F10x_StdPeriph_Driver/src/stm32f10x_tim.c **** /**
1725:../STM32F10x_StdPeriph_Lib_V3.5.0/Libraries/STM32F10x_StdPeriph_Driver/src/stm32f10x_tim.c ****   * @brief  Clears or safeguards the OCREF2 signal on an external event
1726:../STM32F10x_StdPeriph_Lib_V3.5.0/Libraries/STM32F10x_StdPeriph_Driver/src/stm32f10x_tim.c ****   * @param  TIMx: where x can be  1, 2, 3, 4, 5 or 8 to select the TIM peripheral.
1727:../STM32F10x_StdPeriph_Lib_V3.5.0/Libraries/STM32F10x_StdPeriph_Driver/src/stm32f10x_tim.c ****   * @param  TIM_OCClear: new state of the Output Compare Clear Enable Bit.
1728:../STM32F10x_StdPeriph_Lib_V3.5.0/Libraries/STM32F10x_StdPeriph_Driver/src/stm32f10x_tim.c ****   *   This parameter can be one of the following values:
1729:../STM32F10x_StdPeriph_Lib_V3.5.0/Libraries/STM32F10x_StdPeriph_Driver/src/stm32f10x_tim.c ****   *     @arg TIM_OCClear_Enable: TIM Output clear enable
1730:../STM32F10x_StdPeriph_Lib_V3.5.0/Libraries/STM32F10x_StdPeriph_Driver/src/stm32f10x_tim.c ****   *     @arg TIM_OCClear_Disable: TIM Output clear disable
1731:../STM32F10x_StdPeriph_Lib_V3.5.0/Libraries/STM32F10x_StdPeriph_Driver/src/stm32f10x_tim.c ****   * @retval None
1732:../STM32F10x_StdPeriph_Lib_V3.5.0/Libraries/STM32F10x_StdPeriph_Driver/src/stm32f10x_tim.c ****   */
1733:../STM32F10x_StdPeriph_Lib_V3.5.0/Libraries/STM32F10x_StdPeriph_Driver/src/stm32f10x_tim.c **** void TIM_ClearOC2Ref(TIM_TypeDef* TIMx, uint16_t TIM_OCClear)
1734:../STM32F10x_StdPeriph_Lib_V3.5.0/Libraries/STM32F10x_StdPeriph_Driver/src/stm32f10x_tim.c **** {
 3580              		.loc 1 1734 0
 3581              		.cfi_startproc
 3582              		@ args = 0, pretend = 0, frame = 16
 3583              		@ frame_needed = 1, uses_anonymous_args = 0
 3584              		@ link register save eliminated.
 3585 0000 80B4     		push	{r7}
 3586              	.LCFI138:
 3587              		.cfi_def_cfa_offset 4
 3588              		.cfi_offset 7, -4
 3589 0002 85B0     		sub	sp, sp, #20
 3590              	.LCFI139:
 3591              		.cfi_def_cfa_offset 24
 3592 0004 00AF     		add	r7, sp, #0
 3593              	.LCFI140:
 3594              		.cfi_def_cfa_register 7
 3595 0006 7860     		str	r0, [r7, #4]
 3596 0008 0B46     		mov	r3, r1
 3597 000a 7B80     		strh	r3, [r7, #2]	@ movhi
1735:../STM32F10x_StdPeriph_Lib_V3.5.0/Libraries/STM32F10x_StdPeriph_Driver/src/stm32f10x_tim.c ****   uint16_t tmpccmr1 = 0;
 3598              		.loc 1 1735 0
 3599 000c 4FF00003 		mov	r3, #0
 3600 0010 FB81     		strh	r3, [r7, #14]	@ movhi
1736:../STM32F10x_StdPeriph_Lib_V3.5.0/Libraries/STM32F10x_StdPeriph_Driver/src/stm32f10x_tim.c ****   /* Check the parameters */
1737:../STM32F10x_StdPeriph_Lib_V3.5.0/Libraries/STM32F10x_StdPeriph_Driver/src/stm32f10x_tim.c ****   assert_param(IS_TIM_LIST3_PERIPH(TIMx));
1738:../STM32F10x_StdPeriph_Lib_V3.5.0/Libraries/STM32F10x_StdPeriph_Driver/src/stm32f10x_tim.c ****   assert_param(IS_TIM_OCCLEAR_STATE(TIM_OCClear));
1739:../STM32F10x_StdPeriph_Lib_V3.5.0/Libraries/STM32F10x_StdPeriph_Driver/src/stm32f10x_tim.c ****   tmpccmr1 = TIMx->CCMR1;
 3601              		.loc 1 1739 0
 3602 0012 7B68     		ldr	r3, [r7, #4]
 3603 0014 1B8B     		ldrh	r3, [r3, #24]	@ movhi
 3604 0016 FB81     		strh	r3, [r7, #14]	@ movhi
1740:../STM32F10x_StdPeriph_Lib_V3.5.0/Libraries/STM32F10x_StdPeriph_Driver/src/stm32f10x_tim.c ****   /* Reset the OC2CE Bit */
1741:../STM32F10x_StdPeriph_Lib_V3.5.0/Libraries/STM32F10x_StdPeriph_Driver/src/stm32f10x_tim.c ****   tmpccmr1 &= (uint16_t)~((uint16_t)TIM_CCMR1_OC2CE);
 3605              		.loc 1 1741 0
 3606 0018 FB89     		ldrh	r3, [r7, #14]	@ movhi
 3607 001a 4FEA4343 		lsl	r3, r3, #17
 3608 001e 4FEA5343 		lsr	r3, r3, #17
 3609 0022 FB81     		strh	r3, [r7, #14]	@ movhi
1742:../STM32F10x_StdPeriph_Lib_V3.5.0/Libraries/STM32F10x_StdPeriph_Driver/src/stm32f10x_tim.c ****   /* Enable or Disable the Output Compare Clear Bit */
1743:../STM32F10x_StdPeriph_Lib_V3.5.0/Libraries/STM32F10x_StdPeriph_Driver/src/stm32f10x_tim.c ****   tmpccmr1 |= (uint16_t)(TIM_OCClear << 8);
 3610              		.loc 1 1743 0
 3611 0024 7B88     		ldrh	r3, [r7, #2]	@ movhi
 3612 0026 4FEA0323 		lsl	r3, r3, #8
 3613 002a 9AB2     		uxth	r2, r3
 3614 002c FB89     		ldrh	r3, [r7, #14]	@ movhi
 3615 002e 1343     		orrs	r3, r3, r2
 3616 0030 FB81     		strh	r3, [r7, #14]	@ movhi
1744:../STM32F10x_StdPeriph_Lib_V3.5.0/Libraries/STM32F10x_StdPeriph_Driver/src/stm32f10x_tim.c ****   /* Write to TIMx CCMR1 register */
1745:../STM32F10x_StdPeriph_Lib_V3.5.0/Libraries/STM32F10x_StdPeriph_Driver/src/stm32f10x_tim.c ****   TIMx->CCMR1 = tmpccmr1;
 3617              		.loc 1 1745 0
 3618 0032 7B68     		ldr	r3, [r7, #4]
 3619 0034 FA89     		ldrh	r2, [r7, #14]	@ movhi
 3620 0036 1A83     		strh	r2, [r3, #24]	@ movhi
1746:../STM32F10x_StdPeriph_Lib_V3.5.0/Libraries/STM32F10x_StdPeriph_Driver/src/stm32f10x_tim.c **** }
 3621              		.loc 1 1746 0
 3622 0038 07F11407 		add	r7, r7, #20
 3623 003c BD46     		mov	sp, r7
 3624 003e 80BC     		pop	{r7}
 3625 0040 7047     		bx	lr
 3626              		.cfi_endproc
 3627              	.LFE75:
 3629 0042 00BF     		.section	.text.TIM_ClearOC3Ref,"ax",%progbits
 3630              		.align	2
 3631              		.global	TIM_ClearOC3Ref
 3632              		.thumb
 3633              		.thumb_func
 3635              	TIM_ClearOC3Ref:
 3636              	.LFB76:
1747:../STM32F10x_StdPeriph_Lib_V3.5.0/Libraries/STM32F10x_StdPeriph_Driver/src/stm32f10x_tim.c **** 
1748:../STM32F10x_StdPeriph_Lib_V3.5.0/Libraries/STM32F10x_StdPeriph_Driver/src/stm32f10x_tim.c **** /**
1749:../STM32F10x_StdPeriph_Lib_V3.5.0/Libraries/STM32F10x_StdPeriph_Driver/src/stm32f10x_tim.c ****   * @brief  Clears or safeguards the OCREF3 signal on an external event
1750:../STM32F10x_StdPeriph_Lib_V3.5.0/Libraries/STM32F10x_StdPeriph_Driver/src/stm32f10x_tim.c ****   * @param  TIMx: where x can be  1, 2, 3, 4, 5 or 8 to select the TIM peripheral.
1751:../STM32F10x_StdPeriph_Lib_V3.5.0/Libraries/STM32F10x_StdPeriph_Driver/src/stm32f10x_tim.c ****   * @param  TIM_OCClear: new state of the Output Compare Clear Enable Bit.
1752:../STM32F10x_StdPeriph_Lib_V3.5.0/Libraries/STM32F10x_StdPeriph_Driver/src/stm32f10x_tim.c ****   *   This parameter can be one of the following values:
1753:../STM32F10x_StdPeriph_Lib_V3.5.0/Libraries/STM32F10x_StdPeriph_Driver/src/stm32f10x_tim.c ****   *     @arg TIM_OCClear_Enable: TIM Output clear enable
1754:../STM32F10x_StdPeriph_Lib_V3.5.0/Libraries/STM32F10x_StdPeriph_Driver/src/stm32f10x_tim.c ****   *     @arg TIM_OCClear_Disable: TIM Output clear disable
1755:../STM32F10x_StdPeriph_Lib_V3.5.0/Libraries/STM32F10x_StdPeriph_Driver/src/stm32f10x_tim.c ****   * @retval None
1756:../STM32F10x_StdPeriph_Lib_V3.5.0/Libraries/STM32F10x_StdPeriph_Driver/src/stm32f10x_tim.c ****   */
1757:../STM32F10x_StdPeriph_Lib_V3.5.0/Libraries/STM32F10x_StdPeriph_Driver/src/stm32f10x_tim.c **** void TIM_ClearOC3Ref(TIM_TypeDef* TIMx, uint16_t TIM_OCClear)
1758:../STM32F10x_StdPeriph_Lib_V3.5.0/Libraries/STM32F10x_StdPeriph_Driver/src/stm32f10x_tim.c **** {
 3637              		.loc 1 1758 0
 3638              		.cfi_startproc
 3639              		@ args = 0, pretend = 0, frame = 16
 3640              		@ frame_needed = 1, uses_anonymous_args = 0
 3641              		@ link register save eliminated.
 3642 0000 80B4     		push	{r7}
 3643              	.LCFI141:
 3644              		.cfi_def_cfa_offset 4
 3645              		.cfi_offset 7, -4
 3646 0002 85B0     		sub	sp, sp, #20
 3647              	.LCFI142:
 3648              		.cfi_def_cfa_offset 24
 3649 0004 00AF     		add	r7, sp, #0
 3650              	.LCFI143:
 3651              		.cfi_def_cfa_register 7
 3652 0006 7860     		str	r0, [r7, #4]
 3653 0008 0B46     		mov	r3, r1
 3654 000a 7B80     		strh	r3, [r7, #2]	@ movhi
1759:../STM32F10x_StdPeriph_Lib_V3.5.0/Libraries/STM32F10x_StdPeriph_Driver/src/stm32f10x_tim.c ****   uint16_t tmpccmr2 = 0;
 3655              		.loc 1 1759 0
 3656 000c 4FF00003 		mov	r3, #0
 3657 0010 FB81     		strh	r3, [r7, #14]	@ movhi
1760:../STM32F10x_StdPeriph_Lib_V3.5.0/Libraries/STM32F10x_StdPeriph_Driver/src/stm32f10x_tim.c ****   /* Check the parameters */
1761:../STM32F10x_StdPeriph_Lib_V3.5.0/Libraries/STM32F10x_StdPeriph_Driver/src/stm32f10x_tim.c ****   assert_param(IS_TIM_LIST3_PERIPH(TIMx));
1762:../STM32F10x_StdPeriph_Lib_V3.5.0/Libraries/STM32F10x_StdPeriph_Driver/src/stm32f10x_tim.c ****   assert_param(IS_TIM_OCCLEAR_STATE(TIM_OCClear));
1763:../STM32F10x_StdPeriph_Lib_V3.5.0/Libraries/STM32F10x_StdPeriph_Driver/src/stm32f10x_tim.c ****   tmpccmr2 = TIMx->CCMR2;
 3658              		.loc 1 1763 0
 3659 0012 7B68     		ldr	r3, [r7, #4]
 3660 0014 9B8B     		ldrh	r3, [r3, #28]	@ movhi
 3661 0016 FB81     		strh	r3, [r7, #14]	@ movhi
1764:../STM32F10x_StdPeriph_Lib_V3.5.0/Libraries/STM32F10x_StdPeriph_Driver/src/stm32f10x_tim.c ****   /* Reset the OC3CE Bit */
1765:../STM32F10x_StdPeriph_Lib_V3.5.0/Libraries/STM32F10x_StdPeriph_Driver/src/stm32f10x_tim.c ****   tmpccmr2 &= (uint16_t)~((uint16_t)TIM_CCMR2_OC3CE);
 3662              		.loc 1 1765 0
 3663 0018 FB89     		ldrh	r3, [r7, #14]	@ movhi
 3664 001a 23F08003 		bic	r3, r3, #128
 3665 001e FB81     		strh	r3, [r7, #14]	@ movhi
1766:../STM32F10x_StdPeriph_Lib_V3.5.0/Libraries/STM32F10x_StdPeriph_Driver/src/stm32f10x_tim.c ****   /* Enable or Disable the Output Compare Clear Bit */
1767:../STM32F10x_StdPeriph_Lib_V3.5.0/Libraries/STM32F10x_StdPeriph_Driver/src/stm32f10x_tim.c ****   tmpccmr2 |= TIM_OCClear;
 3666              		.loc 1 1767 0
 3667 0020 FA89     		ldrh	r2, [r7, #14]	@ movhi
 3668 0022 7B88     		ldrh	r3, [r7, #2]	@ movhi
 3669 0024 1343     		orrs	r3, r3, r2
 3670 0026 FB81     		strh	r3, [r7, #14]	@ movhi
1768:../STM32F10x_StdPeriph_Lib_V3.5.0/Libraries/STM32F10x_StdPeriph_Driver/src/stm32f10x_tim.c ****   /* Write to TIMx CCMR2 register */
1769:../STM32F10x_StdPeriph_Lib_V3.5.0/Libraries/STM32F10x_StdPeriph_Driver/src/stm32f10x_tim.c ****   TIMx->CCMR2 = tmpccmr2;
 3671              		.loc 1 1769 0
 3672 0028 7B68     		ldr	r3, [r7, #4]
 3673 002a FA89     		ldrh	r2, [r7, #14]	@ movhi
 3674 002c 9A83     		strh	r2, [r3, #28]	@ movhi
1770:../STM32F10x_StdPeriph_Lib_V3.5.0/Libraries/STM32F10x_StdPeriph_Driver/src/stm32f10x_tim.c **** }
 3675              		.loc 1 1770 0
 3676 002e 07F11407 		add	r7, r7, #20
 3677 0032 BD46     		mov	sp, r7
 3678 0034 80BC     		pop	{r7}
 3679 0036 7047     		bx	lr
 3680              		.cfi_endproc
 3681              	.LFE76:
 3683              		.section	.text.TIM_ClearOC4Ref,"ax",%progbits
 3684              		.align	2
 3685              		.global	TIM_ClearOC4Ref
 3686              		.thumb
 3687              		.thumb_func
 3689              	TIM_ClearOC4Ref:
 3690              	.LFB77:
1771:../STM32F10x_StdPeriph_Lib_V3.5.0/Libraries/STM32F10x_StdPeriph_Driver/src/stm32f10x_tim.c **** 
1772:../STM32F10x_StdPeriph_Lib_V3.5.0/Libraries/STM32F10x_StdPeriph_Driver/src/stm32f10x_tim.c **** /**
1773:../STM32F10x_StdPeriph_Lib_V3.5.0/Libraries/STM32F10x_StdPeriph_Driver/src/stm32f10x_tim.c ****   * @brief  Clears or safeguards the OCREF4 signal on an external event
1774:../STM32F10x_StdPeriph_Lib_V3.5.0/Libraries/STM32F10x_StdPeriph_Driver/src/stm32f10x_tim.c ****   * @param  TIMx: where x can be  1, 2, 3, 4, 5 or 8 to select the TIM peripheral.
1775:../STM32F10x_StdPeriph_Lib_V3.5.0/Libraries/STM32F10x_StdPeriph_Driver/src/stm32f10x_tim.c ****   * @param  TIM_OCClear: new state of the Output Compare Clear Enable Bit.
1776:../STM32F10x_StdPeriph_Lib_V3.5.0/Libraries/STM32F10x_StdPeriph_Driver/src/stm32f10x_tim.c ****   *   This parameter can be one of the following values:
1777:../STM32F10x_StdPeriph_Lib_V3.5.0/Libraries/STM32F10x_StdPeriph_Driver/src/stm32f10x_tim.c ****   *     @arg TIM_OCClear_Enable: TIM Output clear enable
1778:../STM32F10x_StdPeriph_Lib_V3.5.0/Libraries/STM32F10x_StdPeriph_Driver/src/stm32f10x_tim.c ****   *     @arg TIM_OCClear_Disable: TIM Output clear disable
1779:../STM32F10x_StdPeriph_Lib_V3.5.0/Libraries/STM32F10x_StdPeriph_Driver/src/stm32f10x_tim.c ****   * @retval None
1780:../STM32F10x_StdPeriph_Lib_V3.5.0/Libraries/STM32F10x_StdPeriph_Driver/src/stm32f10x_tim.c ****   */
1781:../STM32F10x_StdPeriph_Lib_V3.5.0/Libraries/STM32F10x_StdPeriph_Driver/src/stm32f10x_tim.c **** void TIM_ClearOC4Ref(TIM_TypeDef* TIMx, uint16_t TIM_OCClear)
1782:../STM32F10x_StdPeriph_Lib_V3.5.0/Libraries/STM32F10x_StdPeriph_Driver/src/stm32f10x_tim.c **** {
 3691              		.loc 1 1782 0
 3692              		.cfi_startproc
 3693              		@ args = 0, pretend = 0, frame = 16
 3694              		@ frame_needed = 1, uses_anonymous_args = 0
 3695              		@ link register save eliminated.
 3696 0000 80B4     		push	{r7}
 3697              	.LCFI144:
 3698              		.cfi_def_cfa_offset 4
 3699              		.cfi_offset 7, -4
 3700 0002 85B0     		sub	sp, sp, #20
 3701              	.LCFI145:
 3702              		.cfi_def_cfa_offset 24
 3703 0004 00AF     		add	r7, sp, #0
 3704              	.LCFI146:
 3705              		.cfi_def_cfa_register 7
 3706 0006 7860     		str	r0, [r7, #4]
 3707 0008 0B46     		mov	r3, r1
 3708 000a 7B80     		strh	r3, [r7, #2]	@ movhi
1783:../STM32F10x_StdPeriph_Lib_V3.5.0/Libraries/STM32F10x_StdPeriph_Driver/src/stm32f10x_tim.c ****   uint16_t tmpccmr2 = 0;
 3709              		.loc 1 1783 0
 3710 000c 4FF00003 		mov	r3, #0
 3711 0010 FB81     		strh	r3, [r7, #14]	@ movhi
1784:../STM32F10x_StdPeriph_Lib_V3.5.0/Libraries/STM32F10x_StdPeriph_Driver/src/stm32f10x_tim.c ****   /* Check the parameters */
1785:../STM32F10x_StdPeriph_Lib_V3.5.0/Libraries/STM32F10x_StdPeriph_Driver/src/stm32f10x_tim.c ****   assert_param(IS_TIM_LIST3_PERIPH(TIMx));
1786:../STM32F10x_StdPeriph_Lib_V3.5.0/Libraries/STM32F10x_StdPeriph_Driver/src/stm32f10x_tim.c ****   assert_param(IS_TIM_OCCLEAR_STATE(TIM_OCClear));
1787:../STM32F10x_StdPeriph_Lib_V3.5.0/Libraries/STM32F10x_StdPeriph_Driver/src/stm32f10x_tim.c ****   tmpccmr2 = TIMx->CCMR2;
 3712              		.loc 1 1787 0
 3713 0012 7B68     		ldr	r3, [r7, #4]
 3714 0014 9B8B     		ldrh	r3, [r3, #28]	@ movhi
 3715 0016 FB81     		strh	r3, [r7, #14]	@ movhi
1788:../STM32F10x_StdPeriph_Lib_V3.5.0/Libraries/STM32F10x_StdPeriph_Driver/src/stm32f10x_tim.c ****   /* Reset the OC4CE Bit */
1789:../STM32F10x_StdPeriph_Lib_V3.5.0/Libraries/STM32F10x_StdPeriph_Driver/src/stm32f10x_tim.c ****   tmpccmr2 &= (uint16_t)~((uint16_t)TIM_CCMR2_OC4CE);
 3716              		.loc 1 1789 0
 3717 0018 FB89     		ldrh	r3, [r7, #14]	@ movhi
 3718 001a 4FEA4343 		lsl	r3, r3, #17
 3719 001e 4FEA5343 		lsr	r3, r3, #17
 3720 0022 FB81     		strh	r3, [r7, #14]	@ movhi
1790:../STM32F10x_StdPeriph_Lib_V3.5.0/Libraries/STM32F10x_StdPeriph_Driver/src/stm32f10x_tim.c ****   /* Enable or Disable the Output Compare Clear Bit */
1791:../STM32F10x_StdPeriph_Lib_V3.5.0/Libraries/STM32F10x_StdPeriph_Driver/src/stm32f10x_tim.c ****   tmpccmr2 |= (uint16_t)(TIM_OCClear << 8);
 3721              		.loc 1 1791 0
 3722 0024 7B88     		ldrh	r3, [r7, #2]	@ movhi
 3723 0026 4FEA0323 		lsl	r3, r3, #8
 3724 002a 9AB2     		uxth	r2, r3
 3725 002c FB89     		ldrh	r3, [r7, #14]	@ movhi
 3726 002e 1343     		orrs	r3, r3, r2
 3727 0030 FB81     		strh	r3, [r7, #14]	@ movhi
1792:../STM32F10x_StdPeriph_Lib_V3.5.0/Libraries/STM32F10x_StdPeriph_Driver/src/stm32f10x_tim.c ****   /* Write to TIMx CCMR2 register */
1793:../STM32F10x_StdPeriph_Lib_V3.5.0/Libraries/STM32F10x_StdPeriph_Driver/src/stm32f10x_tim.c ****   TIMx->CCMR2 = tmpccmr2;
 3728              		.loc 1 1793 0
 3729 0032 7B68     		ldr	r3, [r7, #4]
 3730 0034 FA89     		ldrh	r2, [r7, #14]	@ movhi
 3731 0036 9A83     		strh	r2, [r3, #28]	@ movhi
1794:../STM32F10x_StdPeriph_Lib_V3.5.0/Libraries/STM32F10x_StdPeriph_Driver/src/stm32f10x_tim.c **** }
 3732              		.loc 1 1794 0
 3733 0038 07F11407 		add	r7, r7, #20
 3734 003c BD46     		mov	sp, r7
 3735 003e 80BC     		pop	{r7}
 3736 0040 7047     		bx	lr
 3737              		.cfi_endproc
 3738              	.LFE77:
 3740 0042 00BF     		.section	.text.TIM_OC1PolarityConfig,"ax",%progbits
 3741              		.align	2
 3742              		.global	TIM_OC1PolarityConfig
 3743              		.thumb
 3744              		.thumb_func
 3746              	TIM_OC1PolarityConfig:
 3747              	.LFB78:
1795:../STM32F10x_StdPeriph_Lib_V3.5.0/Libraries/STM32F10x_StdPeriph_Driver/src/stm32f10x_tim.c **** 
1796:../STM32F10x_StdPeriph_Lib_V3.5.0/Libraries/STM32F10x_StdPeriph_Driver/src/stm32f10x_tim.c **** /**
1797:../STM32F10x_StdPeriph_Lib_V3.5.0/Libraries/STM32F10x_StdPeriph_Driver/src/stm32f10x_tim.c ****   * @brief  Configures the TIMx channel 1 polarity.
1798:../STM32F10x_StdPeriph_Lib_V3.5.0/Libraries/STM32F10x_StdPeriph_Driver/src/stm32f10x_tim.c ****   * @param  TIMx: where x can be 1 to 17 except 6 and 7 to select the TIM peripheral.
1799:../STM32F10x_StdPeriph_Lib_V3.5.0/Libraries/STM32F10x_StdPeriph_Driver/src/stm32f10x_tim.c ****   * @param  TIM_OCPolarity: specifies the OC1 Polarity
1800:../STM32F10x_StdPeriph_Lib_V3.5.0/Libraries/STM32F10x_StdPeriph_Driver/src/stm32f10x_tim.c ****   *   This parameter can be one of the following values:
1801:../STM32F10x_StdPeriph_Lib_V3.5.0/Libraries/STM32F10x_StdPeriph_Driver/src/stm32f10x_tim.c ****   *     @arg TIM_OCPolarity_High: Output Compare active high
1802:../STM32F10x_StdPeriph_Lib_V3.5.0/Libraries/STM32F10x_StdPeriph_Driver/src/stm32f10x_tim.c ****   *     @arg TIM_OCPolarity_Low: Output Compare active low
1803:../STM32F10x_StdPeriph_Lib_V3.5.0/Libraries/STM32F10x_StdPeriph_Driver/src/stm32f10x_tim.c ****   * @retval None
1804:../STM32F10x_StdPeriph_Lib_V3.5.0/Libraries/STM32F10x_StdPeriph_Driver/src/stm32f10x_tim.c ****   */
1805:../STM32F10x_StdPeriph_Lib_V3.5.0/Libraries/STM32F10x_StdPeriph_Driver/src/stm32f10x_tim.c **** void TIM_OC1PolarityConfig(TIM_TypeDef* TIMx, uint16_t TIM_OCPolarity)
1806:../STM32F10x_StdPeriph_Lib_V3.5.0/Libraries/STM32F10x_StdPeriph_Driver/src/stm32f10x_tim.c **** {
 3748              		.loc 1 1806 0
 3749              		.cfi_startproc
 3750              		@ args = 0, pretend = 0, frame = 16
 3751              		@ frame_needed = 1, uses_anonymous_args = 0
 3752              		@ link register save eliminated.
 3753 0000 80B4     		push	{r7}
 3754              	.LCFI147:
 3755              		.cfi_def_cfa_offset 4
 3756              		.cfi_offset 7, -4
 3757 0002 85B0     		sub	sp, sp, #20
 3758              	.LCFI148:
 3759              		.cfi_def_cfa_offset 24
 3760 0004 00AF     		add	r7, sp, #0
 3761              	.LCFI149:
 3762              		.cfi_def_cfa_register 7
 3763 0006 7860     		str	r0, [r7, #4]
 3764 0008 0B46     		mov	r3, r1
 3765 000a 7B80     		strh	r3, [r7, #2]	@ movhi
1807:../STM32F10x_StdPeriph_Lib_V3.5.0/Libraries/STM32F10x_StdPeriph_Driver/src/stm32f10x_tim.c ****   uint16_t tmpccer = 0;
 3766              		.loc 1 1807 0
 3767 000c 4FF00003 		mov	r3, #0
 3768 0010 FB81     		strh	r3, [r7, #14]	@ movhi
1808:../STM32F10x_StdPeriph_Lib_V3.5.0/Libraries/STM32F10x_StdPeriph_Driver/src/stm32f10x_tim.c ****   /* Check the parameters */
1809:../STM32F10x_StdPeriph_Lib_V3.5.0/Libraries/STM32F10x_StdPeriph_Driver/src/stm32f10x_tim.c ****   assert_param(IS_TIM_LIST8_PERIPH(TIMx));
1810:../STM32F10x_StdPeriph_Lib_V3.5.0/Libraries/STM32F10x_StdPeriph_Driver/src/stm32f10x_tim.c ****   assert_param(IS_TIM_OC_POLARITY(TIM_OCPolarity));
1811:../STM32F10x_StdPeriph_Lib_V3.5.0/Libraries/STM32F10x_StdPeriph_Driver/src/stm32f10x_tim.c ****   tmpccer = TIMx->CCER;
 3769              		.loc 1 1811 0
 3770 0012 7B68     		ldr	r3, [r7, #4]
 3771 0014 1B8C     		ldrh	r3, [r3, #32]	@ movhi
 3772 0016 FB81     		strh	r3, [r7, #14]	@ movhi
1812:../STM32F10x_StdPeriph_Lib_V3.5.0/Libraries/STM32F10x_StdPeriph_Driver/src/stm32f10x_tim.c ****   /* Set or Reset the CC1P Bit */
1813:../STM32F10x_StdPeriph_Lib_V3.5.0/Libraries/STM32F10x_StdPeriph_Driver/src/stm32f10x_tim.c ****   tmpccer &= (uint16_t)~((uint16_t)TIM_CCER_CC1P);
 3773              		.loc 1 1813 0
 3774 0018 FB89     		ldrh	r3, [r7, #14]	@ movhi
 3775 001a 23F00203 		bic	r3, r3, #2
 3776 001e FB81     		strh	r3, [r7, #14]	@ movhi
1814:../STM32F10x_StdPeriph_Lib_V3.5.0/Libraries/STM32F10x_StdPeriph_Driver/src/stm32f10x_tim.c ****   tmpccer |= TIM_OCPolarity;
 3777              		.loc 1 1814 0
 3778 0020 FA89     		ldrh	r2, [r7, #14]	@ movhi
 3779 0022 7B88     		ldrh	r3, [r7, #2]	@ movhi
 3780 0024 1343     		orrs	r3, r3, r2
 3781 0026 FB81     		strh	r3, [r7, #14]	@ movhi
1815:../STM32F10x_StdPeriph_Lib_V3.5.0/Libraries/STM32F10x_StdPeriph_Driver/src/stm32f10x_tim.c ****   /* Write to TIMx CCER register */
1816:../STM32F10x_StdPeriph_Lib_V3.5.0/Libraries/STM32F10x_StdPeriph_Driver/src/stm32f10x_tim.c ****   TIMx->CCER = tmpccer;
 3782              		.loc 1 1816 0
 3783 0028 7B68     		ldr	r3, [r7, #4]
 3784 002a FA89     		ldrh	r2, [r7, #14]	@ movhi
 3785 002c 1A84     		strh	r2, [r3, #32]	@ movhi
1817:../STM32F10x_StdPeriph_Lib_V3.5.0/Libraries/STM32F10x_StdPeriph_Driver/src/stm32f10x_tim.c **** }
 3786              		.loc 1 1817 0
 3787 002e 07F11407 		add	r7, r7, #20
 3788 0032 BD46     		mov	sp, r7
 3789 0034 80BC     		pop	{r7}
 3790 0036 7047     		bx	lr
 3791              		.cfi_endproc
 3792              	.LFE78:
 3794              		.section	.text.TIM_OC1NPolarityConfig,"ax",%progbits
 3795              		.align	2
 3796              		.global	TIM_OC1NPolarityConfig
 3797              		.thumb
 3798              		.thumb_func
 3800              	TIM_OC1NPolarityConfig:
 3801              	.LFB79:
1818:../STM32F10x_StdPeriph_Lib_V3.5.0/Libraries/STM32F10x_StdPeriph_Driver/src/stm32f10x_tim.c **** 
1819:../STM32F10x_StdPeriph_Lib_V3.5.0/Libraries/STM32F10x_StdPeriph_Driver/src/stm32f10x_tim.c **** /**
1820:../STM32F10x_StdPeriph_Lib_V3.5.0/Libraries/STM32F10x_StdPeriph_Driver/src/stm32f10x_tim.c ****   * @brief  Configures the TIMx Channel 1N polarity.
1821:../STM32F10x_StdPeriph_Lib_V3.5.0/Libraries/STM32F10x_StdPeriph_Driver/src/stm32f10x_tim.c ****   * @param  TIMx: where x can be 1, 8, 15, 16 or 17 to select the TIM peripheral.
1822:../STM32F10x_StdPeriph_Lib_V3.5.0/Libraries/STM32F10x_StdPeriph_Driver/src/stm32f10x_tim.c ****   * @param  TIM_OCNPolarity: specifies the OC1N Polarity
1823:../STM32F10x_StdPeriph_Lib_V3.5.0/Libraries/STM32F10x_StdPeriph_Driver/src/stm32f10x_tim.c ****   *   This parameter can be one of the following values:
1824:../STM32F10x_StdPeriph_Lib_V3.5.0/Libraries/STM32F10x_StdPeriph_Driver/src/stm32f10x_tim.c ****   *     @arg TIM_OCNPolarity_High: Output Compare active high
1825:../STM32F10x_StdPeriph_Lib_V3.5.0/Libraries/STM32F10x_StdPeriph_Driver/src/stm32f10x_tim.c ****   *     @arg TIM_OCNPolarity_Low: Output Compare active low
1826:../STM32F10x_StdPeriph_Lib_V3.5.0/Libraries/STM32F10x_StdPeriph_Driver/src/stm32f10x_tim.c ****   * @retval None
1827:../STM32F10x_StdPeriph_Lib_V3.5.0/Libraries/STM32F10x_StdPeriph_Driver/src/stm32f10x_tim.c ****   */
1828:../STM32F10x_StdPeriph_Lib_V3.5.0/Libraries/STM32F10x_StdPeriph_Driver/src/stm32f10x_tim.c **** void TIM_OC1NPolarityConfig(TIM_TypeDef* TIMx, uint16_t TIM_OCNPolarity)
1829:../STM32F10x_StdPeriph_Lib_V3.5.0/Libraries/STM32F10x_StdPeriph_Driver/src/stm32f10x_tim.c **** {
 3802              		.loc 1 1829 0
 3803              		.cfi_startproc
 3804              		@ args = 0, pretend = 0, frame = 16
 3805              		@ frame_needed = 1, uses_anonymous_args = 0
 3806              		@ link register save eliminated.
 3807 0000 80B4     		push	{r7}
 3808              	.LCFI150:
 3809              		.cfi_def_cfa_offset 4
 3810              		.cfi_offset 7, -4
 3811 0002 85B0     		sub	sp, sp, #20
 3812              	.LCFI151:
 3813              		.cfi_def_cfa_offset 24
 3814 0004 00AF     		add	r7, sp, #0
 3815              	.LCFI152:
 3816              		.cfi_def_cfa_register 7
 3817 0006 7860     		str	r0, [r7, #4]
 3818 0008 0B46     		mov	r3, r1
 3819 000a 7B80     		strh	r3, [r7, #2]	@ movhi
1830:../STM32F10x_StdPeriph_Lib_V3.5.0/Libraries/STM32F10x_StdPeriph_Driver/src/stm32f10x_tim.c ****   uint16_t tmpccer = 0;
 3820              		.loc 1 1830 0
 3821 000c 4FF00003 		mov	r3, #0
 3822 0010 FB81     		strh	r3, [r7, #14]	@ movhi
1831:../STM32F10x_StdPeriph_Lib_V3.5.0/Libraries/STM32F10x_StdPeriph_Driver/src/stm32f10x_tim.c ****   /* Check the parameters */
1832:../STM32F10x_StdPeriph_Lib_V3.5.0/Libraries/STM32F10x_StdPeriph_Driver/src/stm32f10x_tim.c ****   assert_param(IS_TIM_LIST2_PERIPH(TIMx));
1833:../STM32F10x_StdPeriph_Lib_V3.5.0/Libraries/STM32F10x_StdPeriph_Driver/src/stm32f10x_tim.c ****   assert_param(IS_TIM_OCN_POLARITY(TIM_OCNPolarity));
1834:../STM32F10x_StdPeriph_Lib_V3.5.0/Libraries/STM32F10x_StdPeriph_Driver/src/stm32f10x_tim.c ****    
1835:../STM32F10x_StdPeriph_Lib_V3.5.0/Libraries/STM32F10x_StdPeriph_Driver/src/stm32f10x_tim.c ****   tmpccer = TIMx->CCER;
 3823              		.loc 1 1835 0
 3824 0012 7B68     		ldr	r3, [r7, #4]
 3825 0014 1B8C     		ldrh	r3, [r3, #32]	@ movhi
 3826 0016 FB81     		strh	r3, [r7, #14]	@ movhi
1836:../STM32F10x_StdPeriph_Lib_V3.5.0/Libraries/STM32F10x_StdPeriph_Driver/src/stm32f10x_tim.c ****   /* Set or Reset the CC1NP Bit */
1837:../STM32F10x_StdPeriph_Lib_V3.5.0/Libraries/STM32F10x_StdPeriph_Driver/src/stm32f10x_tim.c ****   tmpccer &= (uint16_t)~((uint16_t)TIM_CCER_CC1NP);
 3827              		.loc 1 1837 0
 3828 0018 FB89     		ldrh	r3, [r7, #14]	@ movhi
 3829 001a 23F00803 		bic	r3, r3, #8
 3830 001e FB81     		strh	r3, [r7, #14]	@ movhi
1838:../STM32F10x_StdPeriph_Lib_V3.5.0/Libraries/STM32F10x_StdPeriph_Driver/src/stm32f10x_tim.c ****   tmpccer |= TIM_OCNPolarity;
 3831              		.loc 1 1838 0
 3832 0020 FA89     		ldrh	r2, [r7, #14]	@ movhi
 3833 0022 7B88     		ldrh	r3, [r7, #2]	@ movhi
 3834 0024 1343     		orrs	r3, r3, r2
 3835 0026 FB81     		strh	r3, [r7, #14]	@ movhi
1839:../STM32F10x_StdPeriph_Lib_V3.5.0/Libraries/STM32F10x_StdPeriph_Driver/src/stm32f10x_tim.c ****   /* Write to TIMx CCER register */
1840:../STM32F10x_StdPeriph_Lib_V3.5.0/Libraries/STM32F10x_StdPeriph_Driver/src/stm32f10x_tim.c ****   TIMx->CCER = tmpccer;
 3836              		.loc 1 1840 0
 3837 0028 7B68     		ldr	r3, [r7, #4]
 3838 002a FA89     		ldrh	r2, [r7, #14]	@ movhi
 3839 002c 1A84     		strh	r2, [r3, #32]	@ movhi
1841:../STM32F10x_StdPeriph_Lib_V3.5.0/Libraries/STM32F10x_StdPeriph_Driver/src/stm32f10x_tim.c **** }
 3840              		.loc 1 1841 0
 3841 002e 07F11407 		add	r7, r7, #20
 3842 0032 BD46     		mov	sp, r7
 3843 0034 80BC     		pop	{r7}
 3844 0036 7047     		bx	lr
 3845              		.cfi_endproc
 3846              	.LFE79:
 3848              		.section	.text.TIM_OC2PolarityConfig,"ax",%progbits
 3849              		.align	2
 3850              		.global	TIM_OC2PolarityConfig
 3851              		.thumb
 3852              		.thumb_func
 3854              	TIM_OC2PolarityConfig:
 3855              	.LFB80:
1842:../STM32F10x_StdPeriph_Lib_V3.5.0/Libraries/STM32F10x_StdPeriph_Driver/src/stm32f10x_tim.c **** 
1843:../STM32F10x_StdPeriph_Lib_V3.5.0/Libraries/STM32F10x_StdPeriph_Driver/src/stm32f10x_tim.c **** /**
1844:../STM32F10x_StdPeriph_Lib_V3.5.0/Libraries/STM32F10x_StdPeriph_Driver/src/stm32f10x_tim.c ****   * @brief  Configures the TIMx channel 2 polarity.
1845:../STM32F10x_StdPeriph_Lib_V3.5.0/Libraries/STM32F10x_StdPeriph_Driver/src/stm32f10x_tim.c ****   * @param  TIMx: where x can be 1, 2, 3, 4, 5, 8, 9, 12 or 15 to select the TIM peripheral.
1846:../STM32F10x_StdPeriph_Lib_V3.5.0/Libraries/STM32F10x_StdPeriph_Driver/src/stm32f10x_tim.c ****   * @param  TIM_OCPolarity: specifies the OC2 Polarity
1847:../STM32F10x_StdPeriph_Lib_V3.5.0/Libraries/STM32F10x_StdPeriph_Driver/src/stm32f10x_tim.c ****   *   This parameter can be one of the following values:
1848:../STM32F10x_StdPeriph_Lib_V3.5.0/Libraries/STM32F10x_StdPeriph_Driver/src/stm32f10x_tim.c ****   *     @arg TIM_OCPolarity_High: Output Compare active high
1849:../STM32F10x_StdPeriph_Lib_V3.5.0/Libraries/STM32F10x_StdPeriph_Driver/src/stm32f10x_tim.c ****   *     @arg TIM_OCPolarity_Low: Output Compare active low
1850:../STM32F10x_StdPeriph_Lib_V3.5.0/Libraries/STM32F10x_StdPeriph_Driver/src/stm32f10x_tim.c ****   * @retval None
1851:../STM32F10x_StdPeriph_Lib_V3.5.0/Libraries/STM32F10x_StdPeriph_Driver/src/stm32f10x_tim.c ****   */
1852:../STM32F10x_StdPeriph_Lib_V3.5.0/Libraries/STM32F10x_StdPeriph_Driver/src/stm32f10x_tim.c **** void TIM_OC2PolarityConfig(TIM_TypeDef* TIMx, uint16_t TIM_OCPolarity)
1853:../STM32F10x_StdPeriph_Lib_V3.5.0/Libraries/STM32F10x_StdPeriph_Driver/src/stm32f10x_tim.c **** {
 3856              		.loc 1 1853 0
 3857              		.cfi_startproc
 3858              		@ args = 0, pretend = 0, frame = 16
 3859              		@ frame_needed = 1, uses_anonymous_args = 0
 3860              		@ link register save eliminated.
 3861 0000 80B4     		push	{r7}
 3862              	.LCFI153:
 3863              		.cfi_def_cfa_offset 4
 3864              		.cfi_offset 7, -4
 3865 0002 85B0     		sub	sp, sp, #20
 3866              	.LCFI154:
 3867              		.cfi_def_cfa_offset 24
 3868 0004 00AF     		add	r7, sp, #0
 3869              	.LCFI155:
 3870              		.cfi_def_cfa_register 7
 3871 0006 7860     		str	r0, [r7, #4]
 3872 0008 0B46     		mov	r3, r1
 3873 000a 7B80     		strh	r3, [r7, #2]	@ movhi
1854:../STM32F10x_StdPeriph_Lib_V3.5.0/Libraries/STM32F10x_StdPeriph_Driver/src/stm32f10x_tim.c ****   uint16_t tmpccer = 0;
 3874              		.loc 1 1854 0
 3875 000c 4FF00003 		mov	r3, #0
 3876 0010 FB81     		strh	r3, [r7, #14]	@ movhi
1855:../STM32F10x_StdPeriph_Lib_V3.5.0/Libraries/STM32F10x_StdPeriph_Driver/src/stm32f10x_tim.c ****   /* Check the parameters */
1856:../STM32F10x_StdPeriph_Lib_V3.5.0/Libraries/STM32F10x_StdPeriph_Driver/src/stm32f10x_tim.c ****   assert_param(IS_TIM_LIST6_PERIPH(TIMx));
1857:../STM32F10x_StdPeriph_Lib_V3.5.0/Libraries/STM32F10x_StdPeriph_Driver/src/stm32f10x_tim.c ****   assert_param(IS_TIM_OC_POLARITY(TIM_OCPolarity));
1858:../STM32F10x_StdPeriph_Lib_V3.5.0/Libraries/STM32F10x_StdPeriph_Driver/src/stm32f10x_tim.c ****   tmpccer = TIMx->CCER;
 3877              		.loc 1 1858 0
 3878 0012 7B68     		ldr	r3, [r7, #4]
 3879 0014 1B8C     		ldrh	r3, [r3, #32]	@ movhi
 3880 0016 FB81     		strh	r3, [r7, #14]	@ movhi
1859:../STM32F10x_StdPeriph_Lib_V3.5.0/Libraries/STM32F10x_StdPeriph_Driver/src/stm32f10x_tim.c ****   /* Set or Reset the CC2P Bit */
1860:../STM32F10x_StdPeriph_Lib_V3.5.0/Libraries/STM32F10x_StdPeriph_Driver/src/stm32f10x_tim.c ****   tmpccer &= (uint16_t)~((uint16_t)TIM_CCER_CC2P);
 3881              		.loc 1 1860 0
 3882 0018 FB89     		ldrh	r3, [r7, #14]	@ movhi
 3883 001a 23F02003 		bic	r3, r3, #32
 3884 001e FB81     		strh	r3, [r7, #14]	@ movhi
1861:../STM32F10x_StdPeriph_Lib_V3.5.0/Libraries/STM32F10x_StdPeriph_Driver/src/stm32f10x_tim.c ****   tmpccer |= (uint16_t)(TIM_OCPolarity << 4);
 3885              		.loc 1 1861 0
 3886 0020 7B88     		ldrh	r3, [r7, #2]	@ movhi
 3887 0022 4FEA0313 		lsl	r3, r3, #4
 3888 0026 9AB2     		uxth	r2, r3
 3889 0028 FB89     		ldrh	r3, [r7, #14]	@ movhi
 3890 002a 1343     		orrs	r3, r3, r2
 3891 002c FB81     		strh	r3, [r7, #14]	@ movhi
1862:../STM32F10x_StdPeriph_Lib_V3.5.0/Libraries/STM32F10x_StdPeriph_Driver/src/stm32f10x_tim.c ****   /* Write to TIMx CCER register */
1863:../STM32F10x_StdPeriph_Lib_V3.5.0/Libraries/STM32F10x_StdPeriph_Driver/src/stm32f10x_tim.c ****   TIMx->CCER = tmpccer;
 3892              		.loc 1 1863 0
 3893 002e 7B68     		ldr	r3, [r7, #4]
 3894 0030 FA89     		ldrh	r2, [r7, #14]	@ movhi
 3895 0032 1A84     		strh	r2, [r3, #32]	@ movhi
1864:../STM32F10x_StdPeriph_Lib_V3.5.0/Libraries/STM32F10x_StdPeriph_Driver/src/stm32f10x_tim.c **** }
 3896              		.loc 1 1864 0
 3897 0034 07F11407 		add	r7, r7, #20
 3898 0038 BD46     		mov	sp, r7
 3899 003a 80BC     		pop	{r7}
 3900 003c 7047     		bx	lr
 3901              		.cfi_endproc
 3902              	.LFE80:
 3904 003e 00BF     		.section	.text.TIM_OC2NPolarityConfig,"ax",%progbits
 3905              		.align	2
 3906              		.global	TIM_OC2NPolarityConfig
 3907              		.thumb
 3908              		.thumb_func
 3910              	TIM_OC2NPolarityConfig:
 3911              	.LFB81:
1865:../STM32F10x_StdPeriph_Lib_V3.5.0/Libraries/STM32F10x_StdPeriph_Driver/src/stm32f10x_tim.c **** 
1866:../STM32F10x_StdPeriph_Lib_V3.5.0/Libraries/STM32F10x_StdPeriph_Driver/src/stm32f10x_tim.c **** /**
1867:../STM32F10x_StdPeriph_Lib_V3.5.0/Libraries/STM32F10x_StdPeriph_Driver/src/stm32f10x_tim.c ****   * @brief  Configures the TIMx Channel 2N polarity.
1868:../STM32F10x_StdPeriph_Lib_V3.5.0/Libraries/STM32F10x_StdPeriph_Driver/src/stm32f10x_tim.c ****   * @param  TIMx: where x can be 1 or 8 to select the TIM peripheral.
1869:../STM32F10x_StdPeriph_Lib_V3.5.0/Libraries/STM32F10x_StdPeriph_Driver/src/stm32f10x_tim.c ****   * @param  TIM_OCNPolarity: specifies the OC2N Polarity
1870:../STM32F10x_StdPeriph_Lib_V3.5.0/Libraries/STM32F10x_StdPeriph_Driver/src/stm32f10x_tim.c ****   *   This parameter can be one of the following values:
1871:../STM32F10x_StdPeriph_Lib_V3.5.0/Libraries/STM32F10x_StdPeriph_Driver/src/stm32f10x_tim.c ****   *     @arg TIM_OCNPolarity_High: Output Compare active high
1872:../STM32F10x_StdPeriph_Lib_V3.5.0/Libraries/STM32F10x_StdPeriph_Driver/src/stm32f10x_tim.c ****   *     @arg TIM_OCNPolarity_Low: Output Compare active low
1873:../STM32F10x_StdPeriph_Lib_V3.5.0/Libraries/STM32F10x_StdPeriph_Driver/src/stm32f10x_tim.c ****   * @retval None
1874:../STM32F10x_StdPeriph_Lib_V3.5.0/Libraries/STM32F10x_StdPeriph_Driver/src/stm32f10x_tim.c ****   */
1875:../STM32F10x_StdPeriph_Lib_V3.5.0/Libraries/STM32F10x_StdPeriph_Driver/src/stm32f10x_tim.c **** void TIM_OC2NPolarityConfig(TIM_TypeDef* TIMx, uint16_t TIM_OCNPolarity)
1876:../STM32F10x_StdPeriph_Lib_V3.5.0/Libraries/STM32F10x_StdPeriph_Driver/src/stm32f10x_tim.c **** {
 3912              		.loc 1 1876 0
 3913              		.cfi_startproc
 3914              		@ args = 0, pretend = 0, frame = 16
 3915              		@ frame_needed = 1, uses_anonymous_args = 0
 3916              		@ link register save eliminated.
 3917 0000 80B4     		push	{r7}
 3918              	.LCFI156:
 3919              		.cfi_def_cfa_offset 4
 3920              		.cfi_offset 7, -4
 3921 0002 85B0     		sub	sp, sp, #20
 3922              	.LCFI157:
 3923              		.cfi_def_cfa_offset 24
 3924 0004 00AF     		add	r7, sp, #0
 3925              	.LCFI158:
 3926              		.cfi_def_cfa_register 7
 3927 0006 7860     		str	r0, [r7, #4]
 3928 0008 0B46     		mov	r3, r1
 3929 000a 7B80     		strh	r3, [r7, #2]	@ movhi
1877:../STM32F10x_StdPeriph_Lib_V3.5.0/Libraries/STM32F10x_StdPeriph_Driver/src/stm32f10x_tim.c ****   uint16_t tmpccer = 0;
 3930              		.loc 1 1877 0
 3931 000c 4FF00003 		mov	r3, #0
 3932 0010 FB81     		strh	r3, [r7, #14]	@ movhi
1878:../STM32F10x_StdPeriph_Lib_V3.5.0/Libraries/STM32F10x_StdPeriph_Driver/src/stm32f10x_tim.c ****   /* Check the parameters */
1879:../STM32F10x_StdPeriph_Lib_V3.5.0/Libraries/STM32F10x_StdPeriph_Driver/src/stm32f10x_tim.c ****   assert_param(IS_TIM_LIST1_PERIPH(TIMx));
1880:../STM32F10x_StdPeriph_Lib_V3.5.0/Libraries/STM32F10x_StdPeriph_Driver/src/stm32f10x_tim.c ****   assert_param(IS_TIM_OCN_POLARITY(TIM_OCNPolarity));
1881:../STM32F10x_StdPeriph_Lib_V3.5.0/Libraries/STM32F10x_StdPeriph_Driver/src/stm32f10x_tim.c ****   
1882:../STM32F10x_StdPeriph_Lib_V3.5.0/Libraries/STM32F10x_StdPeriph_Driver/src/stm32f10x_tim.c ****   tmpccer = TIMx->CCER;
 3933              		.loc 1 1882 0
 3934 0012 7B68     		ldr	r3, [r7, #4]
 3935 0014 1B8C     		ldrh	r3, [r3, #32]	@ movhi
 3936 0016 FB81     		strh	r3, [r7, #14]	@ movhi
1883:../STM32F10x_StdPeriph_Lib_V3.5.0/Libraries/STM32F10x_StdPeriph_Driver/src/stm32f10x_tim.c ****   /* Set or Reset the CC2NP Bit */
1884:../STM32F10x_StdPeriph_Lib_V3.5.0/Libraries/STM32F10x_StdPeriph_Driver/src/stm32f10x_tim.c ****   tmpccer &= (uint16_t)~((uint16_t)TIM_CCER_CC2NP);
 3937              		.loc 1 1884 0
 3938 0018 FB89     		ldrh	r3, [r7, #14]	@ movhi
 3939 001a 23F08003 		bic	r3, r3, #128
 3940 001e FB81     		strh	r3, [r7, #14]	@ movhi
1885:../STM32F10x_StdPeriph_Lib_V3.5.0/Libraries/STM32F10x_StdPeriph_Driver/src/stm32f10x_tim.c ****   tmpccer |= (uint16_t)(TIM_OCNPolarity << 4);
 3941              		.loc 1 1885 0
 3942 0020 7B88     		ldrh	r3, [r7, #2]	@ movhi
 3943 0022 4FEA0313 		lsl	r3, r3, #4
 3944 0026 9AB2     		uxth	r2, r3
 3945 0028 FB89     		ldrh	r3, [r7, #14]	@ movhi
 3946 002a 1343     		orrs	r3, r3, r2
 3947 002c FB81     		strh	r3, [r7, #14]	@ movhi
1886:../STM32F10x_StdPeriph_Lib_V3.5.0/Libraries/STM32F10x_StdPeriph_Driver/src/stm32f10x_tim.c ****   /* Write to TIMx CCER register */
1887:../STM32F10x_StdPeriph_Lib_V3.5.0/Libraries/STM32F10x_StdPeriph_Driver/src/stm32f10x_tim.c ****   TIMx->CCER = tmpccer;
 3948              		.loc 1 1887 0
 3949 002e 7B68     		ldr	r3, [r7, #4]
 3950 0030 FA89     		ldrh	r2, [r7, #14]	@ movhi
 3951 0032 1A84     		strh	r2, [r3, #32]	@ movhi
1888:../STM32F10x_StdPeriph_Lib_V3.5.0/Libraries/STM32F10x_StdPeriph_Driver/src/stm32f10x_tim.c **** }
 3952              		.loc 1 1888 0
 3953 0034 07F11407 		add	r7, r7, #20
 3954 0038 BD46     		mov	sp, r7
 3955 003a 80BC     		pop	{r7}
 3956 003c 7047     		bx	lr
 3957              		.cfi_endproc
 3958              	.LFE81:
 3960 003e 00BF     		.section	.text.TIM_OC3PolarityConfig,"ax",%progbits
 3961              		.align	2
 3962              		.global	TIM_OC3PolarityConfig
 3963              		.thumb
 3964              		.thumb_func
 3966              	TIM_OC3PolarityConfig:
 3967              	.LFB82:
1889:../STM32F10x_StdPeriph_Lib_V3.5.0/Libraries/STM32F10x_StdPeriph_Driver/src/stm32f10x_tim.c **** 
1890:../STM32F10x_StdPeriph_Lib_V3.5.0/Libraries/STM32F10x_StdPeriph_Driver/src/stm32f10x_tim.c **** /**
1891:../STM32F10x_StdPeriph_Lib_V3.5.0/Libraries/STM32F10x_StdPeriph_Driver/src/stm32f10x_tim.c ****   * @brief  Configures the TIMx channel 3 polarity.
1892:../STM32F10x_StdPeriph_Lib_V3.5.0/Libraries/STM32F10x_StdPeriph_Driver/src/stm32f10x_tim.c ****   * @param  TIMx: where x can be 1, 2, 3, 4, 5 or 8 to select the TIM peripheral.
1893:../STM32F10x_StdPeriph_Lib_V3.5.0/Libraries/STM32F10x_StdPeriph_Driver/src/stm32f10x_tim.c ****   * @param  TIM_OCPolarity: specifies the OC3 Polarity
1894:../STM32F10x_StdPeriph_Lib_V3.5.0/Libraries/STM32F10x_StdPeriph_Driver/src/stm32f10x_tim.c ****   *   This parameter can be one of the following values:
1895:../STM32F10x_StdPeriph_Lib_V3.5.0/Libraries/STM32F10x_StdPeriph_Driver/src/stm32f10x_tim.c ****   *     @arg TIM_OCPolarity_High: Output Compare active high
1896:../STM32F10x_StdPeriph_Lib_V3.5.0/Libraries/STM32F10x_StdPeriph_Driver/src/stm32f10x_tim.c ****   *     @arg TIM_OCPolarity_Low: Output Compare active low
1897:../STM32F10x_StdPeriph_Lib_V3.5.0/Libraries/STM32F10x_StdPeriph_Driver/src/stm32f10x_tim.c ****   * @retval None
1898:../STM32F10x_StdPeriph_Lib_V3.5.0/Libraries/STM32F10x_StdPeriph_Driver/src/stm32f10x_tim.c ****   */
1899:../STM32F10x_StdPeriph_Lib_V3.5.0/Libraries/STM32F10x_StdPeriph_Driver/src/stm32f10x_tim.c **** void TIM_OC3PolarityConfig(TIM_TypeDef* TIMx, uint16_t TIM_OCPolarity)
1900:../STM32F10x_StdPeriph_Lib_V3.5.0/Libraries/STM32F10x_StdPeriph_Driver/src/stm32f10x_tim.c **** {
 3968              		.loc 1 1900 0
 3969              		.cfi_startproc
 3970              		@ args = 0, pretend = 0, frame = 16
 3971              		@ frame_needed = 1, uses_anonymous_args = 0
 3972              		@ link register save eliminated.
 3973 0000 80B4     		push	{r7}
 3974              	.LCFI159:
 3975              		.cfi_def_cfa_offset 4
 3976              		.cfi_offset 7, -4
 3977 0002 85B0     		sub	sp, sp, #20
 3978              	.LCFI160:
 3979              		.cfi_def_cfa_offset 24
 3980 0004 00AF     		add	r7, sp, #0
 3981              	.LCFI161:
 3982              		.cfi_def_cfa_register 7
 3983 0006 7860     		str	r0, [r7, #4]
 3984 0008 0B46     		mov	r3, r1
 3985 000a 7B80     		strh	r3, [r7, #2]	@ movhi
1901:../STM32F10x_StdPeriph_Lib_V3.5.0/Libraries/STM32F10x_StdPeriph_Driver/src/stm32f10x_tim.c ****   uint16_t tmpccer = 0;
 3986              		.loc 1 1901 0
 3987 000c 4FF00003 		mov	r3, #0
 3988 0010 FB81     		strh	r3, [r7, #14]	@ movhi
1902:../STM32F10x_StdPeriph_Lib_V3.5.0/Libraries/STM32F10x_StdPeriph_Driver/src/stm32f10x_tim.c ****   /* Check the parameters */
1903:../STM32F10x_StdPeriph_Lib_V3.5.0/Libraries/STM32F10x_StdPeriph_Driver/src/stm32f10x_tim.c ****   assert_param(IS_TIM_LIST3_PERIPH(TIMx));
1904:../STM32F10x_StdPeriph_Lib_V3.5.0/Libraries/STM32F10x_StdPeriph_Driver/src/stm32f10x_tim.c ****   assert_param(IS_TIM_OC_POLARITY(TIM_OCPolarity));
1905:../STM32F10x_StdPeriph_Lib_V3.5.0/Libraries/STM32F10x_StdPeriph_Driver/src/stm32f10x_tim.c ****   tmpccer = TIMx->CCER;
 3989              		.loc 1 1905 0
 3990 0012 7B68     		ldr	r3, [r7, #4]
 3991 0014 1B8C     		ldrh	r3, [r3, #32]	@ movhi
 3992 0016 FB81     		strh	r3, [r7, #14]	@ movhi
1906:../STM32F10x_StdPeriph_Lib_V3.5.0/Libraries/STM32F10x_StdPeriph_Driver/src/stm32f10x_tim.c ****   /* Set or Reset the CC3P Bit */
1907:../STM32F10x_StdPeriph_Lib_V3.5.0/Libraries/STM32F10x_StdPeriph_Driver/src/stm32f10x_tim.c ****   tmpccer &= (uint16_t)~((uint16_t)TIM_CCER_CC3P);
 3993              		.loc 1 1907 0
 3994 0018 FB89     		ldrh	r3, [r7, #14]	@ movhi
 3995 001a 23F40073 		bic	r3, r3, #512
 3996 001e FB81     		strh	r3, [r7, #14]	@ movhi
1908:../STM32F10x_StdPeriph_Lib_V3.5.0/Libraries/STM32F10x_StdPeriph_Driver/src/stm32f10x_tim.c ****   tmpccer |= (uint16_t)(TIM_OCPolarity << 8);
 3997              		.loc 1 1908 0
 3998 0020 7B88     		ldrh	r3, [r7, #2]	@ movhi
 3999 0022 4FEA0323 		lsl	r3, r3, #8
 4000 0026 9AB2     		uxth	r2, r3
 4001 0028 FB89     		ldrh	r3, [r7, #14]	@ movhi
 4002 002a 1343     		orrs	r3, r3, r2
 4003 002c FB81     		strh	r3, [r7, #14]	@ movhi
1909:../STM32F10x_StdPeriph_Lib_V3.5.0/Libraries/STM32F10x_StdPeriph_Driver/src/stm32f10x_tim.c ****   /* Write to TIMx CCER register */
1910:../STM32F10x_StdPeriph_Lib_V3.5.0/Libraries/STM32F10x_StdPeriph_Driver/src/stm32f10x_tim.c ****   TIMx->CCER = tmpccer;
 4004              		.loc 1 1910 0
 4005 002e 7B68     		ldr	r3, [r7, #4]
 4006 0030 FA89     		ldrh	r2, [r7, #14]	@ movhi
 4007 0032 1A84     		strh	r2, [r3, #32]	@ movhi
1911:../STM32F10x_StdPeriph_Lib_V3.5.0/Libraries/STM32F10x_StdPeriph_Driver/src/stm32f10x_tim.c **** }
 4008              		.loc 1 1911 0
 4009 0034 07F11407 		add	r7, r7, #20
 4010 0038 BD46     		mov	sp, r7
 4011 003a 80BC     		pop	{r7}
 4012 003c 7047     		bx	lr
 4013              		.cfi_endproc
 4014              	.LFE82:
 4016 003e 00BF     		.section	.text.TIM_OC3NPolarityConfig,"ax",%progbits
 4017              		.align	2
 4018              		.global	TIM_OC3NPolarityConfig
 4019              		.thumb
 4020              		.thumb_func
 4022              	TIM_OC3NPolarityConfig:
 4023              	.LFB83:
1912:../STM32F10x_StdPeriph_Lib_V3.5.0/Libraries/STM32F10x_StdPeriph_Driver/src/stm32f10x_tim.c **** 
1913:../STM32F10x_StdPeriph_Lib_V3.5.0/Libraries/STM32F10x_StdPeriph_Driver/src/stm32f10x_tim.c **** /**
1914:../STM32F10x_StdPeriph_Lib_V3.5.0/Libraries/STM32F10x_StdPeriph_Driver/src/stm32f10x_tim.c ****   * @brief  Configures the TIMx Channel 3N polarity.
1915:../STM32F10x_StdPeriph_Lib_V3.5.0/Libraries/STM32F10x_StdPeriph_Driver/src/stm32f10x_tim.c ****   * @param  TIMx: where x can be 1 or 8 to select the TIM peripheral.
1916:../STM32F10x_StdPeriph_Lib_V3.5.0/Libraries/STM32F10x_StdPeriph_Driver/src/stm32f10x_tim.c ****   * @param  TIM_OCNPolarity: specifies the OC3N Polarity
1917:../STM32F10x_StdPeriph_Lib_V3.5.0/Libraries/STM32F10x_StdPeriph_Driver/src/stm32f10x_tim.c ****   *   This parameter can be one of the following values:
1918:../STM32F10x_StdPeriph_Lib_V3.5.0/Libraries/STM32F10x_StdPeriph_Driver/src/stm32f10x_tim.c ****   *     @arg TIM_OCNPolarity_High: Output Compare active high
1919:../STM32F10x_StdPeriph_Lib_V3.5.0/Libraries/STM32F10x_StdPeriph_Driver/src/stm32f10x_tim.c ****   *     @arg TIM_OCNPolarity_Low: Output Compare active low
1920:../STM32F10x_StdPeriph_Lib_V3.5.0/Libraries/STM32F10x_StdPeriph_Driver/src/stm32f10x_tim.c ****   * @retval None
1921:../STM32F10x_StdPeriph_Lib_V3.5.0/Libraries/STM32F10x_StdPeriph_Driver/src/stm32f10x_tim.c ****   */
1922:../STM32F10x_StdPeriph_Lib_V3.5.0/Libraries/STM32F10x_StdPeriph_Driver/src/stm32f10x_tim.c **** void TIM_OC3NPolarityConfig(TIM_TypeDef* TIMx, uint16_t TIM_OCNPolarity)
1923:../STM32F10x_StdPeriph_Lib_V3.5.0/Libraries/STM32F10x_StdPeriph_Driver/src/stm32f10x_tim.c **** {
 4024              		.loc 1 1923 0
 4025              		.cfi_startproc
 4026              		@ args = 0, pretend = 0, frame = 16
 4027              		@ frame_needed = 1, uses_anonymous_args = 0
 4028              		@ link register save eliminated.
 4029 0000 80B4     		push	{r7}
 4030              	.LCFI162:
 4031              		.cfi_def_cfa_offset 4
 4032              		.cfi_offset 7, -4
 4033 0002 85B0     		sub	sp, sp, #20
 4034              	.LCFI163:
 4035              		.cfi_def_cfa_offset 24
 4036 0004 00AF     		add	r7, sp, #0
 4037              	.LCFI164:
 4038              		.cfi_def_cfa_register 7
 4039 0006 7860     		str	r0, [r7, #4]
 4040 0008 0B46     		mov	r3, r1
 4041 000a 7B80     		strh	r3, [r7, #2]	@ movhi
1924:../STM32F10x_StdPeriph_Lib_V3.5.0/Libraries/STM32F10x_StdPeriph_Driver/src/stm32f10x_tim.c ****   uint16_t tmpccer = 0;
 4042              		.loc 1 1924 0
 4043 000c 4FF00003 		mov	r3, #0
 4044 0010 FB81     		strh	r3, [r7, #14]	@ movhi
1925:../STM32F10x_StdPeriph_Lib_V3.5.0/Libraries/STM32F10x_StdPeriph_Driver/src/stm32f10x_tim.c ****  
1926:../STM32F10x_StdPeriph_Lib_V3.5.0/Libraries/STM32F10x_StdPeriph_Driver/src/stm32f10x_tim.c ****   /* Check the parameters */
1927:../STM32F10x_StdPeriph_Lib_V3.5.0/Libraries/STM32F10x_StdPeriph_Driver/src/stm32f10x_tim.c ****   assert_param(IS_TIM_LIST1_PERIPH(TIMx));
1928:../STM32F10x_StdPeriph_Lib_V3.5.0/Libraries/STM32F10x_StdPeriph_Driver/src/stm32f10x_tim.c ****   assert_param(IS_TIM_OCN_POLARITY(TIM_OCNPolarity));
1929:../STM32F10x_StdPeriph_Lib_V3.5.0/Libraries/STM32F10x_StdPeriph_Driver/src/stm32f10x_tim.c ****     
1930:../STM32F10x_StdPeriph_Lib_V3.5.0/Libraries/STM32F10x_StdPeriph_Driver/src/stm32f10x_tim.c ****   tmpccer = TIMx->CCER;
 4045              		.loc 1 1930 0
 4046 0012 7B68     		ldr	r3, [r7, #4]
 4047 0014 1B8C     		ldrh	r3, [r3, #32]	@ movhi
 4048 0016 FB81     		strh	r3, [r7, #14]	@ movhi
1931:../STM32F10x_StdPeriph_Lib_V3.5.0/Libraries/STM32F10x_StdPeriph_Driver/src/stm32f10x_tim.c ****   /* Set or Reset the CC3NP Bit */
1932:../STM32F10x_StdPeriph_Lib_V3.5.0/Libraries/STM32F10x_StdPeriph_Driver/src/stm32f10x_tim.c ****   tmpccer &= (uint16_t)~((uint16_t)TIM_CCER_CC3NP);
 4049              		.loc 1 1932 0
 4050 0018 FB89     		ldrh	r3, [r7, #14]	@ movhi
 4051 001a 23F40063 		bic	r3, r3, #2048
 4052 001e FB81     		strh	r3, [r7, #14]	@ movhi
1933:../STM32F10x_StdPeriph_Lib_V3.5.0/Libraries/STM32F10x_StdPeriph_Driver/src/stm32f10x_tim.c ****   tmpccer |= (uint16_t)(TIM_OCNPolarity << 8);
 4053              		.loc 1 1933 0
 4054 0020 7B88     		ldrh	r3, [r7, #2]	@ movhi
 4055 0022 4FEA0323 		lsl	r3, r3, #8
 4056 0026 9AB2     		uxth	r2, r3
 4057 0028 FB89     		ldrh	r3, [r7, #14]	@ movhi
 4058 002a 1343     		orrs	r3, r3, r2
 4059 002c FB81     		strh	r3, [r7, #14]	@ movhi
1934:../STM32F10x_StdPeriph_Lib_V3.5.0/Libraries/STM32F10x_StdPeriph_Driver/src/stm32f10x_tim.c ****   /* Write to TIMx CCER register */
1935:../STM32F10x_StdPeriph_Lib_V3.5.0/Libraries/STM32F10x_StdPeriph_Driver/src/stm32f10x_tim.c ****   TIMx->CCER = tmpccer;
 4060              		.loc 1 1935 0
 4061 002e 7B68     		ldr	r3, [r7, #4]
 4062 0030 FA89     		ldrh	r2, [r7, #14]	@ movhi
 4063 0032 1A84     		strh	r2, [r3, #32]	@ movhi
1936:../STM32F10x_StdPeriph_Lib_V3.5.0/Libraries/STM32F10x_StdPeriph_Driver/src/stm32f10x_tim.c **** }
 4064              		.loc 1 1936 0
 4065 0034 07F11407 		add	r7, r7, #20
 4066 0038 BD46     		mov	sp, r7
 4067 003a 80BC     		pop	{r7}
 4068 003c 7047     		bx	lr
 4069              		.cfi_endproc
 4070              	.LFE83:
 4072 003e 00BF     		.section	.text.TIM_OC4PolarityConfig,"ax",%progbits
 4073              		.align	2
 4074              		.global	TIM_OC4PolarityConfig
 4075              		.thumb
 4076              		.thumb_func
 4078              	TIM_OC4PolarityConfig:
 4079              	.LFB84:
1937:../STM32F10x_StdPeriph_Lib_V3.5.0/Libraries/STM32F10x_StdPeriph_Driver/src/stm32f10x_tim.c **** 
1938:../STM32F10x_StdPeriph_Lib_V3.5.0/Libraries/STM32F10x_StdPeriph_Driver/src/stm32f10x_tim.c **** /**
1939:../STM32F10x_StdPeriph_Lib_V3.5.0/Libraries/STM32F10x_StdPeriph_Driver/src/stm32f10x_tim.c ****   * @brief  Configures the TIMx channel 4 polarity.
1940:../STM32F10x_StdPeriph_Lib_V3.5.0/Libraries/STM32F10x_StdPeriph_Driver/src/stm32f10x_tim.c ****   * @param  TIMx: where x can be 1, 2, 3, 4, 5 or 8 to select the TIM peripheral.
1941:../STM32F10x_StdPeriph_Lib_V3.5.0/Libraries/STM32F10x_StdPeriph_Driver/src/stm32f10x_tim.c ****   * @param  TIM_OCPolarity: specifies the OC4 Polarity
1942:../STM32F10x_StdPeriph_Lib_V3.5.0/Libraries/STM32F10x_StdPeriph_Driver/src/stm32f10x_tim.c ****   *   This parameter can be one of the following values:
1943:../STM32F10x_StdPeriph_Lib_V3.5.0/Libraries/STM32F10x_StdPeriph_Driver/src/stm32f10x_tim.c ****   *     @arg TIM_OCPolarity_High: Output Compare active high
1944:../STM32F10x_StdPeriph_Lib_V3.5.0/Libraries/STM32F10x_StdPeriph_Driver/src/stm32f10x_tim.c ****   *     @arg TIM_OCPolarity_Low: Output Compare active low
1945:../STM32F10x_StdPeriph_Lib_V3.5.0/Libraries/STM32F10x_StdPeriph_Driver/src/stm32f10x_tim.c ****   * @retval None
1946:../STM32F10x_StdPeriph_Lib_V3.5.0/Libraries/STM32F10x_StdPeriph_Driver/src/stm32f10x_tim.c ****   */
1947:../STM32F10x_StdPeriph_Lib_V3.5.0/Libraries/STM32F10x_StdPeriph_Driver/src/stm32f10x_tim.c **** void TIM_OC4PolarityConfig(TIM_TypeDef* TIMx, uint16_t TIM_OCPolarity)
1948:../STM32F10x_StdPeriph_Lib_V3.5.0/Libraries/STM32F10x_StdPeriph_Driver/src/stm32f10x_tim.c **** {
 4080              		.loc 1 1948 0
 4081              		.cfi_startproc
 4082              		@ args = 0, pretend = 0, frame = 16
 4083              		@ frame_needed = 1, uses_anonymous_args = 0
 4084              		@ link register save eliminated.
 4085 0000 80B4     		push	{r7}
 4086              	.LCFI165:
 4087              		.cfi_def_cfa_offset 4
 4088              		.cfi_offset 7, -4
 4089 0002 85B0     		sub	sp, sp, #20
 4090              	.LCFI166:
 4091              		.cfi_def_cfa_offset 24
 4092 0004 00AF     		add	r7, sp, #0
 4093              	.LCFI167:
 4094              		.cfi_def_cfa_register 7
 4095 0006 7860     		str	r0, [r7, #4]
 4096 0008 0B46     		mov	r3, r1
 4097 000a 7B80     		strh	r3, [r7, #2]	@ movhi
1949:../STM32F10x_StdPeriph_Lib_V3.5.0/Libraries/STM32F10x_StdPeriph_Driver/src/stm32f10x_tim.c ****   uint16_t tmpccer = 0;
 4098              		.loc 1 1949 0
 4099 000c 4FF00003 		mov	r3, #0
 4100 0010 FB81     		strh	r3, [r7, #14]	@ movhi
1950:../STM32F10x_StdPeriph_Lib_V3.5.0/Libraries/STM32F10x_StdPeriph_Driver/src/stm32f10x_tim.c ****   /* Check the parameters */
1951:../STM32F10x_StdPeriph_Lib_V3.5.0/Libraries/STM32F10x_StdPeriph_Driver/src/stm32f10x_tim.c ****   assert_param(IS_TIM_LIST3_PERIPH(TIMx));
1952:../STM32F10x_StdPeriph_Lib_V3.5.0/Libraries/STM32F10x_StdPeriph_Driver/src/stm32f10x_tim.c ****   assert_param(IS_TIM_OC_POLARITY(TIM_OCPolarity));
1953:../STM32F10x_StdPeriph_Lib_V3.5.0/Libraries/STM32F10x_StdPeriph_Driver/src/stm32f10x_tim.c ****   tmpccer = TIMx->CCER;
 4101              		.loc 1 1953 0
 4102 0012 7B68     		ldr	r3, [r7, #4]
 4103 0014 1B8C     		ldrh	r3, [r3, #32]	@ movhi
 4104 0016 FB81     		strh	r3, [r7, #14]	@ movhi
1954:../STM32F10x_StdPeriph_Lib_V3.5.0/Libraries/STM32F10x_StdPeriph_Driver/src/stm32f10x_tim.c ****   /* Set or Reset the CC4P Bit */
1955:../STM32F10x_StdPeriph_Lib_V3.5.0/Libraries/STM32F10x_StdPeriph_Driver/src/stm32f10x_tim.c ****   tmpccer &= (uint16_t)~((uint16_t)TIM_CCER_CC4P);
 4105              		.loc 1 1955 0
 4106 0018 FB89     		ldrh	r3, [r7, #14]	@ movhi
 4107 001a 23F40053 		bic	r3, r3, #8192
 4108 001e FB81     		strh	r3, [r7, #14]	@ movhi
1956:../STM32F10x_StdPeriph_Lib_V3.5.0/Libraries/STM32F10x_StdPeriph_Driver/src/stm32f10x_tim.c ****   tmpccer |= (uint16_t)(TIM_OCPolarity << 12);
 4109              		.loc 1 1956 0
 4110 0020 7B88     		ldrh	r3, [r7, #2]	@ movhi
 4111 0022 4FEA0333 		lsl	r3, r3, #12
 4112 0026 9AB2     		uxth	r2, r3
 4113 0028 FB89     		ldrh	r3, [r7, #14]	@ movhi
 4114 002a 1343     		orrs	r3, r3, r2
 4115 002c FB81     		strh	r3, [r7, #14]	@ movhi
1957:../STM32F10x_StdPeriph_Lib_V3.5.0/Libraries/STM32F10x_StdPeriph_Driver/src/stm32f10x_tim.c ****   /* Write to TIMx CCER register */
1958:../STM32F10x_StdPeriph_Lib_V3.5.0/Libraries/STM32F10x_StdPeriph_Driver/src/stm32f10x_tim.c ****   TIMx->CCER = tmpccer;
 4116              		.loc 1 1958 0
 4117 002e 7B68     		ldr	r3, [r7, #4]
 4118 0030 FA89     		ldrh	r2, [r7, #14]	@ movhi
 4119 0032 1A84     		strh	r2, [r3, #32]	@ movhi
1959:../STM32F10x_StdPeriph_Lib_V3.5.0/Libraries/STM32F10x_StdPeriph_Driver/src/stm32f10x_tim.c **** }
 4120              		.loc 1 1959 0
 4121 0034 07F11407 		add	r7, r7, #20
 4122 0038 BD46     		mov	sp, r7
 4123 003a 80BC     		pop	{r7}
 4124 003c 7047     		bx	lr
 4125              		.cfi_endproc
 4126              	.LFE84:
 4128 003e 00BF     		.section	.text.TIM_CCxCmd,"ax",%progbits
 4129              		.align	2
 4130              		.global	TIM_CCxCmd
 4131              		.thumb
 4132              		.thumb_func
 4134              	TIM_CCxCmd:
 4135              	.LFB85:
1960:../STM32F10x_StdPeriph_Lib_V3.5.0/Libraries/STM32F10x_StdPeriph_Driver/src/stm32f10x_tim.c **** 
1961:../STM32F10x_StdPeriph_Lib_V3.5.0/Libraries/STM32F10x_StdPeriph_Driver/src/stm32f10x_tim.c **** /**
1962:../STM32F10x_StdPeriph_Lib_V3.5.0/Libraries/STM32F10x_StdPeriph_Driver/src/stm32f10x_tim.c ****   * @brief  Enables or disables the TIM Capture Compare Channel x.
1963:../STM32F10x_StdPeriph_Lib_V3.5.0/Libraries/STM32F10x_StdPeriph_Driver/src/stm32f10x_tim.c ****   * @param  TIMx: where x can be 1 to 17 except 6 and 7 to select the TIM peripheral.
1964:../STM32F10x_StdPeriph_Lib_V3.5.0/Libraries/STM32F10x_StdPeriph_Driver/src/stm32f10x_tim.c ****   * @param  TIM_Channel: specifies the TIM Channel
1965:../STM32F10x_StdPeriph_Lib_V3.5.0/Libraries/STM32F10x_StdPeriph_Driver/src/stm32f10x_tim.c ****   *   This parameter can be one of the following values:
1966:../STM32F10x_StdPeriph_Lib_V3.5.0/Libraries/STM32F10x_StdPeriph_Driver/src/stm32f10x_tim.c ****   *     @arg TIM_Channel_1: TIM Channel 1
1967:../STM32F10x_StdPeriph_Lib_V3.5.0/Libraries/STM32F10x_StdPeriph_Driver/src/stm32f10x_tim.c ****   *     @arg TIM_Channel_2: TIM Channel 2
1968:../STM32F10x_StdPeriph_Lib_V3.5.0/Libraries/STM32F10x_StdPeriph_Driver/src/stm32f10x_tim.c ****   *     @arg TIM_Channel_3: TIM Channel 3
1969:../STM32F10x_StdPeriph_Lib_V3.5.0/Libraries/STM32F10x_StdPeriph_Driver/src/stm32f10x_tim.c ****   *     @arg TIM_Channel_4: TIM Channel 4
1970:../STM32F10x_StdPeriph_Lib_V3.5.0/Libraries/STM32F10x_StdPeriph_Driver/src/stm32f10x_tim.c ****   * @param  TIM_CCx: specifies the TIM Channel CCxE bit new state.
1971:../STM32F10x_StdPeriph_Lib_V3.5.0/Libraries/STM32F10x_StdPeriph_Driver/src/stm32f10x_tim.c ****   *   This parameter can be: TIM_CCx_Enable or TIM_CCx_Disable. 
1972:../STM32F10x_StdPeriph_Lib_V3.5.0/Libraries/STM32F10x_StdPeriph_Driver/src/stm32f10x_tim.c ****   * @retval None
1973:../STM32F10x_StdPeriph_Lib_V3.5.0/Libraries/STM32F10x_StdPeriph_Driver/src/stm32f10x_tim.c ****   */
1974:../STM32F10x_StdPeriph_Lib_V3.5.0/Libraries/STM32F10x_StdPeriph_Driver/src/stm32f10x_tim.c **** void TIM_CCxCmd(TIM_TypeDef* TIMx, uint16_t TIM_Channel, uint16_t TIM_CCx)
1975:../STM32F10x_StdPeriph_Lib_V3.5.0/Libraries/STM32F10x_StdPeriph_Driver/src/stm32f10x_tim.c **** {
 4136              		.loc 1 1975 0
 4137              		.cfi_startproc
 4138              		@ args = 0, pretend = 0, frame = 16
 4139              		@ frame_needed = 1, uses_anonymous_args = 0
 4140              		@ link register save eliminated.
 4141 0000 80B4     		push	{r7}
 4142              	.LCFI168:
 4143              		.cfi_def_cfa_offset 4
 4144              		.cfi_offset 7, -4
 4145 0002 85B0     		sub	sp, sp, #20
 4146              	.LCFI169:
 4147              		.cfi_def_cfa_offset 24
 4148 0004 00AF     		add	r7, sp, #0
 4149              	.LCFI170:
 4150              		.cfi_def_cfa_register 7
 4151 0006 7860     		str	r0, [r7, #4]
 4152 0008 1346     		mov	r3, r2
 4153 000a 0A46     		mov	r2, r1	@ movhi
 4154 000c 7A80     		strh	r2, [r7, #2]	@ movhi
 4155 000e 3B80     		strh	r3, [r7, #0]	@ movhi
1976:../STM32F10x_StdPeriph_Lib_V3.5.0/Libraries/STM32F10x_StdPeriph_Driver/src/stm32f10x_tim.c ****   uint16_t tmp = 0;
 4156              		.loc 1 1976 0
 4157 0010 4FF00003 		mov	r3, #0
 4158 0014 FB81     		strh	r3, [r7, #14]	@ movhi
1977:../STM32F10x_StdPeriph_Lib_V3.5.0/Libraries/STM32F10x_StdPeriph_Driver/src/stm32f10x_tim.c **** 
1978:../STM32F10x_StdPeriph_Lib_V3.5.0/Libraries/STM32F10x_StdPeriph_Driver/src/stm32f10x_tim.c ****   /* Check the parameters */
1979:../STM32F10x_StdPeriph_Lib_V3.5.0/Libraries/STM32F10x_StdPeriph_Driver/src/stm32f10x_tim.c ****   assert_param(IS_TIM_LIST8_PERIPH(TIMx));
1980:../STM32F10x_StdPeriph_Lib_V3.5.0/Libraries/STM32F10x_StdPeriph_Driver/src/stm32f10x_tim.c ****   assert_param(IS_TIM_CHANNEL(TIM_Channel));
1981:../STM32F10x_StdPeriph_Lib_V3.5.0/Libraries/STM32F10x_StdPeriph_Driver/src/stm32f10x_tim.c ****   assert_param(IS_TIM_CCX(TIM_CCx));
1982:../STM32F10x_StdPeriph_Lib_V3.5.0/Libraries/STM32F10x_StdPeriph_Driver/src/stm32f10x_tim.c **** 
1983:../STM32F10x_StdPeriph_Lib_V3.5.0/Libraries/STM32F10x_StdPeriph_Driver/src/stm32f10x_tim.c ****   tmp = CCER_CCE_Set << TIM_Channel;
 4159              		.loc 1 1983 0
 4160 0016 7B88     		ldrh	r3, [r7, #2]
 4161 0018 4FF00102 		mov	r2, #1
 4162 001c 02FA03F3 		lsl	r3, r2, r3
 4163 0020 FB81     		strh	r3, [r7, #14]	@ movhi
1984:../STM32F10x_StdPeriph_Lib_V3.5.0/Libraries/STM32F10x_StdPeriph_Driver/src/stm32f10x_tim.c **** 
1985:../STM32F10x_StdPeriph_Lib_V3.5.0/Libraries/STM32F10x_StdPeriph_Driver/src/stm32f10x_tim.c ****   /* Reset the CCxE Bit */
1986:../STM32F10x_StdPeriph_Lib_V3.5.0/Libraries/STM32F10x_StdPeriph_Driver/src/stm32f10x_tim.c ****   TIMx->CCER &= (uint16_t)~ tmp;
 4164              		.loc 1 1986 0
 4165 0022 7B68     		ldr	r3, [r7, #4]
 4166 0024 1B8C     		ldrh	r3, [r3, #32]	@ movhi
 4167 0026 9AB2     		uxth	r2, r3
 4168 0028 FB89     		ldrh	r3, [r7, #14]	@ movhi
 4169 002a 6FEA0303 		mvn	r3, r3
 4170 002e 9BB2     		uxth	r3, r3
 4171 0030 1340     		ands	r3, r3, r2
 4172 0032 9AB2     		uxth	r2, r3
 4173 0034 7B68     		ldr	r3, [r7, #4]
 4174 0036 1A84     		strh	r2, [r3, #32]	@ movhi
1987:../STM32F10x_StdPeriph_Lib_V3.5.0/Libraries/STM32F10x_StdPeriph_Driver/src/stm32f10x_tim.c **** 
1988:../STM32F10x_StdPeriph_Lib_V3.5.0/Libraries/STM32F10x_StdPeriph_Driver/src/stm32f10x_tim.c ****   /* Set or reset the CCxE Bit */ 
1989:../STM32F10x_StdPeriph_Lib_V3.5.0/Libraries/STM32F10x_StdPeriph_Driver/src/stm32f10x_tim.c ****   TIMx->CCER |=  (uint16_t)(TIM_CCx << TIM_Channel);
 4175              		.loc 1 1989 0
 4176 0038 7B68     		ldr	r3, [r7, #4]
 4177 003a 1B8C     		ldrh	r3, [r3, #32]	@ movhi
 4178 003c 9AB2     		uxth	r2, r3
 4179 003e 3988     		ldrh	r1, [r7, #0]
 4180 0040 7B88     		ldrh	r3, [r7, #2]
 4181 0042 01FA03F3 		lsl	r3, r1, r3
 4182 0046 9BB2     		uxth	r3, r3
 4183 0048 1343     		orrs	r3, r3, r2
 4184 004a 9AB2     		uxth	r2, r3
 4185 004c 7B68     		ldr	r3, [r7, #4]
 4186 004e 1A84     		strh	r2, [r3, #32]	@ movhi
1990:../STM32F10x_StdPeriph_Lib_V3.5.0/Libraries/STM32F10x_StdPeriph_Driver/src/stm32f10x_tim.c **** }
 4187              		.loc 1 1990 0
 4188 0050 07F11407 		add	r7, r7, #20
 4189 0054 BD46     		mov	sp, r7
 4190 0056 80BC     		pop	{r7}
 4191 0058 7047     		bx	lr
 4192              		.cfi_endproc
 4193              	.LFE85:
 4195 005a 00BF     		.section	.text.TIM_CCxNCmd,"ax",%progbits
 4196              		.align	2
 4197              		.global	TIM_CCxNCmd
 4198              		.thumb
 4199              		.thumb_func
 4201              	TIM_CCxNCmd:
 4202              	.LFB86:
1991:../STM32F10x_StdPeriph_Lib_V3.5.0/Libraries/STM32F10x_StdPeriph_Driver/src/stm32f10x_tim.c **** 
1992:../STM32F10x_StdPeriph_Lib_V3.5.0/Libraries/STM32F10x_StdPeriph_Driver/src/stm32f10x_tim.c **** /**
1993:../STM32F10x_StdPeriph_Lib_V3.5.0/Libraries/STM32F10x_StdPeriph_Driver/src/stm32f10x_tim.c ****   * @brief  Enables or disables the TIM Capture Compare Channel xN.
1994:../STM32F10x_StdPeriph_Lib_V3.5.0/Libraries/STM32F10x_StdPeriph_Driver/src/stm32f10x_tim.c ****   * @param  TIMx: where x can be 1, 8, 15, 16 or 17 to select the TIM peripheral.
1995:../STM32F10x_StdPeriph_Lib_V3.5.0/Libraries/STM32F10x_StdPeriph_Driver/src/stm32f10x_tim.c ****   * @param  TIM_Channel: specifies the TIM Channel
1996:../STM32F10x_StdPeriph_Lib_V3.5.0/Libraries/STM32F10x_StdPeriph_Driver/src/stm32f10x_tim.c ****   *   This parameter can be one of the following values:
1997:../STM32F10x_StdPeriph_Lib_V3.5.0/Libraries/STM32F10x_StdPeriph_Driver/src/stm32f10x_tim.c ****   *     @arg TIM_Channel_1: TIM Channel 1
1998:../STM32F10x_StdPeriph_Lib_V3.5.0/Libraries/STM32F10x_StdPeriph_Driver/src/stm32f10x_tim.c ****   *     @arg TIM_Channel_2: TIM Channel 2
1999:../STM32F10x_StdPeriph_Lib_V3.5.0/Libraries/STM32F10x_StdPeriph_Driver/src/stm32f10x_tim.c ****   *     @arg TIM_Channel_3: TIM Channel 3
2000:../STM32F10x_StdPeriph_Lib_V3.5.0/Libraries/STM32F10x_StdPeriph_Driver/src/stm32f10x_tim.c ****   * @param  TIM_CCxN: specifies the TIM Channel CCxNE bit new state.
2001:../STM32F10x_StdPeriph_Lib_V3.5.0/Libraries/STM32F10x_StdPeriph_Driver/src/stm32f10x_tim.c ****   *   This parameter can be: TIM_CCxN_Enable or TIM_CCxN_Disable. 
2002:../STM32F10x_StdPeriph_Lib_V3.5.0/Libraries/STM32F10x_StdPeriph_Driver/src/stm32f10x_tim.c ****   * @retval None
2003:../STM32F10x_StdPeriph_Lib_V3.5.0/Libraries/STM32F10x_StdPeriph_Driver/src/stm32f10x_tim.c ****   */
2004:../STM32F10x_StdPeriph_Lib_V3.5.0/Libraries/STM32F10x_StdPeriph_Driver/src/stm32f10x_tim.c **** void TIM_CCxNCmd(TIM_TypeDef* TIMx, uint16_t TIM_Channel, uint16_t TIM_CCxN)
2005:../STM32F10x_StdPeriph_Lib_V3.5.0/Libraries/STM32F10x_StdPeriph_Driver/src/stm32f10x_tim.c **** {
 4203              		.loc 1 2005 0
 4204              		.cfi_startproc
 4205              		@ args = 0, pretend = 0, frame = 16
 4206              		@ frame_needed = 1, uses_anonymous_args = 0
 4207              		@ link register save eliminated.
 4208 0000 80B4     		push	{r7}
 4209              	.LCFI171:
 4210              		.cfi_def_cfa_offset 4
 4211              		.cfi_offset 7, -4
 4212 0002 85B0     		sub	sp, sp, #20
 4213              	.LCFI172:
 4214              		.cfi_def_cfa_offset 24
 4215 0004 00AF     		add	r7, sp, #0
 4216              	.LCFI173:
 4217              		.cfi_def_cfa_register 7
 4218 0006 7860     		str	r0, [r7, #4]
 4219 0008 1346     		mov	r3, r2
 4220 000a 0A46     		mov	r2, r1	@ movhi
 4221 000c 7A80     		strh	r2, [r7, #2]	@ movhi
 4222 000e 3B80     		strh	r3, [r7, #0]	@ movhi
2006:../STM32F10x_StdPeriph_Lib_V3.5.0/Libraries/STM32F10x_StdPeriph_Driver/src/stm32f10x_tim.c ****   uint16_t tmp = 0;
 4223              		.loc 1 2006 0
 4224 0010 4FF00003 		mov	r3, #0
 4225 0014 FB81     		strh	r3, [r7, #14]	@ movhi
2007:../STM32F10x_StdPeriph_Lib_V3.5.0/Libraries/STM32F10x_StdPeriph_Driver/src/stm32f10x_tim.c **** 
2008:../STM32F10x_StdPeriph_Lib_V3.5.0/Libraries/STM32F10x_StdPeriph_Driver/src/stm32f10x_tim.c ****   /* Check the parameters */
2009:../STM32F10x_StdPeriph_Lib_V3.5.0/Libraries/STM32F10x_StdPeriph_Driver/src/stm32f10x_tim.c ****   assert_param(IS_TIM_LIST2_PERIPH(TIMx));
2010:../STM32F10x_StdPeriph_Lib_V3.5.0/Libraries/STM32F10x_StdPeriph_Driver/src/stm32f10x_tim.c ****   assert_param(IS_TIM_COMPLEMENTARY_CHANNEL(TIM_Channel));
2011:../STM32F10x_StdPeriph_Lib_V3.5.0/Libraries/STM32F10x_StdPeriph_Driver/src/stm32f10x_tim.c ****   assert_param(IS_TIM_CCXN(TIM_CCxN));
2012:../STM32F10x_StdPeriph_Lib_V3.5.0/Libraries/STM32F10x_StdPeriph_Driver/src/stm32f10x_tim.c **** 
2013:../STM32F10x_StdPeriph_Lib_V3.5.0/Libraries/STM32F10x_StdPeriph_Driver/src/stm32f10x_tim.c ****   tmp = CCER_CCNE_Set << TIM_Channel;
 4226              		.loc 1 2013 0
 4227 0016 7B88     		ldrh	r3, [r7, #2]
 4228 0018 4FF00402 		mov	r2, #4
 4229 001c 02FA03F3 		lsl	r3, r2, r3
 4230 0020 FB81     		strh	r3, [r7, #14]	@ movhi
2014:../STM32F10x_StdPeriph_Lib_V3.5.0/Libraries/STM32F10x_StdPeriph_Driver/src/stm32f10x_tim.c **** 
2015:../STM32F10x_StdPeriph_Lib_V3.5.0/Libraries/STM32F10x_StdPeriph_Driver/src/stm32f10x_tim.c ****   /* Reset the CCxNE Bit */
2016:../STM32F10x_StdPeriph_Lib_V3.5.0/Libraries/STM32F10x_StdPeriph_Driver/src/stm32f10x_tim.c ****   TIMx->CCER &= (uint16_t) ~tmp;
 4231              		.loc 1 2016 0
 4232 0022 7B68     		ldr	r3, [r7, #4]
 4233 0024 1B8C     		ldrh	r3, [r3, #32]	@ movhi
 4234 0026 9AB2     		uxth	r2, r3
 4235 0028 FB89     		ldrh	r3, [r7, #14]	@ movhi
 4236 002a 6FEA0303 		mvn	r3, r3
 4237 002e 9BB2     		uxth	r3, r3
 4238 0030 1340     		ands	r3, r3, r2
 4239 0032 9AB2     		uxth	r2, r3
 4240 0034 7B68     		ldr	r3, [r7, #4]
 4241 0036 1A84     		strh	r2, [r3, #32]	@ movhi
2017:../STM32F10x_StdPeriph_Lib_V3.5.0/Libraries/STM32F10x_StdPeriph_Driver/src/stm32f10x_tim.c **** 
2018:../STM32F10x_StdPeriph_Lib_V3.5.0/Libraries/STM32F10x_StdPeriph_Driver/src/stm32f10x_tim.c ****   /* Set or reset the CCxNE Bit */ 
2019:../STM32F10x_StdPeriph_Lib_V3.5.0/Libraries/STM32F10x_StdPeriph_Driver/src/stm32f10x_tim.c ****   TIMx->CCER |=  (uint16_t)(TIM_CCxN << TIM_Channel);
 4242              		.loc 1 2019 0
 4243 0038 7B68     		ldr	r3, [r7, #4]
 4244 003a 1B8C     		ldrh	r3, [r3, #32]	@ movhi
 4245 003c 9AB2     		uxth	r2, r3
 4246 003e 3988     		ldrh	r1, [r7, #0]
 4247 0040 7B88     		ldrh	r3, [r7, #2]
 4248 0042 01FA03F3 		lsl	r3, r1, r3
 4249 0046 9BB2     		uxth	r3, r3
 4250 0048 1343     		orrs	r3, r3, r2
 4251 004a 9AB2     		uxth	r2, r3
 4252 004c 7B68     		ldr	r3, [r7, #4]
 4253 004e 1A84     		strh	r2, [r3, #32]	@ movhi
2020:../STM32F10x_StdPeriph_Lib_V3.5.0/Libraries/STM32F10x_StdPeriph_Driver/src/stm32f10x_tim.c **** }
 4254              		.loc 1 2020 0
 4255 0050 07F11407 		add	r7, r7, #20
 4256 0054 BD46     		mov	sp, r7
 4257 0056 80BC     		pop	{r7}
 4258 0058 7047     		bx	lr
 4259              		.cfi_endproc
 4260              	.LFE86:
 4262 005a 00BF     		.section	.text.TIM_SelectOCxM,"ax",%progbits
 4263              		.align	2
 4264              		.global	TIM_SelectOCxM
 4265              		.thumb
 4266              		.thumb_func
 4268              	TIM_SelectOCxM:
 4269              	.LFB87:
2021:../STM32F10x_StdPeriph_Lib_V3.5.0/Libraries/STM32F10x_StdPeriph_Driver/src/stm32f10x_tim.c **** 
2022:../STM32F10x_StdPeriph_Lib_V3.5.0/Libraries/STM32F10x_StdPeriph_Driver/src/stm32f10x_tim.c **** /**
2023:../STM32F10x_StdPeriph_Lib_V3.5.0/Libraries/STM32F10x_StdPeriph_Driver/src/stm32f10x_tim.c ****   * @brief  Selects the TIM Output Compare Mode.
2024:../STM32F10x_StdPeriph_Lib_V3.5.0/Libraries/STM32F10x_StdPeriph_Driver/src/stm32f10x_tim.c ****   * @note   This function disables the selected channel before changing the Output
2025:../STM32F10x_StdPeriph_Lib_V3.5.0/Libraries/STM32F10x_StdPeriph_Driver/src/stm32f10x_tim.c ****   *         Compare Mode.
2026:../STM32F10x_StdPeriph_Lib_V3.5.0/Libraries/STM32F10x_StdPeriph_Driver/src/stm32f10x_tim.c ****   *         User has to enable this channel using TIM_CCxCmd and TIM_CCxNCmd functions.
2027:../STM32F10x_StdPeriph_Lib_V3.5.0/Libraries/STM32F10x_StdPeriph_Driver/src/stm32f10x_tim.c ****   * @param  TIMx: where x can be 1 to 17 except 6 and 7 to select the TIM peripheral.
2028:../STM32F10x_StdPeriph_Lib_V3.5.0/Libraries/STM32F10x_StdPeriph_Driver/src/stm32f10x_tim.c ****   * @param  TIM_Channel: specifies the TIM Channel
2029:../STM32F10x_StdPeriph_Lib_V3.5.0/Libraries/STM32F10x_StdPeriph_Driver/src/stm32f10x_tim.c ****   *   This parameter can be one of the following values:
2030:../STM32F10x_StdPeriph_Lib_V3.5.0/Libraries/STM32F10x_StdPeriph_Driver/src/stm32f10x_tim.c ****   *     @arg TIM_Channel_1: TIM Channel 1
2031:../STM32F10x_StdPeriph_Lib_V3.5.0/Libraries/STM32F10x_StdPeriph_Driver/src/stm32f10x_tim.c ****   *     @arg TIM_Channel_2: TIM Channel 2
2032:../STM32F10x_StdPeriph_Lib_V3.5.0/Libraries/STM32F10x_StdPeriph_Driver/src/stm32f10x_tim.c ****   *     @arg TIM_Channel_3: TIM Channel 3
2033:../STM32F10x_StdPeriph_Lib_V3.5.0/Libraries/STM32F10x_StdPeriph_Driver/src/stm32f10x_tim.c ****   *     @arg TIM_Channel_4: TIM Channel 4
2034:../STM32F10x_StdPeriph_Lib_V3.5.0/Libraries/STM32F10x_StdPeriph_Driver/src/stm32f10x_tim.c ****   * @param  TIM_OCMode: specifies the TIM Output Compare Mode.
2035:../STM32F10x_StdPeriph_Lib_V3.5.0/Libraries/STM32F10x_StdPeriph_Driver/src/stm32f10x_tim.c ****   *   This parameter can be one of the following values:
2036:../STM32F10x_StdPeriph_Lib_V3.5.0/Libraries/STM32F10x_StdPeriph_Driver/src/stm32f10x_tim.c ****   *     @arg TIM_OCMode_Timing
2037:../STM32F10x_StdPeriph_Lib_V3.5.0/Libraries/STM32F10x_StdPeriph_Driver/src/stm32f10x_tim.c ****   *     @arg TIM_OCMode_Active
2038:../STM32F10x_StdPeriph_Lib_V3.5.0/Libraries/STM32F10x_StdPeriph_Driver/src/stm32f10x_tim.c ****   *     @arg TIM_OCMode_Toggle
2039:../STM32F10x_StdPeriph_Lib_V3.5.0/Libraries/STM32F10x_StdPeriph_Driver/src/stm32f10x_tim.c ****   *     @arg TIM_OCMode_PWM1
2040:../STM32F10x_StdPeriph_Lib_V3.5.0/Libraries/STM32F10x_StdPeriph_Driver/src/stm32f10x_tim.c ****   *     @arg TIM_OCMode_PWM2
2041:../STM32F10x_StdPeriph_Lib_V3.5.0/Libraries/STM32F10x_StdPeriph_Driver/src/stm32f10x_tim.c ****   *     @arg TIM_ForcedAction_Active
2042:../STM32F10x_StdPeriph_Lib_V3.5.0/Libraries/STM32F10x_StdPeriph_Driver/src/stm32f10x_tim.c ****   *     @arg TIM_ForcedAction_InActive
2043:../STM32F10x_StdPeriph_Lib_V3.5.0/Libraries/STM32F10x_StdPeriph_Driver/src/stm32f10x_tim.c ****   * @retval None
2044:../STM32F10x_StdPeriph_Lib_V3.5.0/Libraries/STM32F10x_StdPeriph_Driver/src/stm32f10x_tim.c ****   */
2045:../STM32F10x_StdPeriph_Lib_V3.5.0/Libraries/STM32F10x_StdPeriph_Driver/src/stm32f10x_tim.c **** void TIM_SelectOCxM(TIM_TypeDef* TIMx, uint16_t TIM_Channel, uint16_t TIM_OCMode)
2046:../STM32F10x_StdPeriph_Lib_V3.5.0/Libraries/STM32F10x_StdPeriph_Driver/src/stm32f10x_tim.c **** {
 4270              		.loc 1 2046 0
 4271              		.cfi_startproc
 4272              		@ args = 0, pretend = 0, frame = 16
 4273              		@ frame_needed = 1, uses_anonymous_args = 0
 4274              		@ link register save eliminated.
 4275 0000 80B4     		push	{r7}
 4276              	.LCFI174:
 4277              		.cfi_def_cfa_offset 4
 4278              		.cfi_offset 7, -4
 4279 0002 85B0     		sub	sp, sp, #20
 4280              	.LCFI175:
 4281              		.cfi_def_cfa_offset 24
 4282 0004 00AF     		add	r7, sp, #0
 4283              	.LCFI176:
 4284              		.cfi_def_cfa_register 7
 4285 0006 7860     		str	r0, [r7, #4]
 4286 0008 1346     		mov	r3, r2
 4287 000a 0A46     		mov	r2, r1	@ movhi
 4288 000c 7A80     		strh	r2, [r7, #2]	@ movhi
 4289 000e 3B80     		strh	r3, [r7, #0]	@ movhi
2047:../STM32F10x_StdPeriph_Lib_V3.5.0/Libraries/STM32F10x_StdPeriph_Driver/src/stm32f10x_tim.c ****   uint32_t tmp = 0;
 4290              		.loc 1 2047 0
 4291 0010 4FF00003 		mov	r3, #0
 4292 0014 FB60     		str	r3, [r7, #12]
2048:../STM32F10x_StdPeriph_Lib_V3.5.0/Libraries/STM32F10x_StdPeriph_Driver/src/stm32f10x_tim.c ****   uint16_t tmp1 = 0;
 4293              		.loc 1 2048 0
 4294 0016 4FF00003 		mov	r3, #0
 4295 001a 7B81     		strh	r3, [r7, #10]	@ movhi
2049:../STM32F10x_StdPeriph_Lib_V3.5.0/Libraries/STM32F10x_StdPeriph_Driver/src/stm32f10x_tim.c **** 
2050:../STM32F10x_StdPeriph_Lib_V3.5.0/Libraries/STM32F10x_StdPeriph_Driver/src/stm32f10x_tim.c ****   /* Check the parameters */
2051:../STM32F10x_StdPeriph_Lib_V3.5.0/Libraries/STM32F10x_StdPeriph_Driver/src/stm32f10x_tim.c ****   assert_param(IS_TIM_LIST8_PERIPH(TIMx));
2052:../STM32F10x_StdPeriph_Lib_V3.5.0/Libraries/STM32F10x_StdPeriph_Driver/src/stm32f10x_tim.c ****   assert_param(IS_TIM_CHANNEL(TIM_Channel));
2053:../STM32F10x_StdPeriph_Lib_V3.5.0/Libraries/STM32F10x_StdPeriph_Driver/src/stm32f10x_tim.c ****   assert_param(IS_TIM_OCM(TIM_OCMode));
2054:../STM32F10x_StdPeriph_Lib_V3.5.0/Libraries/STM32F10x_StdPeriph_Driver/src/stm32f10x_tim.c **** 
2055:../STM32F10x_StdPeriph_Lib_V3.5.0/Libraries/STM32F10x_StdPeriph_Driver/src/stm32f10x_tim.c ****   tmp = (uint32_t) TIMx;
 4296              		.loc 1 2055 0
 4297 001c 7B68     		ldr	r3, [r7, #4]
 4298 001e FB60     		str	r3, [r7, #12]
2056:../STM32F10x_StdPeriph_Lib_V3.5.0/Libraries/STM32F10x_StdPeriph_Driver/src/stm32f10x_tim.c ****   tmp += CCMR_Offset;
 4299              		.loc 1 2056 0
 4300 0020 FB68     		ldr	r3, [r7, #12]
 4301 0022 03F11803 		add	r3, r3, #24
 4302 0026 FB60     		str	r3, [r7, #12]
2057:../STM32F10x_StdPeriph_Lib_V3.5.0/Libraries/STM32F10x_StdPeriph_Driver/src/stm32f10x_tim.c **** 
2058:../STM32F10x_StdPeriph_Lib_V3.5.0/Libraries/STM32F10x_StdPeriph_Driver/src/stm32f10x_tim.c ****   tmp1 = CCER_CCE_Set << (uint16_t)TIM_Channel;
 4303              		.loc 1 2058 0
 4304 0028 7B88     		ldrh	r3, [r7, #2]
 4305 002a 4FF00102 		mov	r2, #1
 4306 002e 02FA03F3 		lsl	r3, r2, r3
 4307 0032 7B81     		strh	r3, [r7, #10]	@ movhi
2059:../STM32F10x_StdPeriph_Lib_V3.5.0/Libraries/STM32F10x_StdPeriph_Driver/src/stm32f10x_tim.c **** 
2060:../STM32F10x_StdPeriph_Lib_V3.5.0/Libraries/STM32F10x_StdPeriph_Driver/src/stm32f10x_tim.c ****   /* Disable the Channel: Reset the CCxE Bit */
2061:../STM32F10x_StdPeriph_Lib_V3.5.0/Libraries/STM32F10x_StdPeriph_Driver/src/stm32f10x_tim.c ****   TIMx->CCER &= (uint16_t) ~tmp1;
 4308              		.loc 1 2061 0
 4309 0034 7B68     		ldr	r3, [r7, #4]
 4310 0036 1B8C     		ldrh	r3, [r3, #32]	@ movhi
 4311 0038 9AB2     		uxth	r2, r3
 4312 003a 7B89     		ldrh	r3, [r7, #10]	@ movhi
 4313 003c 6FEA0303 		mvn	r3, r3
 4314 0040 9BB2     		uxth	r3, r3
 4315 0042 1340     		ands	r3, r3, r2
 4316 0044 9AB2     		uxth	r2, r3
 4317 0046 7B68     		ldr	r3, [r7, #4]
 4318 0048 1A84     		strh	r2, [r3, #32]	@ movhi
2062:../STM32F10x_StdPeriph_Lib_V3.5.0/Libraries/STM32F10x_StdPeriph_Driver/src/stm32f10x_tim.c **** 
2063:../STM32F10x_StdPeriph_Lib_V3.5.0/Libraries/STM32F10x_StdPeriph_Driver/src/stm32f10x_tim.c ****   if((TIM_Channel == TIM_Channel_1) ||(TIM_Channel == TIM_Channel_3))
 4319              		.loc 1 2063 0
 4320 004a 7B88     		ldrh	r3, [r7, #2]
 4321 004c 002B     		cmp	r3, #0
 4322 004e 02D0     		beq	.L130
 4323              		.loc 1 2063 0 is_stmt 0 discriminator 1
 4324 0050 7B88     		ldrh	r3, [r7, #2]
 4325 0052 082B     		cmp	r3, #8
 4326 0054 13D1     		bne	.L131
 4327              	.L130:
2064:../STM32F10x_StdPeriph_Lib_V3.5.0/Libraries/STM32F10x_StdPeriph_Driver/src/stm32f10x_tim.c ****   {
2065:../STM32F10x_StdPeriph_Lib_V3.5.0/Libraries/STM32F10x_StdPeriph_Driver/src/stm32f10x_tim.c ****     tmp += (TIM_Channel>>1);
 4328              		.loc 1 2065 0 is_stmt 1
 4329 0056 7B88     		ldrh	r3, [r7, #2]
 4330 0058 4FEA5303 		lsr	r3, r3, #1
 4331 005c 9BB2     		uxth	r3, r3
 4332 005e FA68     		ldr	r2, [r7, #12]
 4333 0060 D318     		adds	r3, r2, r3
 4334 0062 FB60     		str	r3, [r7, #12]
2066:../STM32F10x_StdPeriph_Lib_V3.5.0/Libraries/STM32F10x_StdPeriph_Driver/src/stm32f10x_tim.c **** 
2067:../STM32F10x_StdPeriph_Lib_V3.5.0/Libraries/STM32F10x_StdPeriph_Driver/src/stm32f10x_tim.c ****     /* Reset the OCxM bits in the CCMRx register */
2068:../STM32F10x_StdPeriph_Lib_V3.5.0/Libraries/STM32F10x_StdPeriph_Driver/src/stm32f10x_tim.c ****     *(__IO uint32_t *) tmp &= (uint32_t)~((uint32_t)TIM_CCMR1_OC1M);
 4335              		.loc 1 2068 0
 4336 0064 FB68     		ldr	r3, [r7, #12]
 4337 0066 FA68     		ldr	r2, [r7, #12]
 4338 0068 1268     		ldr	r2, [r2, #0]
 4339 006a 22F07002 		bic	r2, r2, #112
 4340 006e 1A60     		str	r2, [r3, #0]
2069:../STM32F10x_StdPeriph_Lib_V3.5.0/Libraries/STM32F10x_StdPeriph_Driver/src/stm32f10x_tim.c ****    
2070:../STM32F10x_StdPeriph_Lib_V3.5.0/Libraries/STM32F10x_StdPeriph_Driver/src/stm32f10x_tim.c ****     /* Configure the OCxM bits in the CCMRx register */
2071:../STM32F10x_StdPeriph_Lib_V3.5.0/Libraries/STM32F10x_StdPeriph_Driver/src/stm32f10x_tim.c ****     *(__IO uint32_t *) tmp |= TIM_OCMode;
 4341              		.loc 1 2071 0
 4342 0070 FB68     		ldr	r3, [r7, #12]
 4343 0072 FA68     		ldr	r2, [r7, #12]
 4344 0074 1168     		ldr	r1, [r2, #0]
 4345 0076 3A88     		ldrh	r2, [r7, #0]
 4346 0078 0A43     		orrs	r2, r2, r1
 4347 007a 1A60     		str	r2, [r3, #0]
 4348 007c 18E0     		b	.L129
 4349              	.L131:
2072:../STM32F10x_StdPeriph_Lib_V3.5.0/Libraries/STM32F10x_StdPeriph_Driver/src/stm32f10x_tim.c ****   }
2073:../STM32F10x_StdPeriph_Lib_V3.5.0/Libraries/STM32F10x_StdPeriph_Driver/src/stm32f10x_tim.c ****   else
2074:../STM32F10x_StdPeriph_Lib_V3.5.0/Libraries/STM32F10x_StdPeriph_Driver/src/stm32f10x_tim.c ****   {
2075:../STM32F10x_StdPeriph_Lib_V3.5.0/Libraries/STM32F10x_StdPeriph_Driver/src/stm32f10x_tim.c ****     tmp += (uint16_t)(TIM_Channel - (uint16_t)4)>> (uint16_t)1;
 4350              		.loc 1 2075 0
 4351 007e 7B88     		ldrh	r3, [r7, #2]	@ movhi
 4352 0080 A3F10403 		sub	r3, r3, #4
 4353 0084 9BB2     		uxth	r3, r3
 4354 0086 4FEA5303 		lsr	r3, r3, #1
 4355 008a 9BB2     		uxth	r3, r3
 4356 008c FA68     		ldr	r2, [r7, #12]
 4357 008e D318     		adds	r3, r2, r3
 4358 0090 FB60     		str	r3, [r7, #12]
2076:../STM32F10x_StdPeriph_Lib_V3.5.0/Libraries/STM32F10x_StdPeriph_Driver/src/stm32f10x_tim.c **** 
2077:../STM32F10x_StdPeriph_Lib_V3.5.0/Libraries/STM32F10x_StdPeriph_Driver/src/stm32f10x_tim.c ****     /* Reset the OCxM bits in the CCMRx register */
2078:../STM32F10x_StdPeriph_Lib_V3.5.0/Libraries/STM32F10x_StdPeriph_Driver/src/stm32f10x_tim.c ****     *(__IO uint32_t *) tmp &= (uint32_t)~((uint32_t)TIM_CCMR1_OC2M);
 4359              		.loc 1 2078 0
 4360 0092 FB68     		ldr	r3, [r7, #12]
 4361 0094 FA68     		ldr	r2, [r7, #12]
 4362 0096 1268     		ldr	r2, [r2, #0]
 4363 0098 22F4E042 		bic	r2, r2, #28672
 4364 009c 1A60     		str	r2, [r3, #0]
2079:../STM32F10x_StdPeriph_Lib_V3.5.0/Libraries/STM32F10x_StdPeriph_Driver/src/stm32f10x_tim.c ****     
2080:../STM32F10x_StdPeriph_Lib_V3.5.0/Libraries/STM32F10x_StdPeriph_Driver/src/stm32f10x_tim.c ****     /* Configure the OCxM bits in the CCMRx register */
2081:../STM32F10x_StdPeriph_Lib_V3.5.0/Libraries/STM32F10x_StdPeriph_Driver/src/stm32f10x_tim.c ****     *(__IO uint32_t *) tmp |= (uint16_t)(TIM_OCMode << 8);
 4365              		.loc 1 2081 0
 4366 009e FB68     		ldr	r3, [r7, #12]
 4367 00a0 FA68     		ldr	r2, [r7, #12]
 4368 00a2 1168     		ldr	r1, [r2, #0]
 4369 00a4 3A88     		ldrh	r2, [r7, #0]	@ movhi
 4370 00a6 4FEA0222 		lsl	r2, r2, #8
 4371 00aa 92B2     		uxth	r2, r2
 4372 00ac 0A43     		orrs	r2, r2, r1
 4373 00ae 1A60     		str	r2, [r3, #0]
 4374              	.L129:
2082:../STM32F10x_StdPeriph_Lib_V3.5.0/Libraries/STM32F10x_StdPeriph_Driver/src/stm32f10x_tim.c ****   }
2083:../STM32F10x_StdPeriph_Lib_V3.5.0/Libraries/STM32F10x_StdPeriph_Driver/src/stm32f10x_tim.c **** }
 4375              		.loc 1 2083 0
 4376 00b0 07F11407 		add	r7, r7, #20
 4377 00b4 BD46     		mov	sp, r7
 4378 00b6 80BC     		pop	{r7}
 4379 00b8 7047     		bx	lr
 4380              		.cfi_endproc
 4381              	.LFE87:
 4383 00ba 00BF     		.section	.text.TIM_UpdateDisableConfig,"ax",%progbits
 4384              		.align	2
 4385              		.global	TIM_UpdateDisableConfig
 4386              		.thumb
 4387              		.thumb_func
 4389              	TIM_UpdateDisableConfig:
 4390              	.LFB88:
2084:../STM32F10x_StdPeriph_Lib_V3.5.0/Libraries/STM32F10x_StdPeriph_Driver/src/stm32f10x_tim.c **** 
2085:../STM32F10x_StdPeriph_Lib_V3.5.0/Libraries/STM32F10x_StdPeriph_Driver/src/stm32f10x_tim.c **** /**
2086:../STM32F10x_StdPeriph_Lib_V3.5.0/Libraries/STM32F10x_StdPeriph_Driver/src/stm32f10x_tim.c ****   * @brief  Enables or Disables the TIMx Update event.
2087:../STM32F10x_StdPeriph_Lib_V3.5.0/Libraries/STM32F10x_StdPeriph_Driver/src/stm32f10x_tim.c ****   * @param  TIMx: where x can be 1 to 17 to select the TIM peripheral.
2088:../STM32F10x_StdPeriph_Lib_V3.5.0/Libraries/STM32F10x_StdPeriph_Driver/src/stm32f10x_tim.c ****   * @param  NewState: new state of the TIMx UDIS bit
2089:../STM32F10x_StdPeriph_Lib_V3.5.0/Libraries/STM32F10x_StdPeriph_Driver/src/stm32f10x_tim.c ****   *   This parameter can be: ENABLE or DISABLE.
2090:../STM32F10x_StdPeriph_Lib_V3.5.0/Libraries/STM32F10x_StdPeriph_Driver/src/stm32f10x_tim.c ****   * @retval None
2091:../STM32F10x_StdPeriph_Lib_V3.5.0/Libraries/STM32F10x_StdPeriph_Driver/src/stm32f10x_tim.c ****   */
2092:../STM32F10x_StdPeriph_Lib_V3.5.0/Libraries/STM32F10x_StdPeriph_Driver/src/stm32f10x_tim.c **** void TIM_UpdateDisableConfig(TIM_TypeDef* TIMx, FunctionalState NewState)
2093:../STM32F10x_StdPeriph_Lib_V3.5.0/Libraries/STM32F10x_StdPeriph_Driver/src/stm32f10x_tim.c **** {
 4391              		.loc 1 2093 0
 4392              		.cfi_startproc
 4393              		@ args = 0, pretend = 0, frame = 8
 4394              		@ frame_needed = 1, uses_anonymous_args = 0
 4395              		@ link register save eliminated.
 4396 0000 80B4     		push	{r7}
 4397              	.LCFI177:
 4398              		.cfi_def_cfa_offset 4
 4399              		.cfi_offset 7, -4
 4400 0002 83B0     		sub	sp, sp, #12
 4401              	.LCFI178:
 4402              		.cfi_def_cfa_offset 16
 4403 0004 00AF     		add	r7, sp, #0
 4404              	.LCFI179:
 4405              		.cfi_def_cfa_register 7
 4406 0006 7860     		str	r0, [r7, #4]
 4407 0008 0B46     		mov	r3, r1
 4408 000a FB70     		strb	r3, [r7, #3]
2094:../STM32F10x_StdPeriph_Lib_V3.5.0/Libraries/STM32F10x_StdPeriph_Driver/src/stm32f10x_tim.c ****   /* Check the parameters */
2095:../STM32F10x_StdPeriph_Lib_V3.5.0/Libraries/STM32F10x_StdPeriph_Driver/src/stm32f10x_tim.c ****   assert_param(IS_TIM_ALL_PERIPH(TIMx));
2096:../STM32F10x_StdPeriph_Lib_V3.5.0/Libraries/STM32F10x_StdPeriph_Driver/src/stm32f10x_tim.c ****   assert_param(IS_FUNCTIONAL_STATE(NewState));
2097:../STM32F10x_StdPeriph_Lib_V3.5.0/Libraries/STM32F10x_StdPeriph_Driver/src/stm32f10x_tim.c ****   if (NewState != DISABLE)
 4409              		.loc 1 2097 0
 4410 000c FB78     		ldrb	r3, [r7, #3]	@ zero_extendqisi2
 4411 000e 002B     		cmp	r3, #0
 4412 0010 08D0     		beq	.L134
2098:../STM32F10x_StdPeriph_Lib_V3.5.0/Libraries/STM32F10x_StdPeriph_Driver/src/stm32f10x_tim.c ****   {
2099:../STM32F10x_StdPeriph_Lib_V3.5.0/Libraries/STM32F10x_StdPeriph_Driver/src/stm32f10x_tim.c ****     /* Set the Update Disable Bit */
2100:../STM32F10x_StdPeriph_Lib_V3.5.0/Libraries/STM32F10x_StdPeriph_Driver/src/stm32f10x_tim.c ****     TIMx->CR1 |= TIM_CR1_UDIS;
 4413              		.loc 1 2100 0
 4414 0012 7B68     		ldr	r3, [r7, #4]
 4415 0014 1B88     		ldrh	r3, [r3, #0]	@ movhi
 4416 0016 9BB2     		uxth	r3, r3
 4417 0018 43F00203 		orr	r3, r3, #2
 4418 001c 9AB2     		uxth	r2, r3
 4419 001e 7B68     		ldr	r3, [r7, #4]
 4420 0020 1A80     		strh	r2, [r3, #0]	@ movhi
 4421 0022 07E0     		b	.L133
 4422              	.L134:
2101:../STM32F10x_StdPeriph_Lib_V3.5.0/Libraries/STM32F10x_StdPeriph_Driver/src/stm32f10x_tim.c ****   }
2102:../STM32F10x_StdPeriph_Lib_V3.5.0/Libraries/STM32F10x_StdPeriph_Driver/src/stm32f10x_tim.c ****   else
2103:../STM32F10x_StdPeriph_Lib_V3.5.0/Libraries/STM32F10x_StdPeriph_Driver/src/stm32f10x_tim.c ****   {
2104:../STM32F10x_StdPeriph_Lib_V3.5.0/Libraries/STM32F10x_StdPeriph_Driver/src/stm32f10x_tim.c ****     /* Reset the Update Disable Bit */
2105:../STM32F10x_StdPeriph_Lib_V3.5.0/Libraries/STM32F10x_StdPeriph_Driver/src/stm32f10x_tim.c ****     TIMx->CR1 &= (uint16_t)~((uint16_t)TIM_CR1_UDIS);
 4423              		.loc 1 2105 0
 4424 0024 7B68     		ldr	r3, [r7, #4]
 4425 0026 1B88     		ldrh	r3, [r3, #0]	@ movhi
 4426 0028 9BB2     		uxth	r3, r3
 4427 002a 23F00203 		bic	r3, r3, #2
 4428 002e 9AB2     		uxth	r2, r3
 4429 0030 7B68     		ldr	r3, [r7, #4]
 4430 0032 1A80     		strh	r2, [r3, #0]	@ movhi
 4431              	.L133:
2106:../STM32F10x_StdPeriph_Lib_V3.5.0/Libraries/STM32F10x_StdPeriph_Driver/src/stm32f10x_tim.c ****   }
2107:../STM32F10x_StdPeriph_Lib_V3.5.0/Libraries/STM32F10x_StdPeriph_Driver/src/stm32f10x_tim.c **** }
 4432              		.loc 1 2107 0
 4433 0034 07F10C07 		add	r7, r7, #12
 4434 0038 BD46     		mov	sp, r7
 4435 003a 80BC     		pop	{r7}
 4436 003c 7047     		bx	lr
 4437              		.cfi_endproc
 4438              	.LFE88:
 4440 003e 00BF     		.section	.text.TIM_UpdateRequestConfig,"ax",%progbits
 4441              		.align	2
 4442              		.global	TIM_UpdateRequestConfig
 4443              		.thumb
 4444              		.thumb_func
 4446              	TIM_UpdateRequestConfig:
 4447              	.LFB89:
2108:../STM32F10x_StdPeriph_Lib_V3.5.0/Libraries/STM32F10x_StdPeriph_Driver/src/stm32f10x_tim.c **** 
2109:../STM32F10x_StdPeriph_Lib_V3.5.0/Libraries/STM32F10x_StdPeriph_Driver/src/stm32f10x_tim.c **** /**
2110:../STM32F10x_StdPeriph_Lib_V3.5.0/Libraries/STM32F10x_StdPeriph_Driver/src/stm32f10x_tim.c ****   * @brief  Configures the TIMx Update Request Interrupt source.
2111:../STM32F10x_StdPeriph_Lib_V3.5.0/Libraries/STM32F10x_StdPeriph_Driver/src/stm32f10x_tim.c ****   * @param  TIMx: where x can be 1 to 17 to select the TIM peripheral.
2112:../STM32F10x_StdPeriph_Lib_V3.5.0/Libraries/STM32F10x_StdPeriph_Driver/src/stm32f10x_tim.c ****   * @param  TIM_UpdateSource: specifies the Update source.
2113:../STM32F10x_StdPeriph_Lib_V3.5.0/Libraries/STM32F10x_StdPeriph_Driver/src/stm32f10x_tim.c ****   *   This parameter can be one of the following values:
2114:../STM32F10x_StdPeriph_Lib_V3.5.0/Libraries/STM32F10x_StdPeriph_Driver/src/stm32f10x_tim.c ****   *     @arg TIM_UpdateSource_Regular: Source of update is the counter overflow/underflow
2115:../STM32F10x_StdPeriph_Lib_V3.5.0/Libraries/STM32F10x_StdPeriph_Driver/src/stm32f10x_tim.c ****                                        or the setting of UG bit, or an update generation
2116:../STM32F10x_StdPeriph_Lib_V3.5.0/Libraries/STM32F10x_StdPeriph_Driver/src/stm32f10x_tim.c ****                                        through the slave mode controller.
2117:../STM32F10x_StdPeriph_Lib_V3.5.0/Libraries/STM32F10x_StdPeriph_Driver/src/stm32f10x_tim.c ****   *     @arg TIM_UpdateSource_Global: Source of update is counter overflow/underflow.
2118:../STM32F10x_StdPeriph_Lib_V3.5.0/Libraries/STM32F10x_StdPeriph_Driver/src/stm32f10x_tim.c ****   * @retval None
2119:../STM32F10x_StdPeriph_Lib_V3.5.0/Libraries/STM32F10x_StdPeriph_Driver/src/stm32f10x_tim.c ****   */
2120:../STM32F10x_StdPeriph_Lib_V3.5.0/Libraries/STM32F10x_StdPeriph_Driver/src/stm32f10x_tim.c **** void TIM_UpdateRequestConfig(TIM_TypeDef* TIMx, uint16_t TIM_UpdateSource)
2121:../STM32F10x_StdPeriph_Lib_V3.5.0/Libraries/STM32F10x_StdPeriph_Driver/src/stm32f10x_tim.c **** {
 4448              		.loc 1 2121 0
 4449              		.cfi_startproc
 4450              		@ args = 0, pretend = 0, frame = 8
 4451              		@ frame_needed = 1, uses_anonymous_args = 0
 4452              		@ link register save eliminated.
 4453 0000 80B4     		push	{r7}
 4454              	.LCFI180:
 4455              		.cfi_def_cfa_offset 4
 4456              		.cfi_offset 7, -4
 4457 0002 83B0     		sub	sp, sp, #12
 4458              	.LCFI181:
 4459              		.cfi_def_cfa_offset 16
 4460 0004 00AF     		add	r7, sp, #0
 4461              	.LCFI182:
 4462              		.cfi_def_cfa_register 7
 4463 0006 7860     		str	r0, [r7, #4]
 4464 0008 0B46     		mov	r3, r1
 4465 000a 7B80     		strh	r3, [r7, #2]	@ movhi
2122:../STM32F10x_StdPeriph_Lib_V3.5.0/Libraries/STM32F10x_StdPeriph_Driver/src/stm32f10x_tim.c ****   /* Check the parameters */
2123:../STM32F10x_StdPeriph_Lib_V3.5.0/Libraries/STM32F10x_StdPeriph_Driver/src/stm32f10x_tim.c ****   assert_param(IS_TIM_ALL_PERIPH(TIMx));
2124:../STM32F10x_StdPeriph_Lib_V3.5.0/Libraries/STM32F10x_StdPeriph_Driver/src/stm32f10x_tim.c ****   assert_param(IS_TIM_UPDATE_SOURCE(TIM_UpdateSource));
2125:../STM32F10x_StdPeriph_Lib_V3.5.0/Libraries/STM32F10x_StdPeriph_Driver/src/stm32f10x_tim.c ****   if (TIM_UpdateSource != TIM_UpdateSource_Global)
 4466              		.loc 1 2125 0
 4467 000c 7B88     		ldrh	r3, [r7, #2]
 4468 000e 002B     		cmp	r3, #0
 4469 0010 08D0     		beq	.L137
2126:../STM32F10x_StdPeriph_Lib_V3.5.0/Libraries/STM32F10x_StdPeriph_Driver/src/stm32f10x_tim.c ****   {
2127:../STM32F10x_StdPeriph_Lib_V3.5.0/Libraries/STM32F10x_StdPeriph_Driver/src/stm32f10x_tim.c ****     /* Set the URS Bit */
2128:../STM32F10x_StdPeriph_Lib_V3.5.0/Libraries/STM32F10x_StdPeriph_Driver/src/stm32f10x_tim.c ****     TIMx->CR1 |= TIM_CR1_URS;
 4470              		.loc 1 2128 0
 4471 0012 7B68     		ldr	r3, [r7, #4]
 4472 0014 1B88     		ldrh	r3, [r3, #0]	@ movhi
 4473 0016 9BB2     		uxth	r3, r3
 4474 0018 43F00403 		orr	r3, r3, #4
 4475 001c 9AB2     		uxth	r2, r3
 4476 001e 7B68     		ldr	r3, [r7, #4]
 4477 0020 1A80     		strh	r2, [r3, #0]	@ movhi
 4478 0022 07E0     		b	.L136
 4479              	.L137:
2129:../STM32F10x_StdPeriph_Lib_V3.5.0/Libraries/STM32F10x_StdPeriph_Driver/src/stm32f10x_tim.c ****   }
2130:../STM32F10x_StdPeriph_Lib_V3.5.0/Libraries/STM32F10x_StdPeriph_Driver/src/stm32f10x_tim.c ****   else
2131:../STM32F10x_StdPeriph_Lib_V3.5.0/Libraries/STM32F10x_StdPeriph_Driver/src/stm32f10x_tim.c ****   {
2132:../STM32F10x_StdPeriph_Lib_V3.5.0/Libraries/STM32F10x_StdPeriph_Driver/src/stm32f10x_tim.c ****     /* Reset the URS Bit */
2133:../STM32F10x_StdPeriph_Lib_V3.5.0/Libraries/STM32F10x_StdPeriph_Driver/src/stm32f10x_tim.c ****     TIMx->CR1 &= (uint16_t)~((uint16_t)TIM_CR1_URS);
 4480              		.loc 1 2133 0
 4481 0024 7B68     		ldr	r3, [r7, #4]
 4482 0026 1B88     		ldrh	r3, [r3, #0]	@ movhi
 4483 0028 9BB2     		uxth	r3, r3
 4484 002a 23F00403 		bic	r3, r3, #4
 4485 002e 9AB2     		uxth	r2, r3
 4486 0030 7B68     		ldr	r3, [r7, #4]
 4487 0032 1A80     		strh	r2, [r3, #0]	@ movhi
 4488              	.L136:
2134:../STM32F10x_StdPeriph_Lib_V3.5.0/Libraries/STM32F10x_StdPeriph_Driver/src/stm32f10x_tim.c ****   }
2135:../STM32F10x_StdPeriph_Lib_V3.5.0/Libraries/STM32F10x_StdPeriph_Driver/src/stm32f10x_tim.c **** }
 4489              		.loc 1 2135 0
 4490 0034 07F10C07 		add	r7, r7, #12
 4491 0038 BD46     		mov	sp, r7
 4492 003a 80BC     		pop	{r7}
 4493 003c 7047     		bx	lr
 4494              		.cfi_endproc
 4495              	.LFE89:
 4497 003e 00BF     		.section	.text.TIM_SelectHallSensor,"ax",%progbits
 4498              		.align	2
 4499              		.global	TIM_SelectHallSensor
 4500              		.thumb
 4501              		.thumb_func
 4503              	TIM_SelectHallSensor:
 4504              	.LFB90:
2136:../STM32F10x_StdPeriph_Lib_V3.5.0/Libraries/STM32F10x_StdPeriph_Driver/src/stm32f10x_tim.c **** 
2137:../STM32F10x_StdPeriph_Lib_V3.5.0/Libraries/STM32F10x_StdPeriph_Driver/src/stm32f10x_tim.c **** /**
2138:../STM32F10x_StdPeriph_Lib_V3.5.0/Libraries/STM32F10x_StdPeriph_Driver/src/stm32f10x_tim.c ****   * @brief  Enables or disables the TIMx's Hall sensor interface.
2139:../STM32F10x_StdPeriph_Lib_V3.5.0/Libraries/STM32F10x_StdPeriph_Driver/src/stm32f10x_tim.c ****   * @param  TIMx: where x can be 1, 2, 3, 4, 5 or 8 to select the TIM peripheral.
2140:../STM32F10x_StdPeriph_Lib_V3.5.0/Libraries/STM32F10x_StdPeriph_Driver/src/stm32f10x_tim.c ****   * @param  NewState: new state of the TIMx Hall sensor interface.
2141:../STM32F10x_StdPeriph_Lib_V3.5.0/Libraries/STM32F10x_StdPeriph_Driver/src/stm32f10x_tim.c ****   *   This parameter can be: ENABLE or DISABLE.
2142:../STM32F10x_StdPeriph_Lib_V3.5.0/Libraries/STM32F10x_StdPeriph_Driver/src/stm32f10x_tim.c ****   * @retval None
2143:../STM32F10x_StdPeriph_Lib_V3.5.0/Libraries/STM32F10x_StdPeriph_Driver/src/stm32f10x_tim.c ****   */
2144:../STM32F10x_StdPeriph_Lib_V3.5.0/Libraries/STM32F10x_StdPeriph_Driver/src/stm32f10x_tim.c **** void TIM_SelectHallSensor(TIM_TypeDef* TIMx, FunctionalState NewState)
2145:../STM32F10x_StdPeriph_Lib_V3.5.0/Libraries/STM32F10x_StdPeriph_Driver/src/stm32f10x_tim.c **** {
 4505              		.loc 1 2145 0
 4506              		.cfi_startproc
 4507              		@ args = 0, pretend = 0, frame = 8
 4508              		@ frame_needed = 1, uses_anonymous_args = 0
 4509              		@ link register save eliminated.
 4510 0000 80B4     		push	{r7}
 4511              	.LCFI183:
 4512              		.cfi_def_cfa_offset 4
 4513              		.cfi_offset 7, -4
 4514 0002 83B0     		sub	sp, sp, #12
 4515              	.LCFI184:
 4516              		.cfi_def_cfa_offset 16
 4517 0004 00AF     		add	r7, sp, #0
 4518              	.LCFI185:
 4519              		.cfi_def_cfa_register 7
 4520 0006 7860     		str	r0, [r7, #4]
 4521 0008 0B46     		mov	r3, r1
 4522 000a FB70     		strb	r3, [r7, #3]
2146:../STM32F10x_StdPeriph_Lib_V3.5.0/Libraries/STM32F10x_StdPeriph_Driver/src/stm32f10x_tim.c ****   /* Check the parameters */
2147:../STM32F10x_StdPeriph_Lib_V3.5.0/Libraries/STM32F10x_StdPeriph_Driver/src/stm32f10x_tim.c ****   assert_param(IS_TIM_LIST6_PERIPH(TIMx));
2148:../STM32F10x_StdPeriph_Lib_V3.5.0/Libraries/STM32F10x_StdPeriph_Driver/src/stm32f10x_tim.c ****   assert_param(IS_FUNCTIONAL_STATE(NewState));
2149:../STM32F10x_StdPeriph_Lib_V3.5.0/Libraries/STM32F10x_StdPeriph_Driver/src/stm32f10x_tim.c ****   if (NewState != DISABLE)
 4523              		.loc 1 2149 0
 4524 000c FB78     		ldrb	r3, [r7, #3]	@ zero_extendqisi2
 4525 000e 002B     		cmp	r3, #0
 4526 0010 08D0     		beq	.L140
2150:../STM32F10x_StdPeriph_Lib_V3.5.0/Libraries/STM32F10x_StdPeriph_Driver/src/stm32f10x_tim.c ****   {
2151:../STM32F10x_StdPeriph_Lib_V3.5.0/Libraries/STM32F10x_StdPeriph_Driver/src/stm32f10x_tim.c ****     /* Set the TI1S Bit */
2152:../STM32F10x_StdPeriph_Lib_V3.5.0/Libraries/STM32F10x_StdPeriph_Driver/src/stm32f10x_tim.c ****     TIMx->CR2 |= TIM_CR2_TI1S;
 4527              		.loc 1 2152 0
 4528 0012 7B68     		ldr	r3, [r7, #4]
 4529 0014 9B88     		ldrh	r3, [r3, #4]	@ movhi
 4530 0016 9BB2     		uxth	r3, r3
 4531 0018 43F08003 		orr	r3, r3, #128
 4532 001c 9AB2     		uxth	r2, r3
 4533 001e 7B68     		ldr	r3, [r7, #4]
 4534 0020 9A80     		strh	r2, [r3, #4]	@ movhi
 4535 0022 07E0     		b	.L139
 4536              	.L140:
2153:../STM32F10x_StdPeriph_Lib_V3.5.0/Libraries/STM32F10x_StdPeriph_Driver/src/stm32f10x_tim.c ****   }
2154:../STM32F10x_StdPeriph_Lib_V3.5.0/Libraries/STM32F10x_StdPeriph_Driver/src/stm32f10x_tim.c ****   else
2155:../STM32F10x_StdPeriph_Lib_V3.5.0/Libraries/STM32F10x_StdPeriph_Driver/src/stm32f10x_tim.c ****   {
2156:../STM32F10x_StdPeriph_Lib_V3.5.0/Libraries/STM32F10x_StdPeriph_Driver/src/stm32f10x_tim.c ****     /* Reset the TI1S Bit */
2157:../STM32F10x_StdPeriph_Lib_V3.5.0/Libraries/STM32F10x_StdPeriph_Driver/src/stm32f10x_tim.c ****     TIMx->CR2 &= (uint16_t)~((uint16_t)TIM_CR2_TI1S);
 4537              		.loc 1 2157 0
 4538 0024 7B68     		ldr	r3, [r7, #4]
 4539 0026 9B88     		ldrh	r3, [r3, #4]	@ movhi
 4540 0028 9BB2     		uxth	r3, r3
 4541 002a 23F08003 		bic	r3, r3, #128
 4542 002e 9AB2     		uxth	r2, r3
 4543 0030 7B68     		ldr	r3, [r7, #4]
 4544 0032 9A80     		strh	r2, [r3, #4]	@ movhi
 4545              	.L139:
2158:../STM32F10x_StdPeriph_Lib_V3.5.0/Libraries/STM32F10x_StdPeriph_Driver/src/stm32f10x_tim.c ****   }
2159:../STM32F10x_StdPeriph_Lib_V3.5.0/Libraries/STM32F10x_StdPeriph_Driver/src/stm32f10x_tim.c **** }
 4546              		.loc 1 2159 0
 4547 0034 07F10C07 		add	r7, r7, #12
 4548 0038 BD46     		mov	sp, r7
 4549 003a 80BC     		pop	{r7}
 4550 003c 7047     		bx	lr
 4551              		.cfi_endproc
 4552              	.LFE90:
 4554 003e 00BF     		.section	.text.TIM_SelectOnePulseMode,"ax",%progbits
 4555              		.align	2
 4556              		.global	TIM_SelectOnePulseMode
 4557              		.thumb
 4558              		.thumb_func
 4560              	TIM_SelectOnePulseMode:
 4561              	.LFB91:
2160:../STM32F10x_StdPeriph_Lib_V3.5.0/Libraries/STM32F10x_StdPeriph_Driver/src/stm32f10x_tim.c **** 
2161:../STM32F10x_StdPeriph_Lib_V3.5.0/Libraries/STM32F10x_StdPeriph_Driver/src/stm32f10x_tim.c **** /**
2162:../STM32F10x_StdPeriph_Lib_V3.5.0/Libraries/STM32F10x_StdPeriph_Driver/src/stm32f10x_tim.c ****   * @brief  Selects the TIMx's One Pulse Mode.
2163:../STM32F10x_StdPeriph_Lib_V3.5.0/Libraries/STM32F10x_StdPeriph_Driver/src/stm32f10x_tim.c ****   * @param  TIMx: where x can be 1 to 17 to select the TIM peripheral.
2164:../STM32F10x_StdPeriph_Lib_V3.5.0/Libraries/STM32F10x_StdPeriph_Driver/src/stm32f10x_tim.c ****   * @param  TIM_OPMode: specifies the OPM Mode to be used.
2165:../STM32F10x_StdPeriph_Lib_V3.5.0/Libraries/STM32F10x_StdPeriph_Driver/src/stm32f10x_tim.c ****   *   This parameter can be one of the following values:
2166:../STM32F10x_StdPeriph_Lib_V3.5.0/Libraries/STM32F10x_StdPeriph_Driver/src/stm32f10x_tim.c ****   *     @arg TIM_OPMode_Single
2167:../STM32F10x_StdPeriph_Lib_V3.5.0/Libraries/STM32F10x_StdPeriph_Driver/src/stm32f10x_tim.c ****   *     @arg TIM_OPMode_Repetitive
2168:../STM32F10x_StdPeriph_Lib_V3.5.0/Libraries/STM32F10x_StdPeriph_Driver/src/stm32f10x_tim.c ****   * @retval None
2169:../STM32F10x_StdPeriph_Lib_V3.5.0/Libraries/STM32F10x_StdPeriph_Driver/src/stm32f10x_tim.c ****   */
2170:../STM32F10x_StdPeriph_Lib_V3.5.0/Libraries/STM32F10x_StdPeriph_Driver/src/stm32f10x_tim.c **** void TIM_SelectOnePulseMode(TIM_TypeDef* TIMx, uint16_t TIM_OPMode)
2171:../STM32F10x_StdPeriph_Lib_V3.5.0/Libraries/STM32F10x_StdPeriph_Driver/src/stm32f10x_tim.c **** {
 4562              		.loc 1 2171 0
 4563              		.cfi_startproc
 4564              		@ args = 0, pretend = 0, frame = 8
 4565              		@ frame_needed = 1, uses_anonymous_args = 0
 4566              		@ link register save eliminated.
 4567 0000 80B4     		push	{r7}
 4568              	.LCFI186:
 4569              		.cfi_def_cfa_offset 4
 4570              		.cfi_offset 7, -4
 4571 0002 83B0     		sub	sp, sp, #12
 4572              	.LCFI187:
 4573              		.cfi_def_cfa_offset 16
 4574 0004 00AF     		add	r7, sp, #0
 4575              	.LCFI188:
 4576              		.cfi_def_cfa_register 7
 4577 0006 7860     		str	r0, [r7, #4]
 4578 0008 0B46     		mov	r3, r1
 4579 000a 7B80     		strh	r3, [r7, #2]	@ movhi
2172:../STM32F10x_StdPeriph_Lib_V3.5.0/Libraries/STM32F10x_StdPeriph_Driver/src/stm32f10x_tim.c ****   /* Check the parameters */
2173:../STM32F10x_StdPeriph_Lib_V3.5.0/Libraries/STM32F10x_StdPeriph_Driver/src/stm32f10x_tim.c ****   assert_param(IS_TIM_ALL_PERIPH(TIMx));
2174:../STM32F10x_StdPeriph_Lib_V3.5.0/Libraries/STM32F10x_StdPeriph_Driver/src/stm32f10x_tim.c ****   assert_param(IS_TIM_OPM_MODE(TIM_OPMode));
2175:../STM32F10x_StdPeriph_Lib_V3.5.0/Libraries/STM32F10x_StdPeriph_Driver/src/stm32f10x_tim.c ****   /* Reset the OPM Bit */
2176:../STM32F10x_StdPeriph_Lib_V3.5.0/Libraries/STM32F10x_StdPeriph_Driver/src/stm32f10x_tim.c ****   TIMx->CR1 &= (uint16_t)~((uint16_t)TIM_CR1_OPM);
 4580              		.loc 1 2176 0
 4581 000c 7B68     		ldr	r3, [r7, #4]
 4582 000e 1B88     		ldrh	r3, [r3, #0]	@ movhi
 4583 0010 9BB2     		uxth	r3, r3
 4584 0012 23F00803 		bic	r3, r3, #8
 4585 0016 9AB2     		uxth	r2, r3
 4586 0018 7B68     		ldr	r3, [r7, #4]
 4587 001a 1A80     		strh	r2, [r3, #0]	@ movhi
2177:../STM32F10x_StdPeriph_Lib_V3.5.0/Libraries/STM32F10x_StdPeriph_Driver/src/stm32f10x_tim.c ****   /* Configure the OPM Mode */
2178:../STM32F10x_StdPeriph_Lib_V3.5.0/Libraries/STM32F10x_StdPeriph_Driver/src/stm32f10x_tim.c ****   TIMx->CR1 |= TIM_OPMode;
 4588              		.loc 1 2178 0
 4589 001c 7B68     		ldr	r3, [r7, #4]
 4590 001e 1B88     		ldrh	r3, [r3, #0]	@ movhi
 4591 0020 9AB2     		uxth	r2, r3
 4592 0022 7B88     		ldrh	r3, [r7, #2]	@ movhi
 4593 0024 1343     		orrs	r3, r3, r2
 4594 0026 9AB2     		uxth	r2, r3
 4595 0028 7B68     		ldr	r3, [r7, #4]
 4596 002a 1A80     		strh	r2, [r3, #0]	@ movhi
2179:../STM32F10x_StdPeriph_Lib_V3.5.0/Libraries/STM32F10x_StdPeriph_Driver/src/stm32f10x_tim.c **** }
 4597              		.loc 1 2179 0
 4598 002c 07F10C07 		add	r7, r7, #12
 4599 0030 BD46     		mov	sp, r7
 4600 0032 80BC     		pop	{r7}
 4601 0034 7047     		bx	lr
 4602              		.cfi_endproc
 4603              	.LFE91:
 4605 0036 00BF     		.section	.text.TIM_SelectOutputTrigger,"ax",%progbits
 4606              		.align	2
 4607              		.global	TIM_SelectOutputTrigger
 4608              		.thumb
 4609              		.thumb_func
 4611              	TIM_SelectOutputTrigger:
 4612              	.LFB92:
2180:../STM32F10x_StdPeriph_Lib_V3.5.0/Libraries/STM32F10x_StdPeriph_Driver/src/stm32f10x_tim.c **** 
2181:../STM32F10x_StdPeriph_Lib_V3.5.0/Libraries/STM32F10x_StdPeriph_Driver/src/stm32f10x_tim.c **** /**
2182:../STM32F10x_StdPeriph_Lib_V3.5.0/Libraries/STM32F10x_StdPeriph_Driver/src/stm32f10x_tim.c ****   * @brief  Selects the TIMx Trigger Output Mode.
2183:../STM32F10x_StdPeriph_Lib_V3.5.0/Libraries/STM32F10x_StdPeriph_Driver/src/stm32f10x_tim.c ****   * @param  TIMx: where x can be 1, 2, 3, 4, 5, 6, 7, 8, 9, 12 or 15 to select the TIM peripheral.
2184:../STM32F10x_StdPeriph_Lib_V3.5.0/Libraries/STM32F10x_StdPeriph_Driver/src/stm32f10x_tim.c ****   * @param  TIM_TRGOSource: specifies the Trigger Output source.
2185:../STM32F10x_StdPeriph_Lib_V3.5.0/Libraries/STM32F10x_StdPeriph_Driver/src/stm32f10x_tim.c ****   *   This paramter can be one of the following values:
2186:../STM32F10x_StdPeriph_Lib_V3.5.0/Libraries/STM32F10x_StdPeriph_Driver/src/stm32f10x_tim.c ****   *
2187:../STM32F10x_StdPeriph_Lib_V3.5.0/Libraries/STM32F10x_StdPeriph_Driver/src/stm32f10x_tim.c ****   *  - For all TIMx
2188:../STM32F10x_StdPeriph_Lib_V3.5.0/Libraries/STM32F10x_StdPeriph_Driver/src/stm32f10x_tim.c ****   *     @arg TIM_TRGOSource_Reset:  The UG bit in the TIM_EGR register is used as the trigger outpu
2189:../STM32F10x_StdPeriph_Lib_V3.5.0/Libraries/STM32F10x_StdPeriph_Driver/src/stm32f10x_tim.c ****   *     @arg TIM_TRGOSource_Enable: The Counter Enable CEN is used as the trigger output (TRGO).
2190:../STM32F10x_StdPeriph_Lib_V3.5.0/Libraries/STM32F10x_StdPeriph_Driver/src/stm32f10x_tim.c ****   *     @arg TIM_TRGOSource_Update: The update event is selected as the trigger output (TRGO).
2191:../STM32F10x_StdPeriph_Lib_V3.5.0/Libraries/STM32F10x_StdPeriph_Driver/src/stm32f10x_tim.c ****   *
2192:../STM32F10x_StdPeriph_Lib_V3.5.0/Libraries/STM32F10x_StdPeriph_Driver/src/stm32f10x_tim.c ****   *  - For all TIMx except TIM6 and TIM7
2193:../STM32F10x_StdPeriph_Lib_V3.5.0/Libraries/STM32F10x_StdPeriph_Driver/src/stm32f10x_tim.c ****   *     @arg TIM_TRGOSource_OC1: The trigger output sends a positive pulse when the CC1IF flag
2194:../STM32F10x_StdPeriph_Lib_V3.5.0/Libraries/STM32F10x_StdPeriph_Driver/src/stm32f10x_tim.c ****   *                              is to be set, as soon as a capture or compare match occurs (TRGO).
2195:../STM32F10x_StdPeriph_Lib_V3.5.0/Libraries/STM32F10x_StdPeriph_Driver/src/stm32f10x_tim.c ****   *     @arg TIM_TRGOSource_OC1Ref: OC1REF signal is used as the trigger output (TRGO).
2196:../STM32F10x_StdPeriph_Lib_V3.5.0/Libraries/STM32F10x_StdPeriph_Driver/src/stm32f10x_tim.c ****   *     @arg TIM_TRGOSource_OC2Ref: OC2REF signal is used as the trigger output (TRGO).
2197:../STM32F10x_StdPeriph_Lib_V3.5.0/Libraries/STM32F10x_StdPeriph_Driver/src/stm32f10x_tim.c ****   *     @arg TIM_TRGOSource_OC3Ref: OC3REF signal is used as the trigger output (TRGO).
2198:../STM32F10x_StdPeriph_Lib_V3.5.0/Libraries/STM32F10x_StdPeriph_Driver/src/stm32f10x_tim.c ****   *     @arg TIM_TRGOSource_OC4Ref: OC4REF signal is used as the trigger output (TRGO).
2199:../STM32F10x_StdPeriph_Lib_V3.5.0/Libraries/STM32F10x_StdPeriph_Driver/src/stm32f10x_tim.c ****   *
2200:../STM32F10x_StdPeriph_Lib_V3.5.0/Libraries/STM32F10x_StdPeriph_Driver/src/stm32f10x_tim.c ****   * @retval None
2201:../STM32F10x_StdPeriph_Lib_V3.5.0/Libraries/STM32F10x_StdPeriph_Driver/src/stm32f10x_tim.c ****   */
2202:../STM32F10x_StdPeriph_Lib_V3.5.0/Libraries/STM32F10x_StdPeriph_Driver/src/stm32f10x_tim.c **** void TIM_SelectOutputTrigger(TIM_TypeDef* TIMx, uint16_t TIM_TRGOSource)
2203:../STM32F10x_StdPeriph_Lib_V3.5.0/Libraries/STM32F10x_StdPeriph_Driver/src/stm32f10x_tim.c **** {
 4613              		.loc 1 2203 0
 4614              		.cfi_startproc
 4615              		@ args = 0, pretend = 0, frame = 8
 4616              		@ frame_needed = 1, uses_anonymous_args = 0
 4617              		@ link register save eliminated.
 4618 0000 80B4     		push	{r7}
 4619              	.LCFI189:
 4620              		.cfi_def_cfa_offset 4
 4621              		.cfi_offset 7, -4
 4622 0002 83B0     		sub	sp, sp, #12
 4623              	.LCFI190:
 4624              		.cfi_def_cfa_offset 16
 4625 0004 00AF     		add	r7, sp, #0
 4626              	.LCFI191:
 4627              		.cfi_def_cfa_register 7
 4628 0006 7860     		str	r0, [r7, #4]
 4629 0008 0B46     		mov	r3, r1
 4630 000a 7B80     		strh	r3, [r7, #2]	@ movhi
2204:../STM32F10x_StdPeriph_Lib_V3.5.0/Libraries/STM32F10x_StdPeriph_Driver/src/stm32f10x_tim.c ****   /* Check the parameters */
2205:../STM32F10x_StdPeriph_Lib_V3.5.0/Libraries/STM32F10x_StdPeriph_Driver/src/stm32f10x_tim.c ****   assert_param(IS_TIM_LIST7_PERIPH(TIMx));
2206:../STM32F10x_StdPeriph_Lib_V3.5.0/Libraries/STM32F10x_StdPeriph_Driver/src/stm32f10x_tim.c ****   assert_param(IS_TIM_TRGO_SOURCE(TIM_TRGOSource));
2207:../STM32F10x_StdPeriph_Lib_V3.5.0/Libraries/STM32F10x_StdPeriph_Driver/src/stm32f10x_tim.c ****   /* Reset the MMS Bits */
2208:../STM32F10x_StdPeriph_Lib_V3.5.0/Libraries/STM32F10x_StdPeriph_Driver/src/stm32f10x_tim.c ****   TIMx->CR2 &= (uint16_t)~((uint16_t)TIM_CR2_MMS);
 4631              		.loc 1 2208 0
 4632 000c 7B68     		ldr	r3, [r7, #4]
 4633 000e 9B88     		ldrh	r3, [r3, #4]	@ movhi
 4634 0010 9BB2     		uxth	r3, r3
 4635 0012 23F07003 		bic	r3, r3, #112
 4636 0016 9AB2     		uxth	r2, r3
 4637 0018 7B68     		ldr	r3, [r7, #4]
 4638 001a 9A80     		strh	r2, [r3, #4]	@ movhi
2209:../STM32F10x_StdPeriph_Lib_V3.5.0/Libraries/STM32F10x_StdPeriph_Driver/src/stm32f10x_tim.c ****   /* Select the TRGO source */
2210:../STM32F10x_StdPeriph_Lib_V3.5.0/Libraries/STM32F10x_StdPeriph_Driver/src/stm32f10x_tim.c ****   TIMx->CR2 |=  TIM_TRGOSource;
 4639              		.loc 1 2210 0
 4640 001c 7B68     		ldr	r3, [r7, #4]
 4641 001e 9B88     		ldrh	r3, [r3, #4]	@ movhi
 4642 0020 9AB2     		uxth	r2, r3
 4643 0022 7B88     		ldrh	r3, [r7, #2]	@ movhi
 4644 0024 1343     		orrs	r3, r3, r2
 4645 0026 9AB2     		uxth	r2, r3
 4646 0028 7B68     		ldr	r3, [r7, #4]
 4647 002a 9A80     		strh	r2, [r3, #4]	@ movhi
2211:../STM32F10x_StdPeriph_Lib_V3.5.0/Libraries/STM32F10x_StdPeriph_Driver/src/stm32f10x_tim.c **** }
 4648              		.loc 1 2211 0
 4649 002c 07F10C07 		add	r7, r7, #12
 4650 0030 BD46     		mov	sp, r7
 4651 0032 80BC     		pop	{r7}
 4652 0034 7047     		bx	lr
 4653              		.cfi_endproc
 4654              	.LFE92:
 4656 0036 00BF     		.section	.text.TIM_SelectSlaveMode,"ax",%progbits
 4657              		.align	2
 4658              		.global	TIM_SelectSlaveMode
 4659              		.thumb
 4660              		.thumb_func
 4662              	TIM_SelectSlaveMode:
 4663              	.LFB93:
2212:../STM32F10x_StdPeriph_Lib_V3.5.0/Libraries/STM32F10x_StdPeriph_Driver/src/stm32f10x_tim.c **** 
2213:../STM32F10x_StdPeriph_Lib_V3.5.0/Libraries/STM32F10x_StdPeriph_Driver/src/stm32f10x_tim.c **** /**
2214:../STM32F10x_StdPeriph_Lib_V3.5.0/Libraries/STM32F10x_StdPeriph_Driver/src/stm32f10x_tim.c ****   * @brief  Selects the TIMx Slave Mode.
2215:../STM32F10x_StdPeriph_Lib_V3.5.0/Libraries/STM32F10x_StdPeriph_Driver/src/stm32f10x_tim.c ****   * @param  TIMx: where x can be 1, 2, 3, 4, 5, 8, 9, 12 or 15 to select the TIM peripheral.
2216:../STM32F10x_StdPeriph_Lib_V3.5.0/Libraries/STM32F10x_StdPeriph_Driver/src/stm32f10x_tim.c ****   * @param  TIM_SlaveMode: specifies the Timer Slave Mode.
2217:../STM32F10x_StdPeriph_Lib_V3.5.0/Libraries/STM32F10x_StdPeriph_Driver/src/stm32f10x_tim.c ****   *   This parameter can be one of the following values:
2218:../STM32F10x_StdPeriph_Lib_V3.5.0/Libraries/STM32F10x_StdPeriph_Driver/src/stm32f10x_tim.c ****   *     @arg TIM_SlaveMode_Reset: Rising edge of the selected trigger signal (TRGI) re-initializes
2219:../STM32F10x_StdPeriph_Lib_V3.5.0/Libraries/STM32F10x_StdPeriph_Driver/src/stm32f10x_tim.c ****   *                               the counter and triggers an update of the registers.
2220:../STM32F10x_StdPeriph_Lib_V3.5.0/Libraries/STM32F10x_StdPeriph_Driver/src/stm32f10x_tim.c ****   *     @arg TIM_SlaveMode_Gated:     The counter clock is enabled when the trigger signal (TRGI) i
2221:../STM32F10x_StdPeriph_Lib_V3.5.0/Libraries/STM32F10x_StdPeriph_Driver/src/stm32f10x_tim.c ****   *     @arg TIM_SlaveMode_Trigger:   The counter starts at a rising edge of the trigger TRGI.
2222:../STM32F10x_StdPeriph_Lib_V3.5.0/Libraries/STM32F10x_StdPeriph_Driver/src/stm32f10x_tim.c ****   *     @arg TIM_SlaveMode_External1: Rising edges of the selected trigger (TRGI) clock the counter
2223:../STM32F10x_StdPeriph_Lib_V3.5.0/Libraries/STM32F10x_StdPeriph_Driver/src/stm32f10x_tim.c ****   * @retval None
2224:../STM32F10x_StdPeriph_Lib_V3.5.0/Libraries/STM32F10x_StdPeriph_Driver/src/stm32f10x_tim.c ****   */
2225:../STM32F10x_StdPeriph_Lib_V3.5.0/Libraries/STM32F10x_StdPeriph_Driver/src/stm32f10x_tim.c **** void TIM_SelectSlaveMode(TIM_TypeDef* TIMx, uint16_t TIM_SlaveMode)
2226:../STM32F10x_StdPeriph_Lib_V3.5.0/Libraries/STM32F10x_StdPeriph_Driver/src/stm32f10x_tim.c **** {
 4664              		.loc 1 2226 0
 4665              		.cfi_startproc
 4666              		@ args = 0, pretend = 0, frame = 8
 4667              		@ frame_needed = 1, uses_anonymous_args = 0
 4668              		@ link register save eliminated.
 4669 0000 80B4     		push	{r7}
 4670              	.LCFI192:
 4671              		.cfi_def_cfa_offset 4
 4672              		.cfi_offset 7, -4
 4673 0002 83B0     		sub	sp, sp, #12
 4674              	.LCFI193:
 4675              		.cfi_def_cfa_offset 16
 4676 0004 00AF     		add	r7, sp, #0
 4677              	.LCFI194:
 4678              		.cfi_def_cfa_register 7
 4679 0006 7860     		str	r0, [r7, #4]
 4680 0008 0B46     		mov	r3, r1
 4681 000a 7B80     		strh	r3, [r7, #2]	@ movhi
2227:../STM32F10x_StdPeriph_Lib_V3.5.0/Libraries/STM32F10x_StdPeriph_Driver/src/stm32f10x_tim.c ****   /* Check the parameters */
2228:../STM32F10x_StdPeriph_Lib_V3.5.0/Libraries/STM32F10x_StdPeriph_Driver/src/stm32f10x_tim.c ****   assert_param(IS_TIM_LIST6_PERIPH(TIMx));
2229:../STM32F10x_StdPeriph_Lib_V3.5.0/Libraries/STM32F10x_StdPeriph_Driver/src/stm32f10x_tim.c ****   assert_param(IS_TIM_SLAVE_MODE(TIM_SlaveMode));
2230:../STM32F10x_StdPeriph_Lib_V3.5.0/Libraries/STM32F10x_StdPeriph_Driver/src/stm32f10x_tim.c ****  /* Reset the SMS Bits */
2231:../STM32F10x_StdPeriph_Lib_V3.5.0/Libraries/STM32F10x_StdPeriph_Driver/src/stm32f10x_tim.c ****   TIMx->SMCR &= (uint16_t)~((uint16_t)TIM_SMCR_SMS);
 4682              		.loc 1 2231 0
 4683 000c 7B68     		ldr	r3, [r7, #4]
 4684 000e 1B89     		ldrh	r3, [r3, #8]	@ movhi
 4685 0010 9BB2     		uxth	r3, r3
 4686 0012 23F00703 		bic	r3, r3, #7
 4687 0016 9AB2     		uxth	r2, r3
 4688 0018 7B68     		ldr	r3, [r7, #4]
 4689 001a 1A81     		strh	r2, [r3, #8]	@ movhi
2232:../STM32F10x_StdPeriph_Lib_V3.5.0/Libraries/STM32F10x_StdPeriph_Driver/src/stm32f10x_tim.c ****   /* Select the Slave Mode */
2233:../STM32F10x_StdPeriph_Lib_V3.5.0/Libraries/STM32F10x_StdPeriph_Driver/src/stm32f10x_tim.c ****   TIMx->SMCR |= TIM_SlaveMode;
 4690              		.loc 1 2233 0
 4691 001c 7B68     		ldr	r3, [r7, #4]
 4692 001e 1B89     		ldrh	r3, [r3, #8]	@ movhi
 4693 0020 9AB2     		uxth	r2, r3
 4694 0022 7B88     		ldrh	r3, [r7, #2]	@ movhi
 4695 0024 1343     		orrs	r3, r3, r2
 4696 0026 9AB2     		uxth	r2, r3
 4697 0028 7B68     		ldr	r3, [r7, #4]
 4698 002a 1A81     		strh	r2, [r3, #8]	@ movhi
2234:../STM32F10x_StdPeriph_Lib_V3.5.0/Libraries/STM32F10x_StdPeriph_Driver/src/stm32f10x_tim.c **** }
 4699              		.loc 1 2234 0
 4700 002c 07F10C07 		add	r7, r7, #12
 4701 0030 BD46     		mov	sp, r7
 4702 0032 80BC     		pop	{r7}
 4703 0034 7047     		bx	lr
 4704              		.cfi_endproc
 4705              	.LFE93:
 4707 0036 00BF     		.section	.text.TIM_SelectMasterSlaveMode,"ax",%progbits
 4708              		.align	2
 4709              		.global	TIM_SelectMasterSlaveMode
 4710              		.thumb
 4711              		.thumb_func
 4713              	TIM_SelectMasterSlaveMode:
 4714              	.LFB94:
2235:../STM32F10x_StdPeriph_Lib_V3.5.0/Libraries/STM32F10x_StdPeriph_Driver/src/stm32f10x_tim.c **** 
2236:../STM32F10x_StdPeriph_Lib_V3.5.0/Libraries/STM32F10x_StdPeriph_Driver/src/stm32f10x_tim.c **** /**
2237:../STM32F10x_StdPeriph_Lib_V3.5.0/Libraries/STM32F10x_StdPeriph_Driver/src/stm32f10x_tim.c ****   * @brief  Sets or Resets the TIMx Master/Slave Mode.
2238:../STM32F10x_StdPeriph_Lib_V3.5.0/Libraries/STM32F10x_StdPeriph_Driver/src/stm32f10x_tim.c ****   * @param  TIMx: where x can be 1, 2, 3, 4, 5, 8, 9, 12 or 15 to select the TIM peripheral.
2239:../STM32F10x_StdPeriph_Lib_V3.5.0/Libraries/STM32F10x_StdPeriph_Driver/src/stm32f10x_tim.c ****   * @param  TIM_MasterSlaveMode: specifies the Timer Master Slave Mode.
2240:../STM32F10x_StdPeriph_Lib_V3.5.0/Libraries/STM32F10x_StdPeriph_Driver/src/stm32f10x_tim.c ****   *   This parameter can be one of the following values:
2241:../STM32F10x_StdPeriph_Lib_V3.5.0/Libraries/STM32F10x_StdPeriph_Driver/src/stm32f10x_tim.c ****   *     @arg TIM_MasterSlaveMode_Enable: synchronization between the current timer
2242:../STM32F10x_StdPeriph_Lib_V3.5.0/Libraries/STM32F10x_StdPeriph_Driver/src/stm32f10x_tim.c ****   *                                      and its slaves (through TRGO).
2243:../STM32F10x_StdPeriph_Lib_V3.5.0/Libraries/STM32F10x_StdPeriph_Driver/src/stm32f10x_tim.c ****   *     @arg TIM_MasterSlaveMode_Disable: No action
2244:../STM32F10x_StdPeriph_Lib_V3.5.0/Libraries/STM32F10x_StdPeriph_Driver/src/stm32f10x_tim.c ****   * @retval None
2245:../STM32F10x_StdPeriph_Lib_V3.5.0/Libraries/STM32F10x_StdPeriph_Driver/src/stm32f10x_tim.c ****   */
2246:../STM32F10x_StdPeriph_Lib_V3.5.0/Libraries/STM32F10x_StdPeriph_Driver/src/stm32f10x_tim.c **** void TIM_SelectMasterSlaveMode(TIM_TypeDef* TIMx, uint16_t TIM_MasterSlaveMode)
2247:../STM32F10x_StdPeriph_Lib_V3.5.0/Libraries/STM32F10x_StdPeriph_Driver/src/stm32f10x_tim.c **** {
 4715              		.loc 1 2247 0
 4716              		.cfi_startproc
 4717              		@ args = 0, pretend = 0, frame = 8
 4718              		@ frame_needed = 1, uses_anonymous_args = 0
 4719              		@ link register save eliminated.
 4720 0000 80B4     		push	{r7}
 4721              	.LCFI195:
 4722              		.cfi_def_cfa_offset 4
 4723              		.cfi_offset 7, -4
 4724 0002 83B0     		sub	sp, sp, #12
 4725              	.LCFI196:
 4726              		.cfi_def_cfa_offset 16
 4727 0004 00AF     		add	r7, sp, #0
 4728              	.LCFI197:
 4729              		.cfi_def_cfa_register 7
 4730 0006 7860     		str	r0, [r7, #4]
 4731 0008 0B46     		mov	r3, r1
 4732 000a 7B80     		strh	r3, [r7, #2]	@ movhi
2248:../STM32F10x_StdPeriph_Lib_V3.5.0/Libraries/STM32F10x_StdPeriph_Driver/src/stm32f10x_tim.c ****   /* Check the parameters */
2249:../STM32F10x_StdPeriph_Lib_V3.5.0/Libraries/STM32F10x_StdPeriph_Driver/src/stm32f10x_tim.c ****   assert_param(IS_TIM_LIST6_PERIPH(TIMx));
2250:../STM32F10x_StdPeriph_Lib_V3.5.0/Libraries/STM32F10x_StdPeriph_Driver/src/stm32f10x_tim.c ****   assert_param(IS_TIM_MSM_STATE(TIM_MasterSlaveMode));
2251:../STM32F10x_StdPeriph_Lib_V3.5.0/Libraries/STM32F10x_StdPeriph_Driver/src/stm32f10x_tim.c ****   /* Reset the MSM Bit */
2252:../STM32F10x_StdPeriph_Lib_V3.5.0/Libraries/STM32F10x_StdPeriph_Driver/src/stm32f10x_tim.c ****   TIMx->SMCR &= (uint16_t)~((uint16_t)TIM_SMCR_MSM);
 4733              		.loc 1 2252 0
 4734 000c 7B68     		ldr	r3, [r7, #4]
 4735 000e 1B89     		ldrh	r3, [r3, #8]	@ movhi
 4736 0010 9BB2     		uxth	r3, r3
 4737 0012 23F08003 		bic	r3, r3, #128
 4738 0016 9AB2     		uxth	r2, r3
 4739 0018 7B68     		ldr	r3, [r7, #4]
 4740 001a 1A81     		strh	r2, [r3, #8]	@ movhi
2253:../STM32F10x_StdPeriph_Lib_V3.5.0/Libraries/STM32F10x_StdPeriph_Driver/src/stm32f10x_tim.c ****   
2254:../STM32F10x_StdPeriph_Lib_V3.5.0/Libraries/STM32F10x_StdPeriph_Driver/src/stm32f10x_tim.c ****   /* Set or Reset the MSM Bit */
2255:../STM32F10x_StdPeriph_Lib_V3.5.0/Libraries/STM32F10x_StdPeriph_Driver/src/stm32f10x_tim.c ****   TIMx->SMCR |= TIM_MasterSlaveMode;
 4741              		.loc 1 2255 0
 4742 001c 7B68     		ldr	r3, [r7, #4]
 4743 001e 1B89     		ldrh	r3, [r3, #8]	@ movhi
 4744 0020 9AB2     		uxth	r2, r3
 4745 0022 7B88     		ldrh	r3, [r7, #2]	@ movhi
 4746 0024 1343     		orrs	r3, r3, r2
 4747 0026 9AB2     		uxth	r2, r3
 4748 0028 7B68     		ldr	r3, [r7, #4]
 4749 002a 1A81     		strh	r2, [r3, #8]	@ movhi
2256:../STM32F10x_StdPeriph_Lib_V3.5.0/Libraries/STM32F10x_StdPeriph_Driver/src/stm32f10x_tim.c **** }
 4750              		.loc 1 2256 0
 4751 002c 07F10C07 		add	r7, r7, #12
 4752 0030 BD46     		mov	sp, r7
 4753 0032 80BC     		pop	{r7}
 4754 0034 7047     		bx	lr
 4755              		.cfi_endproc
 4756              	.LFE94:
 4758 0036 00BF     		.section	.text.TIM_SetCounter,"ax",%progbits
 4759              		.align	2
 4760              		.global	TIM_SetCounter
 4761              		.thumb
 4762              		.thumb_func
 4764              	TIM_SetCounter:
 4765              	.LFB95:
2257:../STM32F10x_StdPeriph_Lib_V3.5.0/Libraries/STM32F10x_StdPeriph_Driver/src/stm32f10x_tim.c **** 
2258:../STM32F10x_StdPeriph_Lib_V3.5.0/Libraries/STM32F10x_StdPeriph_Driver/src/stm32f10x_tim.c **** /**
2259:../STM32F10x_StdPeriph_Lib_V3.5.0/Libraries/STM32F10x_StdPeriph_Driver/src/stm32f10x_tim.c ****   * @brief  Sets the TIMx Counter Register value
2260:../STM32F10x_StdPeriph_Lib_V3.5.0/Libraries/STM32F10x_StdPeriph_Driver/src/stm32f10x_tim.c ****   * @param  TIMx: where x can be 1 to 17 to select the TIM peripheral.
2261:../STM32F10x_StdPeriph_Lib_V3.5.0/Libraries/STM32F10x_StdPeriph_Driver/src/stm32f10x_tim.c ****   * @param  Counter: specifies the Counter register new value.
2262:../STM32F10x_StdPeriph_Lib_V3.5.0/Libraries/STM32F10x_StdPeriph_Driver/src/stm32f10x_tim.c ****   * @retval None
2263:../STM32F10x_StdPeriph_Lib_V3.5.0/Libraries/STM32F10x_StdPeriph_Driver/src/stm32f10x_tim.c ****   */
2264:../STM32F10x_StdPeriph_Lib_V3.5.0/Libraries/STM32F10x_StdPeriph_Driver/src/stm32f10x_tim.c **** void TIM_SetCounter(TIM_TypeDef* TIMx, uint16_t Counter)
2265:../STM32F10x_StdPeriph_Lib_V3.5.0/Libraries/STM32F10x_StdPeriph_Driver/src/stm32f10x_tim.c **** {
 4766              		.loc 1 2265 0
 4767              		.cfi_startproc
 4768              		@ args = 0, pretend = 0, frame = 8
 4769              		@ frame_needed = 1, uses_anonymous_args = 0
 4770              		@ link register save eliminated.
 4771 0000 80B4     		push	{r7}
 4772              	.LCFI198:
 4773              		.cfi_def_cfa_offset 4
 4774              		.cfi_offset 7, -4
 4775 0002 83B0     		sub	sp, sp, #12
 4776              	.LCFI199:
 4777              		.cfi_def_cfa_offset 16
 4778 0004 00AF     		add	r7, sp, #0
 4779              	.LCFI200:
 4780              		.cfi_def_cfa_register 7
 4781 0006 7860     		str	r0, [r7, #4]
 4782 0008 0B46     		mov	r3, r1
 4783 000a 7B80     		strh	r3, [r7, #2]	@ movhi
2266:../STM32F10x_StdPeriph_Lib_V3.5.0/Libraries/STM32F10x_StdPeriph_Driver/src/stm32f10x_tim.c ****   /* Check the parameters */
2267:../STM32F10x_StdPeriph_Lib_V3.5.0/Libraries/STM32F10x_StdPeriph_Driver/src/stm32f10x_tim.c ****   assert_param(IS_TIM_ALL_PERIPH(TIMx));
2268:../STM32F10x_StdPeriph_Lib_V3.5.0/Libraries/STM32F10x_StdPeriph_Driver/src/stm32f10x_tim.c ****   /* Set the Counter Register value */
2269:../STM32F10x_StdPeriph_Lib_V3.5.0/Libraries/STM32F10x_StdPeriph_Driver/src/stm32f10x_tim.c ****   TIMx->CNT = Counter;
 4784              		.loc 1 2269 0
 4785 000c 7B68     		ldr	r3, [r7, #4]
 4786 000e 7A88     		ldrh	r2, [r7, #2]	@ movhi
 4787 0010 9A84     		strh	r2, [r3, #36]	@ movhi
2270:../STM32F10x_StdPeriph_Lib_V3.5.0/Libraries/STM32F10x_StdPeriph_Driver/src/stm32f10x_tim.c **** }
 4788              		.loc 1 2270 0
 4789 0012 07F10C07 		add	r7, r7, #12
 4790 0016 BD46     		mov	sp, r7
 4791 0018 80BC     		pop	{r7}
 4792 001a 7047     		bx	lr
 4793              		.cfi_endproc
 4794              	.LFE95:
 4796              		.section	.text.TIM_SetAutoreload,"ax",%progbits
 4797              		.align	2
 4798              		.global	TIM_SetAutoreload
 4799              		.thumb
 4800              		.thumb_func
 4802              	TIM_SetAutoreload:
 4803              	.LFB96:
2271:../STM32F10x_StdPeriph_Lib_V3.5.0/Libraries/STM32F10x_StdPeriph_Driver/src/stm32f10x_tim.c **** 
2272:../STM32F10x_StdPeriph_Lib_V3.5.0/Libraries/STM32F10x_StdPeriph_Driver/src/stm32f10x_tim.c **** /**
2273:../STM32F10x_StdPeriph_Lib_V3.5.0/Libraries/STM32F10x_StdPeriph_Driver/src/stm32f10x_tim.c ****   * @brief  Sets the TIMx Autoreload Register value
2274:../STM32F10x_StdPeriph_Lib_V3.5.0/Libraries/STM32F10x_StdPeriph_Driver/src/stm32f10x_tim.c ****   * @param  TIMx: where x can be 1 to 17 to select the TIM peripheral.
2275:../STM32F10x_StdPeriph_Lib_V3.5.0/Libraries/STM32F10x_StdPeriph_Driver/src/stm32f10x_tim.c ****   * @param  Autoreload: specifies the Autoreload register new value.
2276:../STM32F10x_StdPeriph_Lib_V3.5.0/Libraries/STM32F10x_StdPeriph_Driver/src/stm32f10x_tim.c ****   * @retval None
2277:../STM32F10x_StdPeriph_Lib_V3.5.0/Libraries/STM32F10x_StdPeriph_Driver/src/stm32f10x_tim.c ****   */
2278:../STM32F10x_StdPeriph_Lib_V3.5.0/Libraries/STM32F10x_StdPeriph_Driver/src/stm32f10x_tim.c **** void TIM_SetAutoreload(TIM_TypeDef* TIMx, uint16_t Autoreload)
2279:../STM32F10x_StdPeriph_Lib_V3.5.0/Libraries/STM32F10x_StdPeriph_Driver/src/stm32f10x_tim.c **** {
 4804              		.loc 1 2279 0
 4805              		.cfi_startproc
 4806              		@ args = 0, pretend = 0, frame = 8
 4807              		@ frame_needed = 1, uses_anonymous_args = 0
 4808              		@ link register save eliminated.
 4809 0000 80B4     		push	{r7}
 4810              	.LCFI201:
 4811              		.cfi_def_cfa_offset 4
 4812              		.cfi_offset 7, -4
 4813 0002 83B0     		sub	sp, sp, #12
 4814              	.LCFI202:
 4815              		.cfi_def_cfa_offset 16
 4816 0004 00AF     		add	r7, sp, #0
 4817              	.LCFI203:
 4818              		.cfi_def_cfa_register 7
 4819 0006 7860     		str	r0, [r7, #4]
 4820 0008 0B46     		mov	r3, r1
 4821 000a 7B80     		strh	r3, [r7, #2]	@ movhi
2280:../STM32F10x_StdPeriph_Lib_V3.5.0/Libraries/STM32F10x_StdPeriph_Driver/src/stm32f10x_tim.c ****   /* Check the parameters */
2281:../STM32F10x_StdPeriph_Lib_V3.5.0/Libraries/STM32F10x_StdPeriph_Driver/src/stm32f10x_tim.c ****   assert_param(IS_TIM_ALL_PERIPH(TIMx));
2282:../STM32F10x_StdPeriph_Lib_V3.5.0/Libraries/STM32F10x_StdPeriph_Driver/src/stm32f10x_tim.c ****   /* Set the Autoreload Register value */
2283:../STM32F10x_StdPeriph_Lib_V3.5.0/Libraries/STM32F10x_StdPeriph_Driver/src/stm32f10x_tim.c ****   TIMx->ARR = Autoreload;
 4822              		.loc 1 2283 0
 4823 000c 7B68     		ldr	r3, [r7, #4]
 4824 000e 7A88     		ldrh	r2, [r7, #2]	@ movhi
 4825 0010 9A85     		strh	r2, [r3, #44]	@ movhi
2284:../STM32F10x_StdPeriph_Lib_V3.5.0/Libraries/STM32F10x_StdPeriph_Driver/src/stm32f10x_tim.c **** }
 4826              		.loc 1 2284 0
 4827 0012 07F10C07 		add	r7, r7, #12
 4828 0016 BD46     		mov	sp, r7
 4829 0018 80BC     		pop	{r7}
 4830 001a 7047     		bx	lr
 4831              		.cfi_endproc
 4832              	.LFE96:
 4834              		.section	.text.TIM_SetCompare1,"ax",%progbits
 4835              		.align	2
 4836              		.global	TIM_SetCompare1
 4837              		.thumb
 4838              		.thumb_func
 4840              	TIM_SetCompare1:
 4841              	.LFB97:
2285:../STM32F10x_StdPeriph_Lib_V3.5.0/Libraries/STM32F10x_StdPeriph_Driver/src/stm32f10x_tim.c **** 
2286:../STM32F10x_StdPeriph_Lib_V3.5.0/Libraries/STM32F10x_StdPeriph_Driver/src/stm32f10x_tim.c **** /**
2287:../STM32F10x_StdPeriph_Lib_V3.5.0/Libraries/STM32F10x_StdPeriph_Driver/src/stm32f10x_tim.c ****   * @brief  Sets the TIMx Capture Compare1 Register value
2288:../STM32F10x_StdPeriph_Lib_V3.5.0/Libraries/STM32F10x_StdPeriph_Driver/src/stm32f10x_tim.c ****   * @param  TIMx: where x can be 1 to 17 except 6 and 7 to select the TIM peripheral.
2289:../STM32F10x_StdPeriph_Lib_V3.5.0/Libraries/STM32F10x_StdPeriph_Driver/src/stm32f10x_tim.c ****   * @param  Compare1: specifies the Capture Compare1 register new value.
2290:../STM32F10x_StdPeriph_Lib_V3.5.0/Libraries/STM32F10x_StdPeriph_Driver/src/stm32f10x_tim.c ****   * @retval None
2291:../STM32F10x_StdPeriph_Lib_V3.5.0/Libraries/STM32F10x_StdPeriph_Driver/src/stm32f10x_tim.c ****   */
2292:../STM32F10x_StdPeriph_Lib_V3.5.0/Libraries/STM32F10x_StdPeriph_Driver/src/stm32f10x_tim.c **** void TIM_SetCompare1(TIM_TypeDef* TIMx, uint16_t Compare1)
2293:../STM32F10x_StdPeriph_Lib_V3.5.0/Libraries/STM32F10x_StdPeriph_Driver/src/stm32f10x_tim.c **** {
 4842              		.loc 1 2293 0
 4843              		.cfi_startproc
 4844              		@ args = 0, pretend = 0, frame = 8
 4845              		@ frame_needed = 1, uses_anonymous_args = 0
 4846              		@ link register save eliminated.
 4847 0000 80B4     		push	{r7}
 4848              	.LCFI204:
 4849              		.cfi_def_cfa_offset 4
 4850              		.cfi_offset 7, -4
 4851 0002 83B0     		sub	sp, sp, #12
 4852              	.LCFI205:
 4853              		.cfi_def_cfa_offset 16
 4854 0004 00AF     		add	r7, sp, #0
 4855              	.LCFI206:
 4856              		.cfi_def_cfa_register 7
 4857 0006 7860     		str	r0, [r7, #4]
 4858 0008 0B46     		mov	r3, r1
 4859 000a 7B80     		strh	r3, [r7, #2]	@ movhi
2294:../STM32F10x_StdPeriph_Lib_V3.5.0/Libraries/STM32F10x_StdPeriph_Driver/src/stm32f10x_tim.c ****   /* Check the parameters */
2295:../STM32F10x_StdPeriph_Lib_V3.5.0/Libraries/STM32F10x_StdPeriph_Driver/src/stm32f10x_tim.c ****   assert_param(IS_TIM_LIST8_PERIPH(TIMx));
2296:../STM32F10x_StdPeriph_Lib_V3.5.0/Libraries/STM32F10x_StdPeriph_Driver/src/stm32f10x_tim.c ****   /* Set the Capture Compare1 Register value */
2297:../STM32F10x_StdPeriph_Lib_V3.5.0/Libraries/STM32F10x_StdPeriph_Driver/src/stm32f10x_tim.c ****   TIMx->CCR1 = Compare1;
 4860              		.loc 1 2297 0
 4861 000c 7B68     		ldr	r3, [r7, #4]
 4862 000e 7A88     		ldrh	r2, [r7, #2]	@ movhi
 4863 0010 9A86     		strh	r2, [r3, #52]	@ movhi
2298:../STM32F10x_StdPeriph_Lib_V3.5.0/Libraries/STM32F10x_StdPeriph_Driver/src/stm32f10x_tim.c **** }
 4864              		.loc 1 2298 0
 4865 0012 07F10C07 		add	r7, r7, #12
 4866 0016 BD46     		mov	sp, r7
 4867 0018 80BC     		pop	{r7}
 4868 001a 7047     		bx	lr
 4869              		.cfi_endproc
 4870              	.LFE97:
 4872              		.section	.text.TIM_SetCompare2,"ax",%progbits
 4873              		.align	2
 4874              		.global	TIM_SetCompare2
 4875              		.thumb
 4876              		.thumb_func
 4878              	TIM_SetCompare2:
 4879              	.LFB98:
2299:../STM32F10x_StdPeriph_Lib_V3.5.0/Libraries/STM32F10x_StdPeriph_Driver/src/stm32f10x_tim.c **** 
2300:../STM32F10x_StdPeriph_Lib_V3.5.0/Libraries/STM32F10x_StdPeriph_Driver/src/stm32f10x_tim.c **** /**
2301:../STM32F10x_StdPeriph_Lib_V3.5.0/Libraries/STM32F10x_StdPeriph_Driver/src/stm32f10x_tim.c ****   * @brief  Sets the TIMx Capture Compare2 Register value
2302:../STM32F10x_StdPeriph_Lib_V3.5.0/Libraries/STM32F10x_StdPeriph_Driver/src/stm32f10x_tim.c ****   * @param  TIMx: where x can be 1, 2, 3, 4, 5, 8, 9, 12 or 15 to select the TIM peripheral.
2303:../STM32F10x_StdPeriph_Lib_V3.5.0/Libraries/STM32F10x_StdPeriph_Driver/src/stm32f10x_tim.c ****   * @param  Compare2: specifies the Capture Compare2 register new value.
2304:../STM32F10x_StdPeriph_Lib_V3.5.0/Libraries/STM32F10x_StdPeriph_Driver/src/stm32f10x_tim.c ****   * @retval None
2305:../STM32F10x_StdPeriph_Lib_V3.5.0/Libraries/STM32F10x_StdPeriph_Driver/src/stm32f10x_tim.c ****   */
2306:../STM32F10x_StdPeriph_Lib_V3.5.0/Libraries/STM32F10x_StdPeriph_Driver/src/stm32f10x_tim.c **** void TIM_SetCompare2(TIM_TypeDef* TIMx, uint16_t Compare2)
2307:../STM32F10x_StdPeriph_Lib_V3.5.0/Libraries/STM32F10x_StdPeriph_Driver/src/stm32f10x_tim.c **** {
 4880              		.loc 1 2307 0
 4881              		.cfi_startproc
 4882              		@ args = 0, pretend = 0, frame = 8
 4883              		@ frame_needed = 1, uses_anonymous_args = 0
 4884              		@ link register save eliminated.
 4885 0000 80B4     		push	{r7}
 4886              	.LCFI207:
 4887              		.cfi_def_cfa_offset 4
 4888              		.cfi_offset 7, -4
 4889 0002 83B0     		sub	sp, sp, #12
 4890              	.LCFI208:
 4891              		.cfi_def_cfa_offset 16
 4892 0004 00AF     		add	r7, sp, #0
 4893              	.LCFI209:
 4894              		.cfi_def_cfa_register 7
 4895 0006 7860     		str	r0, [r7, #4]
 4896 0008 0B46     		mov	r3, r1
 4897 000a 7B80     		strh	r3, [r7, #2]	@ movhi
2308:../STM32F10x_StdPeriph_Lib_V3.5.0/Libraries/STM32F10x_StdPeriph_Driver/src/stm32f10x_tim.c ****   /* Check the parameters */
2309:../STM32F10x_StdPeriph_Lib_V3.5.0/Libraries/STM32F10x_StdPeriph_Driver/src/stm32f10x_tim.c ****   assert_param(IS_TIM_LIST6_PERIPH(TIMx));
2310:../STM32F10x_StdPeriph_Lib_V3.5.0/Libraries/STM32F10x_StdPeriph_Driver/src/stm32f10x_tim.c ****   /* Set the Capture Compare2 Register value */
2311:../STM32F10x_StdPeriph_Lib_V3.5.0/Libraries/STM32F10x_StdPeriph_Driver/src/stm32f10x_tim.c ****   TIMx->CCR2 = Compare2;
 4898              		.loc 1 2311 0
 4899 000c 7B68     		ldr	r3, [r7, #4]
 4900 000e 7A88     		ldrh	r2, [r7, #2]	@ movhi
 4901 0010 1A87     		strh	r2, [r3, #56]	@ movhi
2312:../STM32F10x_StdPeriph_Lib_V3.5.0/Libraries/STM32F10x_StdPeriph_Driver/src/stm32f10x_tim.c **** }
 4902              		.loc 1 2312 0
 4903 0012 07F10C07 		add	r7, r7, #12
 4904 0016 BD46     		mov	sp, r7
 4905 0018 80BC     		pop	{r7}
 4906 001a 7047     		bx	lr
 4907              		.cfi_endproc
 4908              	.LFE98:
 4910              		.section	.text.TIM_SetCompare3,"ax",%progbits
 4911              		.align	2
 4912              		.global	TIM_SetCompare3
 4913              		.thumb
 4914              		.thumb_func
 4916              	TIM_SetCompare3:
 4917              	.LFB99:
2313:../STM32F10x_StdPeriph_Lib_V3.5.0/Libraries/STM32F10x_StdPeriph_Driver/src/stm32f10x_tim.c **** 
2314:../STM32F10x_StdPeriph_Lib_V3.5.0/Libraries/STM32F10x_StdPeriph_Driver/src/stm32f10x_tim.c **** /**
2315:../STM32F10x_StdPeriph_Lib_V3.5.0/Libraries/STM32F10x_StdPeriph_Driver/src/stm32f10x_tim.c ****   * @brief  Sets the TIMx Capture Compare3 Register value
2316:../STM32F10x_StdPeriph_Lib_V3.5.0/Libraries/STM32F10x_StdPeriph_Driver/src/stm32f10x_tim.c ****   * @param  TIMx: where x can be 1, 2, 3, 4, 5 or 8 to select the TIM peripheral.
2317:../STM32F10x_StdPeriph_Lib_V3.5.0/Libraries/STM32F10x_StdPeriph_Driver/src/stm32f10x_tim.c ****   * @param  Compare3: specifies the Capture Compare3 register new value.
2318:../STM32F10x_StdPeriph_Lib_V3.5.0/Libraries/STM32F10x_StdPeriph_Driver/src/stm32f10x_tim.c ****   * @retval None
2319:../STM32F10x_StdPeriph_Lib_V3.5.0/Libraries/STM32F10x_StdPeriph_Driver/src/stm32f10x_tim.c ****   */
2320:../STM32F10x_StdPeriph_Lib_V3.5.0/Libraries/STM32F10x_StdPeriph_Driver/src/stm32f10x_tim.c **** void TIM_SetCompare3(TIM_TypeDef* TIMx, uint16_t Compare3)
2321:../STM32F10x_StdPeriph_Lib_V3.5.0/Libraries/STM32F10x_StdPeriph_Driver/src/stm32f10x_tim.c **** {
 4918              		.loc 1 2321 0
 4919              		.cfi_startproc
 4920              		@ args = 0, pretend = 0, frame = 8
 4921              		@ frame_needed = 1, uses_anonymous_args = 0
 4922              		@ link register save eliminated.
 4923 0000 80B4     		push	{r7}
 4924              	.LCFI210:
 4925              		.cfi_def_cfa_offset 4
 4926              		.cfi_offset 7, -4
 4927 0002 83B0     		sub	sp, sp, #12
 4928              	.LCFI211:
 4929              		.cfi_def_cfa_offset 16
 4930 0004 00AF     		add	r7, sp, #0
 4931              	.LCFI212:
 4932              		.cfi_def_cfa_register 7
 4933 0006 7860     		str	r0, [r7, #4]
 4934 0008 0B46     		mov	r3, r1
 4935 000a 7B80     		strh	r3, [r7, #2]	@ movhi
2322:../STM32F10x_StdPeriph_Lib_V3.5.0/Libraries/STM32F10x_StdPeriph_Driver/src/stm32f10x_tim.c ****   /* Check the parameters */
2323:../STM32F10x_StdPeriph_Lib_V3.5.0/Libraries/STM32F10x_StdPeriph_Driver/src/stm32f10x_tim.c ****   assert_param(IS_TIM_LIST3_PERIPH(TIMx));
2324:../STM32F10x_StdPeriph_Lib_V3.5.0/Libraries/STM32F10x_StdPeriph_Driver/src/stm32f10x_tim.c ****   /* Set the Capture Compare3 Register value */
2325:../STM32F10x_StdPeriph_Lib_V3.5.0/Libraries/STM32F10x_StdPeriph_Driver/src/stm32f10x_tim.c ****   TIMx->CCR3 = Compare3;
 4936              		.loc 1 2325 0
 4937 000c 7B68     		ldr	r3, [r7, #4]
 4938 000e 7A88     		ldrh	r2, [r7, #2]	@ movhi
 4939 0010 9A87     		strh	r2, [r3, #60]	@ movhi
2326:../STM32F10x_StdPeriph_Lib_V3.5.0/Libraries/STM32F10x_StdPeriph_Driver/src/stm32f10x_tim.c **** }
 4940              		.loc 1 2326 0
 4941 0012 07F10C07 		add	r7, r7, #12
 4942 0016 BD46     		mov	sp, r7
 4943 0018 80BC     		pop	{r7}
 4944 001a 7047     		bx	lr
 4945              		.cfi_endproc
 4946              	.LFE99:
 4948              		.section	.text.TIM_SetCompare4,"ax",%progbits
 4949              		.align	2
 4950              		.global	TIM_SetCompare4
 4951              		.thumb
 4952              		.thumb_func
 4954              	TIM_SetCompare4:
 4955              	.LFB100:
2327:../STM32F10x_StdPeriph_Lib_V3.5.0/Libraries/STM32F10x_StdPeriph_Driver/src/stm32f10x_tim.c **** 
2328:../STM32F10x_StdPeriph_Lib_V3.5.0/Libraries/STM32F10x_StdPeriph_Driver/src/stm32f10x_tim.c **** /**
2329:../STM32F10x_StdPeriph_Lib_V3.5.0/Libraries/STM32F10x_StdPeriph_Driver/src/stm32f10x_tim.c ****   * @brief  Sets the TIMx Capture Compare4 Register value
2330:../STM32F10x_StdPeriph_Lib_V3.5.0/Libraries/STM32F10x_StdPeriph_Driver/src/stm32f10x_tim.c ****   * @param  TIMx: where x can be 1, 2, 3, 4, 5 or 8 to select the TIM peripheral.
2331:../STM32F10x_StdPeriph_Lib_V3.5.0/Libraries/STM32F10x_StdPeriph_Driver/src/stm32f10x_tim.c ****   * @param  Compare4: specifies the Capture Compare4 register new value.
2332:../STM32F10x_StdPeriph_Lib_V3.5.0/Libraries/STM32F10x_StdPeriph_Driver/src/stm32f10x_tim.c ****   * @retval None
2333:../STM32F10x_StdPeriph_Lib_V3.5.0/Libraries/STM32F10x_StdPeriph_Driver/src/stm32f10x_tim.c ****   */
2334:../STM32F10x_StdPeriph_Lib_V3.5.0/Libraries/STM32F10x_StdPeriph_Driver/src/stm32f10x_tim.c **** void TIM_SetCompare4(TIM_TypeDef* TIMx, uint16_t Compare4)
2335:../STM32F10x_StdPeriph_Lib_V3.5.0/Libraries/STM32F10x_StdPeriph_Driver/src/stm32f10x_tim.c **** {
 4956              		.loc 1 2335 0
 4957              		.cfi_startproc
 4958              		@ args = 0, pretend = 0, frame = 8
 4959              		@ frame_needed = 1, uses_anonymous_args = 0
 4960              		@ link register save eliminated.
 4961 0000 80B4     		push	{r7}
 4962              	.LCFI213:
 4963              		.cfi_def_cfa_offset 4
 4964              		.cfi_offset 7, -4
 4965 0002 83B0     		sub	sp, sp, #12
 4966              	.LCFI214:
 4967              		.cfi_def_cfa_offset 16
 4968 0004 00AF     		add	r7, sp, #0
 4969              	.LCFI215:
 4970              		.cfi_def_cfa_register 7
 4971 0006 7860     		str	r0, [r7, #4]
 4972 0008 0B46     		mov	r3, r1
 4973 000a 7B80     		strh	r3, [r7, #2]	@ movhi
2336:../STM32F10x_StdPeriph_Lib_V3.5.0/Libraries/STM32F10x_StdPeriph_Driver/src/stm32f10x_tim.c ****   /* Check the parameters */
2337:../STM32F10x_StdPeriph_Lib_V3.5.0/Libraries/STM32F10x_StdPeriph_Driver/src/stm32f10x_tim.c ****   assert_param(IS_TIM_LIST3_PERIPH(TIMx));
2338:../STM32F10x_StdPeriph_Lib_V3.5.0/Libraries/STM32F10x_StdPeriph_Driver/src/stm32f10x_tim.c ****   /* Set the Capture Compare4 Register value */
2339:../STM32F10x_StdPeriph_Lib_V3.5.0/Libraries/STM32F10x_StdPeriph_Driver/src/stm32f10x_tim.c ****   TIMx->CCR4 = Compare4;
 4974              		.loc 1 2339 0
 4975 000c 7B68     		ldr	r3, [r7, #4]
 4976 000e 7A88     		ldrh	r2, [r7, #2]	@ movhi
 4977 0010 A3F84020 		strh	r2, [r3, #64]	@ movhi
2340:../STM32F10x_StdPeriph_Lib_V3.5.0/Libraries/STM32F10x_StdPeriph_Driver/src/stm32f10x_tim.c **** }
 4978              		.loc 1 2340 0
 4979 0014 07F10C07 		add	r7, r7, #12
 4980 0018 BD46     		mov	sp, r7
 4981 001a 80BC     		pop	{r7}
 4982 001c 7047     		bx	lr
 4983              		.cfi_endproc
 4984              	.LFE100:
 4986 001e 00BF     		.section	.text.TIM_SetIC1Prescaler,"ax",%progbits
 4987              		.align	2
 4988              		.global	TIM_SetIC1Prescaler
 4989              		.thumb
 4990              		.thumb_func
 4992              	TIM_SetIC1Prescaler:
 4993              	.LFB101:
2341:../STM32F10x_StdPeriph_Lib_V3.5.0/Libraries/STM32F10x_StdPeriph_Driver/src/stm32f10x_tim.c **** 
2342:../STM32F10x_StdPeriph_Lib_V3.5.0/Libraries/STM32F10x_StdPeriph_Driver/src/stm32f10x_tim.c **** /**
2343:../STM32F10x_StdPeriph_Lib_V3.5.0/Libraries/STM32F10x_StdPeriph_Driver/src/stm32f10x_tim.c ****   * @brief  Sets the TIMx Input Capture 1 prescaler.
2344:../STM32F10x_StdPeriph_Lib_V3.5.0/Libraries/STM32F10x_StdPeriph_Driver/src/stm32f10x_tim.c ****   * @param  TIMx: where x can be 1 to 17 except 6 and 7 to select the TIM peripheral.
2345:../STM32F10x_StdPeriph_Lib_V3.5.0/Libraries/STM32F10x_StdPeriph_Driver/src/stm32f10x_tim.c ****   * @param  TIM_ICPSC: specifies the Input Capture1 prescaler new value.
2346:../STM32F10x_StdPeriph_Lib_V3.5.0/Libraries/STM32F10x_StdPeriph_Driver/src/stm32f10x_tim.c ****   *   This parameter can be one of the following values:
2347:../STM32F10x_StdPeriph_Lib_V3.5.0/Libraries/STM32F10x_StdPeriph_Driver/src/stm32f10x_tim.c ****   *     @arg TIM_ICPSC_DIV1: no prescaler
2348:../STM32F10x_StdPeriph_Lib_V3.5.0/Libraries/STM32F10x_StdPeriph_Driver/src/stm32f10x_tim.c ****   *     @arg TIM_ICPSC_DIV2: capture is done once every 2 events
2349:../STM32F10x_StdPeriph_Lib_V3.5.0/Libraries/STM32F10x_StdPeriph_Driver/src/stm32f10x_tim.c ****   *     @arg TIM_ICPSC_DIV4: capture is done once every 4 events
2350:../STM32F10x_StdPeriph_Lib_V3.5.0/Libraries/STM32F10x_StdPeriph_Driver/src/stm32f10x_tim.c ****   *     @arg TIM_ICPSC_DIV8: capture is done once every 8 events
2351:../STM32F10x_StdPeriph_Lib_V3.5.0/Libraries/STM32F10x_StdPeriph_Driver/src/stm32f10x_tim.c ****   * @retval None
2352:../STM32F10x_StdPeriph_Lib_V3.5.0/Libraries/STM32F10x_StdPeriph_Driver/src/stm32f10x_tim.c ****   */
2353:../STM32F10x_StdPeriph_Lib_V3.5.0/Libraries/STM32F10x_StdPeriph_Driver/src/stm32f10x_tim.c **** void TIM_SetIC1Prescaler(TIM_TypeDef* TIMx, uint16_t TIM_ICPSC)
2354:../STM32F10x_StdPeriph_Lib_V3.5.0/Libraries/STM32F10x_StdPeriph_Driver/src/stm32f10x_tim.c **** {
 4994              		.loc 1 2354 0
 4995              		.cfi_startproc
 4996              		@ args = 0, pretend = 0, frame = 8
 4997              		@ frame_needed = 1, uses_anonymous_args = 0
 4998              		@ link register save eliminated.
 4999 0000 80B4     		push	{r7}
 5000              	.LCFI216:
 5001              		.cfi_def_cfa_offset 4
 5002              		.cfi_offset 7, -4
 5003 0002 83B0     		sub	sp, sp, #12
 5004              	.LCFI217:
 5005              		.cfi_def_cfa_offset 16
 5006 0004 00AF     		add	r7, sp, #0
 5007              	.LCFI218:
 5008              		.cfi_def_cfa_register 7
 5009 0006 7860     		str	r0, [r7, #4]
 5010 0008 0B46     		mov	r3, r1
 5011 000a 7B80     		strh	r3, [r7, #2]	@ movhi
2355:../STM32F10x_StdPeriph_Lib_V3.5.0/Libraries/STM32F10x_StdPeriph_Driver/src/stm32f10x_tim.c ****   /* Check the parameters */
2356:../STM32F10x_StdPeriph_Lib_V3.5.0/Libraries/STM32F10x_StdPeriph_Driver/src/stm32f10x_tim.c ****   assert_param(IS_TIM_LIST8_PERIPH(TIMx));
2357:../STM32F10x_StdPeriph_Lib_V3.5.0/Libraries/STM32F10x_StdPeriph_Driver/src/stm32f10x_tim.c ****   assert_param(IS_TIM_IC_PRESCALER(TIM_ICPSC));
2358:../STM32F10x_StdPeriph_Lib_V3.5.0/Libraries/STM32F10x_StdPeriph_Driver/src/stm32f10x_tim.c ****   /* Reset the IC1PSC Bits */
2359:../STM32F10x_StdPeriph_Lib_V3.5.0/Libraries/STM32F10x_StdPeriph_Driver/src/stm32f10x_tim.c ****   TIMx->CCMR1 &= (uint16_t)~((uint16_t)TIM_CCMR1_IC1PSC);
 5012              		.loc 1 2359 0
 5013 000c 7B68     		ldr	r3, [r7, #4]
 5014 000e 1B8B     		ldrh	r3, [r3, #24]	@ movhi
 5015 0010 9BB2     		uxth	r3, r3
 5016 0012 23F00C03 		bic	r3, r3, #12
 5017 0016 9AB2     		uxth	r2, r3
 5018 0018 7B68     		ldr	r3, [r7, #4]
 5019 001a 1A83     		strh	r2, [r3, #24]	@ movhi
2360:../STM32F10x_StdPeriph_Lib_V3.5.0/Libraries/STM32F10x_StdPeriph_Driver/src/stm32f10x_tim.c ****   /* Set the IC1PSC value */
2361:../STM32F10x_StdPeriph_Lib_V3.5.0/Libraries/STM32F10x_StdPeriph_Driver/src/stm32f10x_tim.c ****   TIMx->CCMR1 |= TIM_ICPSC;
 5020              		.loc 1 2361 0
 5021 001c 7B68     		ldr	r3, [r7, #4]
 5022 001e 1B8B     		ldrh	r3, [r3, #24]	@ movhi
 5023 0020 9AB2     		uxth	r2, r3
 5024 0022 7B88     		ldrh	r3, [r7, #2]	@ movhi
 5025 0024 1343     		orrs	r3, r3, r2
 5026 0026 9AB2     		uxth	r2, r3
 5027 0028 7B68     		ldr	r3, [r7, #4]
 5028 002a 1A83     		strh	r2, [r3, #24]	@ movhi
2362:../STM32F10x_StdPeriph_Lib_V3.5.0/Libraries/STM32F10x_StdPeriph_Driver/src/stm32f10x_tim.c **** }
 5029              		.loc 1 2362 0
 5030 002c 07F10C07 		add	r7, r7, #12
 5031 0030 BD46     		mov	sp, r7
 5032 0032 80BC     		pop	{r7}
 5033 0034 7047     		bx	lr
 5034              		.cfi_endproc
 5035              	.LFE101:
 5037 0036 00BF     		.section	.text.TIM_SetIC2Prescaler,"ax",%progbits
 5038              		.align	2
 5039              		.global	TIM_SetIC2Prescaler
 5040              		.thumb
 5041              		.thumb_func
 5043              	TIM_SetIC2Prescaler:
 5044              	.LFB102:
2363:../STM32F10x_StdPeriph_Lib_V3.5.0/Libraries/STM32F10x_StdPeriph_Driver/src/stm32f10x_tim.c **** 
2364:../STM32F10x_StdPeriph_Lib_V3.5.0/Libraries/STM32F10x_StdPeriph_Driver/src/stm32f10x_tim.c **** /**
2365:../STM32F10x_StdPeriph_Lib_V3.5.0/Libraries/STM32F10x_StdPeriph_Driver/src/stm32f10x_tim.c ****   * @brief  Sets the TIMx Input Capture 2 prescaler.
2366:../STM32F10x_StdPeriph_Lib_V3.5.0/Libraries/STM32F10x_StdPeriph_Driver/src/stm32f10x_tim.c ****   * @param  TIMx: where x can be 1, 2, 3, 4, 5, 8, 9, 12 or 15 to select the TIM peripheral.
2367:../STM32F10x_StdPeriph_Lib_V3.5.0/Libraries/STM32F10x_StdPeriph_Driver/src/stm32f10x_tim.c ****   * @param  TIM_ICPSC: specifies the Input Capture2 prescaler new value.
2368:../STM32F10x_StdPeriph_Lib_V3.5.0/Libraries/STM32F10x_StdPeriph_Driver/src/stm32f10x_tim.c ****   *   This parameter can be one of the following values:
2369:../STM32F10x_StdPeriph_Lib_V3.5.0/Libraries/STM32F10x_StdPeriph_Driver/src/stm32f10x_tim.c ****   *     @arg TIM_ICPSC_DIV1: no prescaler
2370:../STM32F10x_StdPeriph_Lib_V3.5.0/Libraries/STM32F10x_StdPeriph_Driver/src/stm32f10x_tim.c ****   *     @arg TIM_ICPSC_DIV2: capture is done once every 2 events
2371:../STM32F10x_StdPeriph_Lib_V3.5.0/Libraries/STM32F10x_StdPeriph_Driver/src/stm32f10x_tim.c ****   *     @arg TIM_ICPSC_DIV4: capture is done once every 4 events
2372:../STM32F10x_StdPeriph_Lib_V3.5.0/Libraries/STM32F10x_StdPeriph_Driver/src/stm32f10x_tim.c ****   *     @arg TIM_ICPSC_DIV8: capture is done once every 8 events
2373:../STM32F10x_StdPeriph_Lib_V3.5.0/Libraries/STM32F10x_StdPeriph_Driver/src/stm32f10x_tim.c ****   * @retval None
2374:../STM32F10x_StdPeriph_Lib_V3.5.0/Libraries/STM32F10x_StdPeriph_Driver/src/stm32f10x_tim.c ****   */
2375:../STM32F10x_StdPeriph_Lib_V3.5.0/Libraries/STM32F10x_StdPeriph_Driver/src/stm32f10x_tim.c **** void TIM_SetIC2Prescaler(TIM_TypeDef* TIMx, uint16_t TIM_ICPSC)
2376:../STM32F10x_StdPeriph_Lib_V3.5.0/Libraries/STM32F10x_StdPeriph_Driver/src/stm32f10x_tim.c **** {
 5045              		.loc 1 2376 0
 5046              		.cfi_startproc
 5047              		@ args = 0, pretend = 0, frame = 8
 5048              		@ frame_needed = 1, uses_anonymous_args = 0
 5049              		@ link register save eliminated.
 5050 0000 80B4     		push	{r7}
 5051              	.LCFI219:
 5052              		.cfi_def_cfa_offset 4
 5053              		.cfi_offset 7, -4
 5054 0002 83B0     		sub	sp, sp, #12
 5055              	.LCFI220:
 5056              		.cfi_def_cfa_offset 16
 5057 0004 00AF     		add	r7, sp, #0
 5058              	.LCFI221:
 5059              		.cfi_def_cfa_register 7
 5060 0006 7860     		str	r0, [r7, #4]
 5061 0008 0B46     		mov	r3, r1
 5062 000a 7B80     		strh	r3, [r7, #2]	@ movhi
2377:../STM32F10x_StdPeriph_Lib_V3.5.0/Libraries/STM32F10x_StdPeriph_Driver/src/stm32f10x_tim.c ****   /* Check the parameters */
2378:../STM32F10x_StdPeriph_Lib_V3.5.0/Libraries/STM32F10x_StdPeriph_Driver/src/stm32f10x_tim.c ****   assert_param(IS_TIM_LIST6_PERIPH(TIMx));
2379:../STM32F10x_StdPeriph_Lib_V3.5.0/Libraries/STM32F10x_StdPeriph_Driver/src/stm32f10x_tim.c ****   assert_param(IS_TIM_IC_PRESCALER(TIM_ICPSC));
2380:../STM32F10x_StdPeriph_Lib_V3.5.0/Libraries/STM32F10x_StdPeriph_Driver/src/stm32f10x_tim.c ****   /* Reset the IC2PSC Bits */
2381:../STM32F10x_StdPeriph_Lib_V3.5.0/Libraries/STM32F10x_StdPeriph_Driver/src/stm32f10x_tim.c ****   TIMx->CCMR1 &= (uint16_t)~((uint16_t)TIM_CCMR1_IC2PSC);
 5063              		.loc 1 2381 0
 5064 000c 7B68     		ldr	r3, [r7, #4]
 5065 000e 1B8B     		ldrh	r3, [r3, #24]	@ movhi
 5066 0010 9BB2     		uxth	r3, r3
 5067 0012 23F44063 		bic	r3, r3, #3072
 5068 0016 9AB2     		uxth	r2, r3
 5069 0018 7B68     		ldr	r3, [r7, #4]
 5070 001a 1A83     		strh	r2, [r3, #24]	@ movhi
2382:../STM32F10x_StdPeriph_Lib_V3.5.0/Libraries/STM32F10x_StdPeriph_Driver/src/stm32f10x_tim.c ****   /* Set the IC2PSC value */
2383:../STM32F10x_StdPeriph_Lib_V3.5.0/Libraries/STM32F10x_StdPeriph_Driver/src/stm32f10x_tim.c ****   TIMx->CCMR1 |= (uint16_t)(TIM_ICPSC << 8);
 5071              		.loc 1 2383 0
 5072 001c 7B68     		ldr	r3, [r7, #4]
 5073 001e 1B8B     		ldrh	r3, [r3, #24]	@ movhi
 5074 0020 9AB2     		uxth	r2, r3
 5075 0022 7B88     		ldrh	r3, [r7, #2]	@ movhi
 5076 0024 4FEA0323 		lsl	r3, r3, #8
 5077 0028 9BB2     		uxth	r3, r3
 5078 002a 1343     		orrs	r3, r3, r2
 5079 002c 9AB2     		uxth	r2, r3
 5080 002e 7B68     		ldr	r3, [r7, #4]
 5081 0030 1A83     		strh	r2, [r3, #24]	@ movhi
2384:../STM32F10x_StdPeriph_Lib_V3.5.0/Libraries/STM32F10x_StdPeriph_Driver/src/stm32f10x_tim.c **** }
 5082              		.loc 1 2384 0
 5083 0032 07F10C07 		add	r7, r7, #12
 5084 0036 BD46     		mov	sp, r7
 5085 0038 80BC     		pop	{r7}
 5086 003a 7047     		bx	lr
 5087              		.cfi_endproc
 5088              	.LFE102:
 5090              		.section	.text.TIM_SetIC3Prescaler,"ax",%progbits
 5091              		.align	2
 5092              		.global	TIM_SetIC3Prescaler
 5093              		.thumb
 5094              		.thumb_func
 5096              	TIM_SetIC3Prescaler:
 5097              	.LFB103:
2385:../STM32F10x_StdPeriph_Lib_V3.5.0/Libraries/STM32F10x_StdPeriph_Driver/src/stm32f10x_tim.c **** 
2386:../STM32F10x_StdPeriph_Lib_V3.5.0/Libraries/STM32F10x_StdPeriph_Driver/src/stm32f10x_tim.c **** /**
2387:../STM32F10x_StdPeriph_Lib_V3.5.0/Libraries/STM32F10x_StdPeriph_Driver/src/stm32f10x_tim.c ****   * @brief  Sets the TIMx Input Capture 3 prescaler.
2388:../STM32F10x_StdPeriph_Lib_V3.5.0/Libraries/STM32F10x_StdPeriph_Driver/src/stm32f10x_tim.c ****   * @param  TIMx: where x can be 1, 2, 3, 4, 5 or 8 to select the TIM peripheral.
2389:../STM32F10x_StdPeriph_Lib_V3.5.0/Libraries/STM32F10x_StdPeriph_Driver/src/stm32f10x_tim.c ****   * @param  TIM_ICPSC: specifies the Input Capture3 prescaler new value.
2390:../STM32F10x_StdPeriph_Lib_V3.5.0/Libraries/STM32F10x_StdPeriph_Driver/src/stm32f10x_tim.c ****   *   This parameter can be one of the following values:
2391:../STM32F10x_StdPeriph_Lib_V3.5.0/Libraries/STM32F10x_StdPeriph_Driver/src/stm32f10x_tim.c ****   *     @arg TIM_ICPSC_DIV1: no prescaler
2392:../STM32F10x_StdPeriph_Lib_V3.5.0/Libraries/STM32F10x_StdPeriph_Driver/src/stm32f10x_tim.c ****   *     @arg TIM_ICPSC_DIV2: capture is done once every 2 events
2393:../STM32F10x_StdPeriph_Lib_V3.5.0/Libraries/STM32F10x_StdPeriph_Driver/src/stm32f10x_tim.c ****   *     @arg TIM_ICPSC_DIV4: capture is done once every 4 events
2394:../STM32F10x_StdPeriph_Lib_V3.5.0/Libraries/STM32F10x_StdPeriph_Driver/src/stm32f10x_tim.c ****   *     @arg TIM_ICPSC_DIV8: capture is done once every 8 events
2395:../STM32F10x_StdPeriph_Lib_V3.5.0/Libraries/STM32F10x_StdPeriph_Driver/src/stm32f10x_tim.c ****   * @retval None
2396:../STM32F10x_StdPeriph_Lib_V3.5.0/Libraries/STM32F10x_StdPeriph_Driver/src/stm32f10x_tim.c ****   */
2397:../STM32F10x_StdPeriph_Lib_V3.5.0/Libraries/STM32F10x_StdPeriph_Driver/src/stm32f10x_tim.c **** void TIM_SetIC3Prescaler(TIM_TypeDef* TIMx, uint16_t TIM_ICPSC)
2398:../STM32F10x_StdPeriph_Lib_V3.5.0/Libraries/STM32F10x_StdPeriph_Driver/src/stm32f10x_tim.c **** {
 5098              		.loc 1 2398 0
 5099              		.cfi_startproc
 5100              		@ args = 0, pretend = 0, frame = 8
 5101              		@ frame_needed = 1, uses_anonymous_args = 0
 5102              		@ link register save eliminated.
 5103 0000 80B4     		push	{r7}
 5104              	.LCFI222:
 5105              		.cfi_def_cfa_offset 4
 5106              		.cfi_offset 7, -4
 5107 0002 83B0     		sub	sp, sp, #12
 5108              	.LCFI223:
 5109              		.cfi_def_cfa_offset 16
 5110 0004 00AF     		add	r7, sp, #0
 5111              	.LCFI224:
 5112              		.cfi_def_cfa_register 7
 5113 0006 7860     		str	r0, [r7, #4]
 5114 0008 0B46     		mov	r3, r1
 5115 000a 7B80     		strh	r3, [r7, #2]	@ movhi
2399:../STM32F10x_StdPeriph_Lib_V3.5.0/Libraries/STM32F10x_StdPeriph_Driver/src/stm32f10x_tim.c ****   /* Check the parameters */
2400:../STM32F10x_StdPeriph_Lib_V3.5.0/Libraries/STM32F10x_StdPeriph_Driver/src/stm32f10x_tim.c ****   assert_param(IS_TIM_LIST3_PERIPH(TIMx));
2401:../STM32F10x_StdPeriph_Lib_V3.5.0/Libraries/STM32F10x_StdPeriph_Driver/src/stm32f10x_tim.c ****   assert_param(IS_TIM_IC_PRESCALER(TIM_ICPSC));
2402:../STM32F10x_StdPeriph_Lib_V3.5.0/Libraries/STM32F10x_StdPeriph_Driver/src/stm32f10x_tim.c ****   /* Reset the IC3PSC Bits */
2403:../STM32F10x_StdPeriph_Lib_V3.5.0/Libraries/STM32F10x_StdPeriph_Driver/src/stm32f10x_tim.c ****   TIMx->CCMR2 &= (uint16_t)~((uint16_t)TIM_CCMR2_IC3PSC);
 5116              		.loc 1 2403 0
 5117 000c 7B68     		ldr	r3, [r7, #4]
 5118 000e 9B8B     		ldrh	r3, [r3, #28]	@ movhi
 5119 0010 9BB2     		uxth	r3, r3
 5120 0012 23F00C03 		bic	r3, r3, #12
 5121 0016 9AB2     		uxth	r2, r3
 5122 0018 7B68     		ldr	r3, [r7, #4]
 5123 001a 9A83     		strh	r2, [r3, #28]	@ movhi
2404:../STM32F10x_StdPeriph_Lib_V3.5.0/Libraries/STM32F10x_StdPeriph_Driver/src/stm32f10x_tim.c ****   /* Set the IC3PSC value */
2405:../STM32F10x_StdPeriph_Lib_V3.5.0/Libraries/STM32F10x_StdPeriph_Driver/src/stm32f10x_tim.c ****   TIMx->CCMR2 |= TIM_ICPSC;
 5124              		.loc 1 2405 0
 5125 001c 7B68     		ldr	r3, [r7, #4]
 5126 001e 9B8B     		ldrh	r3, [r3, #28]	@ movhi
 5127 0020 9AB2     		uxth	r2, r3
 5128 0022 7B88     		ldrh	r3, [r7, #2]	@ movhi
 5129 0024 1343     		orrs	r3, r3, r2
 5130 0026 9AB2     		uxth	r2, r3
 5131 0028 7B68     		ldr	r3, [r7, #4]
 5132 002a 9A83     		strh	r2, [r3, #28]	@ movhi
2406:../STM32F10x_StdPeriph_Lib_V3.5.0/Libraries/STM32F10x_StdPeriph_Driver/src/stm32f10x_tim.c **** }
 5133              		.loc 1 2406 0
 5134 002c 07F10C07 		add	r7, r7, #12
 5135 0030 BD46     		mov	sp, r7
 5136 0032 80BC     		pop	{r7}
 5137 0034 7047     		bx	lr
 5138              		.cfi_endproc
 5139              	.LFE103:
 5141 0036 00BF     		.section	.text.TIM_SetIC4Prescaler,"ax",%progbits
 5142              		.align	2
 5143              		.global	TIM_SetIC4Prescaler
 5144              		.thumb
 5145              		.thumb_func
 5147              	TIM_SetIC4Prescaler:
 5148              	.LFB104:
2407:../STM32F10x_StdPeriph_Lib_V3.5.0/Libraries/STM32F10x_StdPeriph_Driver/src/stm32f10x_tim.c **** 
2408:../STM32F10x_StdPeriph_Lib_V3.5.0/Libraries/STM32F10x_StdPeriph_Driver/src/stm32f10x_tim.c **** /**
2409:../STM32F10x_StdPeriph_Lib_V3.5.0/Libraries/STM32F10x_StdPeriph_Driver/src/stm32f10x_tim.c ****   * @brief  Sets the TIMx Input Capture 4 prescaler.
2410:../STM32F10x_StdPeriph_Lib_V3.5.0/Libraries/STM32F10x_StdPeriph_Driver/src/stm32f10x_tim.c ****   * @param  TIMx: where x can be 1, 2, 3, 4, 5 or 8 to select the TIM peripheral.
2411:../STM32F10x_StdPeriph_Lib_V3.5.0/Libraries/STM32F10x_StdPeriph_Driver/src/stm32f10x_tim.c ****   * @param  TIM_ICPSC: specifies the Input Capture4 prescaler new value.
2412:../STM32F10x_StdPeriph_Lib_V3.5.0/Libraries/STM32F10x_StdPeriph_Driver/src/stm32f10x_tim.c ****   *   This parameter can be one of the following values:
2413:../STM32F10x_StdPeriph_Lib_V3.5.0/Libraries/STM32F10x_StdPeriph_Driver/src/stm32f10x_tim.c ****   *     @arg TIM_ICPSC_DIV1: no prescaler
2414:../STM32F10x_StdPeriph_Lib_V3.5.0/Libraries/STM32F10x_StdPeriph_Driver/src/stm32f10x_tim.c ****   *     @arg TIM_ICPSC_DIV2: capture is done once every 2 events
2415:../STM32F10x_StdPeriph_Lib_V3.5.0/Libraries/STM32F10x_StdPeriph_Driver/src/stm32f10x_tim.c ****   *     @arg TIM_ICPSC_DIV4: capture is done once every 4 events
2416:../STM32F10x_StdPeriph_Lib_V3.5.0/Libraries/STM32F10x_StdPeriph_Driver/src/stm32f10x_tim.c ****   *     @arg TIM_ICPSC_DIV8: capture is done once every 8 events
2417:../STM32F10x_StdPeriph_Lib_V3.5.0/Libraries/STM32F10x_StdPeriph_Driver/src/stm32f10x_tim.c ****   * @retval None
2418:../STM32F10x_StdPeriph_Lib_V3.5.0/Libraries/STM32F10x_StdPeriph_Driver/src/stm32f10x_tim.c ****   */
2419:../STM32F10x_StdPeriph_Lib_V3.5.0/Libraries/STM32F10x_StdPeriph_Driver/src/stm32f10x_tim.c **** void TIM_SetIC4Prescaler(TIM_TypeDef* TIMx, uint16_t TIM_ICPSC)
2420:../STM32F10x_StdPeriph_Lib_V3.5.0/Libraries/STM32F10x_StdPeriph_Driver/src/stm32f10x_tim.c **** {  
 5149              		.loc 1 2420 0
 5150              		.cfi_startproc
 5151              		@ args = 0, pretend = 0, frame = 8
 5152              		@ frame_needed = 1, uses_anonymous_args = 0
 5153              		@ link register save eliminated.
 5154 0000 80B4     		push	{r7}
 5155              	.LCFI225:
 5156              		.cfi_def_cfa_offset 4
 5157              		.cfi_offset 7, -4
 5158 0002 83B0     		sub	sp, sp, #12
 5159              	.LCFI226:
 5160              		.cfi_def_cfa_offset 16
 5161 0004 00AF     		add	r7, sp, #0
 5162              	.LCFI227:
 5163              		.cfi_def_cfa_register 7
 5164 0006 7860     		str	r0, [r7, #4]
 5165 0008 0B46     		mov	r3, r1
 5166 000a 7B80     		strh	r3, [r7, #2]	@ movhi
2421:../STM32F10x_StdPeriph_Lib_V3.5.0/Libraries/STM32F10x_StdPeriph_Driver/src/stm32f10x_tim.c ****   /* Check the parameters */
2422:../STM32F10x_StdPeriph_Lib_V3.5.0/Libraries/STM32F10x_StdPeriph_Driver/src/stm32f10x_tim.c ****   assert_param(IS_TIM_LIST3_PERIPH(TIMx));
2423:../STM32F10x_StdPeriph_Lib_V3.5.0/Libraries/STM32F10x_StdPeriph_Driver/src/stm32f10x_tim.c ****   assert_param(IS_TIM_IC_PRESCALER(TIM_ICPSC));
2424:../STM32F10x_StdPeriph_Lib_V3.5.0/Libraries/STM32F10x_StdPeriph_Driver/src/stm32f10x_tim.c ****   /* Reset the IC4PSC Bits */
2425:../STM32F10x_StdPeriph_Lib_V3.5.0/Libraries/STM32F10x_StdPeriph_Driver/src/stm32f10x_tim.c ****   TIMx->CCMR2 &= (uint16_t)~((uint16_t)TIM_CCMR2_IC4PSC);
 5167              		.loc 1 2425 0
 5168 000c 7B68     		ldr	r3, [r7, #4]
 5169 000e 9B8B     		ldrh	r3, [r3, #28]	@ movhi
 5170 0010 9BB2     		uxth	r3, r3
 5171 0012 23F44063 		bic	r3, r3, #3072
 5172 0016 9AB2     		uxth	r2, r3
 5173 0018 7B68     		ldr	r3, [r7, #4]
 5174 001a 9A83     		strh	r2, [r3, #28]	@ movhi
2426:../STM32F10x_StdPeriph_Lib_V3.5.0/Libraries/STM32F10x_StdPeriph_Driver/src/stm32f10x_tim.c ****   /* Set the IC4PSC value */
2427:../STM32F10x_StdPeriph_Lib_V3.5.0/Libraries/STM32F10x_StdPeriph_Driver/src/stm32f10x_tim.c ****   TIMx->CCMR2 |= (uint16_t)(TIM_ICPSC << 8);
 5175              		.loc 1 2427 0
 5176 001c 7B68     		ldr	r3, [r7, #4]
 5177 001e 9B8B     		ldrh	r3, [r3, #28]	@ movhi
 5178 0020 9AB2     		uxth	r2, r3
 5179 0022 7B88     		ldrh	r3, [r7, #2]	@ movhi
 5180 0024 4FEA0323 		lsl	r3, r3, #8
 5181 0028 9BB2     		uxth	r3, r3
 5182 002a 1343     		orrs	r3, r3, r2
 5183 002c 9AB2     		uxth	r2, r3
 5184 002e 7B68     		ldr	r3, [r7, #4]
 5185 0030 9A83     		strh	r2, [r3, #28]	@ movhi
2428:../STM32F10x_StdPeriph_Lib_V3.5.0/Libraries/STM32F10x_StdPeriph_Driver/src/stm32f10x_tim.c **** }
 5186              		.loc 1 2428 0
 5187 0032 07F10C07 		add	r7, r7, #12
 5188 0036 BD46     		mov	sp, r7
 5189 0038 80BC     		pop	{r7}
 5190 003a 7047     		bx	lr
 5191              		.cfi_endproc
 5192              	.LFE104:
 5194              		.section	.text.TIM_SetClockDivision,"ax",%progbits
 5195              		.align	2
 5196              		.global	TIM_SetClockDivision
 5197              		.thumb
 5198              		.thumb_func
 5200              	TIM_SetClockDivision:
 5201              	.LFB105:
2429:../STM32F10x_StdPeriph_Lib_V3.5.0/Libraries/STM32F10x_StdPeriph_Driver/src/stm32f10x_tim.c **** 
2430:../STM32F10x_StdPeriph_Lib_V3.5.0/Libraries/STM32F10x_StdPeriph_Driver/src/stm32f10x_tim.c **** /**
2431:../STM32F10x_StdPeriph_Lib_V3.5.0/Libraries/STM32F10x_StdPeriph_Driver/src/stm32f10x_tim.c ****   * @brief  Sets the TIMx Clock Division value.
2432:../STM32F10x_StdPeriph_Lib_V3.5.0/Libraries/STM32F10x_StdPeriph_Driver/src/stm32f10x_tim.c ****   * @param  TIMx: where x can be  1 to 17 except 6 and 7 to select 
2433:../STM32F10x_StdPeriph_Lib_V3.5.0/Libraries/STM32F10x_StdPeriph_Driver/src/stm32f10x_tim.c ****   *   the TIM peripheral.
2434:../STM32F10x_StdPeriph_Lib_V3.5.0/Libraries/STM32F10x_StdPeriph_Driver/src/stm32f10x_tim.c ****   * @param  TIM_CKD: specifies the clock division value.
2435:../STM32F10x_StdPeriph_Lib_V3.5.0/Libraries/STM32F10x_StdPeriph_Driver/src/stm32f10x_tim.c ****   *   This parameter can be one of the following value:
2436:../STM32F10x_StdPeriph_Lib_V3.5.0/Libraries/STM32F10x_StdPeriph_Driver/src/stm32f10x_tim.c ****   *     @arg TIM_CKD_DIV1: TDTS = Tck_tim
2437:../STM32F10x_StdPeriph_Lib_V3.5.0/Libraries/STM32F10x_StdPeriph_Driver/src/stm32f10x_tim.c ****   *     @arg TIM_CKD_DIV2: TDTS = 2*Tck_tim
2438:../STM32F10x_StdPeriph_Lib_V3.5.0/Libraries/STM32F10x_StdPeriph_Driver/src/stm32f10x_tim.c ****   *     @arg TIM_CKD_DIV4: TDTS = 4*Tck_tim
2439:../STM32F10x_StdPeriph_Lib_V3.5.0/Libraries/STM32F10x_StdPeriph_Driver/src/stm32f10x_tim.c ****   * @retval None
2440:../STM32F10x_StdPeriph_Lib_V3.5.0/Libraries/STM32F10x_StdPeriph_Driver/src/stm32f10x_tim.c ****   */
2441:../STM32F10x_StdPeriph_Lib_V3.5.0/Libraries/STM32F10x_StdPeriph_Driver/src/stm32f10x_tim.c **** void TIM_SetClockDivision(TIM_TypeDef* TIMx, uint16_t TIM_CKD)
2442:../STM32F10x_StdPeriph_Lib_V3.5.0/Libraries/STM32F10x_StdPeriph_Driver/src/stm32f10x_tim.c **** {
 5202              		.loc 1 2442 0
 5203              		.cfi_startproc
 5204              		@ args = 0, pretend = 0, frame = 8
 5205              		@ frame_needed = 1, uses_anonymous_args = 0
 5206              		@ link register save eliminated.
 5207 0000 80B4     		push	{r7}
 5208              	.LCFI228:
 5209              		.cfi_def_cfa_offset 4
 5210              		.cfi_offset 7, -4
 5211 0002 83B0     		sub	sp, sp, #12
 5212              	.LCFI229:
 5213              		.cfi_def_cfa_offset 16
 5214 0004 00AF     		add	r7, sp, #0
 5215              	.LCFI230:
 5216              		.cfi_def_cfa_register 7
 5217 0006 7860     		str	r0, [r7, #4]
 5218 0008 0B46     		mov	r3, r1
 5219 000a 7B80     		strh	r3, [r7, #2]	@ movhi
2443:../STM32F10x_StdPeriph_Lib_V3.5.0/Libraries/STM32F10x_StdPeriph_Driver/src/stm32f10x_tim.c ****   /* Check the parameters */
2444:../STM32F10x_StdPeriph_Lib_V3.5.0/Libraries/STM32F10x_StdPeriph_Driver/src/stm32f10x_tim.c ****   assert_param(IS_TIM_LIST8_PERIPH(TIMx));
2445:../STM32F10x_StdPeriph_Lib_V3.5.0/Libraries/STM32F10x_StdPeriph_Driver/src/stm32f10x_tim.c ****   assert_param(IS_TIM_CKD_DIV(TIM_CKD));
2446:../STM32F10x_StdPeriph_Lib_V3.5.0/Libraries/STM32F10x_StdPeriph_Driver/src/stm32f10x_tim.c ****   /* Reset the CKD Bits */
2447:../STM32F10x_StdPeriph_Lib_V3.5.0/Libraries/STM32F10x_StdPeriph_Driver/src/stm32f10x_tim.c ****   TIMx->CR1 &= (uint16_t)~((uint16_t)TIM_CR1_CKD);
 5220              		.loc 1 2447 0
 5221 000c 7B68     		ldr	r3, [r7, #4]
 5222 000e 1B88     		ldrh	r3, [r3, #0]	@ movhi
 5223 0010 9BB2     		uxth	r3, r3
 5224 0012 23F44073 		bic	r3, r3, #768
 5225 0016 9AB2     		uxth	r2, r3
 5226 0018 7B68     		ldr	r3, [r7, #4]
 5227 001a 1A80     		strh	r2, [r3, #0]	@ movhi
2448:../STM32F10x_StdPeriph_Lib_V3.5.0/Libraries/STM32F10x_StdPeriph_Driver/src/stm32f10x_tim.c ****   /* Set the CKD value */
2449:../STM32F10x_StdPeriph_Lib_V3.5.0/Libraries/STM32F10x_StdPeriph_Driver/src/stm32f10x_tim.c ****   TIMx->CR1 |= TIM_CKD;
 5228              		.loc 1 2449 0
 5229 001c 7B68     		ldr	r3, [r7, #4]
 5230 001e 1B88     		ldrh	r3, [r3, #0]	@ movhi
 5231 0020 9AB2     		uxth	r2, r3
 5232 0022 7B88     		ldrh	r3, [r7, #2]	@ movhi
 5233 0024 1343     		orrs	r3, r3, r2
 5234 0026 9AB2     		uxth	r2, r3
 5235 0028 7B68     		ldr	r3, [r7, #4]
 5236 002a 1A80     		strh	r2, [r3, #0]	@ movhi
2450:../STM32F10x_StdPeriph_Lib_V3.5.0/Libraries/STM32F10x_StdPeriph_Driver/src/stm32f10x_tim.c **** }
 5237              		.loc 1 2450 0
 5238 002c 07F10C07 		add	r7, r7, #12
 5239 0030 BD46     		mov	sp, r7
 5240 0032 80BC     		pop	{r7}
 5241 0034 7047     		bx	lr
 5242              		.cfi_endproc
 5243              	.LFE105:
 5245 0036 00BF     		.section	.text.TIM_GetCapture1,"ax",%progbits
 5246              		.align	2
 5247              		.global	TIM_GetCapture1
 5248              		.thumb
 5249              		.thumb_func
 5251              	TIM_GetCapture1:
 5252              	.LFB106:
2451:../STM32F10x_StdPeriph_Lib_V3.5.0/Libraries/STM32F10x_StdPeriph_Driver/src/stm32f10x_tim.c **** 
2452:../STM32F10x_StdPeriph_Lib_V3.5.0/Libraries/STM32F10x_StdPeriph_Driver/src/stm32f10x_tim.c **** /**
2453:../STM32F10x_StdPeriph_Lib_V3.5.0/Libraries/STM32F10x_StdPeriph_Driver/src/stm32f10x_tim.c ****   * @brief  Gets the TIMx Input Capture 1 value.
2454:../STM32F10x_StdPeriph_Lib_V3.5.0/Libraries/STM32F10x_StdPeriph_Driver/src/stm32f10x_tim.c ****   * @param  TIMx: where x can be 1 to 17 except 6 and 7 to select the TIM peripheral.
2455:../STM32F10x_StdPeriph_Lib_V3.5.0/Libraries/STM32F10x_StdPeriph_Driver/src/stm32f10x_tim.c ****   * @retval Capture Compare 1 Register value.
2456:../STM32F10x_StdPeriph_Lib_V3.5.0/Libraries/STM32F10x_StdPeriph_Driver/src/stm32f10x_tim.c ****   */
2457:../STM32F10x_StdPeriph_Lib_V3.5.0/Libraries/STM32F10x_StdPeriph_Driver/src/stm32f10x_tim.c **** uint16_t TIM_GetCapture1(TIM_TypeDef* TIMx)
2458:../STM32F10x_StdPeriph_Lib_V3.5.0/Libraries/STM32F10x_StdPeriph_Driver/src/stm32f10x_tim.c **** {
 5253              		.loc 1 2458 0
 5254              		.cfi_startproc
 5255              		@ args = 0, pretend = 0, frame = 8
 5256              		@ frame_needed = 1, uses_anonymous_args = 0
 5257              		@ link register save eliminated.
 5258 0000 80B4     		push	{r7}
 5259              	.LCFI231:
 5260              		.cfi_def_cfa_offset 4
 5261              		.cfi_offset 7, -4
 5262 0002 83B0     		sub	sp, sp, #12
 5263              	.LCFI232:
 5264              		.cfi_def_cfa_offset 16
 5265 0004 00AF     		add	r7, sp, #0
 5266              	.LCFI233:
 5267              		.cfi_def_cfa_register 7
 5268 0006 7860     		str	r0, [r7, #4]
2459:../STM32F10x_StdPeriph_Lib_V3.5.0/Libraries/STM32F10x_StdPeriph_Driver/src/stm32f10x_tim.c ****   /* Check the parameters */
2460:../STM32F10x_StdPeriph_Lib_V3.5.0/Libraries/STM32F10x_StdPeriph_Driver/src/stm32f10x_tim.c ****   assert_param(IS_TIM_LIST8_PERIPH(TIMx));
2461:../STM32F10x_StdPeriph_Lib_V3.5.0/Libraries/STM32F10x_StdPeriph_Driver/src/stm32f10x_tim.c ****   /* Get the Capture 1 Register value */
2462:../STM32F10x_StdPeriph_Lib_V3.5.0/Libraries/STM32F10x_StdPeriph_Driver/src/stm32f10x_tim.c ****   return TIMx->CCR1;
 5269              		.loc 1 2462 0
 5270 0008 7B68     		ldr	r3, [r7, #4]
 5271 000a 9B8E     		ldrh	r3, [r3, #52]	@ movhi
 5272 000c 9BB2     		uxth	r3, r3
2463:../STM32F10x_StdPeriph_Lib_V3.5.0/Libraries/STM32F10x_StdPeriph_Driver/src/stm32f10x_tim.c **** }
 5273              		.loc 1 2463 0
 5274 000e 1846     		mov	r0, r3
 5275 0010 07F10C07 		add	r7, r7, #12
 5276 0014 BD46     		mov	sp, r7
 5277 0016 80BC     		pop	{r7}
 5278 0018 7047     		bx	lr
 5279              		.cfi_endproc
 5280              	.LFE106:
 5282 001a 00BF     		.section	.text.TIM_GetCapture2,"ax",%progbits
 5283              		.align	2
 5284              		.global	TIM_GetCapture2
 5285              		.thumb
 5286              		.thumb_func
 5288              	TIM_GetCapture2:
 5289              	.LFB107:
2464:../STM32F10x_StdPeriph_Lib_V3.5.0/Libraries/STM32F10x_StdPeriph_Driver/src/stm32f10x_tim.c **** 
2465:../STM32F10x_StdPeriph_Lib_V3.5.0/Libraries/STM32F10x_StdPeriph_Driver/src/stm32f10x_tim.c **** /**
2466:../STM32F10x_StdPeriph_Lib_V3.5.0/Libraries/STM32F10x_StdPeriph_Driver/src/stm32f10x_tim.c ****   * @brief  Gets the TIMx Input Capture 2 value.
2467:../STM32F10x_StdPeriph_Lib_V3.5.0/Libraries/STM32F10x_StdPeriph_Driver/src/stm32f10x_tim.c ****   * @param  TIMx: where x can be 1, 2, 3, 4, 5, 8, 9, 12 or 15 to select the TIM peripheral.
2468:../STM32F10x_StdPeriph_Lib_V3.5.0/Libraries/STM32F10x_StdPeriph_Driver/src/stm32f10x_tim.c ****   * @retval Capture Compare 2 Register value.
2469:../STM32F10x_StdPeriph_Lib_V3.5.0/Libraries/STM32F10x_StdPeriph_Driver/src/stm32f10x_tim.c ****   */
2470:../STM32F10x_StdPeriph_Lib_V3.5.0/Libraries/STM32F10x_StdPeriph_Driver/src/stm32f10x_tim.c **** uint16_t TIM_GetCapture2(TIM_TypeDef* TIMx)
2471:../STM32F10x_StdPeriph_Lib_V3.5.0/Libraries/STM32F10x_StdPeriph_Driver/src/stm32f10x_tim.c **** {
 5290              		.loc 1 2471 0
 5291              		.cfi_startproc
 5292              		@ args = 0, pretend = 0, frame = 8
 5293              		@ frame_needed = 1, uses_anonymous_args = 0
 5294              		@ link register save eliminated.
 5295 0000 80B4     		push	{r7}
 5296              	.LCFI234:
 5297              		.cfi_def_cfa_offset 4
 5298              		.cfi_offset 7, -4
 5299 0002 83B0     		sub	sp, sp, #12
 5300              	.LCFI235:
 5301              		.cfi_def_cfa_offset 16
 5302 0004 00AF     		add	r7, sp, #0
 5303              	.LCFI236:
 5304              		.cfi_def_cfa_register 7
 5305 0006 7860     		str	r0, [r7, #4]
2472:../STM32F10x_StdPeriph_Lib_V3.5.0/Libraries/STM32F10x_StdPeriph_Driver/src/stm32f10x_tim.c ****   /* Check the parameters */
2473:../STM32F10x_StdPeriph_Lib_V3.5.0/Libraries/STM32F10x_StdPeriph_Driver/src/stm32f10x_tim.c ****   assert_param(IS_TIM_LIST6_PERIPH(TIMx));
2474:../STM32F10x_StdPeriph_Lib_V3.5.0/Libraries/STM32F10x_StdPeriph_Driver/src/stm32f10x_tim.c ****   /* Get the Capture 2 Register value */
2475:../STM32F10x_StdPeriph_Lib_V3.5.0/Libraries/STM32F10x_StdPeriph_Driver/src/stm32f10x_tim.c ****   return TIMx->CCR2;
 5306              		.loc 1 2475 0
 5307 0008 7B68     		ldr	r3, [r7, #4]
 5308 000a 1B8F     		ldrh	r3, [r3, #56]	@ movhi
 5309 000c 9BB2     		uxth	r3, r3
2476:../STM32F10x_StdPeriph_Lib_V3.5.0/Libraries/STM32F10x_StdPeriph_Driver/src/stm32f10x_tim.c **** }
 5310              		.loc 1 2476 0
 5311 000e 1846     		mov	r0, r3
 5312 0010 07F10C07 		add	r7, r7, #12
 5313 0014 BD46     		mov	sp, r7
 5314 0016 80BC     		pop	{r7}
 5315 0018 7047     		bx	lr
 5316              		.cfi_endproc
 5317              	.LFE107:
 5319 001a 00BF     		.section	.text.TIM_GetCapture3,"ax",%progbits
 5320              		.align	2
 5321              		.global	TIM_GetCapture3
 5322              		.thumb
 5323              		.thumb_func
 5325              	TIM_GetCapture3:
 5326              	.LFB108:
2477:../STM32F10x_StdPeriph_Lib_V3.5.0/Libraries/STM32F10x_StdPeriph_Driver/src/stm32f10x_tim.c **** 
2478:../STM32F10x_StdPeriph_Lib_V3.5.0/Libraries/STM32F10x_StdPeriph_Driver/src/stm32f10x_tim.c **** /**
2479:../STM32F10x_StdPeriph_Lib_V3.5.0/Libraries/STM32F10x_StdPeriph_Driver/src/stm32f10x_tim.c ****   * @brief  Gets the TIMx Input Capture 3 value.
2480:../STM32F10x_StdPeriph_Lib_V3.5.0/Libraries/STM32F10x_StdPeriph_Driver/src/stm32f10x_tim.c ****   * @param  TIMx: where x can be 1, 2, 3, 4, 5 or 8 to select the TIM peripheral.
2481:../STM32F10x_StdPeriph_Lib_V3.5.0/Libraries/STM32F10x_StdPeriph_Driver/src/stm32f10x_tim.c ****   * @retval Capture Compare 3 Register value.
2482:../STM32F10x_StdPeriph_Lib_V3.5.0/Libraries/STM32F10x_StdPeriph_Driver/src/stm32f10x_tim.c ****   */
2483:../STM32F10x_StdPeriph_Lib_V3.5.0/Libraries/STM32F10x_StdPeriph_Driver/src/stm32f10x_tim.c **** uint16_t TIM_GetCapture3(TIM_TypeDef* TIMx)
2484:../STM32F10x_StdPeriph_Lib_V3.5.0/Libraries/STM32F10x_StdPeriph_Driver/src/stm32f10x_tim.c **** {
 5327              		.loc 1 2484 0
 5328              		.cfi_startproc
 5329              		@ args = 0, pretend = 0, frame = 8
 5330              		@ frame_needed = 1, uses_anonymous_args = 0
 5331              		@ link register save eliminated.
 5332 0000 80B4     		push	{r7}
 5333              	.LCFI237:
 5334              		.cfi_def_cfa_offset 4
 5335              		.cfi_offset 7, -4
 5336 0002 83B0     		sub	sp, sp, #12
 5337              	.LCFI238:
 5338              		.cfi_def_cfa_offset 16
 5339 0004 00AF     		add	r7, sp, #0
 5340              	.LCFI239:
 5341              		.cfi_def_cfa_register 7
 5342 0006 7860     		str	r0, [r7, #4]
2485:../STM32F10x_StdPeriph_Lib_V3.5.0/Libraries/STM32F10x_StdPeriph_Driver/src/stm32f10x_tim.c ****   /* Check the parameters */
2486:../STM32F10x_StdPeriph_Lib_V3.5.0/Libraries/STM32F10x_StdPeriph_Driver/src/stm32f10x_tim.c ****   assert_param(IS_TIM_LIST3_PERIPH(TIMx)); 
2487:../STM32F10x_StdPeriph_Lib_V3.5.0/Libraries/STM32F10x_StdPeriph_Driver/src/stm32f10x_tim.c ****   /* Get the Capture 3 Register value */
2488:../STM32F10x_StdPeriph_Lib_V3.5.0/Libraries/STM32F10x_StdPeriph_Driver/src/stm32f10x_tim.c ****   return TIMx->CCR3;
 5343              		.loc 1 2488 0
 5344 0008 7B68     		ldr	r3, [r7, #4]
 5345 000a 9B8F     		ldrh	r3, [r3, #60]	@ movhi
 5346 000c 9BB2     		uxth	r3, r3
2489:../STM32F10x_StdPeriph_Lib_V3.5.0/Libraries/STM32F10x_StdPeriph_Driver/src/stm32f10x_tim.c **** }
 5347              		.loc 1 2489 0
 5348 000e 1846     		mov	r0, r3
 5349 0010 07F10C07 		add	r7, r7, #12
 5350 0014 BD46     		mov	sp, r7
 5351 0016 80BC     		pop	{r7}
 5352 0018 7047     		bx	lr
 5353              		.cfi_endproc
 5354              	.LFE108:
 5356 001a 00BF     		.section	.text.TIM_GetCapture4,"ax",%progbits
 5357              		.align	2
 5358              		.global	TIM_GetCapture4
 5359              		.thumb
 5360              		.thumb_func
 5362              	TIM_GetCapture4:
 5363              	.LFB109:
2490:../STM32F10x_StdPeriph_Lib_V3.5.0/Libraries/STM32F10x_StdPeriph_Driver/src/stm32f10x_tim.c **** 
2491:../STM32F10x_StdPeriph_Lib_V3.5.0/Libraries/STM32F10x_StdPeriph_Driver/src/stm32f10x_tim.c **** /**
2492:../STM32F10x_StdPeriph_Lib_V3.5.0/Libraries/STM32F10x_StdPeriph_Driver/src/stm32f10x_tim.c ****   * @brief  Gets the TIMx Input Capture 4 value.
2493:../STM32F10x_StdPeriph_Lib_V3.5.0/Libraries/STM32F10x_StdPeriph_Driver/src/stm32f10x_tim.c ****   * @param  TIMx: where x can be 1, 2, 3, 4, 5 or 8 to select the TIM peripheral.
2494:../STM32F10x_StdPeriph_Lib_V3.5.0/Libraries/STM32F10x_StdPeriph_Driver/src/stm32f10x_tim.c ****   * @retval Capture Compare 4 Register value.
2495:../STM32F10x_StdPeriph_Lib_V3.5.0/Libraries/STM32F10x_StdPeriph_Driver/src/stm32f10x_tim.c ****   */
2496:../STM32F10x_StdPeriph_Lib_V3.5.0/Libraries/STM32F10x_StdPeriph_Driver/src/stm32f10x_tim.c **** uint16_t TIM_GetCapture4(TIM_TypeDef* TIMx)
2497:../STM32F10x_StdPeriph_Lib_V3.5.0/Libraries/STM32F10x_StdPeriph_Driver/src/stm32f10x_tim.c **** {
 5364              		.loc 1 2497 0
 5365              		.cfi_startproc
 5366              		@ args = 0, pretend = 0, frame = 8
 5367              		@ frame_needed = 1, uses_anonymous_args = 0
 5368              		@ link register save eliminated.
 5369 0000 80B4     		push	{r7}
 5370              	.LCFI240:
 5371              		.cfi_def_cfa_offset 4
 5372              		.cfi_offset 7, -4
 5373 0002 83B0     		sub	sp, sp, #12
 5374              	.LCFI241:
 5375              		.cfi_def_cfa_offset 16
 5376 0004 00AF     		add	r7, sp, #0
 5377              	.LCFI242:
 5378              		.cfi_def_cfa_register 7
 5379 0006 7860     		str	r0, [r7, #4]
2498:../STM32F10x_StdPeriph_Lib_V3.5.0/Libraries/STM32F10x_StdPeriph_Driver/src/stm32f10x_tim.c ****   /* Check the parameters */
2499:../STM32F10x_StdPeriph_Lib_V3.5.0/Libraries/STM32F10x_StdPeriph_Driver/src/stm32f10x_tim.c ****   assert_param(IS_TIM_LIST3_PERIPH(TIMx));
2500:../STM32F10x_StdPeriph_Lib_V3.5.0/Libraries/STM32F10x_StdPeriph_Driver/src/stm32f10x_tim.c ****   /* Get the Capture 4 Register value */
2501:../STM32F10x_StdPeriph_Lib_V3.5.0/Libraries/STM32F10x_StdPeriph_Driver/src/stm32f10x_tim.c ****   return TIMx->CCR4;
 5380              		.loc 1 2501 0
 5381 0008 7B68     		ldr	r3, [r7, #4]
 5382 000a B3F84030 		ldrh	r3, [r3, #64]	@ movhi
 5383 000e 9BB2     		uxth	r3, r3
2502:../STM32F10x_StdPeriph_Lib_V3.5.0/Libraries/STM32F10x_StdPeriph_Driver/src/stm32f10x_tim.c **** }
 5384              		.loc 1 2502 0
 5385 0010 1846     		mov	r0, r3
 5386 0012 07F10C07 		add	r7, r7, #12
 5387 0016 BD46     		mov	sp, r7
 5388 0018 80BC     		pop	{r7}
 5389 001a 7047     		bx	lr
 5390              		.cfi_endproc
 5391              	.LFE109:
 5393              		.section	.text.TIM_GetCounter,"ax",%progbits
 5394              		.align	2
 5395              		.global	TIM_GetCounter
 5396              		.thumb
 5397              		.thumb_func
 5399              	TIM_GetCounter:
 5400              	.LFB110:
2503:../STM32F10x_StdPeriph_Lib_V3.5.0/Libraries/STM32F10x_StdPeriph_Driver/src/stm32f10x_tim.c **** 
2504:../STM32F10x_StdPeriph_Lib_V3.5.0/Libraries/STM32F10x_StdPeriph_Driver/src/stm32f10x_tim.c **** /**
2505:../STM32F10x_StdPeriph_Lib_V3.5.0/Libraries/STM32F10x_StdPeriph_Driver/src/stm32f10x_tim.c ****   * @brief  Gets the TIMx Counter value.
2506:../STM32F10x_StdPeriph_Lib_V3.5.0/Libraries/STM32F10x_StdPeriph_Driver/src/stm32f10x_tim.c ****   * @param  TIMx: where x can be 1 to 17 to select the TIM peripheral.
2507:../STM32F10x_StdPeriph_Lib_V3.5.0/Libraries/STM32F10x_StdPeriph_Driver/src/stm32f10x_tim.c ****   * @retval Counter Register value.
2508:../STM32F10x_StdPeriph_Lib_V3.5.0/Libraries/STM32F10x_StdPeriph_Driver/src/stm32f10x_tim.c ****   */
2509:../STM32F10x_StdPeriph_Lib_V3.5.0/Libraries/STM32F10x_StdPeriph_Driver/src/stm32f10x_tim.c **** uint16_t TIM_GetCounter(TIM_TypeDef* TIMx)
2510:../STM32F10x_StdPeriph_Lib_V3.5.0/Libraries/STM32F10x_StdPeriph_Driver/src/stm32f10x_tim.c **** {
 5401              		.loc 1 2510 0
 5402              		.cfi_startproc
 5403              		@ args = 0, pretend = 0, frame = 8
 5404              		@ frame_needed = 1, uses_anonymous_args = 0
 5405              		@ link register save eliminated.
 5406 0000 80B4     		push	{r7}
 5407              	.LCFI243:
 5408              		.cfi_def_cfa_offset 4
 5409              		.cfi_offset 7, -4
 5410 0002 83B0     		sub	sp, sp, #12
 5411              	.LCFI244:
 5412              		.cfi_def_cfa_offset 16
 5413 0004 00AF     		add	r7, sp, #0
 5414              	.LCFI245:
 5415              		.cfi_def_cfa_register 7
 5416 0006 7860     		str	r0, [r7, #4]
2511:../STM32F10x_StdPeriph_Lib_V3.5.0/Libraries/STM32F10x_StdPeriph_Driver/src/stm32f10x_tim.c ****   /* Check the parameters */
2512:../STM32F10x_StdPeriph_Lib_V3.5.0/Libraries/STM32F10x_StdPeriph_Driver/src/stm32f10x_tim.c ****   assert_param(IS_TIM_ALL_PERIPH(TIMx));
2513:../STM32F10x_StdPeriph_Lib_V3.5.0/Libraries/STM32F10x_StdPeriph_Driver/src/stm32f10x_tim.c ****   /* Get the Counter Register value */
2514:../STM32F10x_StdPeriph_Lib_V3.5.0/Libraries/STM32F10x_StdPeriph_Driver/src/stm32f10x_tim.c ****   return TIMx->CNT;
 5417              		.loc 1 2514 0
 5418 0008 7B68     		ldr	r3, [r7, #4]
 5419 000a 9B8C     		ldrh	r3, [r3, #36]	@ movhi
 5420 000c 9BB2     		uxth	r3, r3
2515:../STM32F10x_StdPeriph_Lib_V3.5.0/Libraries/STM32F10x_StdPeriph_Driver/src/stm32f10x_tim.c **** }
 5421              		.loc 1 2515 0
 5422 000e 1846     		mov	r0, r3
 5423 0010 07F10C07 		add	r7, r7, #12
 5424 0014 BD46     		mov	sp, r7
 5425 0016 80BC     		pop	{r7}
 5426 0018 7047     		bx	lr
 5427              		.cfi_endproc
 5428              	.LFE110:
 5430 001a 00BF     		.section	.text.TIM_GetPrescaler,"ax",%progbits
 5431              		.align	2
 5432              		.global	TIM_GetPrescaler
 5433              		.thumb
 5434              		.thumb_func
 5436              	TIM_GetPrescaler:
 5437              	.LFB111:
2516:../STM32F10x_StdPeriph_Lib_V3.5.0/Libraries/STM32F10x_StdPeriph_Driver/src/stm32f10x_tim.c **** 
2517:../STM32F10x_StdPeriph_Lib_V3.5.0/Libraries/STM32F10x_StdPeriph_Driver/src/stm32f10x_tim.c **** /**
2518:../STM32F10x_StdPeriph_Lib_V3.5.0/Libraries/STM32F10x_StdPeriph_Driver/src/stm32f10x_tim.c ****   * @brief  Gets the TIMx Prescaler value.
2519:../STM32F10x_StdPeriph_Lib_V3.5.0/Libraries/STM32F10x_StdPeriph_Driver/src/stm32f10x_tim.c ****   * @param  TIMx: where x can be 1 to 17 to select the TIM peripheral.
2520:../STM32F10x_StdPeriph_Lib_V3.5.0/Libraries/STM32F10x_StdPeriph_Driver/src/stm32f10x_tim.c ****   * @retval Prescaler Register value.
2521:../STM32F10x_StdPeriph_Lib_V3.5.0/Libraries/STM32F10x_StdPeriph_Driver/src/stm32f10x_tim.c ****   */
2522:../STM32F10x_StdPeriph_Lib_V3.5.0/Libraries/STM32F10x_StdPeriph_Driver/src/stm32f10x_tim.c **** uint16_t TIM_GetPrescaler(TIM_TypeDef* TIMx)
2523:../STM32F10x_StdPeriph_Lib_V3.5.0/Libraries/STM32F10x_StdPeriph_Driver/src/stm32f10x_tim.c **** {
 5438              		.loc 1 2523 0
 5439              		.cfi_startproc
 5440              		@ args = 0, pretend = 0, frame = 8
 5441              		@ frame_needed = 1, uses_anonymous_args = 0
 5442              		@ link register save eliminated.
 5443 0000 80B4     		push	{r7}
 5444              	.LCFI246:
 5445              		.cfi_def_cfa_offset 4
 5446              		.cfi_offset 7, -4
 5447 0002 83B0     		sub	sp, sp, #12
 5448              	.LCFI247:
 5449              		.cfi_def_cfa_offset 16
 5450 0004 00AF     		add	r7, sp, #0
 5451              	.LCFI248:
 5452              		.cfi_def_cfa_register 7
 5453 0006 7860     		str	r0, [r7, #4]
2524:../STM32F10x_StdPeriph_Lib_V3.5.0/Libraries/STM32F10x_StdPeriph_Driver/src/stm32f10x_tim.c ****   /* Check the parameters */
2525:../STM32F10x_StdPeriph_Lib_V3.5.0/Libraries/STM32F10x_StdPeriph_Driver/src/stm32f10x_tim.c ****   assert_param(IS_TIM_ALL_PERIPH(TIMx));
2526:../STM32F10x_StdPeriph_Lib_V3.5.0/Libraries/STM32F10x_StdPeriph_Driver/src/stm32f10x_tim.c ****   /* Get the Prescaler Register value */
2527:../STM32F10x_StdPeriph_Lib_V3.5.0/Libraries/STM32F10x_StdPeriph_Driver/src/stm32f10x_tim.c ****   return TIMx->PSC;
 5454              		.loc 1 2527 0
 5455 0008 7B68     		ldr	r3, [r7, #4]
 5456 000a 1B8D     		ldrh	r3, [r3, #40]	@ movhi
 5457 000c 9BB2     		uxth	r3, r3
2528:../STM32F10x_StdPeriph_Lib_V3.5.0/Libraries/STM32F10x_StdPeriph_Driver/src/stm32f10x_tim.c **** }
 5458              		.loc 1 2528 0
 5459 000e 1846     		mov	r0, r3
 5460 0010 07F10C07 		add	r7, r7, #12
 5461 0014 BD46     		mov	sp, r7
 5462 0016 80BC     		pop	{r7}
 5463 0018 7047     		bx	lr
 5464              		.cfi_endproc
 5465              	.LFE111:
 5467 001a 00BF     		.section	.text.TIM_GetFlagStatus,"ax",%progbits
 5468              		.align	2
 5469              		.global	TIM_GetFlagStatus
 5470              		.thumb
 5471              		.thumb_func
 5473              	TIM_GetFlagStatus:
 5474              	.LFB112:
2529:../STM32F10x_StdPeriph_Lib_V3.5.0/Libraries/STM32F10x_StdPeriph_Driver/src/stm32f10x_tim.c **** 
2530:../STM32F10x_StdPeriph_Lib_V3.5.0/Libraries/STM32F10x_StdPeriph_Driver/src/stm32f10x_tim.c **** /**
2531:../STM32F10x_StdPeriph_Lib_V3.5.0/Libraries/STM32F10x_StdPeriph_Driver/src/stm32f10x_tim.c ****   * @brief  Checks whether the specified TIM flag is set or not.
2532:../STM32F10x_StdPeriph_Lib_V3.5.0/Libraries/STM32F10x_StdPeriph_Driver/src/stm32f10x_tim.c ****   * @param  TIMx: where x can be 1 to 17 to select the TIM peripheral.
2533:../STM32F10x_StdPeriph_Lib_V3.5.0/Libraries/STM32F10x_StdPeriph_Driver/src/stm32f10x_tim.c ****   * @param  TIM_FLAG: specifies the flag to check.
2534:../STM32F10x_StdPeriph_Lib_V3.5.0/Libraries/STM32F10x_StdPeriph_Driver/src/stm32f10x_tim.c ****   *   This parameter can be one of the following values:
2535:../STM32F10x_StdPeriph_Lib_V3.5.0/Libraries/STM32F10x_StdPeriph_Driver/src/stm32f10x_tim.c ****   *     @arg TIM_FLAG_Update: TIM update Flag
2536:../STM32F10x_StdPeriph_Lib_V3.5.0/Libraries/STM32F10x_StdPeriph_Driver/src/stm32f10x_tim.c ****   *     @arg TIM_FLAG_CC1: TIM Capture Compare 1 Flag
2537:../STM32F10x_StdPeriph_Lib_V3.5.0/Libraries/STM32F10x_StdPeriph_Driver/src/stm32f10x_tim.c ****   *     @arg TIM_FLAG_CC2: TIM Capture Compare 2 Flag
2538:../STM32F10x_StdPeriph_Lib_V3.5.0/Libraries/STM32F10x_StdPeriph_Driver/src/stm32f10x_tim.c ****   *     @arg TIM_FLAG_CC3: TIM Capture Compare 3 Flag
2539:../STM32F10x_StdPeriph_Lib_V3.5.0/Libraries/STM32F10x_StdPeriph_Driver/src/stm32f10x_tim.c ****   *     @arg TIM_FLAG_CC4: TIM Capture Compare 4 Flag
2540:../STM32F10x_StdPeriph_Lib_V3.5.0/Libraries/STM32F10x_StdPeriph_Driver/src/stm32f10x_tim.c ****   *     @arg TIM_FLAG_COM: TIM Commutation Flag
2541:../STM32F10x_StdPeriph_Lib_V3.5.0/Libraries/STM32F10x_StdPeriph_Driver/src/stm32f10x_tim.c ****   *     @arg TIM_FLAG_Trigger: TIM Trigger Flag
2542:../STM32F10x_StdPeriph_Lib_V3.5.0/Libraries/STM32F10x_StdPeriph_Driver/src/stm32f10x_tim.c ****   *     @arg TIM_FLAG_Break: TIM Break Flag
2543:../STM32F10x_StdPeriph_Lib_V3.5.0/Libraries/STM32F10x_StdPeriph_Driver/src/stm32f10x_tim.c ****   *     @arg TIM_FLAG_CC1OF: TIM Capture Compare 1 overcapture Flag
2544:../STM32F10x_StdPeriph_Lib_V3.5.0/Libraries/STM32F10x_StdPeriph_Driver/src/stm32f10x_tim.c ****   *     @arg TIM_FLAG_CC2OF: TIM Capture Compare 2 overcapture Flag
2545:../STM32F10x_StdPeriph_Lib_V3.5.0/Libraries/STM32F10x_StdPeriph_Driver/src/stm32f10x_tim.c ****   *     @arg TIM_FLAG_CC3OF: TIM Capture Compare 3 overcapture Flag
2546:../STM32F10x_StdPeriph_Lib_V3.5.0/Libraries/STM32F10x_StdPeriph_Driver/src/stm32f10x_tim.c ****   *     @arg TIM_FLAG_CC4OF: TIM Capture Compare 4 overcapture Flag
2547:../STM32F10x_StdPeriph_Lib_V3.5.0/Libraries/STM32F10x_StdPeriph_Driver/src/stm32f10x_tim.c ****   * @note
2548:../STM32F10x_StdPeriph_Lib_V3.5.0/Libraries/STM32F10x_StdPeriph_Driver/src/stm32f10x_tim.c ****   *   - TIM6 and TIM7 can have only one update flag. 
2549:../STM32F10x_StdPeriph_Lib_V3.5.0/Libraries/STM32F10x_StdPeriph_Driver/src/stm32f10x_tim.c ****   *   - TIM9, TIM12 and TIM15 can have only TIM_FLAG_Update, TIM_FLAG_CC1,
2550:../STM32F10x_StdPeriph_Lib_V3.5.0/Libraries/STM32F10x_StdPeriph_Driver/src/stm32f10x_tim.c ****   *      TIM_FLAG_CC2 or TIM_FLAG_Trigger. 
2551:../STM32F10x_StdPeriph_Lib_V3.5.0/Libraries/STM32F10x_StdPeriph_Driver/src/stm32f10x_tim.c ****   *   - TIM10, TIM11, TIM13, TIM14, TIM16 and TIM17 can have TIM_FLAG_Update or TIM_FLAG_CC1.   
2552:../STM32F10x_StdPeriph_Lib_V3.5.0/Libraries/STM32F10x_StdPeriph_Driver/src/stm32f10x_tim.c ****   *   - TIM_FLAG_Break is used only with TIM1, TIM8 and TIM15. 
2553:../STM32F10x_StdPeriph_Lib_V3.5.0/Libraries/STM32F10x_StdPeriph_Driver/src/stm32f10x_tim.c ****   *   - TIM_FLAG_COM is used only with TIM1, TIM8, TIM15, TIM16 and TIM17.    
2554:../STM32F10x_StdPeriph_Lib_V3.5.0/Libraries/STM32F10x_StdPeriph_Driver/src/stm32f10x_tim.c ****   * @retval The new state of TIM_FLAG (SET or RESET).
2555:../STM32F10x_StdPeriph_Lib_V3.5.0/Libraries/STM32F10x_StdPeriph_Driver/src/stm32f10x_tim.c ****   */
2556:../STM32F10x_StdPeriph_Lib_V3.5.0/Libraries/STM32F10x_StdPeriph_Driver/src/stm32f10x_tim.c **** FlagStatus TIM_GetFlagStatus(TIM_TypeDef* TIMx, uint16_t TIM_FLAG)
2557:../STM32F10x_StdPeriph_Lib_V3.5.0/Libraries/STM32F10x_StdPeriph_Driver/src/stm32f10x_tim.c **** { 
 5475              		.loc 1 2557 0
 5476              		.cfi_startproc
 5477              		@ args = 0, pretend = 0, frame = 16
 5478              		@ frame_needed = 1, uses_anonymous_args = 0
 5479              		@ link register save eliminated.
 5480 0000 80B4     		push	{r7}
 5481              	.LCFI249:
 5482              		.cfi_def_cfa_offset 4
 5483              		.cfi_offset 7, -4
 5484 0002 85B0     		sub	sp, sp, #20
 5485              	.LCFI250:
 5486              		.cfi_def_cfa_offset 24
 5487 0004 00AF     		add	r7, sp, #0
 5488              	.LCFI251:
 5489              		.cfi_def_cfa_register 7
 5490 0006 7860     		str	r0, [r7, #4]
 5491 0008 0B46     		mov	r3, r1
 5492 000a 7B80     		strh	r3, [r7, #2]	@ movhi
2558:../STM32F10x_StdPeriph_Lib_V3.5.0/Libraries/STM32F10x_StdPeriph_Driver/src/stm32f10x_tim.c ****   ITStatus bitstatus = RESET;  
 5493              		.loc 1 2558 0
 5494 000c 4FF00003 		mov	r3, #0
 5495 0010 FB73     		strb	r3, [r7, #15]
2559:../STM32F10x_StdPeriph_Lib_V3.5.0/Libraries/STM32F10x_StdPeriph_Driver/src/stm32f10x_tim.c ****   /* Check the parameters */
2560:../STM32F10x_StdPeriph_Lib_V3.5.0/Libraries/STM32F10x_StdPeriph_Driver/src/stm32f10x_tim.c ****   assert_param(IS_TIM_ALL_PERIPH(TIMx));
2561:../STM32F10x_StdPeriph_Lib_V3.5.0/Libraries/STM32F10x_StdPeriph_Driver/src/stm32f10x_tim.c ****   assert_param(IS_TIM_GET_FLAG(TIM_FLAG));
2562:../STM32F10x_StdPeriph_Lib_V3.5.0/Libraries/STM32F10x_StdPeriph_Driver/src/stm32f10x_tim.c ****   
2563:../STM32F10x_StdPeriph_Lib_V3.5.0/Libraries/STM32F10x_StdPeriph_Driver/src/stm32f10x_tim.c ****   if ((TIMx->SR & TIM_FLAG) != (uint16_t)RESET)
 5496              		.loc 1 2563 0
 5497 0012 7B68     		ldr	r3, [r7, #4]
 5498 0014 1B8A     		ldrh	r3, [r3, #16]	@ movhi
 5499 0016 9AB2     		uxth	r2, r3
 5500 0018 7B88     		ldrh	r3, [r7, #2]	@ movhi
 5501 001a 1340     		ands	r3, r3, r2
 5502 001c 9BB2     		uxth	r3, r3
 5503 001e 002B     		cmp	r3, #0
 5504 0020 03D0     		beq	.L170
2564:../STM32F10x_StdPeriph_Lib_V3.5.0/Libraries/STM32F10x_StdPeriph_Driver/src/stm32f10x_tim.c ****   {
2565:../STM32F10x_StdPeriph_Lib_V3.5.0/Libraries/STM32F10x_StdPeriph_Driver/src/stm32f10x_tim.c ****     bitstatus = SET;
 5505              		.loc 1 2565 0
 5506 0022 4FF00103 		mov	r3, #1
 5507 0026 FB73     		strb	r3, [r7, #15]
 5508 0028 02E0     		b	.L171
 5509              	.L170:
2566:../STM32F10x_StdPeriph_Lib_V3.5.0/Libraries/STM32F10x_StdPeriph_Driver/src/stm32f10x_tim.c ****   }
2567:../STM32F10x_StdPeriph_Lib_V3.5.0/Libraries/STM32F10x_StdPeriph_Driver/src/stm32f10x_tim.c ****   else
2568:../STM32F10x_StdPeriph_Lib_V3.5.0/Libraries/STM32F10x_StdPeriph_Driver/src/stm32f10x_tim.c ****   {
2569:../STM32F10x_StdPeriph_Lib_V3.5.0/Libraries/STM32F10x_StdPeriph_Driver/src/stm32f10x_tim.c ****     bitstatus = RESET;
 5510              		.loc 1 2569 0
 5511 002a 4FF00003 		mov	r3, #0
 5512 002e FB73     		strb	r3, [r7, #15]
 5513              	.L171:
2570:../STM32F10x_StdPeriph_Lib_V3.5.0/Libraries/STM32F10x_StdPeriph_Driver/src/stm32f10x_tim.c ****   }
2571:../STM32F10x_StdPeriph_Lib_V3.5.0/Libraries/STM32F10x_StdPeriph_Driver/src/stm32f10x_tim.c ****   return bitstatus;
 5514              		.loc 1 2571 0
 5515 0030 FB7B     		ldrb	r3, [r7, #15]	@ zero_extendqisi2
2572:../STM32F10x_StdPeriph_Lib_V3.5.0/Libraries/STM32F10x_StdPeriph_Driver/src/stm32f10x_tim.c **** }
 5516              		.loc 1 2572 0
 5517 0032 1846     		mov	r0, r3
 5518 0034 07F11407 		add	r7, r7, #20
 5519 0038 BD46     		mov	sp, r7
 5520 003a 80BC     		pop	{r7}
 5521 003c 7047     		bx	lr
 5522              		.cfi_endproc
 5523              	.LFE112:
 5525 003e 00BF     		.section	.text.TIM_ClearFlag,"ax",%progbits
 5526              		.align	2
 5527              		.global	TIM_ClearFlag
 5528              		.thumb
 5529              		.thumb_func
 5531              	TIM_ClearFlag:
 5532              	.LFB113:
2573:../STM32F10x_StdPeriph_Lib_V3.5.0/Libraries/STM32F10x_StdPeriph_Driver/src/stm32f10x_tim.c **** 
2574:../STM32F10x_StdPeriph_Lib_V3.5.0/Libraries/STM32F10x_StdPeriph_Driver/src/stm32f10x_tim.c **** /**
2575:../STM32F10x_StdPeriph_Lib_V3.5.0/Libraries/STM32F10x_StdPeriph_Driver/src/stm32f10x_tim.c ****   * @brief  Clears the TIMx's pending flags.
2576:../STM32F10x_StdPeriph_Lib_V3.5.0/Libraries/STM32F10x_StdPeriph_Driver/src/stm32f10x_tim.c ****   * @param  TIMx: where x can be 1 to 17 to select the TIM peripheral.
2577:../STM32F10x_StdPeriph_Lib_V3.5.0/Libraries/STM32F10x_StdPeriph_Driver/src/stm32f10x_tim.c ****   * @param  TIM_FLAG: specifies the flag bit to clear.
2578:../STM32F10x_StdPeriph_Lib_V3.5.0/Libraries/STM32F10x_StdPeriph_Driver/src/stm32f10x_tim.c ****   *   This parameter can be any combination of the following values:
2579:../STM32F10x_StdPeriph_Lib_V3.5.0/Libraries/STM32F10x_StdPeriph_Driver/src/stm32f10x_tim.c ****   *     @arg TIM_FLAG_Update: TIM update Flag
2580:../STM32F10x_StdPeriph_Lib_V3.5.0/Libraries/STM32F10x_StdPeriph_Driver/src/stm32f10x_tim.c ****   *     @arg TIM_FLAG_CC1: TIM Capture Compare 1 Flag
2581:../STM32F10x_StdPeriph_Lib_V3.5.0/Libraries/STM32F10x_StdPeriph_Driver/src/stm32f10x_tim.c ****   *     @arg TIM_FLAG_CC2: TIM Capture Compare 2 Flag
2582:../STM32F10x_StdPeriph_Lib_V3.5.0/Libraries/STM32F10x_StdPeriph_Driver/src/stm32f10x_tim.c ****   *     @arg TIM_FLAG_CC3: TIM Capture Compare 3 Flag
2583:../STM32F10x_StdPeriph_Lib_V3.5.0/Libraries/STM32F10x_StdPeriph_Driver/src/stm32f10x_tim.c ****   *     @arg TIM_FLAG_CC4: TIM Capture Compare 4 Flag
2584:../STM32F10x_StdPeriph_Lib_V3.5.0/Libraries/STM32F10x_StdPeriph_Driver/src/stm32f10x_tim.c ****   *     @arg TIM_FLAG_COM: TIM Commutation Flag
2585:../STM32F10x_StdPeriph_Lib_V3.5.0/Libraries/STM32F10x_StdPeriph_Driver/src/stm32f10x_tim.c ****   *     @arg TIM_FLAG_Trigger: TIM Trigger Flag
2586:../STM32F10x_StdPeriph_Lib_V3.5.0/Libraries/STM32F10x_StdPeriph_Driver/src/stm32f10x_tim.c ****   *     @arg TIM_FLAG_Break: TIM Break Flag
2587:../STM32F10x_StdPeriph_Lib_V3.5.0/Libraries/STM32F10x_StdPeriph_Driver/src/stm32f10x_tim.c ****   *     @arg TIM_FLAG_CC1OF: TIM Capture Compare 1 overcapture Flag
2588:../STM32F10x_StdPeriph_Lib_V3.5.0/Libraries/STM32F10x_StdPeriph_Driver/src/stm32f10x_tim.c ****   *     @arg TIM_FLAG_CC2OF: TIM Capture Compare 2 overcapture Flag
2589:../STM32F10x_StdPeriph_Lib_V3.5.0/Libraries/STM32F10x_StdPeriph_Driver/src/stm32f10x_tim.c ****   *     @arg TIM_FLAG_CC3OF: TIM Capture Compare 3 overcapture Flag
2590:../STM32F10x_StdPeriph_Lib_V3.5.0/Libraries/STM32F10x_StdPeriph_Driver/src/stm32f10x_tim.c ****   *     @arg TIM_FLAG_CC4OF: TIM Capture Compare 4 overcapture Flag
2591:../STM32F10x_StdPeriph_Lib_V3.5.0/Libraries/STM32F10x_StdPeriph_Driver/src/stm32f10x_tim.c ****   * @note
2592:../STM32F10x_StdPeriph_Lib_V3.5.0/Libraries/STM32F10x_StdPeriph_Driver/src/stm32f10x_tim.c ****   *   - TIM6 and TIM7 can have only one update flag. 
2593:../STM32F10x_StdPeriph_Lib_V3.5.0/Libraries/STM32F10x_StdPeriph_Driver/src/stm32f10x_tim.c ****   *   - TIM9, TIM12 and TIM15 can have only TIM_FLAG_Update, TIM_FLAG_CC1,
2594:../STM32F10x_StdPeriph_Lib_V3.5.0/Libraries/STM32F10x_StdPeriph_Driver/src/stm32f10x_tim.c ****   *      TIM_FLAG_CC2 or TIM_FLAG_Trigger. 
2595:../STM32F10x_StdPeriph_Lib_V3.5.0/Libraries/STM32F10x_StdPeriph_Driver/src/stm32f10x_tim.c ****   *   - TIM10, TIM11, TIM13, TIM14, TIM16 and TIM17 can have TIM_FLAG_Update or TIM_FLAG_CC1.   
2596:../STM32F10x_StdPeriph_Lib_V3.5.0/Libraries/STM32F10x_StdPeriph_Driver/src/stm32f10x_tim.c ****   *   - TIM_FLAG_Break is used only with TIM1, TIM8 and TIM15. 
2597:../STM32F10x_StdPeriph_Lib_V3.5.0/Libraries/STM32F10x_StdPeriph_Driver/src/stm32f10x_tim.c ****   *   - TIM_FLAG_COM is used only with TIM1, TIM8, TIM15, TIM16 and TIM17.   
2598:../STM32F10x_StdPeriph_Lib_V3.5.0/Libraries/STM32F10x_StdPeriph_Driver/src/stm32f10x_tim.c ****   * @retval None
2599:../STM32F10x_StdPeriph_Lib_V3.5.0/Libraries/STM32F10x_StdPeriph_Driver/src/stm32f10x_tim.c ****   */
2600:../STM32F10x_StdPeriph_Lib_V3.5.0/Libraries/STM32F10x_StdPeriph_Driver/src/stm32f10x_tim.c **** void TIM_ClearFlag(TIM_TypeDef* TIMx, uint16_t TIM_FLAG)
2601:../STM32F10x_StdPeriph_Lib_V3.5.0/Libraries/STM32F10x_StdPeriph_Driver/src/stm32f10x_tim.c **** {  
 5533              		.loc 1 2601 0
 5534              		.cfi_startproc
 5535              		@ args = 0, pretend = 0, frame = 8
 5536              		@ frame_needed = 1, uses_anonymous_args = 0
 5537              		@ link register save eliminated.
 5538 0000 80B4     		push	{r7}
 5539              	.LCFI252:
 5540              		.cfi_def_cfa_offset 4
 5541              		.cfi_offset 7, -4
 5542 0002 83B0     		sub	sp, sp, #12
 5543              	.LCFI253:
 5544              		.cfi_def_cfa_offset 16
 5545 0004 00AF     		add	r7, sp, #0
 5546              	.LCFI254:
 5547              		.cfi_def_cfa_register 7
 5548 0006 7860     		str	r0, [r7, #4]
 5549 0008 0B46     		mov	r3, r1
 5550 000a 7B80     		strh	r3, [r7, #2]	@ movhi
2602:../STM32F10x_StdPeriph_Lib_V3.5.0/Libraries/STM32F10x_StdPeriph_Driver/src/stm32f10x_tim.c ****   /* Check the parameters */
2603:../STM32F10x_StdPeriph_Lib_V3.5.0/Libraries/STM32F10x_StdPeriph_Driver/src/stm32f10x_tim.c ****   assert_param(IS_TIM_ALL_PERIPH(TIMx));
2604:../STM32F10x_StdPeriph_Lib_V3.5.0/Libraries/STM32F10x_StdPeriph_Driver/src/stm32f10x_tim.c ****   assert_param(IS_TIM_CLEAR_FLAG(TIM_FLAG));
2605:../STM32F10x_StdPeriph_Lib_V3.5.0/Libraries/STM32F10x_StdPeriph_Driver/src/stm32f10x_tim.c ****    
2606:../STM32F10x_StdPeriph_Lib_V3.5.0/Libraries/STM32F10x_StdPeriph_Driver/src/stm32f10x_tim.c ****   /* Clear the flags */
2607:../STM32F10x_StdPeriph_Lib_V3.5.0/Libraries/STM32F10x_StdPeriph_Driver/src/stm32f10x_tim.c ****   TIMx->SR = (uint16_t)~TIM_FLAG;
 5551              		.loc 1 2607 0
 5552 000c 7B88     		ldrh	r3, [r7, #2]	@ movhi
 5553 000e 6FEA0303 		mvn	r3, r3
 5554 0012 9AB2     		uxth	r2, r3
 5555 0014 7B68     		ldr	r3, [r7, #4]
 5556 0016 1A82     		strh	r2, [r3, #16]	@ movhi
2608:../STM32F10x_StdPeriph_Lib_V3.5.0/Libraries/STM32F10x_StdPeriph_Driver/src/stm32f10x_tim.c **** }
 5557              		.loc 1 2608 0
 5558 0018 07F10C07 		add	r7, r7, #12
 5559 001c BD46     		mov	sp, r7
 5560 001e 80BC     		pop	{r7}
 5561 0020 7047     		bx	lr
 5562              		.cfi_endproc
 5563              	.LFE113:
 5565 0022 00BF     		.section	.text.TIM_GetITStatus,"ax",%progbits
 5566              		.align	2
 5567              		.global	TIM_GetITStatus
 5568              		.thumb
 5569              		.thumb_func
 5571              	TIM_GetITStatus:
 5572              	.LFB114:
2609:../STM32F10x_StdPeriph_Lib_V3.5.0/Libraries/STM32F10x_StdPeriph_Driver/src/stm32f10x_tim.c **** 
2610:../STM32F10x_StdPeriph_Lib_V3.5.0/Libraries/STM32F10x_StdPeriph_Driver/src/stm32f10x_tim.c **** /**
2611:../STM32F10x_StdPeriph_Lib_V3.5.0/Libraries/STM32F10x_StdPeriph_Driver/src/stm32f10x_tim.c ****   * @brief  Checks whether the TIM interrupt has occurred or not.
2612:../STM32F10x_StdPeriph_Lib_V3.5.0/Libraries/STM32F10x_StdPeriph_Driver/src/stm32f10x_tim.c ****   * @param  TIMx: where x can be 1 to 17 to select the TIM peripheral.
2613:../STM32F10x_StdPeriph_Lib_V3.5.0/Libraries/STM32F10x_StdPeriph_Driver/src/stm32f10x_tim.c ****   * @param  TIM_IT: specifies the TIM interrupt source to check.
2614:../STM32F10x_StdPeriph_Lib_V3.5.0/Libraries/STM32F10x_StdPeriph_Driver/src/stm32f10x_tim.c ****   *   This parameter can be one of the following values:
2615:../STM32F10x_StdPeriph_Lib_V3.5.0/Libraries/STM32F10x_StdPeriph_Driver/src/stm32f10x_tim.c ****   *     @arg TIM_IT_Update: TIM update Interrupt source
2616:../STM32F10x_StdPeriph_Lib_V3.5.0/Libraries/STM32F10x_StdPeriph_Driver/src/stm32f10x_tim.c ****   *     @arg TIM_IT_CC1: TIM Capture Compare 1 Interrupt source
2617:../STM32F10x_StdPeriph_Lib_V3.5.0/Libraries/STM32F10x_StdPeriph_Driver/src/stm32f10x_tim.c ****   *     @arg TIM_IT_CC2: TIM Capture Compare 2 Interrupt source
2618:../STM32F10x_StdPeriph_Lib_V3.5.0/Libraries/STM32F10x_StdPeriph_Driver/src/stm32f10x_tim.c ****   *     @arg TIM_IT_CC3: TIM Capture Compare 3 Interrupt source
2619:../STM32F10x_StdPeriph_Lib_V3.5.0/Libraries/STM32F10x_StdPeriph_Driver/src/stm32f10x_tim.c ****   *     @arg TIM_IT_CC4: TIM Capture Compare 4 Interrupt source
2620:../STM32F10x_StdPeriph_Lib_V3.5.0/Libraries/STM32F10x_StdPeriph_Driver/src/stm32f10x_tim.c ****   *     @arg TIM_IT_COM: TIM Commutation Interrupt source
2621:../STM32F10x_StdPeriph_Lib_V3.5.0/Libraries/STM32F10x_StdPeriph_Driver/src/stm32f10x_tim.c ****   *     @arg TIM_IT_Trigger: TIM Trigger Interrupt source
2622:../STM32F10x_StdPeriph_Lib_V3.5.0/Libraries/STM32F10x_StdPeriph_Driver/src/stm32f10x_tim.c ****   *     @arg TIM_IT_Break: TIM Break Interrupt source
2623:../STM32F10x_StdPeriph_Lib_V3.5.0/Libraries/STM32F10x_StdPeriph_Driver/src/stm32f10x_tim.c ****   * @note
2624:../STM32F10x_StdPeriph_Lib_V3.5.0/Libraries/STM32F10x_StdPeriph_Driver/src/stm32f10x_tim.c ****   *   - TIM6 and TIM7 can generate only an update interrupt.
2625:../STM32F10x_StdPeriph_Lib_V3.5.0/Libraries/STM32F10x_StdPeriph_Driver/src/stm32f10x_tim.c ****   *   - TIM9, TIM12 and TIM15 can have only TIM_IT_Update, TIM_IT_CC1,
2626:../STM32F10x_StdPeriph_Lib_V3.5.0/Libraries/STM32F10x_StdPeriph_Driver/src/stm32f10x_tim.c ****   *      TIM_IT_CC2 or TIM_IT_Trigger. 
2627:../STM32F10x_StdPeriph_Lib_V3.5.0/Libraries/STM32F10x_StdPeriph_Driver/src/stm32f10x_tim.c ****   *   - TIM10, TIM11, TIM13, TIM14, TIM16 and TIM17 can have TIM_IT_Update or TIM_IT_CC1.   
2628:../STM32F10x_StdPeriph_Lib_V3.5.0/Libraries/STM32F10x_StdPeriph_Driver/src/stm32f10x_tim.c ****   *   - TIM_IT_Break is used only with TIM1, TIM8 and TIM15. 
2629:../STM32F10x_StdPeriph_Lib_V3.5.0/Libraries/STM32F10x_StdPeriph_Driver/src/stm32f10x_tim.c ****   *   - TIM_IT_COM is used only with TIM1, TIM8, TIM15, TIM16 and TIM17.  
2630:../STM32F10x_StdPeriph_Lib_V3.5.0/Libraries/STM32F10x_StdPeriph_Driver/src/stm32f10x_tim.c ****   * @retval The new state of the TIM_IT(SET or RESET).
2631:../STM32F10x_StdPeriph_Lib_V3.5.0/Libraries/STM32F10x_StdPeriph_Driver/src/stm32f10x_tim.c ****   */
2632:../STM32F10x_StdPeriph_Lib_V3.5.0/Libraries/STM32F10x_StdPeriph_Driver/src/stm32f10x_tim.c **** ITStatus TIM_GetITStatus(TIM_TypeDef* TIMx, uint16_t TIM_IT)
2633:../STM32F10x_StdPeriph_Lib_V3.5.0/Libraries/STM32F10x_StdPeriph_Driver/src/stm32f10x_tim.c **** {
 5573              		.loc 1 2633 0
 5574              		.cfi_startproc
 5575              		@ args = 0, pretend = 0, frame = 16
 5576              		@ frame_needed = 1, uses_anonymous_args = 0
 5577              		@ link register save eliminated.
 5578 0000 80B4     		push	{r7}
 5579              	.LCFI255:
 5580              		.cfi_def_cfa_offset 4
 5581              		.cfi_offset 7, -4
 5582 0002 85B0     		sub	sp, sp, #20
 5583              	.LCFI256:
 5584              		.cfi_def_cfa_offset 24
 5585 0004 00AF     		add	r7, sp, #0
 5586              	.LCFI257:
 5587              		.cfi_def_cfa_register 7
 5588 0006 7860     		str	r0, [r7, #4]
 5589 0008 0B46     		mov	r3, r1
 5590 000a 7B80     		strh	r3, [r7, #2]	@ movhi
2634:../STM32F10x_StdPeriph_Lib_V3.5.0/Libraries/STM32F10x_StdPeriph_Driver/src/stm32f10x_tim.c ****   ITStatus bitstatus = RESET;  
 5591              		.loc 1 2634 0
 5592 000c 4FF00003 		mov	r3, #0
 5593 0010 FB73     		strb	r3, [r7, #15]
2635:../STM32F10x_StdPeriph_Lib_V3.5.0/Libraries/STM32F10x_StdPeriph_Driver/src/stm32f10x_tim.c ****   uint16_t itstatus = 0x0, itenable = 0x0;
 5594              		.loc 1 2635 0
 5595 0012 4FF00003 		mov	r3, #0
 5596 0016 BB81     		strh	r3, [r7, #12]	@ movhi
 5597 0018 4FF00003 		mov	r3, #0
 5598 001c 7B81     		strh	r3, [r7, #10]	@ movhi
2636:../STM32F10x_StdPeriph_Lib_V3.5.0/Libraries/STM32F10x_StdPeriph_Driver/src/stm32f10x_tim.c ****   /* Check the parameters */
2637:../STM32F10x_StdPeriph_Lib_V3.5.0/Libraries/STM32F10x_StdPeriph_Driver/src/stm32f10x_tim.c ****   assert_param(IS_TIM_ALL_PERIPH(TIMx));
2638:../STM32F10x_StdPeriph_Lib_V3.5.0/Libraries/STM32F10x_StdPeriph_Driver/src/stm32f10x_tim.c ****   assert_param(IS_TIM_GET_IT(TIM_IT));
2639:../STM32F10x_StdPeriph_Lib_V3.5.0/Libraries/STM32F10x_StdPeriph_Driver/src/stm32f10x_tim.c ****    
2640:../STM32F10x_StdPeriph_Lib_V3.5.0/Libraries/STM32F10x_StdPeriph_Driver/src/stm32f10x_tim.c ****   itstatus = TIMx->SR & TIM_IT;
 5599              		.loc 1 2640 0
 5600 001e 7B68     		ldr	r3, [r7, #4]
 5601 0020 1B8A     		ldrh	r3, [r3, #16]	@ movhi
 5602 0022 9AB2     		uxth	r2, r3
 5603 0024 7B88     		ldrh	r3, [r7, #2]	@ movhi
 5604 0026 1340     		ands	r3, r3, r2
 5605 0028 BB81     		strh	r3, [r7, #12]	@ movhi
2641:../STM32F10x_StdPeriph_Lib_V3.5.0/Libraries/STM32F10x_StdPeriph_Driver/src/stm32f10x_tim.c ****   
2642:../STM32F10x_StdPeriph_Lib_V3.5.0/Libraries/STM32F10x_StdPeriph_Driver/src/stm32f10x_tim.c ****   itenable = TIMx->DIER & TIM_IT;
 5606              		.loc 1 2642 0
 5607 002a 7B68     		ldr	r3, [r7, #4]
 5608 002c 9B89     		ldrh	r3, [r3, #12]	@ movhi
 5609 002e 9AB2     		uxth	r2, r3
 5610 0030 7B88     		ldrh	r3, [r7, #2]	@ movhi
 5611 0032 1340     		ands	r3, r3, r2
 5612 0034 7B81     		strh	r3, [r7, #10]	@ movhi
2643:../STM32F10x_StdPeriph_Lib_V3.5.0/Libraries/STM32F10x_StdPeriph_Driver/src/stm32f10x_tim.c ****   if ((itstatus != (uint16_t)RESET) && (itenable != (uint16_t)RESET))
 5613              		.loc 1 2643 0
 5614 0036 BB89     		ldrh	r3, [r7, #12]
 5615 0038 002B     		cmp	r3, #0
 5616 003a 06D0     		beq	.L175
 5617              		.loc 1 2643 0 is_stmt 0 discriminator 1
 5618 003c 7B89     		ldrh	r3, [r7, #10]
 5619 003e 002B     		cmp	r3, #0
 5620 0040 03D0     		beq	.L175
2644:../STM32F10x_StdPeriph_Lib_V3.5.0/Libraries/STM32F10x_StdPeriph_Driver/src/stm32f10x_tim.c ****   {
2645:../STM32F10x_StdPeriph_Lib_V3.5.0/Libraries/STM32F10x_StdPeriph_Driver/src/stm32f10x_tim.c ****     bitstatus = SET;
 5621              		.loc 1 2645 0 is_stmt 1
 5622 0042 4FF00103 		mov	r3, #1
 5623 0046 FB73     		strb	r3, [r7, #15]
 5624 0048 02E0     		b	.L176
 5625              	.L175:
2646:../STM32F10x_StdPeriph_Lib_V3.5.0/Libraries/STM32F10x_StdPeriph_Driver/src/stm32f10x_tim.c ****   }
2647:../STM32F10x_StdPeriph_Lib_V3.5.0/Libraries/STM32F10x_StdPeriph_Driver/src/stm32f10x_tim.c ****   else
2648:../STM32F10x_StdPeriph_Lib_V3.5.0/Libraries/STM32F10x_StdPeriph_Driver/src/stm32f10x_tim.c ****   {
2649:../STM32F10x_StdPeriph_Lib_V3.5.0/Libraries/STM32F10x_StdPeriph_Driver/src/stm32f10x_tim.c ****     bitstatus = RESET;
 5626              		.loc 1 2649 0
 5627 004a 4FF00003 		mov	r3, #0
 5628 004e FB73     		strb	r3, [r7, #15]
 5629              	.L176:
2650:../STM32F10x_StdPeriph_Lib_V3.5.0/Libraries/STM32F10x_StdPeriph_Driver/src/stm32f10x_tim.c ****   }
2651:../STM32F10x_StdPeriph_Lib_V3.5.0/Libraries/STM32F10x_StdPeriph_Driver/src/stm32f10x_tim.c ****   return bitstatus;
 5630              		.loc 1 2651 0
 5631 0050 FB7B     		ldrb	r3, [r7, #15]	@ zero_extendqisi2
2652:../STM32F10x_StdPeriph_Lib_V3.5.0/Libraries/STM32F10x_StdPeriph_Driver/src/stm32f10x_tim.c **** }
 5632              		.loc 1 2652 0
 5633 0052 1846     		mov	r0, r3
 5634 0054 07F11407 		add	r7, r7, #20
 5635 0058 BD46     		mov	sp, r7
 5636 005a 80BC     		pop	{r7}
 5637 005c 7047     		bx	lr
 5638              		.cfi_endproc
 5639              	.LFE114:
 5641 005e 00BF     		.section	.text.TIM_ClearITPendingBit,"ax",%progbits
 5642              		.align	2
 5643              		.global	TIM_ClearITPendingBit
 5644              		.thumb
 5645              		.thumb_func
 5647              	TIM_ClearITPendingBit:
 5648              	.LFB115:
2653:../STM32F10x_StdPeriph_Lib_V3.5.0/Libraries/STM32F10x_StdPeriph_Driver/src/stm32f10x_tim.c **** 
2654:../STM32F10x_StdPeriph_Lib_V3.5.0/Libraries/STM32F10x_StdPeriph_Driver/src/stm32f10x_tim.c **** /**
2655:../STM32F10x_StdPeriph_Lib_V3.5.0/Libraries/STM32F10x_StdPeriph_Driver/src/stm32f10x_tim.c ****   * @brief  Clears the TIMx's interrupt pending bits.
2656:../STM32F10x_StdPeriph_Lib_V3.5.0/Libraries/STM32F10x_StdPeriph_Driver/src/stm32f10x_tim.c ****   * @param  TIMx: where x can be 1 to 17 to select the TIM peripheral.
2657:../STM32F10x_StdPeriph_Lib_V3.5.0/Libraries/STM32F10x_StdPeriph_Driver/src/stm32f10x_tim.c ****   * @param  TIM_IT: specifies the pending bit to clear.
2658:../STM32F10x_StdPeriph_Lib_V3.5.0/Libraries/STM32F10x_StdPeriph_Driver/src/stm32f10x_tim.c ****   *   This parameter can be any combination of the following values:
2659:../STM32F10x_StdPeriph_Lib_V3.5.0/Libraries/STM32F10x_StdPeriph_Driver/src/stm32f10x_tim.c ****   *     @arg TIM_IT_Update: TIM1 update Interrupt source
2660:../STM32F10x_StdPeriph_Lib_V3.5.0/Libraries/STM32F10x_StdPeriph_Driver/src/stm32f10x_tim.c ****   *     @arg TIM_IT_CC1: TIM Capture Compare 1 Interrupt source
2661:../STM32F10x_StdPeriph_Lib_V3.5.0/Libraries/STM32F10x_StdPeriph_Driver/src/stm32f10x_tim.c ****   *     @arg TIM_IT_CC2: TIM Capture Compare 2 Interrupt source
2662:../STM32F10x_StdPeriph_Lib_V3.5.0/Libraries/STM32F10x_StdPeriph_Driver/src/stm32f10x_tim.c ****   *     @arg TIM_IT_CC3: TIM Capture Compare 3 Interrupt source
2663:../STM32F10x_StdPeriph_Lib_V3.5.0/Libraries/STM32F10x_StdPeriph_Driver/src/stm32f10x_tim.c ****   *     @arg TIM_IT_CC4: TIM Capture Compare 4 Interrupt source
2664:../STM32F10x_StdPeriph_Lib_V3.5.0/Libraries/STM32F10x_StdPeriph_Driver/src/stm32f10x_tim.c ****   *     @arg TIM_IT_COM: TIM Commutation Interrupt source
2665:../STM32F10x_StdPeriph_Lib_V3.5.0/Libraries/STM32F10x_StdPeriph_Driver/src/stm32f10x_tim.c ****   *     @arg TIM_IT_Trigger: TIM Trigger Interrupt source
2666:../STM32F10x_StdPeriph_Lib_V3.5.0/Libraries/STM32F10x_StdPeriph_Driver/src/stm32f10x_tim.c ****   *     @arg TIM_IT_Break: TIM Break Interrupt source
2667:../STM32F10x_StdPeriph_Lib_V3.5.0/Libraries/STM32F10x_StdPeriph_Driver/src/stm32f10x_tim.c ****   * @note
2668:../STM32F10x_StdPeriph_Lib_V3.5.0/Libraries/STM32F10x_StdPeriph_Driver/src/stm32f10x_tim.c ****   *   - TIM6 and TIM7 can generate only an update interrupt.
2669:../STM32F10x_StdPeriph_Lib_V3.5.0/Libraries/STM32F10x_StdPeriph_Driver/src/stm32f10x_tim.c ****   *   - TIM9, TIM12 and TIM15 can have only TIM_IT_Update, TIM_IT_CC1,
2670:../STM32F10x_StdPeriph_Lib_V3.5.0/Libraries/STM32F10x_StdPeriph_Driver/src/stm32f10x_tim.c ****   *      TIM_IT_CC2 or TIM_IT_Trigger. 
2671:../STM32F10x_StdPeriph_Lib_V3.5.0/Libraries/STM32F10x_StdPeriph_Driver/src/stm32f10x_tim.c ****   *   - TIM10, TIM11, TIM13, TIM14, TIM16 and TIM17 can have TIM_IT_Update or TIM_IT_CC1.   
2672:../STM32F10x_StdPeriph_Lib_V3.5.0/Libraries/STM32F10x_StdPeriph_Driver/src/stm32f10x_tim.c ****   *   - TIM_IT_Break is used only with TIM1, TIM8 and TIM15. 
2673:../STM32F10x_StdPeriph_Lib_V3.5.0/Libraries/STM32F10x_StdPeriph_Driver/src/stm32f10x_tim.c ****   *   - TIM_IT_COM is used only with TIM1, TIM8, TIM15, TIM16 and TIM17.    
2674:../STM32F10x_StdPeriph_Lib_V3.5.0/Libraries/STM32F10x_StdPeriph_Driver/src/stm32f10x_tim.c ****   * @retval None
2675:../STM32F10x_StdPeriph_Lib_V3.5.0/Libraries/STM32F10x_StdPeriph_Driver/src/stm32f10x_tim.c ****   */
2676:../STM32F10x_StdPeriph_Lib_V3.5.0/Libraries/STM32F10x_StdPeriph_Driver/src/stm32f10x_tim.c **** void TIM_ClearITPendingBit(TIM_TypeDef* TIMx, uint16_t TIM_IT)
2677:../STM32F10x_StdPeriph_Lib_V3.5.0/Libraries/STM32F10x_StdPeriph_Driver/src/stm32f10x_tim.c **** {
 5649              		.loc 1 2677 0
 5650              		.cfi_startproc
 5651              		@ args = 0, pretend = 0, frame = 8
 5652              		@ frame_needed = 1, uses_anonymous_args = 0
 5653              		@ link register save eliminated.
 5654 0000 80B4     		push	{r7}
 5655              	.LCFI258:
 5656              		.cfi_def_cfa_offset 4
 5657              		.cfi_offset 7, -4
 5658 0002 83B0     		sub	sp, sp, #12
 5659              	.LCFI259:
 5660              		.cfi_def_cfa_offset 16
 5661 0004 00AF     		add	r7, sp, #0
 5662              	.LCFI260:
 5663              		.cfi_def_cfa_register 7
 5664 0006 7860     		str	r0, [r7, #4]
 5665 0008 0B46     		mov	r3, r1
 5666 000a 7B80     		strh	r3, [r7, #2]	@ movhi
2678:../STM32F10x_StdPeriph_Lib_V3.5.0/Libraries/STM32F10x_StdPeriph_Driver/src/stm32f10x_tim.c ****   /* Check the parameters */
2679:../STM32F10x_StdPeriph_Lib_V3.5.0/Libraries/STM32F10x_StdPeriph_Driver/src/stm32f10x_tim.c ****   assert_param(IS_TIM_ALL_PERIPH(TIMx));
2680:../STM32F10x_StdPeriph_Lib_V3.5.0/Libraries/STM32F10x_StdPeriph_Driver/src/stm32f10x_tim.c ****   assert_param(IS_TIM_IT(TIM_IT));
2681:../STM32F10x_StdPeriph_Lib_V3.5.0/Libraries/STM32F10x_StdPeriph_Driver/src/stm32f10x_tim.c ****   /* Clear the IT pending Bit */
2682:../STM32F10x_StdPeriph_Lib_V3.5.0/Libraries/STM32F10x_StdPeriph_Driver/src/stm32f10x_tim.c ****   TIMx->SR = (uint16_t)~TIM_IT;
 5667              		.loc 1 2682 0
 5668 000c 7B88     		ldrh	r3, [r7, #2]	@ movhi
 5669 000e 6FEA0303 		mvn	r3, r3
 5670 0012 9AB2     		uxth	r2, r3
 5671 0014 7B68     		ldr	r3, [r7, #4]
 5672 0016 1A82     		strh	r2, [r3, #16]	@ movhi
2683:../STM32F10x_StdPeriph_Lib_V3.5.0/Libraries/STM32F10x_StdPeriph_Driver/src/stm32f10x_tim.c **** }
 5673              		.loc 1 2683 0
 5674 0018 07F10C07 		add	r7, r7, #12
 5675 001c BD46     		mov	sp, r7
 5676 001e 80BC     		pop	{r7}
 5677 0020 7047     		bx	lr
 5678              		.cfi_endproc
 5679              	.LFE115:
 5681 0022 00BF     		.section	.text.TI1_Config,"ax",%progbits
 5682              		.align	2
 5683              		.thumb
 5684              		.thumb_func
 5686              	TI1_Config:
 5687              	.LFB116:
2684:../STM32F10x_StdPeriph_Lib_V3.5.0/Libraries/STM32F10x_StdPeriph_Driver/src/stm32f10x_tim.c **** 
2685:../STM32F10x_StdPeriph_Lib_V3.5.0/Libraries/STM32F10x_StdPeriph_Driver/src/stm32f10x_tim.c **** /**
2686:../STM32F10x_StdPeriph_Lib_V3.5.0/Libraries/STM32F10x_StdPeriph_Driver/src/stm32f10x_tim.c ****   * @brief  Configure the TI1 as Input.
2687:../STM32F10x_StdPeriph_Lib_V3.5.0/Libraries/STM32F10x_StdPeriph_Driver/src/stm32f10x_tim.c ****   * @param  TIMx: where x can be 1 to 17 except 6 and 7 to select the TIM peripheral.
2688:../STM32F10x_StdPeriph_Lib_V3.5.0/Libraries/STM32F10x_StdPeriph_Driver/src/stm32f10x_tim.c ****   * @param  TIM_ICPolarity : The Input Polarity.
2689:../STM32F10x_StdPeriph_Lib_V3.5.0/Libraries/STM32F10x_StdPeriph_Driver/src/stm32f10x_tim.c ****   *   This parameter can be one of the following values:
2690:../STM32F10x_StdPeriph_Lib_V3.5.0/Libraries/STM32F10x_StdPeriph_Driver/src/stm32f10x_tim.c ****   *     @arg TIM_ICPolarity_Rising
2691:../STM32F10x_StdPeriph_Lib_V3.5.0/Libraries/STM32F10x_StdPeriph_Driver/src/stm32f10x_tim.c ****   *     @arg TIM_ICPolarity_Falling
2692:../STM32F10x_StdPeriph_Lib_V3.5.0/Libraries/STM32F10x_StdPeriph_Driver/src/stm32f10x_tim.c ****   * @param  TIM_ICSelection: specifies the input to be used.
2693:../STM32F10x_StdPeriph_Lib_V3.5.0/Libraries/STM32F10x_StdPeriph_Driver/src/stm32f10x_tim.c ****   *   This parameter can be one of the following values:
2694:../STM32F10x_StdPeriph_Lib_V3.5.0/Libraries/STM32F10x_StdPeriph_Driver/src/stm32f10x_tim.c ****   *     @arg TIM_ICSelection_DirectTI: TIM Input 1 is selected to be connected to IC1.
2695:../STM32F10x_StdPeriph_Lib_V3.5.0/Libraries/STM32F10x_StdPeriph_Driver/src/stm32f10x_tim.c ****   *     @arg TIM_ICSelection_IndirectTI: TIM Input 1 is selected to be connected to IC2.
2696:../STM32F10x_StdPeriph_Lib_V3.5.0/Libraries/STM32F10x_StdPeriph_Driver/src/stm32f10x_tim.c ****   *     @arg TIM_ICSelection_TRC: TIM Input 1 is selected to be connected to TRC.
2697:../STM32F10x_StdPeriph_Lib_V3.5.0/Libraries/STM32F10x_StdPeriph_Driver/src/stm32f10x_tim.c ****   * @param  TIM_ICFilter: Specifies the Input Capture Filter.
2698:../STM32F10x_StdPeriph_Lib_V3.5.0/Libraries/STM32F10x_StdPeriph_Driver/src/stm32f10x_tim.c ****   *   This parameter must be a value between 0x00 and 0x0F.
2699:../STM32F10x_StdPeriph_Lib_V3.5.0/Libraries/STM32F10x_StdPeriph_Driver/src/stm32f10x_tim.c ****   * @retval None
2700:../STM32F10x_StdPeriph_Lib_V3.5.0/Libraries/STM32F10x_StdPeriph_Driver/src/stm32f10x_tim.c ****   */
2701:../STM32F10x_StdPeriph_Lib_V3.5.0/Libraries/STM32F10x_StdPeriph_Driver/src/stm32f10x_tim.c **** static void TI1_Config(TIM_TypeDef* TIMx, uint16_t TIM_ICPolarity, uint16_t TIM_ICSelection,
2702:../STM32F10x_StdPeriph_Lib_V3.5.0/Libraries/STM32F10x_StdPeriph_Driver/src/stm32f10x_tim.c ****                        uint16_t TIM_ICFilter)
2703:../STM32F10x_StdPeriph_Lib_V3.5.0/Libraries/STM32F10x_StdPeriph_Driver/src/stm32f10x_tim.c **** {
 5688              		.loc 1 2703 0
 5689              		.cfi_startproc
 5690              		@ args = 0, pretend = 0, frame = 24
 5691              		@ frame_needed = 1, uses_anonymous_args = 0
 5692              		@ link register save eliminated.
 5693 0000 80B4     		push	{r7}
 5694              	.LCFI261:
 5695              		.cfi_def_cfa_offset 4
 5696              		.cfi_offset 7, -4
 5697 0002 87B0     		sub	sp, sp, #28
 5698              	.LCFI262:
 5699              		.cfi_def_cfa_offset 32
 5700 0004 00AF     		add	r7, sp, #0
 5701              	.LCFI263:
 5702              		.cfi_def_cfa_register 7
 5703 0006 F860     		str	r0, [r7, #12]
 5704 0008 7981     		strh	r1, [r7, #10]	@ movhi
 5705 000a 3A81     		strh	r2, [r7, #8]	@ movhi
 5706 000c FB80     		strh	r3, [r7, #6]	@ movhi
2704:../STM32F10x_StdPeriph_Lib_V3.5.0/Libraries/STM32F10x_StdPeriph_Driver/src/stm32f10x_tim.c ****   uint16_t tmpccmr1 = 0, tmpccer = 0;
 5707              		.loc 1 2704 0
 5708 000e 4FF00003 		mov	r3, #0
 5709 0012 BB82     		strh	r3, [r7, #20]	@ movhi
 5710 0014 4FF00003 		mov	r3, #0
 5711 0018 FB82     		strh	r3, [r7, #22]	@ movhi
2705:../STM32F10x_StdPeriph_Lib_V3.5.0/Libraries/STM32F10x_StdPeriph_Driver/src/stm32f10x_tim.c ****   /* Disable the Channel 1: Reset the CC1E Bit */
2706:../STM32F10x_StdPeriph_Lib_V3.5.0/Libraries/STM32F10x_StdPeriph_Driver/src/stm32f10x_tim.c ****   TIMx->CCER &= (uint16_t)~((uint16_t)TIM_CCER_CC1E);
 5712              		.loc 1 2706 0
 5713 001a FB68     		ldr	r3, [r7, #12]
 5714 001c 1B8C     		ldrh	r3, [r3, #32]	@ movhi
 5715 001e 9BB2     		uxth	r3, r3
 5716 0020 23F00103 		bic	r3, r3, #1
 5717 0024 9AB2     		uxth	r2, r3
 5718 0026 FB68     		ldr	r3, [r7, #12]
 5719 0028 1A84     		strh	r2, [r3, #32]	@ movhi
2707:../STM32F10x_StdPeriph_Lib_V3.5.0/Libraries/STM32F10x_StdPeriph_Driver/src/stm32f10x_tim.c ****   tmpccmr1 = TIMx->CCMR1;
 5720              		.loc 1 2707 0
 5721 002a FB68     		ldr	r3, [r7, #12]
 5722 002c 1B8B     		ldrh	r3, [r3, #24]	@ movhi
 5723 002e BB82     		strh	r3, [r7, #20]	@ movhi
2708:../STM32F10x_StdPeriph_Lib_V3.5.0/Libraries/STM32F10x_StdPeriph_Driver/src/stm32f10x_tim.c ****   tmpccer = TIMx->CCER;
 5724              		.loc 1 2708 0
 5725 0030 FB68     		ldr	r3, [r7, #12]
 5726 0032 1B8C     		ldrh	r3, [r3, #32]	@ movhi
 5727 0034 FB82     		strh	r3, [r7, #22]	@ movhi
2709:../STM32F10x_StdPeriph_Lib_V3.5.0/Libraries/STM32F10x_StdPeriph_Driver/src/stm32f10x_tim.c ****   /* Select the Input and set the filter */
2710:../STM32F10x_StdPeriph_Lib_V3.5.0/Libraries/STM32F10x_StdPeriph_Driver/src/stm32f10x_tim.c ****   tmpccmr1 &= (uint16_t)(((uint16_t)~((uint16_t)TIM_CCMR1_CC1S)) & ((uint16_t)~((uint16_t)TIM_CCMR1
 5728              		.loc 1 2710 0
 5729 0036 BB8A     		ldrh	r3, [r7, #20]	@ movhi
 5730 0038 23F0F303 		bic	r3, r3, #243
 5731 003c BB82     		strh	r3, [r7, #20]	@ movhi
2711:../STM32F10x_StdPeriph_Lib_V3.5.0/Libraries/STM32F10x_StdPeriph_Driver/src/stm32f10x_tim.c ****   tmpccmr1 |= (uint16_t)(TIM_ICSelection | (uint16_t)(TIM_ICFilter << (uint16_t)4));
 5732              		.loc 1 2711 0
 5733 003e FB88     		ldrh	r3, [r7, #6]	@ movhi
 5734 0040 4FEA0313 		lsl	r3, r3, #4
 5735 0044 9AB2     		uxth	r2, r3
 5736 0046 3B89     		ldrh	r3, [r7, #8]	@ movhi
 5737 0048 1343     		orrs	r3, r3, r2
 5738 004a 9AB2     		uxth	r2, r3
 5739 004c BB8A     		ldrh	r3, [r7, #20]	@ movhi
 5740 004e 1343     		orrs	r3, r3, r2
 5741 0050 BB82     		strh	r3, [r7, #20]	@ movhi
2712:../STM32F10x_StdPeriph_Lib_V3.5.0/Libraries/STM32F10x_StdPeriph_Driver/src/stm32f10x_tim.c ****   
2713:../STM32F10x_StdPeriph_Lib_V3.5.0/Libraries/STM32F10x_StdPeriph_Driver/src/stm32f10x_tim.c ****   if((TIMx == TIM1) || (TIMx == TIM8) || (TIMx == TIM2) || (TIMx == TIM3) ||
 5742              		.loc 1 2713 0
 5743 0052 FA68     		ldr	r2, [r7, #12]
 5744 0054 1C4B     		ldr	r3, .L183
 5745 0056 9A42     		cmp	r2, r3
 5746 0058 13D0     		beq	.L180
 5747              		.loc 1 2713 0 is_stmt 0 discriminator 1
 5748 005a FA68     		ldr	r2, [r7, #12]
 5749 005c 1B4B     		ldr	r3, .L183+4
 5750 005e 9A42     		cmp	r2, r3
 5751 0060 0FD0     		beq	.L180
 5752 0062 FB68     		ldr	r3, [r7, #12]
 5753 0064 B3F1804F 		cmp	r3, #1073741824
 5754 0068 0BD0     		beq	.L180
 5755 006a FA68     		ldr	r2, [r7, #12]
 5756 006c 184B     		ldr	r3, .L183+8
 5757 006e 9A42     		cmp	r2, r3
 5758 0070 07D0     		beq	.L180
 5759 0072 FA68     		ldr	r2, [r7, #12]
 5760 0074 174B     		ldr	r3, .L183+12
 5761 0076 9A42     		cmp	r2, r3
 5762 0078 03D0     		beq	.L180
2714:../STM32F10x_StdPeriph_Lib_V3.5.0/Libraries/STM32F10x_StdPeriph_Driver/src/stm32f10x_tim.c ****      (TIMx == TIM4) ||(TIMx == TIM5))
 5763              		.loc 1 2714 0 is_stmt 1
 5764 007a FA68     		ldr	r2, [r7, #12]
 5765 007c 164B     		ldr	r3, .L183+16
 5766 007e 9A42     		cmp	r2, r3
 5767 0080 0BD1     		bne	.L181
 5768              	.L180:
2715:../STM32F10x_StdPeriph_Lib_V3.5.0/Libraries/STM32F10x_StdPeriph_Driver/src/stm32f10x_tim.c ****   {
2716:../STM32F10x_StdPeriph_Lib_V3.5.0/Libraries/STM32F10x_StdPeriph_Driver/src/stm32f10x_tim.c ****     /* Select the Polarity and set the CC1E Bit */
2717:../STM32F10x_StdPeriph_Lib_V3.5.0/Libraries/STM32F10x_StdPeriph_Driver/src/stm32f10x_tim.c ****     tmpccer &= (uint16_t)~((uint16_t)(TIM_CCER_CC1P));
 5769              		.loc 1 2717 0
 5770 0082 FB8A     		ldrh	r3, [r7, #22]	@ movhi
 5771 0084 23F00203 		bic	r3, r3, #2
 5772 0088 FB82     		strh	r3, [r7, #22]	@ movhi
2718:../STM32F10x_StdPeriph_Lib_V3.5.0/Libraries/STM32F10x_StdPeriph_Driver/src/stm32f10x_tim.c ****     tmpccer |= (uint16_t)(TIM_ICPolarity | (uint16_t)TIM_CCER_CC1E);
 5773              		.loc 1 2718 0
 5774 008a 7A89     		ldrh	r2, [r7, #10]	@ movhi
 5775 008c FB8A     		ldrh	r3, [r7, #22]	@ movhi
 5776 008e 1343     		orrs	r3, r3, r2
 5777 0090 9BB2     		uxth	r3, r3
 5778 0092 43F00103 		orr	r3, r3, #1
 5779 0096 FB82     		strh	r3, [r7, #22]	@ movhi
 5780 0098 0AE0     		b	.L182
 5781              	.L181:
2719:../STM32F10x_StdPeriph_Lib_V3.5.0/Libraries/STM32F10x_StdPeriph_Driver/src/stm32f10x_tim.c ****   }
2720:../STM32F10x_StdPeriph_Lib_V3.5.0/Libraries/STM32F10x_StdPeriph_Driver/src/stm32f10x_tim.c ****   else
2721:../STM32F10x_StdPeriph_Lib_V3.5.0/Libraries/STM32F10x_StdPeriph_Driver/src/stm32f10x_tim.c ****   {
2722:../STM32F10x_StdPeriph_Lib_V3.5.0/Libraries/STM32F10x_StdPeriph_Driver/src/stm32f10x_tim.c ****     /* Select the Polarity and set the CC1E Bit */
2723:../STM32F10x_StdPeriph_Lib_V3.5.0/Libraries/STM32F10x_StdPeriph_Driver/src/stm32f10x_tim.c ****     tmpccer &= (uint16_t)~((uint16_t)(TIM_CCER_CC1P | TIM_CCER_CC1NP));
 5782              		.loc 1 2723 0
 5783 009a FB8A     		ldrh	r3, [r7, #22]	@ movhi
 5784 009c 23F00A03 		bic	r3, r3, #10
 5785 00a0 FB82     		strh	r3, [r7, #22]	@ movhi
2724:../STM32F10x_StdPeriph_Lib_V3.5.0/Libraries/STM32F10x_StdPeriph_Driver/src/stm32f10x_tim.c ****     tmpccer |= (uint16_t)(TIM_ICPolarity | (uint16_t)TIM_CCER_CC1E);
 5786              		.loc 1 2724 0
 5787 00a2 7A89     		ldrh	r2, [r7, #10]	@ movhi
 5788 00a4 FB8A     		ldrh	r3, [r7, #22]	@ movhi
 5789 00a6 1343     		orrs	r3, r3, r2
 5790 00a8 9BB2     		uxth	r3, r3
 5791 00aa 43F00103 		orr	r3, r3, #1
 5792 00ae FB82     		strh	r3, [r7, #22]	@ movhi
 5793              	.L182:
2725:../STM32F10x_StdPeriph_Lib_V3.5.0/Libraries/STM32F10x_StdPeriph_Driver/src/stm32f10x_tim.c ****   }
2726:../STM32F10x_StdPeriph_Lib_V3.5.0/Libraries/STM32F10x_StdPeriph_Driver/src/stm32f10x_tim.c **** 
2727:../STM32F10x_StdPeriph_Lib_V3.5.0/Libraries/STM32F10x_StdPeriph_Driver/src/stm32f10x_tim.c ****   /* Write to TIMx CCMR1 and CCER registers */
2728:../STM32F10x_StdPeriph_Lib_V3.5.0/Libraries/STM32F10x_StdPeriph_Driver/src/stm32f10x_tim.c ****   TIMx->CCMR1 = tmpccmr1;
 5794              		.loc 1 2728 0
 5795 00b0 FB68     		ldr	r3, [r7, #12]
 5796 00b2 BA8A     		ldrh	r2, [r7, #20]	@ movhi
 5797 00b4 1A83     		strh	r2, [r3, #24]	@ movhi
2729:../STM32F10x_StdPeriph_Lib_V3.5.0/Libraries/STM32F10x_StdPeriph_Driver/src/stm32f10x_tim.c ****   TIMx->CCER = tmpccer;
 5798              		.loc 1 2729 0
 5799 00b6 FB68     		ldr	r3, [r7, #12]
 5800 00b8 FA8A     		ldrh	r2, [r7, #22]	@ movhi
 5801 00ba 1A84     		strh	r2, [r3, #32]	@ movhi
2730:../STM32F10x_StdPeriph_Lib_V3.5.0/Libraries/STM32F10x_StdPeriph_Driver/src/stm32f10x_tim.c **** }
 5802              		.loc 1 2730 0
 5803 00bc 07F11C07 		add	r7, r7, #28
 5804 00c0 BD46     		mov	sp, r7
 5805 00c2 80BC     		pop	{r7}
 5806 00c4 7047     		bx	lr
 5807              	.L184:
 5808 00c6 00BF     		.align	2
 5809              	.L183:
 5810 00c8 002C0140 		.word	1073818624
 5811 00cc 00340140 		.word	1073820672
 5812 00d0 00040040 		.word	1073742848
 5813 00d4 00080040 		.word	1073743872
 5814 00d8 000C0040 		.word	1073744896
 5815              		.cfi_endproc
 5816              	.LFE116:
 5818              		.section	.text.TI2_Config,"ax",%progbits
 5819              		.align	2
 5820              		.thumb
 5821              		.thumb_func
 5823              	TI2_Config:
 5824              	.LFB117:
2731:../STM32F10x_StdPeriph_Lib_V3.5.0/Libraries/STM32F10x_StdPeriph_Driver/src/stm32f10x_tim.c **** 
2732:../STM32F10x_StdPeriph_Lib_V3.5.0/Libraries/STM32F10x_StdPeriph_Driver/src/stm32f10x_tim.c **** /**
2733:../STM32F10x_StdPeriph_Lib_V3.5.0/Libraries/STM32F10x_StdPeriph_Driver/src/stm32f10x_tim.c ****   * @brief  Configure the TI2 as Input.
2734:../STM32F10x_StdPeriph_Lib_V3.5.0/Libraries/STM32F10x_StdPeriph_Driver/src/stm32f10x_tim.c ****   * @param  TIMx: where x can be 1, 2, 3, 4, 5, 8, 9, 12 or 15 to select the TIM peripheral.
2735:../STM32F10x_StdPeriph_Lib_V3.5.0/Libraries/STM32F10x_StdPeriph_Driver/src/stm32f10x_tim.c ****   * @param  TIM_ICPolarity : The Input Polarity.
2736:../STM32F10x_StdPeriph_Lib_V3.5.0/Libraries/STM32F10x_StdPeriph_Driver/src/stm32f10x_tim.c ****   *   This parameter can be one of the following values:
2737:../STM32F10x_StdPeriph_Lib_V3.5.0/Libraries/STM32F10x_StdPeriph_Driver/src/stm32f10x_tim.c ****   *     @arg TIM_ICPolarity_Rising
2738:../STM32F10x_StdPeriph_Lib_V3.5.0/Libraries/STM32F10x_StdPeriph_Driver/src/stm32f10x_tim.c ****   *     @arg TIM_ICPolarity_Falling
2739:../STM32F10x_StdPeriph_Lib_V3.5.0/Libraries/STM32F10x_StdPeriph_Driver/src/stm32f10x_tim.c ****   * @param  TIM_ICSelection: specifies the input to be used.
2740:../STM32F10x_StdPeriph_Lib_V3.5.0/Libraries/STM32F10x_StdPeriph_Driver/src/stm32f10x_tim.c ****   *   This parameter can be one of the following values:
2741:../STM32F10x_StdPeriph_Lib_V3.5.0/Libraries/STM32F10x_StdPeriph_Driver/src/stm32f10x_tim.c ****   *     @arg TIM_ICSelection_DirectTI: TIM Input 2 is selected to be connected to IC2.
2742:../STM32F10x_StdPeriph_Lib_V3.5.0/Libraries/STM32F10x_StdPeriph_Driver/src/stm32f10x_tim.c ****   *     @arg TIM_ICSelection_IndirectTI: TIM Input 2 is selected to be connected to IC1.
2743:../STM32F10x_StdPeriph_Lib_V3.5.0/Libraries/STM32F10x_StdPeriph_Driver/src/stm32f10x_tim.c ****   *     @arg TIM_ICSelection_TRC: TIM Input 2 is selected to be connected to TRC.
2744:../STM32F10x_StdPeriph_Lib_V3.5.0/Libraries/STM32F10x_StdPeriph_Driver/src/stm32f10x_tim.c ****   * @param  TIM_ICFilter: Specifies the Input Capture Filter.
2745:../STM32F10x_StdPeriph_Lib_V3.5.0/Libraries/STM32F10x_StdPeriph_Driver/src/stm32f10x_tim.c ****   *   This parameter must be a value between 0x00 and 0x0F.
2746:../STM32F10x_StdPeriph_Lib_V3.5.0/Libraries/STM32F10x_StdPeriph_Driver/src/stm32f10x_tim.c ****   * @retval None
2747:../STM32F10x_StdPeriph_Lib_V3.5.0/Libraries/STM32F10x_StdPeriph_Driver/src/stm32f10x_tim.c ****   */
2748:../STM32F10x_StdPeriph_Lib_V3.5.0/Libraries/STM32F10x_StdPeriph_Driver/src/stm32f10x_tim.c **** static void TI2_Config(TIM_TypeDef* TIMx, uint16_t TIM_ICPolarity, uint16_t TIM_ICSelection,
2749:../STM32F10x_StdPeriph_Lib_V3.5.0/Libraries/STM32F10x_StdPeriph_Driver/src/stm32f10x_tim.c ****                        uint16_t TIM_ICFilter)
2750:../STM32F10x_StdPeriph_Lib_V3.5.0/Libraries/STM32F10x_StdPeriph_Driver/src/stm32f10x_tim.c **** {
 5825              		.loc 1 2750 0
 5826              		.cfi_startproc
 5827              		@ args = 0, pretend = 0, frame = 24
 5828              		@ frame_needed = 1, uses_anonymous_args = 0
 5829              		@ link register save eliminated.
 5830 0000 80B4     		push	{r7}
 5831              	.LCFI264:
 5832              		.cfi_def_cfa_offset 4
 5833              		.cfi_offset 7, -4
 5834 0002 87B0     		sub	sp, sp, #28
 5835              	.LCFI265:
 5836              		.cfi_def_cfa_offset 32
 5837 0004 00AF     		add	r7, sp, #0
 5838              	.LCFI266:
 5839              		.cfi_def_cfa_register 7
 5840 0006 F860     		str	r0, [r7, #12]
 5841 0008 7981     		strh	r1, [r7, #10]	@ movhi
 5842 000a 3A81     		strh	r2, [r7, #8]	@ movhi
 5843 000c FB80     		strh	r3, [r7, #6]	@ movhi
2751:../STM32F10x_StdPeriph_Lib_V3.5.0/Libraries/STM32F10x_StdPeriph_Driver/src/stm32f10x_tim.c ****   uint16_t tmpccmr1 = 0, tmpccer = 0, tmp = 0;
 5844              		.loc 1 2751 0
 5845 000e 4FF00003 		mov	r3, #0
 5846 0012 BB82     		strh	r3, [r7, #20]	@ movhi
 5847 0014 4FF00003 		mov	r3, #0
 5848 0018 FB82     		strh	r3, [r7, #22]	@ movhi
 5849 001a 4FF00003 		mov	r3, #0
 5850 001e 7B82     		strh	r3, [r7, #18]	@ movhi
2752:../STM32F10x_StdPeriph_Lib_V3.5.0/Libraries/STM32F10x_StdPeriph_Driver/src/stm32f10x_tim.c ****   /* Disable the Channel 2: Reset the CC2E Bit */
2753:../STM32F10x_StdPeriph_Lib_V3.5.0/Libraries/STM32F10x_StdPeriph_Driver/src/stm32f10x_tim.c ****   TIMx->CCER &= (uint16_t)~((uint16_t)TIM_CCER_CC2E);
 5851              		.loc 1 2753 0
 5852 0020 FB68     		ldr	r3, [r7, #12]
 5853 0022 1B8C     		ldrh	r3, [r3, #32]	@ movhi
 5854 0024 9BB2     		uxth	r3, r3
 5855 0026 23F01003 		bic	r3, r3, #16
 5856 002a 9AB2     		uxth	r2, r3
 5857 002c FB68     		ldr	r3, [r7, #12]
 5858 002e 1A84     		strh	r2, [r3, #32]	@ movhi
2754:../STM32F10x_StdPeriph_Lib_V3.5.0/Libraries/STM32F10x_StdPeriph_Driver/src/stm32f10x_tim.c ****   tmpccmr1 = TIMx->CCMR1;
 5859              		.loc 1 2754 0
 5860 0030 FB68     		ldr	r3, [r7, #12]
 5861 0032 1B8B     		ldrh	r3, [r3, #24]	@ movhi
 5862 0034 BB82     		strh	r3, [r7, #20]	@ movhi
2755:../STM32F10x_StdPeriph_Lib_V3.5.0/Libraries/STM32F10x_StdPeriph_Driver/src/stm32f10x_tim.c ****   tmpccer = TIMx->CCER;
 5863              		.loc 1 2755 0
 5864 0036 FB68     		ldr	r3, [r7, #12]
 5865 0038 1B8C     		ldrh	r3, [r3, #32]	@ movhi
 5866 003a FB82     		strh	r3, [r7, #22]	@ movhi
2756:../STM32F10x_StdPeriph_Lib_V3.5.0/Libraries/STM32F10x_StdPeriph_Driver/src/stm32f10x_tim.c ****   tmp = (uint16_t)(TIM_ICPolarity << 4);
 5867              		.loc 1 2756 0
 5868 003c 7B89     		ldrh	r3, [r7, #10]	@ movhi
 5869 003e 4FEA0313 		lsl	r3, r3, #4
 5870 0042 7B82     		strh	r3, [r7, #18]	@ movhi
2757:../STM32F10x_StdPeriph_Lib_V3.5.0/Libraries/STM32F10x_StdPeriph_Driver/src/stm32f10x_tim.c ****   /* Select the Input and set the filter */
2758:../STM32F10x_StdPeriph_Lib_V3.5.0/Libraries/STM32F10x_StdPeriph_Driver/src/stm32f10x_tim.c ****   tmpccmr1 &= (uint16_t)(((uint16_t)~((uint16_t)TIM_CCMR1_CC2S)) & ((uint16_t)~((uint16_t)TIM_CCMR1
 5871              		.loc 1 2758 0
 5872 0044 BB8A     		ldrh	r3, [r7, #20]	@ movhi
 5873 0046 23F44073 		bic	r3, r3, #768
 5874 004a 4FEA0353 		lsl	r3, r3, #20
 5875 004e 4FEA1353 		lsr	r3, r3, #20
 5876 0052 BB82     		strh	r3, [r7, #20]	@ movhi
2759:../STM32F10x_StdPeriph_Lib_V3.5.0/Libraries/STM32F10x_StdPeriph_Driver/src/stm32f10x_tim.c ****   tmpccmr1 |= (uint16_t)(TIM_ICFilter << 12);
 5877              		.loc 1 2759 0
 5878 0054 FB88     		ldrh	r3, [r7, #6]	@ movhi
 5879 0056 4FEA0333 		lsl	r3, r3, #12
 5880 005a 9AB2     		uxth	r2, r3
 5881 005c BB8A     		ldrh	r3, [r7, #20]	@ movhi
 5882 005e 1343     		orrs	r3, r3, r2
 5883 0060 BB82     		strh	r3, [r7, #20]	@ movhi
2760:../STM32F10x_StdPeriph_Lib_V3.5.0/Libraries/STM32F10x_StdPeriph_Driver/src/stm32f10x_tim.c ****   tmpccmr1 |= (uint16_t)(TIM_ICSelection << 8);
 5884              		.loc 1 2760 0
 5885 0062 3B89     		ldrh	r3, [r7, #8]	@ movhi
 5886 0064 4FEA0323 		lsl	r3, r3, #8
 5887 0068 9AB2     		uxth	r2, r3
 5888 006a BB8A     		ldrh	r3, [r7, #20]	@ movhi
 5889 006c 1343     		orrs	r3, r3, r2
 5890 006e BB82     		strh	r3, [r7, #20]	@ movhi
2761:../STM32F10x_StdPeriph_Lib_V3.5.0/Libraries/STM32F10x_StdPeriph_Driver/src/stm32f10x_tim.c ****   
2762:../STM32F10x_StdPeriph_Lib_V3.5.0/Libraries/STM32F10x_StdPeriph_Driver/src/stm32f10x_tim.c ****   if((TIMx == TIM1) || (TIMx == TIM8) || (TIMx == TIM2) || (TIMx == TIM3) ||
 5891              		.loc 1 2762 0
 5892 0070 FA68     		ldr	r2, [r7, #12]
 5893 0072 1C4B     		ldr	r3, .L189
 5894 0074 9A42     		cmp	r2, r3
 5895 0076 13D0     		beq	.L186
 5896              		.loc 1 2762 0 is_stmt 0 discriminator 1
 5897 0078 FA68     		ldr	r2, [r7, #12]
 5898 007a 1B4B     		ldr	r3, .L189+4
 5899 007c 9A42     		cmp	r2, r3
 5900 007e 0FD0     		beq	.L186
 5901 0080 FB68     		ldr	r3, [r7, #12]
 5902 0082 B3F1804F 		cmp	r3, #1073741824
 5903 0086 0BD0     		beq	.L186
 5904 0088 FA68     		ldr	r2, [r7, #12]
 5905 008a 184B     		ldr	r3, .L189+8
 5906 008c 9A42     		cmp	r2, r3
 5907 008e 07D0     		beq	.L186
 5908 0090 FA68     		ldr	r2, [r7, #12]
 5909 0092 174B     		ldr	r3, .L189+12
 5910 0094 9A42     		cmp	r2, r3
 5911 0096 03D0     		beq	.L186
2763:../STM32F10x_StdPeriph_Lib_V3.5.0/Libraries/STM32F10x_StdPeriph_Driver/src/stm32f10x_tim.c ****      (TIMx == TIM4) ||(TIMx == TIM5))
 5912              		.loc 1 2763 0 is_stmt 1
 5913 0098 FA68     		ldr	r2, [r7, #12]
 5914 009a 164B     		ldr	r3, .L189+16
 5915 009c 9A42     		cmp	r2, r3
 5916 009e 0BD1     		bne	.L187
 5917              	.L186:
2764:../STM32F10x_StdPeriph_Lib_V3.5.0/Libraries/STM32F10x_StdPeriph_Driver/src/stm32f10x_tim.c ****   {
2765:../STM32F10x_StdPeriph_Lib_V3.5.0/Libraries/STM32F10x_StdPeriph_Driver/src/stm32f10x_tim.c ****     /* Select the Polarity and set the CC2E Bit */
2766:../STM32F10x_StdPeriph_Lib_V3.5.0/Libraries/STM32F10x_StdPeriph_Driver/src/stm32f10x_tim.c ****     tmpccer &= (uint16_t)~((uint16_t)(TIM_CCER_CC2P));
 5918              		.loc 1 2766 0
 5919 00a0 FB8A     		ldrh	r3, [r7, #22]	@ movhi
 5920 00a2 23F02003 		bic	r3, r3, #32
 5921 00a6 FB82     		strh	r3, [r7, #22]	@ movhi
2767:../STM32F10x_StdPeriph_Lib_V3.5.0/Libraries/STM32F10x_StdPeriph_Driver/src/stm32f10x_tim.c ****     tmpccer |=  (uint16_t)(tmp | (uint16_t)TIM_CCER_CC2E);
 5922              		.loc 1 2767 0
 5923 00a8 7A8A     		ldrh	r2, [r7, #18]	@ movhi
 5924 00aa FB8A     		ldrh	r3, [r7, #22]	@ movhi
 5925 00ac 1343     		orrs	r3, r3, r2
 5926 00ae 9BB2     		uxth	r3, r3
 5927 00b0 43F01003 		orr	r3, r3, #16
 5928 00b4 FB82     		strh	r3, [r7, #22]	@ movhi
 5929 00b6 0AE0     		b	.L188
 5930              	.L187:
2768:../STM32F10x_StdPeriph_Lib_V3.5.0/Libraries/STM32F10x_StdPeriph_Driver/src/stm32f10x_tim.c ****   }
2769:../STM32F10x_StdPeriph_Lib_V3.5.0/Libraries/STM32F10x_StdPeriph_Driver/src/stm32f10x_tim.c ****   else
2770:../STM32F10x_StdPeriph_Lib_V3.5.0/Libraries/STM32F10x_StdPeriph_Driver/src/stm32f10x_tim.c ****   {
2771:../STM32F10x_StdPeriph_Lib_V3.5.0/Libraries/STM32F10x_StdPeriph_Driver/src/stm32f10x_tim.c ****     /* Select the Polarity and set the CC2E Bit */
2772:../STM32F10x_StdPeriph_Lib_V3.5.0/Libraries/STM32F10x_StdPeriph_Driver/src/stm32f10x_tim.c ****     tmpccer &= (uint16_t)~((uint16_t)(TIM_CCER_CC2P | TIM_CCER_CC2NP));
 5931              		.loc 1 2772 0
 5932 00b8 FB8A     		ldrh	r3, [r7, #22]	@ movhi
 5933 00ba 23F0A003 		bic	r3, r3, #160
 5934 00be FB82     		strh	r3, [r7, #22]	@ movhi
2773:../STM32F10x_StdPeriph_Lib_V3.5.0/Libraries/STM32F10x_StdPeriph_Driver/src/stm32f10x_tim.c ****     tmpccer |= (uint16_t)(TIM_ICPolarity | (uint16_t)TIM_CCER_CC2E);
 5935              		.loc 1 2773 0
 5936 00c0 7A89     		ldrh	r2, [r7, #10]	@ movhi
 5937 00c2 FB8A     		ldrh	r3, [r7, #22]	@ movhi
 5938 00c4 1343     		orrs	r3, r3, r2
 5939 00c6 9BB2     		uxth	r3, r3
 5940 00c8 43F01003 		orr	r3, r3, #16
 5941 00cc FB82     		strh	r3, [r7, #22]	@ movhi
 5942              	.L188:
2774:../STM32F10x_StdPeriph_Lib_V3.5.0/Libraries/STM32F10x_StdPeriph_Driver/src/stm32f10x_tim.c ****   }
2775:../STM32F10x_StdPeriph_Lib_V3.5.0/Libraries/STM32F10x_StdPeriph_Driver/src/stm32f10x_tim.c ****   
2776:../STM32F10x_StdPeriph_Lib_V3.5.0/Libraries/STM32F10x_StdPeriph_Driver/src/stm32f10x_tim.c ****   /* Write to TIMx CCMR1 and CCER registers */
2777:../STM32F10x_StdPeriph_Lib_V3.5.0/Libraries/STM32F10x_StdPeriph_Driver/src/stm32f10x_tim.c ****   TIMx->CCMR1 = tmpccmr1 ;
 5943              		.loc 1 2777 0
 5944 00ce FB68     		ldr	r3, [r7, #12]
 5945 00d0 BA8A     		ldrh	r2, [r7, #20]	@ movhi
 5946 00d2 1A83     		strh	r2, [r3, #24]	@ movhi
2778:../STM32F10x_StdPeriph_Lib_V3.5.0/Libraries/STM32F10x_StdPeriph_Driver/src/stm32f10x_tim.c ****   TIMx->CCER = tmpccer;
 5947              		.loc 1 2778 0
 5948 00d4 FB68     		ldr	r3, [r7, #12]
 5949 00d6 FA8A     		ldrh	r2, [r7, #22]	@ movhi
 5950 00d8 1A84     		strh	r2, [r3, #32]	@ movhi
2779:../STM32F10x_StdPeriph_Lib_V3.5.0/Libraries/STM32F10x_StdPeriph_Driver/src/stm32f10x_tim.c **** }
 5951              		.loc 1 2779 0
 5952 00da 07F11C07 		add	r7, r7, #28
 5953 00de BD46     		mov	sp, r7
 5954 00e0 80BC     		pop	{r7}
 5955 00e2 7047     		bx	lr
 5956              	.L190:
 5957              		.align	2
 5958              	.L189:
 5959 00e4 002C0140 		.word	1073818624
 5960 00e8 00340140 		.word	1073820672
 5961 00ec 00040040 		.word	1073742848
 5962 00f0 00080040 		.word	1073743872
 5963 00f4 000C0040 		.word	1073744896
 5964              		.cfi_endproc
 5965              	.LFE117:
 5967              		.section	.text.TI3_Config,"ax",%progbits
 5968              		.align	2
 5969              		.thumb
 5970              		.thumb_func
 5972              	TI3_Config:
 5973              	.LFB118:
2780:../STM32F10x_StdPeriph_Lib_V3.5.0/Libraries/STM32F10x_StdPeriph_Driver/src/stm32f10x_tim.c **** 
2781:../STM32F10x_StdPeriph_Lib_V3.5.0/Libraries/STM32F10x_StdPeriph_Driver/src/stm32f10x_tim.c **** /**
2782:../STM32F10x_StdPeriph_Lib_V3.5.0/Libraries/STM32F10x_StdPeriph_Driver/src/stm32f10x_tim.c ****   * @brief  Configure the TI3 as Input.
2783:../STM32F10x_StdPeriph_Lib_V3.5.0/Libraries/STM32F10x_StdPeriph_Driver/src/stm32f10x_tim.c ****   * @param  TIMx: where x can be 1, 2, 3, 4, 5 or 8 to select the TIM peripheral.
2784:../STM32F10x_StdPeriph_Lib_V3.5.0/Libraries/STM32F10x_StdPeriph_Driver/src/stm32f10x_tim.c ****   * @param  TIM_ICPolarity : The Input Polarity.
2785:../STM32F10x_StdPeriph_Lib_V3.5.0/Libraries/STM32F10x_StdPeriph_Driver/src/stm32f10x_tim.c ****   *   This parameter can be one of the following values:
2786:../STM32F10x_StdPeriph_Lib_V3.5.0/Libraries/STM32F10x_StdPeriph_Driver/src/stm32f10x_tim.c ****   *     @arg TIM_ICPolarity_Rising
2787:../STM32F10x_StdPeriph_Lib_V3.5.0/Libraries/STM32F10x_StdPeriph_Driver/src/stm32f10x_tim.c ****   *     @arg TIM_ICPolarity_Falling
2788:../STM32F10x_StdPeriph_Lib_V3.5.0/Libraries/STM32F10x_StdPeriph_Driver/src/stm32f10x_tim.c ****   * @param  TIM_ICSelection: specifies the input to be used.
2789:../STM32F10x_StdPeriph_Lib_V3.5.0/Libraries/STM32F10x_StdPeriph_Driver/src/stm32f10x_tim.c ****   *   This parameter can be one of the following values:
2790:../STM32F10x_StdPeriph_Lib_V3.5.0/Libraries/STM32F10x_StdPeriph_Driver/src/stm32f10x_tim.c ****   *     @arg TIM_ICSelection_DirectTI: TIM Input 3 is selected to be connected to IC3.
2791:../STM32F10x_StdPeriph_Lib_V3.5.0/Libraries/STM32F10x_StdPeriph_Driver/src/stm32f10x_tim.c ****   *     @arg TIM_ICSelection_IndirectTI: TIM Input 3 is selected to be connected to IC4.
2792:../STM32F10x_StdPeriph_Lib_V3.5.0/Libraries/STM32F10x_StdPeriph_Driver/src/stm32f10x_tim.c ****   *     @arg TIM_ICSelection_TRC: TIM Input 3 is selected to be connected to TRC.
2793:../STM32F10x_StdPeriph_Lib_V3.5.0/Libraries/STM32F10x_StdPeriph_Driver/src/stm32f10x_tim.c ****   * @param  TIM_ICFilter: Specifies the Input Capture Filter.
2794:../STM32F10x_StdPeriph_Lib_V3.5.0/Libraries/STM32F10x_StdPeriph_Driver/src/stm32f10x_tim.c ****   *   This parameter must be a value between 0x00 and 0x0F.
2795:../STM32F10x_StdPeriph_Lib_V3.5.0/Libraries/STM32F10x_StdPeriph_Driver/src/stm32f10x_tim.c ****   * @retval None
2796:../STM32F10x_StdPeriph_Lib_V3.5.0/Libraries/STM32F10x_StdPeriph_Driver/src/stm32f10x_tim.c ****   */
2797:../STM32F10x_StdPeriph_Lib_V3.5.0/Libraries/STM32F10x_StdPeriph_Driver/src/stm32f10x_tim.c **** static void TI3_Config(TIM_TypeDef* TIMx, uint16_t TIM_ICPolarity, uint16_t TIM_ICSelection,
2798:../STM32F10x_StdPeriph_Lib_V3.5.0/Libraries/STM32F10x_StdPeriph_Driver/src/stm32f10x_tim.c ****                        uint16_t TIM_ICFilter)
2799:../STM32F10x_StdPeriph_Lib_V3.5.0/Libraries/STM32F10x_StdPeriph_Driver/src/stm32f10x_tim.c **** {
 5974              		.loc 1 2799 0
 5975              		.cfi_startproc
 5976              		@ args = 0, pretend = 0, frame = 24
 5977              		@ frame_needed = 1, uses_anonymous_args = 0
 5978              		@ link register save eliminated.
 5979 0000 80B4     		push	{r7}
 5980              	.LCFI267:
 5981              		.cfi_def_cfa_offset 4
 5982              		.cfi_offset 7, -4
 5983 0002 87B0     		sub	sp, sp, #28
 5984              	.LCFI268:
 5985              		.cfi_def_cfa_offset 32
 5986 0004 00AF     		add	r7, sp, #0
 5987              	.LCFI269:
 5988              		.cfi_def_cfa_register 7
 5989 0006 F860     		str	r0, [r7, #12]
 5990 0008 7981     		strh	r1, [r7, #10]	@ movhi
 5991 000a 3A81     		strh	r2, [r7, #8]	@ movhi
 5992 000c FB80     		strh	r3, [r7, #6]	@ movhi
2800:../STM32F10x_StdPeriph_Lib_V3.5.0/Libraries/STM32F10x_StdPeriph_Driver/src/stm32f10x_tim.c ****   uint16_t tmpccmr2 = 0, tmpccer = 0, tmp = 0;
 5993              		.loc 1 2800 0
 5994 000e 4FF00003 		mov	r3, #0
 5995 0012 BB82     		strh	r3, [r7, #20]	@ movhi
 5996 0014 4FF00003 		mov	r3, #0
 5997 0018 FB82     		strh	r3, [r7, #22]	@ movhi
 5998 001a 4FF00003 		mov	r3, #0
 5999 001e 7B82     		strh	r3, [r7, #18]	@ movhi
2801:../STM32F10x_StdPeriph_Lib_V3.5.0/Libraries/STM32F10x_StdPeriph_Driver/src/stm32f10x_tim.c ****   /* Disable the Channel 3: Reset the CC3E Bit */
2802:../STM32F10x_StdPeriph_Lib_V3.5.0/Libraries/STM32F10x_StdPeriph_Driver/src/stm32f10x_tim.c ****   TIMx->CCER &= (uint16_t)~((uint16_t)TIM_CCER_CC3E);
 6000              		.loc 1 2802 0
 6001 0020 FB68     		ldr	r3, [r7, #12]
 6002 0022 1B8C     		ldrh	r3, [r3, #32]	@ movhi
 6003 0024 9BB2     		uxth	r3, r3
 6004 0026 23F48073 		bic	r3, r3, #256
 6005 002a 9AB2     		uxth	r2, r3
 6006 002c FB68     		ldr	r3, [r7, #12]
 6007 002e 1A84     		strh	r2, [r3, #32]	@ movhi
2803:../STM32F10x_StdPeriph_Lib_V3.5.0/Libraries/STM32F10x_StdPeriph_Driver/src/stm32f10x_tim.c ****   tmpccmr2 = TIMx->CCMR2;
 6008              		.loc 1 2803 0
 6009 0030 FB68     		ldr	r3, [r7, #12]
 6010 0032 9B8B     		ldrh	r3, [r3, #28]	@ movhi
 6011 0034 BB82     		strh	r3, [r7, #20]	@ movhi
2804:../STM32F10x_StdPeriph_Lib_V3.5.0/Libraries/STM32F10x_StdPeriph_Driver/src/stm32f10x_tim.c ****   tmpccer = TIMx->CCER;
 6012              		.loc 1 2804 0
 6013 0036 FB68     		ldr	r3, [r7, #12]
 6014 0038 1B8C     		ldrh	r3, [r3, #32]	@ movhi
 6015 003a FB82     		strh	r3, [r7, #22]	@ movhi
2805:../STM32F10x_StdPeriph_Lib_V3.5.0/Libraries/STM32F10x_StdPeriph_Driver/src/stm32f10x_tim.c ****   tmp = (uint16_t)(TIM_ICPolarity << 8);
 6016              		.loc 1 2805 0
 6017 003c 7B89     		ldrh	r3, [r7, #10]	@ movhi
 6018 003e 4FEA0323 		lsl	r3, r3, #8
 6019 0042 7B82     		strh	r3, [r7, #18]	@ movhi
2806:../STM32F10x_StdPeriph_Lib_V3.5.0/Libraries/STM32F10x_StdPeriph_Driver/src/stm32f10x_tim.c ****   /* Select the Input and set the filter */
2807:../STM32F10x_StdPeriph_Lib_V3.5.0/Libraries/STM32F10x_StdPeriph_Driver/src/stm32f10x_tim.c ****   tmpccmr2 &= (uint16_t)(((uint16_t)~((uint16_t)TIM_CCMR2_CC3S)) & ((uint16_t)~((uint16_t)TIM_CCMR2
 6020              		.loc 1 2807 0
 6021 0044 BB8A     		ldrh	r3, [r7, #20]	@ movhi
 6022 0046 23F0F303 		bic	r3, r3, #243
 6023 004a BB82     		strh	r3, [r7, #20]	@ movhi
2808:../STM32F10x_StdPeriph_Lib_V3.5.0/Libraries/STM32F10x_StdPeriph_Driver/src/stm32f10x_tim.c ****   tmpccmr2 |= (uint16_t)(TIM_ICSelection | (uint16_t)(TIM_ICFilter << (uint16_t)4));
 6024              		.loc 1 2808 0
 6025 004c FB88     		ldrh	r3, [r7, #6]	@ movhi
 6026 004e 4FEA0313 		lsl	r3, r3, #4
 6027 0052 9AB2     		uxth	r2, r3
 6028 0054 3B89     		ldrh	r3, [r7, #8]	@ movhi
 6029 0056 1343     		orrs	r3, r3, r2
 6030 0058 9AB2     		uxth	r2, r3
 6031 005a BB8A     		ldrh	r3, [r7, #20]	@ movhi
 6032 005c 1343     		orrs	r3, r3, r2
 6033 005e BB82     		strh	r3, [r7, #20]	@ movhi
2809:../STM32F10x_StdPeriph_Lib_V3.5.0/Libraries/STM32F10x_StdPeriph_Driver/src/stm32f10x_tim.c ****     
2810:../STM32F10x_StdPeriph_Lib_V3.5.0/Libraries/STM32F10x_StdPeriph_Driver/src/stm32f10x_tim.c ****   if((TIMx == TIM1) || (TIMx == TIM8) || (TIMx == TIM2) || (TIMx == TIM3) ||
 6034              		.loc 1 2810 0
 6035 0060 FA68     		ldr	r2, [r7, #12]
 6036 0062 1C4B     		ldr	r3, .L195
 6037 0064 9A42     		cmp	r2, r3
 6038 0066 13D0     		beq	.L192
 6039              		.loc 1 2810 0 is_stmt 0 discriminator 1
 6040 0068 FA68     		ldr	r2, [r7, #12]
 6041 006a 1B4B     		ldr	r3, .L195+4
 6042 006c 9A42     		cmp	r2, r3
 6043 006e 0FD0     		beq	.L192
 6044 0070 FB68     		ldr	r3, [r7, #12]
 6045 0072 B3F1804F 		cmp	r3, #1073741824
 6046 0076 0BD0     		beq	.L192
 6047 0078 FA68     		ldr	r2, [r7, #12]
 6048 007a 184B     		ldr	r3, .L195+8
 6049 007c 9A42     		cmp	r2, r3
 6050 007e 07D0     		beq	.L192
 6051 0080 FA68     		ldr	r2, [r7, #12]
 6052 0082 174B     		ldr	r3, .L195+12
 6053 0084 9A42     		cmp	r2, r3
 6054 0086 03D0     		beq	.L192
2811:../STM32F10x_StdPeriph_Lib_V3.5.0/Libraries/STM32F10x_StdPeriph_Driver/src/stm32f10x_tim.c ****      (TIMx == TIM4) ||(TIMx == TIM5))
 6055              		.loc 1 2811 0 is_stmt 1
 6056 0088 FA68     		ldr	r2, [r7, #12]
 6057 008a 164B     		ldr	r3, .L195+16
 6058 008c 9A42     		cmp	r2, r3
 6059 008e 0BD1     		bne	.L193
 6060              	.L192:
2812:../STM32F10x_StdPeriph_Lib_V3.5.0/Libraries/STM32F10x_StdPeriph_Driver/src/stm32f10x_tim.c ****   {
2813:../STM32F10x_StdPeriph_Lib_V3.5.0/Libraries/STM32F10x_StdPeriph_Driver/src/stm32f10x_tim.c ****     /* Select the Polarity and set the CC3E Bit */
2814:../STM32F10x_StdPeriph_Lib_V3.5.0/Libraries/STM32F10x_StdPeriph_Driver/src/stm32f10x_tim.c ****     tmpccer &= (uint16_t)~((uint16_t)(TIM_CCER_CC3P));
 6061              		.loc 1 2814 0
 6062 0090 FB8A     		ldrh	r3, [r7, #22]	@ movhi
 6063 0092 23F40073 		bic	r3, r3, #512
 6064 0096 FB82     		strh	r3, [r7, #22]	@ movhi
2815:../STM32F10x_StdPeriph_Lib_V3.5.0/Libraries/STM32F10x_StdPeriph_Driver/src/stm32f10x_tim.c ****     tmpccer |= (uint16_t)(tmp | (uint16_t)TIM_CCER_CC3E);
 6065              		.loc 1 2815 0
 6066 0098 7A8A     		ldrh	r2, [r7, #18]	@ movhi
 6067 009a FB8A     		ldrh	r3, [r7, #22]	@ movhi
 6068 009c 1343     		orrs	r3, r3, r2
 6069 009e 9BB2     		uxth	r3, r3
 6070 00a0 43F48073 		orr	r3, r3, #256
 6071 00a4 FB82     		strh	r3, [r7, #22]	@ movhi
 6072 00a6 0AE0     		b	.L194
 6073              	.L193:
2816:../STM32F10x_StdPeriph_Lib_V3.5.0/Libraries/STM32F10x_StdPeriph_Driver/src/stm32f10x_tim.c ****   }
2817:../STM32F10x_StdPeriph_Lib_V3.5.0/Libraries/STM32F10x_StdPeriph_Driver/src/stm32f10x_tim.c ****   else
2818:../STM32F10x_StdPeriph_Lib_V3.5.0/Libraries/STM32F10x_StdPeriph_Driver/src/stm32f10x_tim.c ****   {
2819:../STM32F10x_StdPeriph_Lib_V3.5.0/Libraries/STM32F10x_StdPeriph_Driver/src/stm32f10x_tim.c ****     /* Select the Polarity and set the CC3E Bit */
2820:../STM32F10x_StdPeriph_Lib_V3.5.0/Libraries/STM32F10x_StdPeriph_Driver/src/stm32f10x_tim.c ****     tmpccer &= (uint16_t)~((uint16_t)(TIM_CCER_CC3P | TIM_CCER_CC3NP));
 6074              		.loc 1 2820 0
 6075 00a8 FB8A     		ldrh	r3, [r7, #22]	@ movhi
 6076 00aa 23F42063 		bic	r3, r3, #2560
 6077 00ae FB82     		strh	r3, [r7, #22]	@ movhi
2821:../STM32F10x_StdPeriph_Lib_V3.5.0/Libraries/STM32F10x_StdPeriph_Driver/src/stm32f10x_tim.c ****     tmpccer |= (uint16_t)(TIM_ICPolarity | (uint16_t)TIM_CCER_CC3E);
 6078              		.loc 1 2821 0
 6079 00b0 7A89     		ldrh	r2, [r7, #10]	@ movhi
 6080 00b2 FB8A     		ldrh	r3, [r7, #22]	@ movhi
 6081 00b4 1343     		orrs	r3, r3, r2
 6082 00b6 9BB2     		uxth	r3, r3
 6083 00b8 43F48073 		orr	r3, r3, #256
 6084 00bc FB82     		strh	r3, [r7, #22]	@ movhi
 6085              	.L194:
2822:../STM32F10x_StdPeriph_Lib_V3.5.0/Libraries/STM32F10x_StdPeriph_Driver/src/stm32f10x_tim.c ****   }
2823:../STM32F10x_StdPeriph_Lib_V3.5.0/Libraries/STM32F10x_StdPeriph_Driver/src/stm32f10x_tim.c ****   
2824:../STM32F10x_StdPeriph_Lib_V3.5.0/Libraries/STM32F10x_StdPeriph_Driver/src/stm32f10x_tim.c ****   /* Write to TIMx CCMR2 and CCER registers */
2825:../STM32F10x_StdPeriph_Lib_V3.5.0/Libraries/STM32F10x_StdPeriph_Driver/src/stm32f10x_tim.c ****   TIMx->CCMR2 = tmpccmr2;
 6086              		.loc 1 2825 0
 6087 00be FB68     		ldr	r3, [r7, #12]
 6088 00c0 BA8A     		ldrh	r2, [r7, #20]	@ movhi
 6089 00c2 9A83     		strh	r2, [r3, #28]	@ movhi
2826:../STM32F10x_StdPeriph_Lib_V3.5.0/Libraries/STM32F10x_StdPeriph_Driver/src/stm32f10x_tim.c ****   TIMx->CCER = tmpccer;
 6090              		.loc 1 2826 0
 6091 00c4 FB68     		ldr	r3, [r7, #12]
 6092 00c6 FA8A     		ldrh	r2, [r7, #22]	@ movhi
 6093 00c8 1A84     		strh	r2, [r3, #32]	@ movhi
2827:../STM32F10x_StdPeriph_Lib_V3.5.0/Libraries/STM32F10x_StdPeriph_Driver/src/stm32f10x_tim.c **** }
 6094              		.loc 1 2827 0
 6095 00ca 07F11C07 		add	r7, r7, #28
 6096 00ce BD46     		mov	sp, r7
 6097 00d0 80BC     		pop	{r7}
 6098 00d2 7047     		bx	lr
 6099              	.L196:
 6100              		.align	2
 6101              	.L195:
 6102 00d4 002C0140 		.word	1073818624
 6103 00d8 00340140 		.word	1073820672
 6104 00dc 00040040 		.word	1073742848
 6105 00e0 00080040 		.word	1073743872
 6106 00e4 000C0040 		.word	1073744896
 6107              		.cfi_endproc
 6108              	.LFE118:
 6110              		.section	.text.TI4_Config,"ax",%progbits
 6111              		.align	2
 6112              		.thumb
 6113              		.thumb_func
 6115              	TI4_Config:
 6116              	.LFB119:
2828:../STM32F10x_StdPeriph_Lib_V3.5.0/Libraries/STM32F10x_StdPeriph_Driver/src/stm32f10x_tim.c **** 
2829:../STM32F10x_StdPeriph_Lib_V3.5.0/Libraries/STM32F10x_StdPeriph_Driver/src/stm32f10x_tim.c **** /**
2830:../STM32F10x_StdPeriph_Lib_V3.5.0/Libraries/STM32F10x_StdPeriph_Driver/src/stm32f10x_tim.c ****   * @brief  Configure the TI4 as Input.
2831:../STM32F10x_StdPeriph_Lib_V3.5.0/Libraries/STM32F10x_StdPeriph_Driver/src/stm32f10x_tim.c ****   * @param  TIMx: where x can be 1, 2, 3, 4, 5 or 8 to select the TIM peripheral.
2832:../STM32F10x_StdPeriph_Lib_V3.5.0/Libraries/STM32F10x_StdPeriph_Driver/src/stm32f10x_tim.c ****   * @param  TIM_ICPolarity : The Input Polarity.
2833:../STM32F10x_StdPeriph_Lib_V3.5.0/Libraries/STM32F10x_StdPeriph_Driver/src/stm32f10x_tim.c ****   *   This parameter can be one of the following values:
2834:../STM32F10x_StdPeriph_Lib_V3.5.0/Libraries/STM32F10x_StdPeriph_Driver/src/stm32f10x_tim.c ****   *     @arg TIM_ICPolarity_Rising
2835:../STM32F10x_StdPeriph_Lib_V3.5.0/Libraries/STM32F10x_StdPeriph_Driver/src/stm32f10x_tim.c ****   *     @arg TIM_ICPolarity_Falling
2836:../STM32F10x_StdPeriph_Lib_V3.5.0/Libraries/STM32F10x_StdPeriph_Driver/src/stm32f10x_tim.c ****   * @param  TIM_ICSelection: specifies the input to be used.
2837:../STM32F10x_StdPeriph_Lib_V3.5.0/Libraries/STM32F10x_StdPeriph_Driver/src/stm32f10x_tim.c ****   *   This parameter can be one of the following values:
2838:../STM32F10x_StdPeriph_Lib_V3.5.0/Libraries/STM32F10x_StdPeriph_Driver/src/stm32f10x_tim.c ****   *     @arg TIM_ICSelection_DirectTI: TIM Input 4 is selected to be connected to IC4.
2839:../STM32F10x_StdPeriph_Lib_V3.5.0/Libraries/STM32F10x_StdPeriph_Driver/src/stm32f10x_tim.c ****   *     @arg TIM_ICSelection_IndirectTI: TIM Input 4 is selected to be connected to IC3.
2840:../STM32F10x_StdPeriph_Lib_V3.5.0/Libraries/STM32F10x_StdPeriph_Driver/src/stm32f10x_tim.c ****   *     @arg TIM_ICSelection_TRC: TIM Input 4 is selected to be connected to TRC.
2841:../STM32F10x_StdPeriph_Lib_V3.5.0/Libraries/STM32F10x_StdPeriph_Driver/src/stm32f10x_tim.c ****   * @param  TIM_ICFilter: Specifies the Input Capture Filter.
2842:../STM32F10x_StdPeriph_Lib_V3.5.0/Libraries/STM32F10x_StdPeriph_Driver/src/stm32f10x_tim.c ****   *   This parameter must be a value between 0x00 and 0x0F.
2843:../STM32F10x_StdPeriph_Lib_V3.5.0/Libraries/STM32F10x_StdPeriph_Driver/src/stm32f10x_tim.c ****   * @retval None
2844:../STM32F10x_StdPeriph_Lib_V3.5.0/Libraries/STM32F10x_StdPeriph_Driver/src/stm32f10x_tim.c ****   */
2845:../STM32F10x_StdPeriph_Lib_V3.5.0/Libraries/STM32F10x_StdPeriph_Driver/src/stm32f10x_tim.c **** static void TI4_Config(TIM_TypeDef* TIMx, uint16_t TIM_ICPolarity, uint16_t TIM_ICSelection,
2846:../STM32F10x_StdPeriph_Lib_V3.5.0/Libraries/STM32F10x_StdPeriph_Driver/src/stm32f10x_tim.c ****                        uint16_t TIM_ICFilter)
2847:../STM32F10x_StdPeriph_Lib_V3.5.0/Libraries/STM32F10x_StdPeriph_Driver/src/stm32f10x_tim.c **** {
 6117              		.loc 1 2847 0
 6118              		.cfi_startproc
 6119              		@ args = 0, pretend = 0, frame = 24
 6120              		@ frame_needed = 1, uses_anonymous_args = 0
 6121              		@ link register save eliminated.
 6122 0000 80B4     		push	{r7}
 6123              	.LCFI270:
 6124              		.cfi_def_cfa_offset 4
 6125              		.cfi_offset 7, -4
 6126 0002 87B0     		sub	sp, sp, #28
 6127              	.LCFI271:
 6128              		.cfi_def_cfa_offset 32
 6129 0004 00AF     		add	r7, sp, #0
 6130              	.LCFI272:
 6131              		.cfi_def_cfa_register 7
 6132 0006 F860     		str	r0, [r7, #12]
 6133 0008 7981     		strh	r1, [r7, #10]	@ movhi
 6134 000a 3A81     		strh	r2, [r7, #8]	@ movhi
 6135 000c FB80     		strh	r3, [r7, #6]	@ movhi
2848:../STM32F10x_StdPeriph_Lib_V3.5.0/Libraries/STM32F10x_StdPeriph_Driver/src/stm32f10x_tim.c ****   uint16_t tmpccmr2 = 0, tmpccer = 0, tmp = 0;
 6136              		.loc 1 2848 0
 6137 000e 4FF00003 		mov	r3, #0
 6138 0012 BB82     		strh	r3, [r7, #20]	@ movhi
 6139 0014 4FF00003 		mov	r3, #0
 6140 0018 FB82     		strh	r3, [r7, #22]	@ movhi
 6141 001a 4FF00003 		mov	r3, #0
 6142 001e 7B82     		strh	r3, [r7, #18]	@ movhi
2849:../STM32F10x_StdPeriph_Lib_V3.5.0/Libraries/STM32F10x_StdPeriph_Driver/src/stm32f10x_tim.c **** 
2850:../STM32F10x_StdPeriph_Lib_V3.5.0/Libraries/STM32F10x_StdPeriph_Driver/src/stm32f10x_tim.c ****    /* Disable the Channel 4: Reset the CC4E Bit */
2851:../STM32F10x_StdPeriph_Lib_V3.5.0/Libraries/STM32F10x_StdPeriph_Driver/src/stm32f10x_tim.c ****   TIMx->CCER &= (uint16_t)~((uint16_t)TIM_CCER_CC4E);
 6143              		.loc 1 2851 0
 6144 0020 FB68     		ldr	r3, [r7, #12]
 6145 0022 1B8C     		ldrh	r3, [r3, #32]	@ movhi
 6146 0024 9BB2     		uxth	r3, r3
 6147 0026 23F48053 		bic	r3, r3, #4096
 6148 002a 9AB2     		uxth	r2, r3
 6149 002c FB68     		ldr	r3, [r7, #12]
 6150 002e 1A84     		strh	r2, [r3, #32]	@ movhi
2852:../STM32F10x_StdPeriph_Lib_V3.5.0/Libraries/STM32F10x_StdPeriph_Driver/src/stm32f10x_tim.c ****   tmpccmr2 = TIMx->CCMR2;
 6151              		.loc 1 2852 0
 6152 0030 FB68     		ldr	r3, [r7, #12]
 6153 0032 9B8B     		ldrh	r3, [r3, #28]	@ movhi
 6154 0034 BB82     		strh	r3, [r7, #20]	@ movhi
2853:../STM32F10x_StdPeriph_Lib_V3.5.0/Libraries/STM32F10x_StdPeriph_Driver/src/stm32f10x_tim.c ****   tmpccer = TIMx->CCER;
 6155              		.loc 1 2853 0
 6156 0036 FB68     		ldr	r3, [r7, #12]
 6157 0038 1B8C     		ldrh	r3, [r3, #32]	@ movhi
 6158 003a FB82     		strh	r3, [r7, #22]	@ movhi
2854:../STM32F10x_StdPeriph_Lib_V3.5.0/Libraries/STM32F10x_StdPeriph_Driver/src/stm32f10x_tim.c ****   tmp = (uint16_t)(TIM_ICPolarity << 12);
 6159              		.loc 1 2854 0
 6160 003c 7B89     		ldrh	r3, [r7, #10]	@ movhi
 6161 003e 4FEA0333 		lsl	r3, r3, #12
 6162 0042 7B82     		strh	r3, [r7, #18]	@ movhi
2855:../STM32F10x_StdPeriph_Lib_V3.5.0/Libraries/STM32F10x_StdPeriph_Driver/src/stm32f10x_tim.c ****   /* Select the Input and set the filter */
2856:../STM32F10x_StdPeriph_Lib_V3.5.0/Libraries/STM32F10x_StdPeriph_Driver/src/stm32f10x_tim.c ****   tmpccmr2 &= (uint16_t)((uint16_t)(~(uint16_t)TIM_CCMR2_CC4S) & ((uint16_t)~((uint16_t)TIM_CCMR2_I
 6163              		.loc 1 2856 0
 6164 0044 BB8A     		ldrh	r3, [r7, #20]	@ movhi
 6165 0046 23F44073 		bic	r3, r3, #768
 6166 004a 4FEA0353 		lsl	r3, r3, #20
 6167 004e 4FEA1353 		lsr	r3, r3, #20
 6168 0052 BB82     		strh	r3, [r7, #20]	@ movhi
2857:../STM32F10x_StdPeriph_Lib_V3.5.0/Libraries/STM32F10x_StdPeriph_Driver/src/stm32f10x_tim.c ****   tmpccmr2 |= (uint16_t)(TIM_ICSelection << 8);
 6169              		.loc 1 2857 0
 6170 0054 3B89     		ldrh	r3, [r7, #8]	@ movhi
 6171 0056 4FEA0323 		lsl	r3, r3, #8
 6172 005a 9AB2     		uxth	r2, r3
 6173 005c BB8A     		ldrh	r3, [r7, #20]	@ movhi
 6174 005e 1343     		orrs	r3, r3, r2
 6175 0060 BB82     		strh	r3, [r7, #20]	@ movhi
2858:../STM32F10x_StdPeriph_Lib_V3.5.0/Libraries/STM32F10x_StdPeriph_Driver/src/stm32f10x_tim.c ****   tmpccmr2 |= (uint16_t)(TIM_ICFilter << 12);
 6176              		.loc 1 2858 0
 6177 0062 FB88     		ldrh	r3, [r7, #6]	@ movhi
 6178 0064 4FEA0333 		lsl	r3, r3, #12
 6179 0068 9AB2     		uxth	r2, r3
 6180 006a BB8A     		ldrh	r3, [r7, #20]	@ movhi
 6181 006c 1343     		orrs	r3, r3, r2
 6182 006e BB82     		strh	r3, [r7, #20]	@ movhi
2859:../STM32F10x_StdPeriph_Lib_V3.5.0/Libraries/STM32F10x_StdPeriph_Driver/src/stm32f10x_tim.c ****   
2860:../STM32F10x_StdPeriph_Lib_V3.5.0/Libraries/STM32F10x_StdPeriph_Driver/src/stm32f10x_tim.c ****   if((TIMx == TIM1) || (TIMx == TIM8) || (TIMx == TIM2) || (TIMx == TIM3) ||
 6183              		.loc 1 2860 0
 6184 0070 FA68     		ldr	r2, [r7, #12]
 6185 0072 1E4B     		ldr	r3, .L201
 6186 0074 9A42     		cmp	r2, r3
 6187 0076 13D0     		beq	.L198
 6188              		.loc 1 2860 0 is_stmt 0 discriminator 1
 6189 0078 FA68     		ldr	r2, [r7, #12]
 6190 007a 1D4B     		ldr	r3, .L201+4
 6191 007c 9A42     		cmp	r2, r3
 6192 007e 0FD0     		beq	.L198
 6193 0080 FB68     		ldr	r3, [r7, #12]
 6194 0082 B3F1804F 		cmp	r3, #1073741824
 6195 0086 0BD0     		beq	.L198
 6196 0088 FA68     		ldr	r2, [r7, #12]
 6197 008a 1A4B     		ldr	r3, .L201+8
 6198 008c 9A42     		cmp	r2, r3
 6199 008e 07D0     		beq	.L198
 6200 0090 FA68     		ldr	r2, [r7, #12]
 6201 0092 194B     		ldr	r3, .L201+12
 6202 0094 9A42     		cmp	r2, r3
 6203 0096 03D0     		beq	.L198
2861:../STM32F10x_StdPeriph_Lib_V3.5.0/Libraries/STM32F10x_StdPeriph_Driver/src/stm32f10x_tim.c ****      (TIMx == TIM4) ||(TIMx == TIM5))
 6204              		.loc 1 2861 0 is_stmt 1
 6205 0098 FA68     		ldr	r2, [r7, #12]
 6206 009a 184B     		ldr	r3, .L201+16
 6207 009c 9A42     		cmp	r2, r3
 6208 009e 0BD1     		bne	.L199
 6209              	.L198:
2862:../STM32F10x_StdPeriph_Lib_V3.5.0/Libraries/STM32F10x_StdPeriph_Driver/src/stm32f10x_tim.c ****   {
2863:../STM32F10x_StdPeriph_Lib_V3.5.0/Libraries/STM32F10x_StdPeriph_Driver/src/stm32f10x_tim.c ****     /* Select the Polarity and set the CC4E Bit */
2864:../STM32F10x_StdPeriph_Lib_V3.5.0/Libraries/STM32F10x_StdPeriph_Driver/src/stm32f10x_tim.c ****     tmpccer &= (uint16_t)~((uint16_t)(TIM_CCER_CC4P));
 6210              		.loc 1 2864 0
 6211 00a0 FB8A     		ldrh	r3, [r7, #22]	@ movhi
 6212 00a2 23F40053 		bic	r3, r3, #8192
 6213 00a6 FB82     		strh	r3, [r7, #22]	@ movhi
2865:../STM32F10x_StdPeriph_Lib_V3.5.0/Libraries/STM32F10x_StdPeriph_Driver/src/stm32f10x_tim.c ****     tmpccer |= (uint16_t)(tmp | (uint16_t)TIM_CCER_CC4E);
 6214              		.loc 1 2865 0
 6215 00a8 7A8A     		ldrh	r2, [r7, #18]	@ movhi
 6216 00aa FB8A     		ldrh	r3, [r7, #22]	@ movhi
 6217 00ac 1343     		orrs	r3, r3, r2
 6218 00ae 9BB2     		uxth	r3, r3
 6219 00b0 43F48053 		orr	r3, r3, #4096
 6220 00b4 FB82     		strh	r3, [r7, #22]	@ movhi
 6221 00b6 0EE0     		b	.L200
 6222              	.L199:
2866:../STM32F10x_StdPeriph_Lib_V3.5.0/Libraries/STM32F10x_StdPeriph_Driver/src/stm32f10x_tim.c ****   }
2867:../STM32F10x_StdPeriph_Lib_V3.5.0/Libraries/STM32F10x_StdPeriph_Driver/src/stm32f10x_tim.c ****   else
2868:../STM32F10x_StdPeriph_Lib_V3.5.0/Libraries/STM32F10x_StdPeriph_Driver/src/stm32f10x_tim.c ****   {
2869:../STM32F10x_StdPeriph_Lib_V3.5.0/Libraries/STM32F10x_StdPeriph_Driver/src/stm32f10x_tim.c ****     /* Select the Polarity and set the CC4E Bit */
2870:../STM32F10x_StdPeriph_Lib_V3.5.0/Libraries/STM32F10x_StdPeriph_Driver/src/stm32f10x_tim.c ****     tmpccer &= (uint16_t)~((uint16_t)(TIM_CCER_CC3P | TIM_CCER_CC4NP));
 6223              		.loc 1 2870 0
 6224 00b8 FB8A     		ldrh	r3, [r7, #22]	@ movhi
 6225 00ba 23F40073 		bic	r3, r3, #512
 6226 00be 4FEA4343 		lsl	r3, r3, #17
 6227 00c2 4FEA5343 		lsr	r3, r3, #17
 6228 00c6 FB82     		strh	r3, [r7, #22]	@ movhi
2871:../STM32F10x_StdPeriph_Lib_V3.5.0/Libraries/STM32F10x_StdPeriph_Driver/src/stm32f10x_tim.c ****     tmpccer |= (uint16_t)(TIM_ICPolarity | (uint16_t)TIM_CCER_CC4E);
 6229              		.loc 1 2871 0
 6230 00c8 7A89     		ldrh	r2, [r7, #10]	@ movhi
 6231 00ca FB8A     		ldrh	r3, [r7, #22]	@ movhi
 6232 00cc 1343     		orrs	r3, r3, r2
 6233 00ce 9BB2     		uxth	r3, r3
 6234 00d0 43F48053 		orr	r3, r3, #4096
 6235 00d4 FB82     		strh	r3, [r7, #22]	@ movhi
 6236              	.L200:
2872:../STM32F10x_StdPeriph_Lib_V3.5.0/Libraries/STM32F10x_StdPeriph_Driver/src/stm32f10x_tim.c ****   }
2873:../STM32F10x_StdPeriph_Lib_V3.5.0/Libraries/STM32F10x_StdPeriph_Driver/src/stm32f10x_tim.c ****   /* Write to TIMx CCMR2 and CCER registers */
2874:../STM32F10x_StdPeriph_Lib_V3.5.0/Libraries/STM32F10x_StdPeriph_Driver/src/stm32f10x_tim.c ****   TIMx->CCMR2 = tmpccmr2;
 6237              		.loc 1 2874 0
 6238 00d6 FB68     		ldr	r3, [r7, #12]
 6239 00d8 BA8A     		ldrh	r2, [r7, #20]	@ movhi
 6240 00da 9A83     		strh	r2, [r3, #28]	@ movhi
2875:../STM32F10x_StdPeriph_Lib_V3.5.0/Libraries/STM32F10x_StdPeriph_Driver/src/stm32f10x_tim.c ****   TIMx->CCER = tmpccer;
 6241              		.loc 1 2875 0
 6242 00dc FB68     		ldr	r3, [r7, #12]
 6243 00de FA8A     		ldrh	r2, [r7, #22]	@ movhi
 6244 00e0 1A84     		strh	r2, [r3, #32]	@ movhi
2876:../STM32F10x_StdPeriph_Lib_V3.5.0/Libraries/STM32F10x_StdPeriph_Driver/src/stm32f10x_tim.c **** }
 6245              		.loc 1 2876 0
 6246 00e2 07F11C07 		add	r7, r7, #28
 6247 00e6 BD46     		mov	sp, r7
 6248 00e8 80BC     		pop	{r7}
 6249 00ea 7047     		bx	lr
 6250              	.L202:
 6251              		.align	2
 6252              	.L201:
 6253 00ec 002C0140 		.word	1073818624
 6254 00f0 00340140 		.word	1073820672
 6255 00f4 00040040 		.word	1073742848
 6256 00f8 00080040 		.word	1073743872
 6257 00fc 000C0040 		.word	1073744896
 6258              		.cfi_endproc
 6259              	.LFE119:
 6261              		.text
 6262              	.Letext0:
 6263              		.file 2 "/home/dragon/CodeSourcery/Sourcery_CodeBench_Lite_for_ARM_EABI/bin/../lib/gcc/arm-none-ea
 6264              		.file 3 "/home/dragon/workspace/STM32F103C8T6_LibV3.5/STM32F10x_StdPeriph_Lib_V3.5.0/Libraries/CMS
 6265              		.file 4 "/home/dragon/workspace/STM32F103C8T6_LibV3.5/STM32F10x_StdPeriph_Lib_V3.5.0/Libraries/STM
 6266              		.file 5 "/home/dragon/workspace/STM32F103C8T6_LibV3.5/STM32F10x_StdPeriph_Lib_V3.5.0/Libraries/CMS
DEFINED SYMBOLS
                            *ABS*:00000000 stm32f10x_tim.c
     /tmp/ccREfF7N.s:19     .text.TIM_DeInit:00000000 $t
     /tmp/ccREfF7N.s:24     .text.TIM_DeInit:00000000 TIM_DeInit
     /tmp/ccREfF7N.s:303    .text.TIM_DeInit:00000250 $d
     /tmp/ccREfF7N.s:323    .text.TIM_TimeBaseInit:00000000 $t
     /tmp/ccREfF7N.s:328    .text.TIM_TimeBaseInit:00000000 TIM_TimeBaseInit
     /tmp/ccREfF7N.s:469    .text.TIM_TimeBaseInit:000000d4 $d
     /tmp/ccREfF7N.s:483    .text.TIM_OC1Init:00000000 $t
     /tmp/ccREfF7N.s:488    .text.TIM_OC1Init:00000000 TIM_OC1Init
     /tmp/ccREfF7N.s:654    .text.TIM_OC1Init:00000108 $d
     /tmp/ccREfF7N.s:663    .text.TIM_OC2Init:00000000 $t
     /tmp/ccREfF7N.s:668    .text.TIM_OC2Init:00000000 TIM_OC2Init
     /tmp/ccREfF7N.s:835    .text.TIM_OC2Init:0000011c $d
     /tmp/ccREfF7N.s:841    .text.TIM_OC3Init:00000000 $t
     /tmp/ccREfF7N.s:846    .text.TIM_OC3Init:00000000 TIM_OC3Init
     /tmp/ccREfF7N.s:1011   .text.TIM_OC3Init:00000114 $d
     /tmp/ccREfF7N.s:1017   .text.TIM_OC4Init:00000000 $t
     /tmp/ccREfF7N.s:1022   .text.TIM_OC4Init:00000000 TIM_OC4Init
     /tmp/ccREfF7N.s:1153   .text.TIM_OC4Init:000000d4 $d
     /tmp/ccREfF7N.s:1159   .text.TIM_ICInit:00000000 $t
     /tmp/ccREfF7N.s:1164   .text.TIM_ICInit:00000000 TIM_ICInit
     /tmp/ccREfF7N.s:5686   .text.TI1_Config:00000000 TI1_Config
     /tmp/ccREfF7N.s:4992   .text.TIM_SetIC1Prescaler:00000000 TIM_SetIC1Prescaler
     /tmp/ccREfF7N.s:5823   .text.TI2_Config:00000000 TI2_Config
     /tmp/ccREfF7N.s:5043   .text.TIM_SetIC2Prescaler:00000000 TIM_SetIC2Prescaler
     /tmp/ccREfF7N.s:5972   .text.TI3_Config:00000000 TI3_Config
     /tmp/ccREfF7N.s:5096   .text.TIM_SetIC3Prescaler:00000000 TIM_SetIC3Prescaler
     /tmp/ccREfF7N.s:6115   .text.TI4_Config:00000000 TI4_Config
     /tmp/ccREfF7N.s:5147   .text.TIM_SetIC4Prescaler:00000000 TIM_SetIC4Prescaler
     /tmp/ccREfF7N.s:1289   .text.TIM_PWMIConfig:00000000 $t
     /tmp/ccREfF7N.s:1294   .text.TIM_PWMIConfig:00000000 TIM_PWMIConfig
     /tmp/ccREfF7N.s:1423   .text.TIM_BDTRConfig:00000000 $t
     /tmp/ccREfF7N.s:1428   .text.TIM_BDTRConfig:00000000 TIM_BDTRConfig
     /tmp/ccREfF7N.s:1495   .text.TIM_TimeBaseStructInit:00000000 $t
     /tmp/ccREfF7N.s:1500   .text.TIM_TimeBaseStructInit:00000000 TIM_TimeBaseStructInit
     /tmp/ccREfF7N.s:1547   .text.TIM_OCStructInit:00000000 $t
     /tmp/ccREfF7N.s:1552   .text.TIM_OCStructInit:00000000 TIM_OCStructInit
     /tmp/ccREfF7N.s:1611   .text.TIM_ICStructInit:00000000 $t
     /tmp/ccREfF7N.s:1616   .text.TIM_ICStructInit:00000000 TIM_ICStructInit
     /tmp/ccREfF7N.s:1663   .text.TIM_BDTRStructInit:00000000 $t
     /tmp/ccREfF7N.s:1668   .text.TIM_BDTRStructInit:00000000 TIM_BDTRStructInit
     /tmp/ccREfF7N.s:1723   .text.TIM_Cmd:00000000 $t
     /tmp/ccREfF7N.s:1728   .text.TIM_Cmd:00000000 TIM_Cmd
     /tmp/ccREfF7N.s:1780   .text.TIM_CtrlPWMOutputs:00000000 $t
     /tmp/ccREfF7N.s:1785   .text.TIM_CtrlPWMOutputs:00000000 TIM_CtrlPWMOutputs
     /tmp/ccREfF7N.s:1839   .text.TIM_ITConfig:00000000 $t
     /tmp/ccREfF7N.s:1844   .text.TIM_ITConfig:00000000 TIM_ITConfig
     /tmp/ccREfF7N.s:1902   .text.TIM_GenerateEvent:00000000 $t
     /tmp/ccREfF7N.s:1907   .text.TIM_GenerateEvent:00000000 TIM_GenerateEvent
     /tmp/ccREfF7N.s:1940   .text.TIM_DMAConfig:00000000 $t
     /tmp/ccREfF7N.s:1945   .text.TIM_DMAConfig:00000000 TIM_DMAConfig
     /tmp/ccREfF7N.s:1983   .text.TIM_DMACmd:00000000 $t
     /tmp/ccREfF7N.s:1988   .text.TIM_DMACmd:00000000 TIM_DMACmd
     /tmp/ccREfF7N.s:2046   .text.TIM_InternalClockConfig:00000000 $t
     /tmp/ccREfF7N.s:2051   .text.TIM_InternalClockConfig:00000000 TIM_InternalClockConfig
     /tmp/ccREfF7N.s:2086   .text.TIM_ITRxExternalClockConfig:00000000 $t
     /tmp/ccREfF7N.s:2091   .text.TIM_ITRxExternalClockConfig:00000000 TIM_ITRxExternalClockConfig
     /tmp/ccREfF7N.s:2481   .text.TIM_SelectInputTrigger:00000000 TIM_SelectInputTrigger
     /tmp/ccREfF7N.s:2132   .text.TIM_TIxExternalClockConfig:00000000 $t
     /tmp/ccREfF7N.s:2137   .text.TIM_TIxExternalClockConfig:00000000 TIM_TIxExternalClockConfig
     /tmp/ccREfF7N.s:2200   .text.TIM_ETRClockMode1Config:00000000 $t
     /tmp/ccREfF7N.s:2205   .text.TIM_ETRClockMode1Config:00000000 TIM_ETRClockMode1Config
     /tmp/ccREfF7N.s:2320   .text.TIM_ETRConfig:00000000 TIM_ETRConfig
     /tmp/ccREfF7N.s:2267   .text.TIM_ETRClockMode2Config:00000000 $t
     /tmp/ccREfF7N.s:2272   .text.TIM_ETRClockMode2Config:00000000 TIM_ETRClockMode2Config
     /tmp/ccREfF7N.s:2315   .text.TIM_ETRConfig:00000000 $t
     /tmp/ccREfF7N.s:2378   .text.TIM_PrescalerConfig:00000000 $t
     /tmp/ccREfF7N.s:2383   .text.TIM_PrescalerConfig:00000000 TIM_PrescalerConfig
     /tmp/ccREfF7N.s:2422   .text.TIM_CounterModeConfig:00000000 $t
     /tmp/ccREfF7N.s:2427   .text.TIM_CounterModeConfig:00000000 TIM_CounterModeConfig
     /tmp/ccREfF7N.s:2476   .text.TIM_SelectInputTrigger:00000000 $t
     /tmp/ccREfF7N.s:2530   .text.TIM_EncoderInterfaceConfig:00000000 $t
     /tmp/ccREfF7N.s:2535   .text.TIM_EncoderInterfaceConfig:00000000 TIM_EncoderInterfaceConfig
     /tmp/ccREfF7N.s:2631   .text.TIM_ForcedOC1Config:00000000 $t
     /tmp/ccREfF7N.s:2636   .text.TIM_ForcedOC1Config:00000000 TIM_ForcedOC1Config
     /tmp/ccREfF7N.s:2685   .text.TIM_ForcedOC2Config:00000000 $t
     /tmp/ccREfF7N.s:2690   .text.TIM_ForcedOC2Config:00000000 TIM_ForcedOC2Config
     /tmp/ccREfF7N.s:2741   .text.TIM_ForcedOC3Config:00000000 $t
     /tmp/ccREfF7N.s:2746   .text.TIM_ForcedOC3Config:00000000 TIM_ForcedOC3Config
     /tmp/ccREfF7N.s:2795   .text.TIM_ForcedOC4Config:00000000 $t
     /tmp/ccREfF7N.s:2800   .text.TIM_ForcedOC4Config:00000000 TIM_ForcedOC4Config
     /tmp/ccREfF7N.s:2851   .text.TIM_ARRPreloadConfig:00000000 $t
     /tmp/ccREfF7N.s:2856   .text.TIM_ARRPreloadConfig:00000000 TIM_ARRPreloadConfig
     /tmp/ccREfF7N.s:2908   .text.TIM_SelectCOM:00000000 $t
     /tmp/ccREfF7N.s:2913   .text.TIM_SelectCOM:00000000 TIM_SelectCOM
     /tmp/ccREfF7N.s:2965   .text.TIM_SelectCCDMA:00000000 $t
     /tmp/ccREfF7N.s:2970   .text.TIM_SelectCCDMA:00000000 TIM_SelectCCDMA
     /tmp/ccREfF7N.s:3022   .text.TIM_CCPreloadControl:00000000 $t
     /tmp/ccREfF7N.s:3027   .text.TIM_CCPreloadControl:00000000 TIM_CCPreloadControl
     /tmp/ccREfF7N.s:3079   .text.TIM_OC1PreloadConfig:00000000 $t
     /tmp/ccREfF7N.s:3084   .text.TIM_OC1PreloadConfig:00000000 TIM_OC1PreloadConfig
     /tmp/ccREfF7N.s:3133   .text.TIM_OC2PreloadConfig:00000000 $t
     /tmp/ccREfF7N.s:3138   .text.TIM_OC2PreloadConfig:00000000 TIM_OC2PreloadConfig
     /tmp/ccREfF7N.s:3189   .text.TIM_OC3PreloadConfig:00000000 $t
     /tmp/ccREfF7N.s:3194   .text.TIM_OC3PreloadConfig:00000000 TIM_OC3PreloadConfig
     /tmp/ccREfF7N.s:3243   .text.TIM_OC4PreloadConfig:00000000 $t
     /tmp/ccREfF7N.s:3248   .text.TIM_OC4PreloadConfig:00000000 TIM_OC4PreloadConfig
     /tmp/ccREfF7N.s:3299   .text.TIM_OC1FastConfig:00000000 $t
     /tmp/ccREfF7N.s:3304   .text.TIM_OC1FastConfig:00000000 TIM_OC1FastConfig
     /tmp/ccREfF7N.s:3353   .text.TIM_OC2FastConfig:00000000 $t
     /tmp/ccREfF7N.s:3358   .text.TIM_OC2FastConfig:00000000 TIM_OC2FastConfig
     /tmp/ccREfF7N.s:3409   .text.TIM_OC3FastConfig:00000000 $t
     /tmp/ccREfF7N.s:3414   .text.TIM_OC3FastConfig:00000000 TIM_OC3FastConfig
     /tmp/ccREfF7N.s:3463   .text.TIM_OC4FastConfig:00000000 $t
     /tmp/ccREfF7N.s:3468   .text.TIM_OC4FastConfig:00000000 TIM_OC4FastConfig
     /tmp/ccREfF7N.s:3519   .text.TIM_ClearOC1Ref:00000000 $t
     /tmp/ccREfF7N.s:3524   .text.TIM_ClearOC1Ref:00000000 TIM_ClearOC1Ref
     /tmp/ccREfF7N.s:3573   .text.TIM_ClearOC2Ref:00000000 $t
     /tmp/ccREfF7N.s:3578   .text.TIM_ClearOC2Ref:00000000 TIM_ClearOC2Ref
     /tmp/ccREfF7N.s:3630   .text.TIM_ClearOC3Ref:00000000 $t
     /tmp/ccREfF7N.s:3635   .text.TIM_ClearOC3Ref:00000000 TIM_ClearOC3Ref
     /tmp/ccREfF7N.s:3684   .text.TIM_ClearOC4Ref:00000000 $t
     /tmp/ccREfF7N.s:3689   .text.TIM_ClearOC4Ref:00000000 TIM_ClearOC4Ref
     /tmp/ccREfF7N.s:3741   .text.TIM_OC1PolarityConfig:00000000 $t
     /tmp/ccREfF7N.s:3746   .text.TIM_OC1PolarityConfig:00000000 TIM_OC1PolarityConfig
     /tmp/ccREfF7N.s:3795   .text.TIM_OC1NPolarityConfig:00000000 $t
     /tmp/ccREfF7N.s:3800   .text.TIM_OC1NPolarityConfig:00000000 TIM_OC1NPolarityConfig
     /tmp/ccREfF7N.s:3849   .text.TIM_OC2PolarityConfig:00000000 $t
     /tmp/ccREfF7N.s:3854   .text.TIM_OC2PolarityConfig:00000000 TIM_OC2PolarityConfig
     /tmp/ccREfF7N.s:3905   .text.TIM_OC2NPolarityConfig:00000000 $t
     /tmp/ccREfF7N.s:3910   .text.TIM_OC2NPolarityConfig:00000000 TIM_OC2NPolarityConfig
     /tmp/ccREfF7N.s:3961   .text.TIM_OC3PolarityConfig:00000000 $t
     /tmp/ccREfF7N.s:3966   .text.TIM_OC3PolarityConfig:00000000 TIM_OC3PolarityConfig
     /tmp/ccREfF7N.s:4017   .text.TIM_OC3NPolarityConfig:00000000 $t
     /tmp/ccREfF7N.s:4022   .text.TIM_OC3NPolarityConfig:00000000 TIM_OC3NPolarityConfig
     /tmp/ccREfF7N.s:4073   .text.TIM_OC4PolarityConfig:00000000 $t
     /tmp/ccREfF7N.s:4078   .text.TIM_OC4PolarityConfig:00000000 TIM_OC4PolarityConfig
     /tmp/ccREfF7N.s:4129   .text.TIM_CCxCmd:00000000 $t
     /tmp/ccREfF7N.s:4134   .text.TIM_CCxCmd:00000000 TIM_CCxCmd
     /tmp/ccREfF7N.s:4196   .text.TIM_CCxNCmd:00000000 $t
     /tmp/ccREfF7N.s:4201   .text.TIM_CCxNCmd:00000000 TIM_CCxNCmd
     /tmp/ccREfF7N.s:4263   .text.TIM_SelectOCxM:00000000 $t
     /tmp/ccREfF7N.s:4268   .text.TIM_SelectOCxM:00000000 TIM_SelectOCxM
     /tmp/ccREfF7N.s:4384   .text.TIM_UpdateDisableConfig:00000000 $t
     /tmp/ccREfF7N.s:4389   .text.TIM_UpdateDisableConfig:00000000 TIM_UpdateDisableConfig
     /tmp/ccREfF7N.s:4441   .text.TIM_UpdateRequestConfig:00000000 $t
     /tmp/ccREfF7N.s:4446   .text.TIM_UpdateRequestConfig:00000000 TIM_UpdateRequestConfig
     /tmp/ccREfF7N.s:4498   .text.TIM_SelectHallSensor:00000000 $t
     /tmp/ccREfF7N.s:4503   .text.TIM_SelectHallSensor:00000000 TIM_SelectHallSensor
     /tmp/ccREfF7N.s:4555   .text.TIM_SelectOnePulseMode:00000000 $t
     /tmp/ccREfF7N.s:4560   .text.TIM_SelectOnePulseMode:00000000 TIM_SelectOnePulseMode
     /tmp/ccREfF7N.s:4606   .text.TIM_SelectOutputTrigger:00000000 $t
     /tmp/ccREfF7N.s:4611   .text.TIM_SelectOutputTrigger:00000000 TIM_SelectOutputTrigger
     /tmp/ccREfF7N.s:4657   .text.TIM_SelectSlaveMode:00000000 $t
     /tmp/ccREfF7N.s:4662   .text.TIM_SelectSlaveMode:00000000 TIM_SelectSlaveMode
     /tmp/ccREfF7N.s:4708   .text.TIM_SelectMasterSlaveMode:00000000 $t
     /tmp/ccREfF7N.s:4713   .text.TIM_SelectMasterSlaveMode:00000000 TIM_SelectMasterSlaveMode
     /tmp/ccREfF7N.s:4759   .text.TIM_SetCounter:00000000 $t
     /tmp/ccREfF7N.s:4764   .text.TIM_SetCounter:00000000 TIM_SetCounter
     /tmp/ccREfF7N.s:4797   .text.TIM_SetAutoreload:00000000 $t
     /tmp/ccREfF7N.s:4802   .text.TIM_SetAutoreload:00000000 TIM_SetAutoreload
     /tmp/ccREfF7N.s:4835   .text.TIM_SetCompare1:00000000 $t
     /tmp/ccREfF7N.s:4840   .text.TIM_SetCompare1:00000000 TIM_SetCompare1
     /tmp/ccREfF7N.s:4873   .text.TIM_SetCompare2:00000000 $t
     /tmp/ccREfF7N.s:4878   .text.TIM_SetCompare2:00000000 TIM_SetCompare2
     /tmp/ccREfF7N.s:4911   .text.TIM_SetCompare3:00000000 $t
     /tmp/ccREfF7N.s:4916   .text.TIM_SetCompare3:00000000 TIM_SetCompare3
     /tmp/ccREfF7N.s:4949   .text.TIM_SetCompare4:00000000 $t
     /tmp/ccREfF7N.s:4954   .text.TIM_SetCompare4:00000000 TIM_SetCompare4
     /tmp/ccREfF7N.s:4987   .text.TIM_SetIC1Prescaler:00000000 $t
     /tmp/ccREfF7N.s:5038   .text.TIM_SetIC2Prescaler:00000000 $t
     /tmp/ccREfF7N.s:5091   .text.TIM_SetIC3Prescaler:00000000 $t
     /tmp/ccREfF7N.s:5142   .text.TIM_SetIC4Prescaler:00000000 $t
     /tmp/ccREfF7N.s:5195   .text.TIM_SetClockDivision:00000000 $t
     /tmp/ccREfF7N.s:5200   .text.TIM_SetClockDivision:00000000 TIM_SetClockDivision
     /tmp/ccREfF7N.s:5246   .text.TIM_GetCapture1:00000000 $t
     /tmp/ccREfF7N.s:5251   .text.TIM_GetCapture1:00000000 TIM_GetCapture1
     /tmp/ccREfF7N.s:5283   .text.TIM_GetCapture2:00000000 $t
     /tmp/ccREfF7N.s:5288   .text.TIM_GetCapture2:00000000 TIM_GetCapture2
     /tmp/ccREfF7N.s:5320   .text.TIM_GetCapture3:00000000 $t
     /tmp/ccREfF7N.s:5325   .text.TIM_GetCapture3:00000000 TIM_GetCapture3
     /tmp/ccREfF7N.s:5357   .text.TIM_GetCapture4:00000000 $t
     /tmp/ccREfF7N.s:5362   .text.TIM_GetCapture4:00000000 TIM_GetCapture4
     /tmp/ccREfF7N.s:5394   .text.TIM_GetCounter:00000000 $t
     /tmp/ccREfF7N.s:5399   .text.TIM_GetCounter:00000000 TIM_GetCounter
     /tmp/ccREfF7N.s:5431   .text.TIM_GetPrescaler:00000000 $t
     /tmp/ccREfF7N.s:5436   .text.TIM_GetPrescaler:00000000 TIM_GetPrescaler
     /tmp/ccREfF7N.s:5468   .text.TIM_GetFlagStatus:00000000 $t
     /tmp/ccREfF7N.s:5473   .text.TIM_GetFlagStatus:00000000 TIM_GetFlagStatus
     /tmp/ccREfF7N.s:5526   .text.TIM_ClearFlag:00000000 $t
     /tmp/ccREfF7N.s:5531   .text.TIM_ClearFlag:00000000 TIM_ClearFlag
     /tmp/ccREfF7N.s:5566   .text.TIM_GetITStatus:00000000 $t
     /tmp/ccREfF7N.s:5571   .text.TIM_GetITStatus:00000000 TIM_GetITStatus
     /tmp/ccREfF7N.s:5642   .text.TIM_ClearITPendingBit:00000000 $t
     /tmp/ccREfF7N.s:5647   .text.TIM_ClearITPendingBit:00000000 TIM_ClearITPendingBit
     /tmp/ccREfF7N.s:5682   .text.TI1_Config:00000000 $t
     /tmp/ccREfF7N.s:5810   .text.TI1_Config:000000c8 $d
     /tmp/ccREfF7N.s:5819   .text.TI2_Config:00000000 $t
     /tmp/ccREfF7N.s:5959   .text.TI2_Config:000000e4 $d
     /tmp/ccREfF7N.s:5968   .text.TI3_Config:00000000 $t
     /tmp/ccREfF7N.s:6102   .text.TI3_Config:000000d4 $d
     /tmp/ccREfF7N.s:6111   .text.TI4_Config:00000000 $t
     /tmp/ccREfF7N.s:6253   .text.TI4_Config:000000ec $d
                     .debug_frame:00000010 $d
                           .group:00000000 wm4.1.3f1c4c3ecf94fe9b5c343fe975e01068
                           .group:00000000 wm4.stm32f10x.h.51.b859cb68ed44ee02c916b41cb8c68f1c
                           .group:00000000 wm4.core_cm3.h.25.d35e9a9b04ec4aaebae9bf79fff061f9
                           .group:00000000 wm4.stdint.h.10.90b695f550ca6cc3fb08fa83baf01e05
                           .group:00000000 wm4.core_cm3.h.113.b286929a54d33b4c8909a7132437b244
                           .group:00000000 wm4.stm32f10x.h.522.9a9f642c8c562acb4a63ad5d933b7c01
                           .group:00000000 wm4.stm32f10x_adc.h.83.4d35a50d598070ecea6f33bcef02c922
                           .group:00000000 wm4.stm32f10x_bkp.h.25.4622919f1e30efdad5eb44e12edd5513
                           .group:00000000 wm4.stm32f10x_can.h.25.48aab46fcce6d08400bf960b028e4698
                           .group:00000000 wm4.stm32f10x_cec.h.25.8f03450e7bbb704d96e7bc73ec0f66a7
                           .group:00000000 wm4.stm32f10x_dac.h.25.6e7f2924f39c60c10815105b99b8b446
                           .group:00000000 wm4.stm32f10x_dbgmcu.h.25.d3351200fc7f9c8615d1ae81d40db08a
                           .group:00000000 wm4.stm32f10x_dma.h.25.94e36204daa98cae5dcc70a10a9694d5
                           .group:00000000 wm4.stm32f10x_exti.h.25.b9064155c5c006b5154b39788c79001a
                           .group:00000000 wm4.stm32f10x_flash.h.25.4be61fcb02863962a1e006449d310650
                           .group:00000000 wm4.stm32f10x_fsmc.h.25.bca154da2699cdb6024c0c6c4fc5aa89
                           .group:00000000 wm4.stm32f10x_gpio.h.25.80c981af0e637567395034c576cfb3ce
                           .group:00000000 wm4.stm32f10x_i2c.h.25.7b6cbaea24c6f25f538f8516d1814cb2
                           .group:00000000 wm4.stm32f10x_iwdg.h.25.da9374ab9856795610487f312ccf3122
                           .group:00000000 wm4.stm32f10x_pwr.h.25.37ef75009f751ef5fe27910e0bf00a62
                           .group:00000000 wm4.stm32f10x_rcc.h.25.968bcf08d813e68e57c280a4da69fa5a
                           .group:00000000 wm4.stm32f10x_rtc.h.25.361142606ba98ddcd10369f321f6e636
                           .group:00000000 wm4.stm32f10x_sdio.h.25.1fb5280a7690ef99070096bf8c866b3a
                           .group:00000000 wm4.stm32f10x_spi.h.25.68b3d5ccfcf895f9fe505ce20c0c300f
                           .group:00000000 wm4.stm32f10x_usart.h.25.29629c699b65db3f3efd3561f66b0bf6
                           .group:00000000 wm4.stm32f10x_wwdg.h.25.dde12201d86b5aa9ecaafb5eccdc6549
                           .group:00000000 wm4.misc.h.25.068e106f368fa5369a681ef57c106f4b
                           .group:00000000 wm4.stm32f10x.h.8304.f7d8ad90959e99679b3257267c3aadfe
                           .group:00000000 wm4.stm32f10x_tim.h.169.8f8085157e91950a28cd697cc942a58d

UNDEFINED SYMBOLS
RCC_APB2PeriphResetCmd
RCC_APB1PeriphResetCmd
