   1              		.syntax unified
   2              		.cpu cortex-m3
   3              		.fpu softvfp
   4              		.eabi_attribute 20, 1
   5              		.eabi_attribute 21, 1
   6              		.eabi_attribute 23, 3
   7              		.eabi_attribute 24, 1
   8              		.eabi_attribute 25, 1
   9              		.eabi_attribute 26, 1
  10              		.eabi_attribute 30, 6
  11              		.eabi_attribute 34, 1
  12              		.eabi_attribute 18, 4
  13              		.thumb
  14              		.file	"stm32f10x_tim.c"
  15              		.text
  16              	.Ltext0:
  17              		.cfi_sections	.debug_frame
  18              		.section	.text.TIM_DeInit,"ax",%progbits
  19              		.align	2
  20              		.global	TIM_DeInit
  21              		.thumb
  22              		.thumb_func
  24              	TIM_DeInit:
  25              	.LFB29:
  26              		.file 1 "../STM32F10x_StdPeriph_Lib_V3.5.0/Libraries/STM32F10x_StdPeriph_Driver/src/stm32f10x_tim.
   1:../STM32F10x_StdPeriph_Lib_V3.5.0/Libraries/STM32F10x_StdPeriph_Driver/src/stm32f10x_tim.c **** /**
   2:../STM32F10x_StdPeriph_Lib_V3.5.0/Libraries/STM32F10x_StdPeriph_Driver/src/stm32f10x_tim.c ****   ******************************************************************************
   3:../STM32F10x_StdPeriph_Lib_V3.5.0/Libraries/STM32F10x_StdPeriph_Driver/src/stm32f10x_tim.c ****   * @file    stm32f10x_tim.c
   4:../STM32F10x_StdPeriph_Lib_V3.5.0/Libraries/STM32F10x_StdPeriph_Driver/src/stm32f10x_tim.c ****   * @author  MCD Application Team
   5:../STM32F10x_StdPeriph_Lib_V3.5.0/Libraries/STM32F10x_StdPeriph_Driver/src/stm32f10x_tim.c ****   * @version V3.5.0
   6:../STM32F10x_StdPeriph_Lib_V3.5.0/Libraries/STM32F10x_StdPeriph_Driver/src/stm32f10x_tim.c ****   * @date    11-March-2011
   7:../STM32F10x_StdPeriph_Lib_V3.5.0/Libraries/STM32F10x_StdPeriph_Driver/src/stm32f10x_tim.c ****   * @brief   This file provides all the TIM firmware functions.
   8:../STM32F10x_StdPeriph_Lib_V3.5.0/Libraries/STM32F10x_StdPeriph_Driver/src/stm32f10x_tim.c ****   ******************************************************************************
   9:../STM32F10x_StdPeriph_Lib_V3.5.0/Libraries/STM32F10x_StdPeriph_Driver/src/stm32f10x_tim.c ****   * @attention
  10:../STM32F10x_StdPeriph_Lib_V3.5.0/Libraries/STM32F10x_StdPeriph_Driver/src/stm32f10x_tim.c ****   *
  11:../STM32F10x_StdPeriph_Lib_V3.5.0/Libraries/STM32F10x_StdPeriph_Driver/src/stm32f10x_tim.c ****   * THE PRESENT FIRMWARE WHICH IS FOR GUIDANCE ONLY AIMS AT PROVIDING CUSTOMERS
  12:../STM32F10x_StdPeriph_Lib_V3.5.0/Libraries/STM32F10x_StdPeriph_Driver/src/stm32f10x_tim.c ****   * WITH CODING INFORMATION REGARDING THEIR PRODUCTS IN ORDER FOR THEM TO SAVE
  13:../STM32F10x_StdPeriph_Lib_V3.5.0/Libraries/STM32F10x_StdPeriph_Driver/src/stm32f10x_tim.c ****   * TIME. AS A RESULT, STMICROELECTRONICS SHALL NOT BE HELD LIABLE FOR ANY
  14:../STM32F10x_StdPeriph_Lib_V3.5.0/Libraries/STM32F10x_StdPeriph_Driver/src/stm32f10x_tim.c ****   * DIRECT, INDIRECT OR CONSEQUENTIAL DAMAGES WITH RESPECT TO ANY CLAIMS ARISING
  15:../STM32F10x_StdPeriph_Lib_V3.5.0/Libraries/STM32F10x_StdPeriph_Driver/src/stm32f10x_tim.c ****   * FROM THE CONTENT OF SUCH FIRMWARE AND/OR THE USE MADE BY CUSTOMERS OF THE
  16:../STM32F10x_StdPeriph_Lib_V3.5.0/Libraries/STM32F10x_StdPeriph_Driver/src/stm32f10x_tim.c ****   * CODING INFORMATION CONTAINED HEREIN IN CONNECTION WITH THEIR PRODUCTS.
  17:../STM32F10x_StdPeriph_Lib_V3.5.0/Libraries/STM32F10x_StdPeriph_Driver/src/stm32f10x_tim.c ****   *
  18:../STM32F10x_StdPeriph_Lib_V3.5.0/Libraries/STM32F10x_StdPeriph_Driver/src/stm32f10x_tim.c ****   * <h2><center>&copy; COPYRIGHT 2011 STMicroelectronics</center></h2>
  19:../STM32F10x_StdPeriph_Lib_V3.5.0/Libraries/STM32F10x_StdPeriph_Driver/src/stm32f10x_tim.c ****   ******************************************************************************
  20:../STM32F10x_StdPeriph_Lib_V3.5.0/Libraries/STM32F10x_StdPeriph_Driver/src/stm32f10x_tim.c ****   */
  21:../STM32F10x_StdPeriph_Lib_V3.5.0/Libraries/STM32F10x_StdPeriph_Driver/src/stm32f10x_tim.c **** 
  22:../STM32F10x_StdPeriph_Lib_V3.5.0/Libraries/STM32F10x_StdPeriph_Driver/src/stm32f10x_tim.c **** /* Includes ------------------------------------------------------------------*/
  23:../STM32F10x_StdPeriph_Lib_V3.5.0/Libraries/STM32F10x_StdPeriph_Driver/src/stm32f10x_tim.c **** #include "stm32f10x_tim.h"
  24:../STM32F10x_StdPeriph_Lib_V3.5.0/Libraries/STM32F10x_StdPeriph_Driver/src/stm32f10x_tim.c **** #include "stm32f10x_rcc.h"
  25:../STM32F10x_StdPeriph_Lib_V3.5.0/Libraries/STM32F10x_StdPeriph_Driver/src/stm32f10x_tim.c **** 
  26:../STM32F10x_StdPeriph_Lib_V3.5.0/Libraries/STM32F10x_StdPeriph_Driver/src/stm32f10x_tim.c **** /** @addtogroup STM32F10x_StdPeriph_Driver
  27:../STM32F10x_StdPeriph_Lib_V3.5.0/Libraries/STM32F10x_StdPeriph_Driver/src/stm32f10x_tim.c ****   * @{
  28:../STM32F10x_StdPeriph_Lib_V3.5.0/Libraries/STM32F10x_StdPeriph_Driver/src/stm32f10x_tim.c ****   */
  29:../STM32F10x_StdPeriph_Lib_V3.5.0/Libraries/STM32F10x_StdPeriph_Driver/src/stm32f10x_tim.c **** 
  30:../STM32F10x_StdPeriph_Lib_V3.5.0/Libraries/STM32F10x_StdPeriph_Driver/src/stm32f10x_tim.c **** /** @defgroup TIM 
  31:../STM32F10x_StdPeriph_Lib_V3.5.0/Libraries/STM32F10x_StdPeriph_Driver/src/stm32f10x_tim.c ****   * @brief TIM driver modules
  32:../STM32F10x_StdPeriph_Lib_V3.5.0/Libraries/STM32F10x_StdPeriph_Driver/src/stm32f10x_tim.c ****   * @{
  33:../STM32F10x_StdPeriph_Lib_V3.5.0/Libraries/STM32F10x_StdPeriph_Driver/src/stm32f10x_tim.c ****   */
  34:../STM32F10x_StdPeriph_Lib_V3.5.0/Libraries/STM32F10x_StdPeriph_Driver/src/stm32f10x_tim.c **** 
  35:../STM32F10x_StdPeriph_Lib_V3.5.0/Libraries/STM32F10x_StdPeriph_Driver/src/stm32f10x_tim.c **** /** @defgroup TIM_Private_TypesDefinitions
  36:../STM32F10x_StdPeriph_Lib_V3.5.0/Libraries/STM32F10x_StdPeriph_Driver/src/stm32f10x_tim.c ****   * @{
  37:../STM32F10x_StdPeriph_Lib_V3.5.0/Libraries/STM32F10x_StdPeriph_Driver/src/stm32f10x_tim.c ****   */
  38:../STM32F10x_StdPeriph_Lib_V3.5.0/Libraries/STM32F10x_StdPeriph_Driver/src/stm32f10x_tim.c **** 
  39:../STM32F10x_StdPeriph_Lib_V3.5.0/Libraries/STM32F10x_StdPeriph_Driver/src/stm32f10x_tim.c **** /**
  40:../STM32F10x_StdPeriph_Lib_V3.5.0/Libraries/STM32F10x_StdPeriph_Driver/src/stm32f10x_tim.c ****   * @}
  41:../STM32F10x_StdPeriph_Lib_V3.5.0/Libraries/STM32F10x_StdPeriph_Driver/src/stm32f10x_tim.c ****   */
  42:../STM32F10x_StdPeriph_Lib_V3.5.0/Libraries/STM32F10x_StdPeriph_Driver/src/stm32f10x_tim.c **** 
  43:../STM32F10x_StdPeriph_Lib_V3.5.0/Libraries/STM32F10x_StdPeriph_Driver/src/stm32f10x_tim.c **** /** @defgroup TIM_Private_Defines
  44:../STM32F10x_StdPeriph_Lib_V3.5.0/Libraries/STM32F10x_StdPeriph_Driver/src/stm32f10x_tim.c ****   * @{
  45:../STM32F10x_StdPeriph_Lib_V3.5.0/Libraries/STM32F10x_StdPeriph_Driver/src/stm32f10x_tim.c ****   */
  46:../STM32F10x_StdPeriph_Lib_V3.5.0/Libraries/STM32F10x_StdPeriph_Driver/src/stm32f10x_tim.c **** 
  47:../STM32F10x_StdPeriph_Lib_V3.5.0/Libraries/STM32F10x_StdPeriph_Driver/src/stm32f10x_tim.c **** /* ---------------------- TIM registers bit mask ------------------------ */
  48:../STM32F10x_StdPeriph_Lib_V3.5.0/Libraries/STM32F10x_StdPeriph_Driver/src/stm32f10x_tim.c **** #define SMCR_ETR_Mask               ((uint16_t)0x00FF) 
  49:../STM32F10x_StdPeriph_Lib_V3.5.0/Libraries/STM32F10x_StdPeriph_Driver/src/stm32f10x_tim.c **** #define CCMR_Offset                 ((uint16_t)0x0018)
  50:../STM32F10x_StdPeriph_Lib_V3.5.0/Libraries/STM32F10x_StdPeriph_Driver/src/stm32f10x_tim.c **** #define CCER_CCE_Set                ((uint16_t)0x0001)  
  51:../STM32F10x_StdPeriph_Lib_V3.5.0/Libraries/STM32F10x_StdPeriph_Driver/src/stm32f10x_tim.c **** #define	CCER_CCNE_Set               ((uint16_t)0x0004) 
  52:../STM32F10x_StdPeriph_Lib_V3.5.0/Libraries/STM32F10x_StdPeriph_Driver/src/stm32f10x_tim.c **** 
  53:../STM32F10x_StdPeriph_Lib_V3.5.0/Libraries/STM32F10x_StdPeriph_Driver/src/stm32f10x_tim.c **** /**
  54:../STM32F10x_StdPeriph_Lib_V3.5.0/Libraries/STM32F10x_StdPeriph_Driver/src/stm32f10x_tim.c ****   * @}
  55:../STM32F10x_StdPeriph_Lib_V3.5.0/Libraries/STM32F10x_StdPeriph_Driver/src/stm32f10x_tim.c ****   */
  56:../STM32F10x_StdPeriph_Lib_V3.5.0/Libraries/STM32F10x_StdPeriph_Driver/src/stm32f10x_tim.c **** 
  57:../STM32F10x_StdPeriph_Lib_V3.5.0/Libraries/STM32F10x_StdPeriph_Driver/src/stm32f10x_tim.c **** /** @defgroup TIM_Private_Macros
  58:../STM32F10x_StdPeriph_Lib_V3.5.0/Libraries/STM32F10x_StdPeriph_Driver/src/stm32f10x_tim.c ****   * @{
  59:../STM32F10x_StdPeriph_Lib_V3.5.0/Libraries/STM32F10x_StdPeriph_Driver/src/stm32f10x_tim.c ****   */
  60:../STM32F10x_StdPeriph_Lib_V3.5.0/Libraries/STM32F10x_StdPeriph_Driver/src/stm32f10x_tim.c **** 
  61:../STM32F10x_StdPeriph_Lib_V3.5.0/Libraries/STM32F10x_StdPeriph_Driver/src/stm32f10x_tim.c **** /**
  62:../STM32F10x_StdPeriph_Lib_V3.5.0/Libraries/STM32F10x_StdPeriph_Driver/src/stm32f10x_tim.c ****   * @}
  63:../STM32F10x_StdPeriph_Lib_V3.5.0/Libraries/STM32F10x_StdPeriph_Driver/src/stm32f10x_tim.c ****   */
  64:../STM32F10x_StdPeriph_Lib_V3.5.0/Libraries/STM32F10x_StdPeriph_Driver/src/stm32f10x_tim.c **** 
  65:../STM32F10x_StdPeriph_Lib_V3.5.0/Libraries/STM32F10x_StdPeriph_Driver/src/stm32f10x_tim.c **** /** @defgroup TIM_Private_Variables
  66:../STM32F10x_StdPeriph_Lib_V3.5.0/Libraries/STM32F10x_StdPeriph_Driver/src/stm32f10x_tim.c ****   * @{
  67:../STM32F10x_StdPeriph_Lib_V3.5.0/Libraries/STM32F10x_StdPeriph_Driver/src/stm32f10x_tim.c ****   */
  68:../STM32F10x_StdPeriph_Lib_V3.5.0/Libraries/STM32F10x_StdPeriph_Driver/src/stm32f10x_tim.c **** 
  69:../STM32F10x_StdPeriph_Lib_V3.5.0/Libraries/STM32F10x_StdPeriph_Driver/src/stm32f10x_tim.c **** /**
  70:../STM32F10x_StdPeriph_Lib_V3.5.0/Libraries/STM32F10x_StdPeriph_Driver/src/stm32f10x_tim.c ****   * @}
  71:../STM32F10x_StdPeriph_Lib_V3.5.0/Libraries/STM32F10x_StdPeriph_Driver/src/stm32f10x_tim.c ****   */
  72:../STM32F10x_StdPeriph_Lib_V3.5.0/Libraries/STM32F10x_StdPeriph_Driver/src/stm32f10x_tim.c **** 
  73:../STM32F10x_StdPeriph_Lib_V3.5.0/Libraries/STM32F10x_StdPeriph_Driver/src/stm32f10x_tim.c **** /** @defgroup TIM_Private_FunctionPrototypes
  74:../STM32F10x_StdPeriph_Lib_V3.5.0/Libraries/STM32F10x_StdPeriph_Driver/src/stm32f10x_tim.c ****   * @{
  75:../STM32F10x_StdPeriph_Lib_V3.5.0/Libraries/STM32F10x_StdPeriph_Driver/src/stm32f10x_tim.c ****   */
  76:../STM32F10x_StdPeriph_Lib_V3.5.0/Libraries/STM32F10x_StdPeriph_Driver/src/stm32f10x_tim.c **** 
  77:../STM32F10x_StdPeriph_Lib_V3.5.0/Libraries/STM32F10x_StdPeriph_Driver/src/stm32f10x_tim.c **** static void TI1_Config(TIM_TypeDef* TIMx, uint16_t TIM_ICPolarity, uint16_t TIM_ICSelection,
  78:../STM32F10x_StdPeriph_Lib_V3.5.0/Libraries/STM32F10x_StdPeriph_Driver/src/stm32f10x_tim.c ****                        uint16_t TIM_ICFilter);
  79:../STM32F10x_StdPeriph_Lib_V3.5.0/Libraries/STM32F10x_StdPeriph_Driver/src/stm32f10x_tim.c **** static void TI2_Config(TIM_TypeDef* TIMx, uint16_t TIM_ICPolarity, uint16_t TIM_ICSelection,
  80:../STM32F10x_StdPeriph_Lib_V3.5.0/Libraries/STM32F10x_StdPeriph_Driver/src/stm32f10x_tim.c ****                        uint16_t TIM_ICFilter);
  81:../STM32F10x_StdPeriph_Lib_V3.5.0/Libraries/STM32F10x_StdPeriph_Driver/src/stm32f10x_tim.c **** static void TI3_Config(TIM_TypeDef* TIMx, uint16_t TIM_ICPolarity, uint16_t TIM_ICSelection,
  82:../STM32F10x_StdPeriph_Lib_V3.5.0/Libraries/STM32F10x_StdPeriph_Driver/src/stm32f10x_tim.c ****                        uint16_t TIM_ICFilter);
  83:../STM32F10x_StdPeriph_Lib_V3.5.0/Libraries/STM32F10x_StdPeriph_Driver/src/stm32f10x_tim.c **** static void TI4_Config(TIM_TypeDef* TIMx, uint16_t TIM_ICPolarity, uint16_t TIM_ICSelection,
  84:../STM32F10x_StdPeriph_Lib_V3.5.0/Libraries/STM32F10x_StdPeriph_Driver/src/stm32f10x_tim.c ****                        uint16_t TIM_ICFilter);
  85:../STM32F10x_StdPeriph_Lib_V3.5.0/Libraries/STM32F10x_StdPeriph_Driver/src/stm32f10x_tim.c **** /**
  86:../STM32F10x_StdPeriph_Lib_V3.5.0/Libraries/STM32F10x_StdPeriph_Driver/src/stm32f10x_tim.c ****   * @}
  87:../STM32F10x_StdPeriph_Lib_V3.5.0/Libraries/STM32F10x_StdPeriph_Driver/src/stm32f10x_tim.c ****   */
  88:../STM32F10x_StdPeriph_Lib_V3.5.0/Libraries/STM32F10x_StdPeriph_Driver/src/stm32f10x_tim.c **** 
  89:../STM32F10x_StdPeriph_Lib_V3.5.0/Libraries/STM32F10x_StdPeriph_Driver/src/stm32f10x_tim.c **** /** @defgroup TIM_Private_Macros
  90:../STM32F10x_StdPeriph_Lib_V3.5.0/Libraries/STM32F10x_StdPeriph_Driver/src/stm32f10x_tim.c ****   * @{
  91:../STM32F10x_StdPeriph_Lib_V3.5.0/Libraries/STM32F10x_StdPeriph_Driver/src/stm32f10x_tim.c ****   */
  92:../STM32F10x_StdPeriph_Lib_V3.5.0/Libraries/STM32F10x_StdPeriph_Driver/src/stm32f10x_tim.c **** 
  93:../STM32F10x_StdPeriph_Lib_V3.5.0/Libraries/STM32F10x_StdPeriph_Driver/src/stm32f10x_tim.c **** /**
  94:../STM32F10x_StdPeriph_Lib_V3.5.0/Libraries/STM32F10x_StdPeriph_Driver/src/stm32f10x_tim.c ****   * @}
  95:../STM32F10x_StdPeriph_Lib_V3.5.0/Libraries/STM32F10x_StdPeriph_Driver/src/stm32f10x_tim.c ****   */
  96:../STM32F10x_StdPeriph_Lib_V3.5.0/Libraries/STM32F10x_StdPeriph_Driver/src/stm32f10x_tim.c **** 
  97:../STM32F10x_StdPeriph_Lib_V3.5.0/Libraries/STM32F10x_StdPeriph_Driver/src/stm32f10x_tim.c **** /** @defgroup TIM_Private_Variables
  98:../STM32F10x_StdPeriph_Lib_V3.5.0/Libraries/STM32F10x_StdPeriph_Driver/src/stm32f10x_tim.c ****   * @{
  99:../STM32F10x_StdPeriph_Lib_V3.5.0/Libraries/STM32F10x_StdPeriph_Driver/src/stm32f10x_tim.c ****   */
 100:../STM32F10x_StdPeriph_Lib_V3.5.0/Libraries/STM32F10x_StdPeriph_Driver/src/stm32f10x_tim.c **** 
 101:../STM32F10x_StdPeriph_Lib_V3.5.0/Libraries/STM32F10x_StdPeriph_Driver/src/stm32f10x_tim.c **** /**
 102:../STM32F10x_StdPeriph_Lib_V3.5.0/Libraries/STM32F10x_StdPeriph_Driver/src/stm32f10x_tim.c ****   * @}
 103:../STM32F10x_StdPeriph_Lib_V3.5.0/Libraries/STM32F10x_StdPeriph_Driver/src/stm32f10x_tim.c ****   */
 104:../STM32F10x_StdPeriph_Lib_V3.5.0/Libraries/STM32F10x_StdPeriph_Driver/src/stm32f10x_tim.c **** 
 105:../STM32F10x_StdPeriph_Lib_V3.5.0/Libraries/STM32F10x_StdPeriph_Driver/src/stm32f10x_tim.c **** /** @defgroup TIM_Private_FunctionPrototypes
 106:../STM32F10x_StdPeriph_Lib_V3.5.0/Libraries/STM32F10x_StdPeriph_Driver/src/stm32f10x_tim.c ****   * @{
 107:../STM32F10x_StdPeriph_Lib_V3.5.0/Libraries/STM32F10x_StdPeriph_Driver/src/stm32f10x_tim.c ****   */
 108:../STM32F10x_StdPeriph_Lib_V3.5.0/Libraries/STM32F10x_StdPeriph_Driver/src/stm32f10x_tim.c **** 
 109:../STM32F10x_StdPeriph_Lib_V3.5.0/Libraries/STM32F10x_StdPeriph_Driver/src/stm32f10x_tim.c **** /**
 110:../STM32F10x_StdPeriph_Lib_V3.5.0/Libraries/STM32F10x_StdPeriph_Driver/src/stm32f10x_tim.c ****   * @}
 111:../STM32F10x_StdPeriph_Lib_V3.5.0/Libraries/STM32F10x_StdPeriph_Driver/src/stm32f10x_tim.c ****   */
 112:../STM32F10x_StdPeriph_Lib_V3.5.0/Libraries/STM32F10x_StdPeriph_Driver/src/stm32f10x_tim.c **** 
 113:../STM32F10x_StdPeriph_Lib_V3.5.0/Libraries/STM32F10x_StdPeriph_Driver/src/stm32f10x_tim.c **** /** @defgroup TIM_Private_Functions
 114:../STM32F10x_StdPeriph_Lib_V3.5.0/Libraries/STM32F10x_StdPeriph_Driver/src/stm32f10x_tim.c ****   * @{
 115:../STM32F10x_StdPeriph_Lib_V3.5.0/Libraries/STM32F10x_StdPeriph_Driver/src/stm32f10x_tim.c ****   */
 116:../STM32F10x_StdPeriph_Lib_V3.5.0/Libraries/STM32F10x_StdPeriph_Driver/src/stm32f10x_tim.c **** 
 117:../STM32F10x_StdPeriph_Lib_V3.5.0/Libraries/STM32F10x_StdPeriph_Driver/src/stm32f10x_tim.c **** /**
 118:../STM32F10x_StdPeriph_Lib_V3.5.0/Libraries/STM32F10x_StdPeriph_Driver/src/stm32f10x_tim.c ****   * @brief  Deinitializes the TIMx peripheral registers to their default reset values.
 119:../STM32F10x_StdPeriph_Lib_V3.5.0/Libraries/STM32F10x_StdPeriph_Driver/src/stm32f10x_tim.c ****   * @param  TIMx: where x can be 1 to 17 to select the TIM peripheral.
 120:../STM32F10x_StdPeriph_Lib_V3.5.0/Libraries/STM32F10x_StdPeriph_Driver/src/stm32f10x_tim.c ****   * @retval None
 121:../STM32F10x_StdPeriph_Lib_V3.5.0/Libraries/STM32F10x_StdPeriph_Driver/src/stm32f10x_tim.c ****   */
 122:../STM32F10x_StdPeriph_Lib_V3.5.0/Libraries/STM32F10x_StdPeriph_Driver/src/stm32f10x_tim.c **** void TIM_DeInit(TIM_TypeDef* TIMx)
 123:../STM32F10x_StdPeriph_Lib_V3.5.0/Libraries/STM32F10x_StdPeriph_Driver/src/stm32f10x_tim.c **** {
  27              		.loc 1 123 0
  28              		.cfi_startproc
  29              		@ args = 0, pretend = 0, frame = 8
  30              		@ frame_needed = 1, uses_anonymous_args = 0
  31 0000 80B5     		push	{r7, lr}
  32              	.LCFI0:
  33              		.cfi_def_cfa_offset 8
  34              		.cfi_offset 7, -8
  35              		.cfi_offset 14, -4
  36 0002 82B0     		sub	sp, sp, #8
  37              	.LCFI1:
  38              		.cfi_def_cfa_offset 16
  39 0004 00AF     		add	r7, sp, #0
  40              	.LCFI2:
  41              		.cfi_def_cfa_register 7
  42 0006 7860     		str	r0, [r7, #4]
 124:../STM32F10x_StdPeriph_Lib_V3.5.0/Libraries/STM32F10x_StdPeriph_Driver/src/stm32f10x_tim.c ****   /* Check the parameters */
 125:../STM32F10x_StdPeriph_Lib_V3.5.0/Libraries/STM32F10x_StdPeriph_Driver/src/stm32f10x_tim.c ****   assert_param(IS_TIM_ALL_PERIPH(TIMx)); 
 126:../STM32F10x_StdPeriph_Lib_V3.5.0/Libraries/STM32F10x_StdPeriph_Driver/src/stm32f10x_tim.c ****  
 127:../STM32F10x_StdPeriph_Lib_V3.5.0/Libraries/STM32F10x_StdPeriph_Driver/src/stm32f10x_tim.c ****   if (TIMx == TIM1)
  43              		.loc 1 127 0
  44 0008 7A68     		ldr	r2, [r7, #4]
  45 000a 914B     		ldr	r3, .L19
  46 000c 9A42     		cmp	r2, r3
  47 000e 0CD1     		bne	.L2
 128:../STM32F10x_StdPeriph_Lib_V3.5.0/Libraries/STM32F10x_StdPeriph_Driver/src/stm32f10x_tim.c ****   {
 129:../STM32F10x_StdPeriph_Lib_V3.5.0/Libraries/STM32F10x_StdPeriph_Driver/src/stm32f10x_tim.c ****     RCC_APB2PeriphResetCmd(RCC_APB2Periph_TIM1, ENABLE);
  48              		.loc 1 129 0
  49 0010 4FF40060 		mov	r0, #2048
  50 0014 4FF00101 		mov	r1, #1
  51 0018 FFF7FEFF 		bl	RCC_APB2PeriphResetCmd
 130:../STM32F10x_StdPeriph_Lib_V3.5.0/Libraries/STM32F10x_StdPeriph_Driver/src/stm32f10x_tim.c ****     RCC_APB2PeriphResetCmd(RCC_APB2Periph_TIM1, DISABLE);  
  52              		.loc 1 130 0
  53 001c 4FF40060 		mov	r0, #2048
  54 0020 4FF00001 		mov	r1, #0
  55 0024 FFF7FEFF 		bl	RCC_APB2PeriphResetCmd
  56 0028 0EE1     		b	.L1
  57              	.L2:
 131:../STM32F10x_StdPeriph_Lib_V3.5.0/Libraries/STM32F10x_StdPeriph_Driver/src/stm32f10x_tim.c ****   }     
 132:../STM32F10x_StdPeriph_Lib_V3.5.0/Libraries/STM32F10x_StdPeriph_Driver/src/stm32f10x_tim.c ****   else if (TIMx == TIM2)
  58              		.loc 1 132 0
  59 002a 7B68     		ldr	r3, [r7, #4]
  60 002c B3F1804F 		cmp	r3, #1073741824
  61 0030 0CD1     		bne	.L4
 133:../STM32F10x_StdPeriph_Lib_V3.5.0/Libraries/STM32F10x_StdPeriph_Driver/src/stm32f10x_tim.c ****   {
 134:../STM32F10x_StdPeriph_Lib_V3.5.0/Libraries/STM32F10x_StdPeriph_Driver/src/stm32f10x_tim.c ****     RCC_APB1PeriphResetCmd(RCC_APB1Periph_TIM2, ENABLE);
  62              		.loc 1 134 0
  63 0032 4FF00100 		mov	r0, #1
  64 0036 4FF00101 		mov	r1, #1
  65 003a FFF7FEFF 		bl	RCC_APB1PeriphResetCmd
 135:../STM32F10x_StdPeriph_Lib_V3.5.0/Libraries/STM32F10x_StdPeriph_Driver/src/stm32f10x_tim.c ****     RCC_APB1PeriphResetCmd(RCC_APB1Periph_TIM2, DISABLE);
  66              		.loc 1 135 0
  67 003e 4FF00100 		mov	r0, #1
  68 0042 4FF00001 		mov	r1, #0
  69 0046 FFF7FEFF 		bl	RCC_APB1PeriphResetCmd
  70 004a FDE0     		b	.L1
  71              	.L4:
 136:../STM32F10x_StdPeriph_Lib_V3.5.0/Libraries/STM32F10x_StdPeriph_Driver/src/stm32f10x_tim.c ****   }
 137:../STM32F10x_StdPeriph_Lib_V3.5.0/Libraries/STM32F10x_StdPeriph_Driver/src/stm32f10x_tim.c ****   else if (TIMx == TIM3)
  72              		.loc 1 137 0
  73 004c 7A68     		ldr	r2, [r7, #4]
  74 004e 814B     		ldr	r3, .L19+4
  75 0050 9A42     		cmp	r2, r3
  76 0052 0CD1     		bne	.L5
 138:../STM32F10x_StdPeriph_Lib_V3.5.0/Libraries/STM32F10x_StdPeriph_Driver/src/stm32f10x_tim.c ****   {
 139:../STM32F10x_StdPeriph_Lib_V3.5.0/Libraries/STM32F10x_StdPeriph_Driver/src/stm32f10x_tim.c ****     RCC_APB1PeriphResetCmd(RCC_APB1Periph_TIM3, ENABLE);
  77              		.loc 1 139 0
  78 0054 4FF00200 		mov	r0, #2
  79 0058 4FF00101 		mov	r1, #1
  80 005c FFF7FEFF 		bl	RCC_APB1PeriphResetCmd
 140:../STM32F10x_StdPeriph_Lib_V3.5.0/Libraries/STM32F10x_StdPeriph_Driver/src/stm32f10x_tim.c ****     RCC_APB1PeriphResetCmd(RCC_APB1Periph_TIM3, DISABLE);
  81              		.loc 1 140 0
  82 0060 4FF00200 		mov	r0, #2
  83 0064 4FF00001 		mov	r1, #0
  84 0068 FFF7FEFF 		bl	RCC_APB1PeriphResetCmd
  85 006c ECE0     		b	.L1
  86              	.L5:
 141:../STM32F10x_StdPeriph_Lib_V3.5.0/Libraries/STM32F10x_StdPeriph_Driver/src/stm32f10x_tim.c ****   }
 142:../STM32F10x_StdPeriph_Lib_V3.5.0/Libraries/STM32F10x_StdPeriph_Driver/src/stm32f10x_tim.c ****   else if (TIMx == TIM4)
  87              		.loc 1 142 0
  88 006e 7A68     		ldr	r2, [r7, #4]
  89 0070 794B     		ldr	r3, .L19+8
  90 0072 9A42     		cmp	r2, r3
  91 0074 0CD1     		bne	.L6
 143:../STM32F10x_StdPeriph_Lib_V3.5.0/Libraries/STM32F10x_StdPeriph_Driver/src/stm32f10x_tim.c ****   {
 144:../STM32F10x_StdPeriph_Lib_V3.5.0/Libraries/STM32F10x_StdPeriph_Driver/src/stm32f10x_tim.c ****     RCC_APB1PeriphResetCmd(RCC_APB1Periph_TIM4, ENABLE);
  92              		.loc 1 144 0
  93 0076 4FF00400 		mov	r0, #4
  94 007a 4FF00101 		mov	r1, #1
  95 007e FFF7FEFF 		bl	RCC_APB1PeriphResetCmd
 145:../STM32F10x_StdPeriph_Lib_V3.5.0/Libraries/STM32F10x_StdPeriph_Driver/src/stm32f10x_tim.c ****     RCC_APB1PeriphResetCmd(RCC_APB1Periph_TIM4, DISABLE);
  96              		.loc 1 145 0
  97 0082 4FF00400 		mov	r0, #4
  98 0086 4FF00001 		mov	r1, #0
  99 008a FFF7FEFF 		bl	RCC_APB1PeriphResetCmd
 100 008e DBE0     		b	.L1
 101              	.L6:
 146:../STM32F10x_StdPeriph_Lib_V3.5.0/Libraries/STM32F10x_StdPeriph_Driver/src/stm32f10x_tim.c ****   } 
 147:../STM32F10x_StdPeriph_Lib_V3.5.0/Libraries/STM32F10x_StdPeriph_Driver/src/stm32f10x_tim.c ****   else if (TIMx == TIM5)
 102              		.loc 1 147 0
 103 0090 7A68     		ldr	r2, [r7, #4]
 104 0092 724B     		ldr	r3, .L19+12
 105 0094 9A42     		cmp	r2, r3
 106 0096 0CD1     		bne	.L7
 148:../STM32F10x_StdPeriph_Lib_V3.5.0/Libraries/STM32F10x_StdPeriph_Driver/src/stm32f10x_tim.c ****   {
 149:../STM32F10x_StdPeriph_Lib_V3.5.0/Libraries/STM32F10x_StdPeriph_Driver/src/stm32f10x_tim.c ****     RCC_APB1PeriphResetCmd(RCC_APB1Periph_TIM5, ENABLE);
 107              		.loc 1 149 0
 108 0098 4FF00800 		mov	r0, #8
 109 009c 4FF00101 		mov	r1, #1
 110 00a0 FFF7FEFF 		bl	RCC_APB1PeriphResetCmd
 150:../STM32F10x_StdPeriph_Lib_V3.5.0/Libraries/STM32F10x_StdPeriph_Driver/src/stm32f10x_tim.c ****     RCC_APB1PeriphResetCmd(RCC_APB1Periph_TIM5, DISABLE);
 111              		.loc 1 150 0
 112 00a4 4FF00800 		mov	r0, #8
 113 00a8 4FF00001 		mov	r1, #0
 114 00ac FFF7FEFF 		bl	RCC_APB1PeriphResetCmd
 115 00b0 CAE0     		b	.L1
 116              	.L7:
 151:../STM32F10x_StdPeriph_Lib_V3.5.0/Libraries/STM32F10x_StdPeriph_Driver/src/stm32f10x_tim.c ****   } 
 152:../STM32F10x_StdPeriph_Lib_V3.5.0/Libraries/STM32F10x_StdPeriph_Driver/src/stm32f10x_tim.c ****   else if (TIMx == TIM6)
 117              		.loc 1 152 0
 118 00b2 7A68     		ldr	r2, [r7, #4]
 119 00b4 6A4B     		ldr	r3, .L19+16
 120 00b6 9A42     		cmp	r2, r3
 121 00b8 0CD1     		bne	.L8
 153:../STM32F10x_StdPeriph_Lib_V3.5.0/Libraries/STM32F10x_StdPeriph_Driver/src/stm32f10x_tim.c ****   {
 154:../STM32F10x_StdPeriph_Lib_V3.5.0/Libraries/STM32F10x_StdPeriph_Driver/src/stm32f10x_tim.c ****     RCC_APB1PeriphResetCmd(RCC_APB1Periph_TIM6, ENABLE);
 122              		.loc 1 154 0
 123 00ba 4FF01000 		mov	r0, #16
 124 00be 4FF00101 		mov	r1, #1
 125 00c2 FFF7FEFF 		bl	RCC_APB1PeriphResetCmd
 155:../STM32F10x_StdPeriph_Lib_V3.5.0/Libraries/STM32F10x_StdPeriph_Driver/src/stm32f10x_tim.c ****     RCC_APB1PeriphResetCmd(RCC_APB1Periph_TIM6, DISABLE);
 126              		.loc 1 155 0
 127 00c6 4FF01000 		mov	r0, #16
 128 00ca 4FF00001 		mov	r1, #0
 129 00ce FFF7FEFF 		bl	RCC_APB1PeriphResetCmd
 130 00d2 B9E0     		b	.L1
 131              	.L8:
 156:../STM32F10x_StdPeriph_Lib_V3.5.0/Libraries/STM32F10x_StdPeriph_Driver/src/stm32f10x_tim.c ****   } 
 157:../STM32F10x_StdPeriph_Lib_V3.5.0/Libraries/STM32F10x_StdPeriph_Driver/src/stm32f10x_tim.c ****   else if (TIMx == TIM7)
 132              		.loc 1 157 0
 133 00d4 7A68     		ldr	r2, [r7, #4]
 134 00d6 634B     		ldr	r3, .L19+20
 135 00d8 9A42     		cmp	r2, r3
 136 00da 0CD1     		bne	.L9
 158:../STM32F10x_StdPeriph_Lib_V3.5.0/Libraries/STM32F10x_StdPeriph_Driver/src/stm32f10x_tim.c ****   {
 159:../STM32F10x_StdPeriph_Lib_V3.5.0/Libraries/STM32F10x_StdPeriph_Driver/src/stm32f10x_tim.c ****     RCC_APB1PeriphResetCmd(RCC_APB1Periph_TIM7, ENABLE);
 137              		.loc 1 159 0
 138 00dc 4FF02000 		mov	r0, #32
 139 00e0 4FF00101 		mov	r1, #1
 140 00e4 FFF7FEFF 		bl	RCC_APB1PeriphResetCmd
 160:../STM32F10x_StdPeriph_Lib_V3.5.0/Libraries/STM32F10x_StdPeriph_Driver/src/stm32f10x_tim.c ****     RCC_APB1PeriphResetCmd(RCC_APB1Periph_TIM7, DISABLE);
 141              		.loc 1 160 0
 142 00e8 4FF02000 		mov	r0, #32
 143 00ec 4FF00001 		mov	r1, #0
 144 00f0 FFF7FEFF 		bl	RCC_APB1PeriphResetCmd
 145 00f4 A8E0     		b	.L1
 146              	.L9:
 161:../STM32F10x_StdPeriph_Lib_V3.5.0/Libraries/STM32F10x_StdPeriph_Driver/src/stm32f10x_tim.c ****   } 
 162:../STM32F10x_StdPeriph_Lib_V3.5.0/Libraries/STM32F10x_StdPeriph_Driver/src/stm32f10x_tim.c ****   else if (TIMx == TIM8)
 147              		.loc 1 162 0
 148 00f6 7A68     		ldr	r2, [r7, #4]
 149 00f8 5B4B     		ldr	r3, .L19+24
 150 00fa 9A42     		cmp	r2, r3
 151 00fc 0CD1     		bne	.L10
 163:../STM32F10x_StdPeriph_Lib_V3.5.0/Libraries/STM32F10x_StdPeriph_Driver/src/stm32f10x_tim.c ****   {
 164:../STM32F10x_StdPeriph_Lib_V3.5.0/Libraries/STM32F10x_StdPeriph_Driver/src/stm32f10x_tim.c ****     RCC_APB2PeriphResetCmd(RCC_APB2Periph_TIM8, ENABLE);
 152              		.loc 1 164 0
 153 00fe 4FF40050 		mov	r0, #8192
 154 0102 4FF00101 		mov	r1, #1
 155 0106 FFF7FEFF 		bl	RCC_APB2PeriphResetCmd
 165:../STM32F10x_StdPeriph_Lib_V3.5.0/Libraries/STM32F10x_StdPeriph_Driver/src/stm32f10x_tim.c ****     RCC_APB2PeriphResetCmd(RCC_APB2Periph_TIM8, DISABLE);
 156              		.loc 1 165 0
 157 010a 4FF40050 		mov	r0, #8192
 158 010e 4FF00001 		mov	r1, #0
 159 0112 FFF7FEFF 		bl	RCC_APB2PeriphResetCmd
 160 0116 97E0     		b	.L1
 161              	.L10:
 166:../STM32F10x_StdPeriph_Lib_V3.5.0/Libraries/STM32F10x_StdPeriph_Driver/src/stm32f10x_tim.c ****   }
 167:../STM32F10x_StdPeriph_Lib_V3.5.0/Libraries/STM32F10x_StdPeriph_Driver/src/stm32f10x_tim.c ****   else if (TIMx == TIM9)
 162              		.loc 1 167 0
 163 0118 7A68     		ldr	r2, [r7, #4]
 164 011a 544B     		ldr	r3, .L19+28
 165 011c 9A42     		cmp	r2, r3
 166 011e 0CD1     		bne	.L11
 168:../STM32F10x_StdPeriph_Lib_V3.5.0/Libraries/STM32F10x_StdPeriph_Driver/src/stm32f10x_tim.c ****   {      
 169:../STM32F10x_StdPeriph_Lib_V3.5.0/Libraries/STM32F10x_StdPeriph_Driver/src/stm32f10x_tim.c ****     RCC_APB2PeriphResetCmd(RCC_APB2Periph_TIM9, ENABLE);
 167              		.loc 1 169 0
 168 0120 4FF40020 		mov	r0, #524288
 169 0124 4FF00101 		mov	r1, #1
 170 0128 FFF7FEFF 		bl	RCC_APB2PeriphResetCmd
 170:../STM32F10x_StdPeriph_Lib_V3.5.0/Libraries/STM32F10x_StdPeriph_Driver/src/stm32f10x_tim.c ****     RCC_APB2PeriphResetCmd(RCC_APB2Periph_TIM9, DISABLE);  
 171              		.loc 1 170 0
 172 012c 4FF40020 		mov	r0, #524288
 173 0130 4FF00001 		mov	r1, #0
 174 0134 FFF7FEFF 		bl	RCC_APB2PeriphResetCmd
 175 0138 86E0     		b	.L1
 176              	.L11:
 171:../STM32F10x_StdPeriph_Lib_V3.5.0/Libraries/STM32F10x_StdPeriph_Driver/src/stm32f10x_tim.c ****    }  
 172:../STM32F10x_StdPeriph_Lib_V3.5.0/Libraries/STM32F10x_StdPeriph_Driver/src/stm32f10x_tim.c ****   else if (TIMx == TIM10)
 177              		.loc 1 172 0
 178 013a 7A68     		ldr	r2, [r7, #4]
 179 013c 4C4B     		ldr	r3, .L19+32
 180 013e 9A42     		cmp	r2, r3
 181 0140 0CD1     		bne	.L12
 173:../STM32F10x_StdPeriph_Lib_V3.5.0/Libraries/STM32F10x_StdPeriph_Driver/src/stm32f10x_tim.c ****   {      
 174:../STM32F10x_StdPeriph_Lib_V3.5.0/Libraries/STM32F10x_StdPeriph_Driver/src/stm32f10x_tim.c ****     RCC_APB2PeriphResetCmd(RCC_APB2Periph_TIM10, ENABLE);
 182              		.loc 1 174 0
 183 0142 4FF48010 		mov	r0, #1048576
 184 0146 4FF00101 		mov	r1, #1
 185 014a FFF7FEFF 		bl	RCC_APB2PeriphResetCmd
 175:../STM32F10x_StdPeriph_Lib_V3.5.0/Libraries/STM32F10x_StdPeriph_Driver/src/stm32f10x_tim.c ****     RCC_APB2PeriphResetCmd(RCC_APB2Periph_TIM10, DISABLE);  
 186              		.loc 1 175 0
 187 014e 4FF48010 		mov	r0, #1048576
 188 0152 4FF00001 		mov	r1, #0
 189 0156 FFF7FEFF 		bl	RCC_APB2PeriphResetCmd
 190 015a 75E0     		b	.L1
 191              	.L12:
 176:../STM32F10x_StdPeriph_Lib_V3.5.0/Libraries/STM32F10x_StdPeriph_Driver/src/stm32f10x_tim.c ****   }  
 177:../STM32F10x_StdPeriph_Lib_V3.5.0/Libraries/STM32F10x_StdPeriph_Driver/src/stm32f10x_tim.c ****   else if (TIMx == TIM11) 
 192              		.loc 1 177 0
 193 015c 7A68     		ldr	r2, [r7, #4]
 194 015e 454B     		ldr	r3, .L19+36
 195 0160 9A42     		cmp	r2, r3
 196 0162 0CD1     		bne	.L13
 178:../STM32F10x_StdPeriph_Lib_V3.5.0/Libraries/STM32F10x_StdPeriph_Driver/src/stm32f10x_tim.c ****   {     
 179:../STM32F10x_StdPeriph_Lib_V3.5.0/Libraries/STM32F10x_StdPeriph_Driver/src/stm32f10x_tim.c ****     RCC_APB2PeriphResetCmd(RCC_APB2Periph_TIM11, ENABLE);
 197              		.loc 1 179 0
 198 0164 4FF40010 		mov	r0, #2097152
 199 0168 4FF00101 		mov	r1, #1
 200 016c FFF7FEFF 		bl	RCC_APB2PeriphResetCmd
 180:../STM32F10x_StdPeriph_Lib_V3.5.0/Libraries/STM32F10x_StdPeriph_Driver/src/stm32f10x_tim.c ****     RCC_APB2PeriphResetCmd(RCC_APB2Periph_TIM11, DISABLE);  
 201              		.loc 1 180 0
 202 0170 4FF40010 		mov	r0, #2097152
 203 0174 4FF00001 		mov	r1, #0
 204 0178 FFF7FEFF 		bl	RCC_APB2PeriphResetCmd
 205 017c 64E0     		b	.L1
 206              	.L13:
 181:../STM32F10x_StdPeriph_Lib_V3.5.0/Libraries/STM32F10x_StdPeriph_Driver/src/stm32f10x_tim.c ****   }  
 182:../STM32F10x_StdPeriph_Lib_V3.5.0/Libraries/STM32F10x_StdPeriph_Driver/src/stm32f10x_tim.c ****   else if (TIMx == TIM12)
 207              		.loc 1 182 0
 208 017e 7A68     		ldr	r2, [r7, #4]
 209 0180 3D4B     		ldr	r3, .L19+40
 210 0182 9A42     		cmp	r2, r3
 211 0184 0CD1     		bne	.L14
 183:../STM32F10x_StdPeriph_Lib_V3.5.0/Libraries/STM32F10x_StdPeriph_Driver/src/stm32f10x_tim.c ****   {      
 184:../STM32F10x_StdPeriph_Lib_V3.5.0/Libraries/STM32F10x_StdPeriph_Driver/src/stm32f10x_tim.c ****     RCC_APB1PeriphResetCmd(RCC_APB1Periph_TIM12, ENABLE);
 212              		.loc 1 184 0
 213 0186 4FF04000 		mov	r0, #64
 214 018a 4FF00101 		mov	r1, #1
 215 018e FFF7FEFF 		bl	RCC_APB1PeriphResetCmd
 185:../STM32F10x_StdPeriph_Lib_V3.5.0/Libraries/STM32F10x_StdPeriph_Driver/src/stm32f10x_tim.c ****     RCC_APB1PeriphResetCmd(RCC_APB1Periph_TIM12, DISABLE);  
 216              		.loc 1 185 0
 217 0192 4FF04000 		mov	r0, #64
 218 0196 4FF00001 		mov	r1, #0
 219 019a FFF7FEFF 		bl	RCC_APB1PeriphResetCmd
 220 019e 53E0     		b	.L1
 221              	.L14:
 186:../STM32F10x_StdPeriph_Lib_V3.5.0/Libraries/STM32F10x_StdPeriph_Driver/src/stm32f10x_tim.c ****   }  
 187:../STM32F10x_StdPeriph_Lib_V3.5.0/Libraries/STM32F10x_StdPeriph_Driver/src/stm32f10x_tim.c ****   else if (TIMx == TIM13) 
 222              		.loc 1 187 0
 223 01a0 7A68     		ldr	r2, [r7, #4]
 224 01a2 364B     		ldr	r3, .L19+44
 225 01a4 9A42     		cmp	r2, r3
 226 01a6 0CD1     		bne	.L15
 188:../STM32F10x_StdPeriph_Lib_V3.5.0/Libraries/STM32F10x_StdPeriph_Driver/src/stm32f10x_tim.c ****   {       
 189:../STM32F10x_StdPeriph_Lib_V3.5.0/Libraries/STM32F10x_StdPeriph_Driver/src/stm32f10x_tim.c ****     RCC_APB1PeriphResetCmd(RCC_APB1Periph_TIM13, ENABLE);
 227              		.loc 1 189 0
 228 01a8 4FF08000 		mov	r0, #128
 229 01ac 4FF00101 		mov	r1, #1
 230 01b0 FFF7FEFF 		bl	RCC_APB1PeriphResetCmd
 190:../STM32F10x_StdPeriph_Lib_V3.5.0/Libraries/STM32F10x_StdPeriph_Driver/src/stm32f10x_tim.c ****     RCC_APB1PeriphResetCmd(RCC_APB1Periph_TIM13, DISABLE);  
 231              		.loc 1 190 0
 232 01b4 4FF08000 		mov	r0, #128
 233 01b8 4FF00001 		mov	r1, #0
 234 01bc FFF7FEFF 		bl	RCC_APB1PeriphResetCmd
 235 01c0 42E0     		b	.L1
 236              	.L15:
 191:../STM32F10x_StdPeriph_Lib_V3.5.0/Libraries/STM32F10x_StdPeriph_Driver/src/stm32f10x_tim.c ****   }
 192:../STM32F10x_StdPeriph_Lib_V3.5.0/Libraries/STM32F10x_StdPeriph_Driver/src/stm32f10x_tim.c ****   else if (TIMx == TIM14) 
 237              		.loc 1 192 0
 238 01c2 7A68     		ldr	r2, [r7, #4]
 239 01c4 2E4B     		ldr	r3, .L19+48
 240 01c6 9A42     		cmp	r2, r3
 241 01c8 0CD1     		bne	.L16
 193:../STM32F10x_StdPeriph_Lib_V3.5.0/Libraries/STM32F10x_StdPeriph_Driver/src/stm32f10x_tim.c ****   {       
 194:../STM32F10x_StdPeriph_Lib_V3.5.0/Libraries/STM32F10x_StdPeriph_Driver/src/stm32f10x_tim.c ****     RCC_APB1PeriphResetCmd(RCC_APB1Periph_TIM14, ENABLE);
 242              		.loc 1 194 0
 243 01ca 4FF48070 		mov	r0, #256
 244 01ce 4FF00101 		mov	r1, #1
 245 01d2 FFF7FEFF 		bl	RCC_APB1PeriphResetCmd
 195:../STM32F10x_StdPeriph_Lib_V3.5.0/Libraries/STM32F10x_StdPeriph_Driver/src/stm32f10x_tim.c ****     RCC_APB1PeriphResetCmd(RCC_APB1Periph_TIM14, DISABLE);  
 246              		.loc 1 195 0
 247 01d6 4FF48070 		mov	r0, #256
 248 01da 4FF00001 		mov	r1, #0
 249 01de FFF7FEFF 		bl	RCC_APB1PeriphResetCmd
 250 01e2 31E0     		b	.L1
 251              	.L16:
 196:../STM32F10x_StdPeriph_Lib_V3.5.0/Libraries/STM32F10x_StdPeriph_Driver/src/stm32f10x_tim.c ****   }        
 197:../STM32F10x_StdPeriph_Lib_V3.5.0/Libraries/STM32F10x_StdPeriph_Driver/src/stm32f10x_tim.c ****   else if (TIMx == TIM15)
 252              		.loc 1 197 0
 253 01e4 7A68     		ldr	r2, [r7, #4]
 254 01e6 274B     		ldr	r3, .L19+52
 255 01e8 9A42     		cmp	r2, r3
 256 01ea 0CD1     		bne	.L17
 198:../STM32F10x_StdPeriph_Lib_V3.5.0/Libraries/STM32F10x_StdPeriph_Driver/src/stm32f10x_tim.c ****   {
 199:../STM32F10x_StdPeriph_Lib_V3.5.0/Libraries/STM32F10x_StdPeriph_Driver/src/stm32f10x_tim.c ****     RCC_APB2PeriphResetCmd(RCC_APB2Periph_TIM15, ENABLE);
 257              		.loc 1 199 0
 258 01ec 4FF48030 		mov	r0, #65536
 259 01f0 4FF00101 		mov	r1, #1
 260 01f4 FFF7FEFF 		bl	RCC_APB2PeriphResetCmd
 200:../STM32F10x_StdPeriph_Lib_V3.5.0/Libraries/STM32F10x_StdPeriph_Driver/src/stm32f10x_tim.c ****     RCC_APB2PeriphResetCmd(RCC_APB2Periph_TIM15, DISABLE);
 261              		.loc 1 200 0
 262 01f8 4FF48030 		mov	r0, #65536
 263 01fc 4FF00001 		mov	r1, #0
 264 0200 FFF7FEFF 		bl	RCC_APB2PeriphResetCmd
 265 0204 20E0     		b	.L1
 266              	.L17:
 201:../STM32F10x_StdPeriph_Lib_V3.5.0/Libraries/STM32F10x_StdPeriph_Driver/src/stm32f10x_tim.c ****   } 
 202:../STM32F10x_StdPeriph_Lib_V3.5.0/Libraries/STM32F10x_StdPeriph_Driver/src/stm32f10x_tim.c ****   else if (TIMx == TIM16)
 267              		.loc 1 202 0
 268 0206 7A68     		ldr	r2, [r7, #4]
 269 0208 1F4B     		ldr	r3, .L19+56
 270 020a 9A42     		cmp	r2, r3
 271 020c 0CD1     		bne	.L18
 203:../STM32F10x_StdPeriph_Lib_V3.5.0/Libraries/STM32F10x_StdPeriph_Driver/src/stm32f10x_tim.c ****   {
 204:../STM32F10x_StdPeriph_Lib_V3.5.0/Libraries/STM32F10x_StdPeriph_Driver/src/stm32f10x_tim.c ****     RCC_APB2PeriphResetCmd(RCC_APB2Periph_TIM16, ENABLE);
 272              		.loc 1 204 0
 273 020e 4FF40030 		mov	r0, #131072
 274 0212 4FF00101 		mov	r1, #1
 275 0216 FFF7FEFF 		bl	RCC_APB2PeriphResetCmd
 205:../STM32F10x_StdPeriph_Lib_V3.5.0/Libraries/STM32F10x_StdPeriph_Driver/src/stm32f10x_tim.c ****     RCC_APB2PeriphResetCmd(RCC_APB2Periph_TIM16, DISABLE);
 276              		.loc 1 205 0
 277 021a 4FF40030 		mov	r0, #131072
 278 021e 4FF00001 		mov	r1, #0
 279 0222 FFF7FEFF 		bl	RCC_APB2PeriphResetCmd
 280 0226 0FE0     		b	.L1
 281              	.L18:
 206:../STM32F10x_StdPeriph_Lib_V3.5.0/Libraries/STM32F10x_StdPeriph_Driver/src/stm32f10x_tim.c ****   } 
 207:../STM32F10x_StdPeriph_Lib_V3.5.0/Libraries/STM32F10x_StdPeriph_Driver/src/stm32f10x_tim.c ****   else
 208:../STM32F10x_StdPeriph_Lib_V3.5.0/Libraries/STM32F10x_StdPeriph_Driver/src/stm32f10x_tim.c ****   {
 209:../STM32F10x_StdPeriph_Lib_V3.5.0/Libraries/STM32F10x_StdPeriph_Driver/src/stm32f10x_tim.c ****     if (TIMx == TIM17)
 282              		.loc 1 209 0
 283 0228 7A68     		ldr	r2, [r7, #4]
 284 022a 184B     		ldr	r3, .L19+60
 285 022c 9A42     		cmp	r2, r3
 286 022e 0BD1     		bne	.L1
 210:../STM32F10x_StdPeriph_Lib_V3.5.0/Libraries/STM32F10x_StdPeriph_Driver/src/stm32f10x_tim.c ****     {
 211:../STM32F10x_StdPeriph_Lib_V3.5.0/Libraries/STM32F10x_StdPeriph_Driver/src/stm32f10x_tim.c ****       RCC_APB2PeriphResetCmd(RCC_APB2Periph_TIM17, ENABLE);
 287              		.loc 1 211 0
 288 0230 4FF48020 		mov	r0, #262144
 289 0234 4FF00101 		mov	r1, #1
 290 0238 FFF7FEFF 		bl	RCC_APB2PeriphResetCmd
 212:../STM32F10x_StdPeriph_Lib_V3.5.0/Libraries/STM32F10x_StdPeriph_Driver/src/stm32f10x_tim.c ****       RCC_APB2PeriphResetCmd(RCC_APB2Periph_TIM17, DISABLE);
 291              		.loc 1 212 0
 292 023c 4FF48020 		mov	r0, #262144
 293 0240 4FF00001 		mov	r1, #0
 294 0244 FFF7FEFF 		bl	RCC_APB2PeriphResetCmd
 295              	.L1:
 213:../STM32F10x_StdPeriph_Lib_V3.5.0/Libraries/STM32F10x_StdPeriph_Driver/src/stm32f10x_tim.c ****     }  
 214:../STM32F10x_StdPeriph_Lib_V3.5.0/Libraries/STM32F10x_StdPeriph_Driver/src/stm32f10x_tim.c ****   }
 215:../STM32F10x_StdPeriph_Lib_V3.5.0/Libraries/STM32F10x_StdPeriph_Driver/src/stm32f10x_tim.c **** }
 296              		.loc 1 215 0
 297 0248 07F10807 		add	r7, r7, #8
 298 024c BD46     		mov	sp, r7
 299 024e 80BD     		pop	{r7, pc}
 300              	.L20:
 301              		.align	2
 302              	.L19:
 303 0250 002C0140 		.word	1073818624
 304 0254 00040040 		.word	1073742848
 305 0258 00080040 		.word	1073743872
 306 025c 000C0040 		.word	1073744896
 307 0260 00100040 		.word	1073745920
 308 0264 00140040 		.word	1073746944
 309 0268 00340140 		.word	1073820672
 310 026c 004C0140 		.word	1073826816
 311 0270 00500140 		.word	1073827840
 312 0274 00540140 		.word	1073828864
 313 0278 00180040 		.word	1073747968
 314 027c 001C0040 		.word	1073748992
 315 0280 00200040 		.word	1073750016
 316 0284 00400140 		.word	1073823744
 317 0288 00440140 		.word	1073824768
 318 028c 00480140 		.word	1073825792
 319              		.cfi_endproc
 320              	.LFE29:
 322              		.section	.text.TIM_TimeBaseInit,"ax",%progbits
 323              		.align	2
 324              		.global	TIM_TimeBaseInit
 325              		.thumb
 326              		.thumb_func
 328              	TIM_TimeBaseInit:
 329              	.LFB30:
 216:../STM32F10x_StdPeriph_Lib_V3.5.0/Libraries/STM32F10x_StdPeriph_Driver/src/stm32f10x_tim.c **** 
 217:../STM32F10x_StdPeriph_Lib_V3.5.0/Libraries/STM32F10x_StdPeriph_Driver/src/stm32f10x_tim.c **** /**
 218:../STM32F10x_StdPeriph_Lib_V3.5.0/Libraries/STM32F10x_StdPeriph_Driver/src/stm32f10x_tim.c ****   * @brief  Initializes the TIMx Time Base Unit peripheral according to 
 219:../STM32F10x_StdPeriph_Lib_V3.5.0/Libraries/STM32F10x_StdPeriph_Driver/src/stm32f10x_tim.c ****   *         the specified parameters in the TIM_TimeBaseInitStruct.
 220:../STM32F10x_StdPeriph_Lib_V3.5.0/Libraries/STM32F10x_StdPeriph_Driver/src/stm32f10x_tim.c ****   * @param  TIMx: where x can be 1 to 17 to select the TIM peripheral.
 221:../STM32F10x_StdPeriph_Lib_V3.5.0/Libraries/STM32F10x_StdPeriph_Driver/src/stm32f10x_tim.c ****   * @param  TIM_TimeBaseInitStruct: pointer to a TIM_TimeBaseInitTypeDef
 222:../STM32F10x_StdPeriph_Lib_V3.5.0/Libraries/STM32F10x_StdPeriph_Driver/src/stm32f10x_tim.c ****   *         structure that contains the configuration information for the 
 223:../STM32F10x_StdPeriph_Lib_V3.5.0/Libraries/STM32F10x_StdPeriph_Driver/src/stm32f10x_tim.c ****   *         specified TIM peripheral.
 224:../STM32F10x_StdPeriph_Lib_V3.5.0/Libraries/STM32F10x_StdPeriph_Driver/src/stm32f10x_tim.c ****   * @retval None
 225:../STM32F10x_StdPeriph_Lib_V3.5.0/Libraries/STM32F10x_StdPeriph_Driver/src/stm32f10x_tim.c ****   */
 226:../STM32F10x_StdPeriph_Lib_V3.5.0/Libraries/STM32F10x_StdPeriph_Driver/src/stm32f10x_tim.c **** void TIM_TimeBaseInit(TIM_TypeDef* TIMx, TIM_TimeBaseInitTypeDef* TIM_TimeBaseInitStruct)
 227:../STM32F10x_StdPeriph_Lib_V3.5.0/Libraries/STM32F10x_StdPeriph_Driver/src/stm32f10x_tim.c **** {
 330              		.loc 1 227 0
 331              		.cfi_startproc
 332              		@ args = 0, pretend = 0, frame = 16
 333              		@ frame_needed = 1, uses_anonymous_args = 0
 334              		@ link register save eliminated.
 335 0000 80B4     		push	{r7}
 336              	.LCFI3:
 337              		.cfi_def_cfa_offset 4
 338              		.cfi_offset 7, -4
 339 0002 85B0     		sub	sp, sp, #20
 340              	.LCFI4:
 341              		.cfi_def_cfa_offset 24
 342 0004 00AF     		add	r7, sp, #0
 343              	.LCFI5:
 344              		.cfi_def_cfa_register 7
 345 0006 7860     		str	r0, [r7, #4]
 346 0008 3960     		str	r1, [r7, #0]
 228:../STM32F10x_StdPeriph_Lib_V3.5.0/Libraries/STM32F10x_StdPeriph_Driver/src/stm32f10x_tim.c ****   uint16_t tmpcr1 = 0;
 347              		.loc 1 228 0
 348 000a 4FF00003 		mov	r3, #0
 349 000e FB81     		strh	r3, [r7, #14]	@ movhi
 229:../STM32F10x_StdPeriph_Lib_V3.5.0/Libraries/STM32F10x_StdPeriph_Driver/src/stm32f10x_tim.c **** 
 230:../STM32F10x_StdPeriph_Lib_V3.5.0/Libraries/STM32F10x_StdPeriph_Driver/src/stm32f10x_tim.c ****   /* Check the parameters */
 231:../STM32F10x_StdPeriph_Lib_V3.5.0/Libraries/STM32F10x_StdPeriph_Driver/src/stm32f10x_tim.c ****   assert_param(IS_TIM_ALL_PERIPH(TIMx)); 
 232:../STM32F10x_StdPeriph_Lib_V3.5.0/Libraries/STM32F10x_StdPeriph_Driver/src/stm32f10x_tim.c ****   assert_param(IS_TIM_COUNTER_MODE(TIM_TimeBaseInitStruct->TIM_CounterMode));
 233:../STM32F10x_StdPeriph_Lib_V3.5.0/Libraries/STM32F10x_StdPeriph_Driver/src/stm32f10x_tim.c ****   assert_param(IS_TIM_CKD_DIV(TIM_TimeBaseInitStruct->TIM_ClockDivision));
 234:../STM32F10x_StdPeriph_Lib_V3.5.0/Libraries/STM32F10x_StdPeriph_Driver/src/stm32f10x_tim.c **** 
 235:../STM32F10x_StdPeriph_Lib_V3.5.0/Libraries/STM32F10x_StdPeriph_Driver/src/stm32f10x_tim.c ****   tmpcr1 = TIMx->CR1;  
 350              		.loc 1 235 0
 351 0010 7B68     		ldr	r3, [r7, #4]
 352 0012 1B88     		ldrh	r3, [r3, #0]	@ movhi
 353 0014 FB81     		strh	r3, [r7, #14]	@ movhi
 236:../STM32F10x_StdPeriph_Lib_V3.5.0/Libraries/STM32F10x_StdPeriph_Driver/src/stm32f10x_tim.c **** 
 237:../STM32F10x_StdPeriph_Lib_V3.5.0/Libraries/STM32F10x_StdPeriph_Driver/src/stm32f10x_tim.c ****   if((TIMx == TIM1) || (TIMx == TIM8)|| (TIMx == TIM2) || (TIMx == TIM3)||
 354              		.loc 1 237 0
 355 0016 7A68     		ldr	r2, [r7, #4]
 356 0018 2E4B     		ldr	r3, .L27
 357 001a 9A42     		cmp	r2, r3
 358 001c 13D0     		beq	.L22
 359              		.loc 1 237 0 is_stmt 0 discriminator 1
 360 001e 7A68     		ldr	r2, [r7, #4]
 361 0020 2D4B     		ldr	r3, .L27+4
 362 0022 9A42     		cmp	r2, r3
 363 0024 0FD0     		beq	.L22
 364 0026 7B68     		ldr	r3, [r7, #4]
 365 0028 B3F1804F 		cmp	r3, #1073741824
 366 002c 0BD0     		beq	.L22
 367 002e 7A68     		ldr	r2, [r7, #4]
 368 0030 2A4B     		ldr	r3, .L27+8
 369 0032 9A42     		cmp	r2, r3
 370 0034 07D0     		beq	.L22
 371 0036 7A68     		ldr	r2, [r7, #4]
 372 0038 294B     		ldr	r3, .L27+12
 373 003a 9A42     		cmp	r2, r3
 374 003c 03D0     		beq	.L22
 238:../STM32F10x_StdPeriph_Lib_V3.5.0/Libraries/STM32F10x_StdPeriph_Driver/src/stm32f10x_tim.c ****      (TIMx == TIM4) || (TIMx == TIM5)) 
 375              		.loc 1 238 0 is_stmt 1
 376 003e 7A68     		ldr	r2, [r7, #4]
 377 0040 284B     		ldr	r3, .L27+16
 378 0042 9A42     		cmp	r2, r3
 379 0044 08D1     		bne	.L23
 380              	.L22:
 239:../STM32F10x_StdPeriph_Lib_V3.5.0/Libraries/STM32F10x_StdPeriph_Driver/src/stm32f10x_tim.c ****   {
 240:../STM32F10x_StdPeriph_Lib_V3.5.0/Libraries/STM32F10x_StdPeriph_Driver/src/stm32f10x_tim.c ****     /* Select the Counter Mode */
 241:../STM32F10x_StdPeriph_Lib_V3.5.0/Libraries/STM32F10x_StdPeriph_Driver/src/stm32f10x_tim.c ****     tmpcr1 &= (uint16_t)(~((uint16_t)(TIM_CR1_DIR | TIM_CR1_CMS)));
 381              		.loc 1 241 0
 382 0046 FB89     		ldrh	r3, [r7, #14]	@ movhi
 383 0048 23F07003 		bic	r3, r3, #112
 384 004c FB81     		strh	r3, [r7, #14]	@ movhi
 242:../STM32F10x_StdPeriph_Lib_V3.5.0/Libraries/STM32F10x_StdPeriph_Driver/src/stm32f10x_tim.c ****     tmpcr1 |= (uint32_t)TIM_TimeBaseInitStruct->TIM_CounterMode;
 385              		.loc 1 242 0
 386 004e 3B68     		ldr	r3, [r7, #0]
 387 0050 5A88     		ldrh	r2, [r3, #2]
 388 0052 FB89     		ldrh	r3, [r7, #14]	@ movhi
 389 0054 1343     		orrs	r3, r3, r2
 390 0056 FB81     		strh	r3, [r7, #14]	@ movhi
 391              	.L23:
 243:../STM32F10x_StdPeriph_Lib_V3.5.0/Libraries/STM32F10x_StdPeriph_Driver/src/stm32f10x_tim.c ****   }
 244:../STM32F10x_StdPeriph_Lib_V3.5.0/Libraries/STM32F10x_StdPeriph_Driver/src/stm32f10x_tim.c ****  
 245:../STM32F10x_StdPeriph_Lib_V3.5.0/Libraries/STM32F10x_StdPeriph_Driver/src/stm32f10x_tim.c ****   if((TIMx != TIM6) && (TIMx != TIM7))
 392              		.loc 1 245 0
 393 0058 7A68     		ldr	r2, [r7, #4]
 394 005a 234B     		ldr	r3, .L27+20
 395 005c 9A42     		cmp	r2, r3
 396 005e 0CD0     		beq	.L24
 397              		.loc 1 245 0 is_stmt 0 discriminator 1
 398 0060 7A68     		ldr	r2, [r7, #4]
 399 0062 224B     		ldr	r3, .L27+24
 400 0064 9A42     		cmp	r2, r3
 401 0066 08D0     		beq	.L24
 246:../STM32F10x_StdPeriph_Lib_V3.5.0/Libraries/STM32F10x_StdPeriph_Driver/src/stm32f10x_tim.c ****   {
 247:../STM32F10x_StdPeriph_Lib_V3.5.0/Libraries/STM32F10x_StdPeriph_Driver/src/stm32f10x_tim.c ****     /* Set the clock division */
 248:../STM32F10x_StdPeriph_Lib_V3.5.0/Libraries/STM32F10x_StdPeriph_Driver/src/stm32f10x_tim.c ****     tmpcr1 &= (uint16_t)(~((uint16_t)TIM_CR1_CKD));
 402              		.loc 1 248 0 is_stmt 1
 403 0068 FB89     		ldrh	r3, [r7, #14]	@ movhi
 404 006a 23F44073 		bic	r3, r3, #768
 405 006e FB81     		strh	r3, [r7, #14]	@ movhi
 249:../STM32F10x_StdPeriph_Lib_V3.5.0/Libraries/STM32F10x_StdPeriph_Driver/src/stm32f10x_tim.c ****     tmpcr1 |= (uint32_t)TIM_TimeBaseInitStruct->TIM_ClockDivision;
 406              		.loc 1 249 0
 407 0070 3B68     		ldr	r3, [r7, #0]
 408 0072 DA88     		ldrh	r2, [r3, #6]
 409 0074 FB89     		ldrh	r3, [r7, #14]	@ movhi
 410 0076 1343     		orrs	r3, r3, r2
 411 0078 FB81     		strh	r3, [r7, #14]	@ movhi
 412              	.L24:
 250:../STM32F10x_StdPeriph_Lib_V3.5.0/Libraries/STM32F10x_StdPeriph_Driver/src/stm32f10x_tim.c ****   }
 251:../STM32F10x_StdPeriph_Lib_V3.5.0/Libraries/STM32F10x_StdPeriph_Driver/src/stm32f10x_tim.c **** 
 252:../STM32F10x_StdPeriph_Lib_V3.5.0/Libraries/STM32F10x_StdPeriph_Driver/src/stm32f10x_tim.c ****   TIMx->CR1 = tmpcr1;
 413              		.loc 1 252 0
 414 007a 7B68     		ldr	r3, [r7, #4]
 415 007c FA89     		ldrh	r2, [r7, #14]	@ movhi
 416 007e 1A80     		strh	r2, [r3, #0]	@ movhi
 253:../STM32F10x_StdPeriph_Lib_V3.5.0/Libraries/STM32F10x_StdPeriph_Driver/src/stm32f10x_tim.c **** 
 254:../STM32F10x_StdPeriph_Lib_V3.5.0/Libraries/STM32F10x_StdPeriph_Driver/src/stm32f10x_tim.c ****   /* Set the Autoreload value */
 255:../STM32F10x_StdPeriph_Lib_V3.5.0/Libraries/STM32F10x_StdPeriph_Driver/src/stm32f10x_tim.c ****   TIMx->ARR = TIM_TimeBaseInitStruct->TIM_Period ;
 417              		.loc 1 255 0
 418 0080 3B68     		ldr	r3, [r7, #0]
 419 0082 9A88     		ldrh	r2, [r3, #4]
 420 0084 7B68     		ldr	r3, [r7, #4]
 421 0086 9A85     		strh	r2, [r3, #44]	@ movhi
 256:../STM32F10x_StdPeriph_Lib_V3.5.0/Libraries/STM32F10x_StdPeriph_Driver/src/stm32f10x_tim.c ****  
 257:../STM32F10x_StdPeriph_Lib_V3.5.0/Libraries/STM32F10x_StdPeriph_Driver/src/stm32f10x_tim.c ****   /* Set the Prescaler value */
 258:../STM32F10x_StdPeriph_Lib_V3.5.0/Libraries/STM32F10x_StdPeriph_Driver/src/stm32f10x_tim.c ****   TIMx->PSC = TIM_TimeBaseInitStruct->TIM_Prescaler;
 422              		.loc 1 258 0
 423 0088 3B68     		ldr	r3, [r7, #0]
 424 008a 1A88     		ldrh	r2, [r3, #0]
 425 008c 7B68     		ldr	r3, [r7, #4]
 426 008e 1A85     		strh	r2, [r3, #40]	@ movhi
 259:../STM32F10x_StdPeriph_Lib_V3.5.0/Libraries/STM32F10x_StdPeriph_Driver/src/stm32f10x_tim.c ****     
 260:../STM32F10x_StdPeriph_Lib_V3.5.0/Libraries/STM32F10x_StdPeriph_Driver/src/stm32f10x_tim.c ****   if ((TIMx == TIM1) || (TIMx == TIM8)|| (TIMx == TIM15)|| (TIMx == TIM16) || (TIMx == TIM17))  
 427              		.loc 1 260 0
 428 0090 7A68     		ldr	r2, [r7, #4]
 429 0092 104B     		ldr	r3, .L27
 430 0094 9A42     		cmp	r2, r3
 431 0096 0FD0     		beq	.L25
 432              		.loc 1 260 0 is_stmt 0 discriminator 1
 433 0098 7A68     		ldr	r2, [r7, #4]
 434 009a 0F4B     		ldr	r3, .L27+4
 435 009c 9A42     		cmp	r2, r3
 436 009e 0BD0     		beq	.L25
 437 00a0 7A68     		ldr	r2, [r7, #4]
 438 00a2 134B     		ldr	r3, .L27+28
 439 00a4 9A42     		cmp	r2, r3
 440 00a6 07D0     		beq	.L25
 441 00a8 7A68     		ldr	r2, [r7, #4]
 442 00aa 124B     		ldr	r3, .L27+32
 443 00ac 9A42     		cmp	r2, r3
 444 00ae 03D0     		beq	.L25
 445 00b0 7A68     		ldr	r2, [r7, #4]
 446 00b2 114B     		ldr	r3, .L27+36
 447 00b4 9A42     		cmp	r2, r3
 448 00b6 04D1     		bne	.L26
 449              	.L25:
 261:../STM32F10x_StdPeriph_Lib_V3.5.0/Libraries/STM32F10x_StdPeriph_Driver/src/stm32f10x_tim.c ****   {
 262:../STM32F10x_StdPeriph_Lib_V3.5.0/Libraries/STM32F10x_StdPeriph_Driver/src/stm32f10x_tim.c ****     /* Set the Repetition Counter value */
 263:../STM32F10x_StdPeriph_Lib_V3.5.0/Libraries/STM32F10x_StdPeriph_Driver/src/stm32f10x_tim.c ****     TIMx->RCR = TIM_TimeBaseInitStruct->TIM_RepetitionCounter;
 450              		.loc 1 263 0 is_stmt 1
 451 00b8 3B68     		ldr	r3, [r7, #0]
 452 00ba 1B7A     		ldrb	r3, [r3, #8]	@ zero_extendqisi2
 453 00bc 1A46     		mov	r2, r3
 454 00be 7B68     		ldr	r3, [r7, #4]
 455 00c0 1A86     		strh	r2, [r3, #48]	@ movhi
 456              	.L26:
 264:../STM32F10x_StdPeriph_Lib_V3.5.0/Libraries/STM32F10x_StdPeriph_Driver/src/stm32f10x_tim.c ****   }
 265:../STM32F10x_StdPeriph_Lib_V3.5.0/Libraries/STM32F10x_StdPeriph_Driver/src/stm32f10x_tim.c **** 
 266:../STM32F10x_StdPeriph_Lib_V3.5.0/Libraries/STM32F10x_StdPeriph_Driver/src/stm32f10x_tim.c ****   /* Generate an update event to reload the Prescaler and the Repetition counter
 267:../STM32F10x_StdPeriph_Lib_V3.5.0/Libraries/STM32F10x_StdPeriph_Driver/src/stm32f10x_tim.c ****      values immediately */
 268:../STM32F10x_StdPeriph_Lib_V3.5.0/Libraries/STM32F10x_StdPeriph_Driver/src/stm32f10x_tim.c ****   TIMx->EGR = TIM_PSCReloadMode_Immediate;           
 457              		.loc 1 268 0
 458 00c2 7B68     		ldr	r3, [r7, #4]
 459 00c4 4FF00102 		mov	r2, #1
 460 00c8 9A82     		strh	r2, [r3, #20]	@ movhi
 269:../STM32F10x_StdPeriph_Lib_V3.5.0/Libraries/STM32F10x_StdPeriph_Driver/src/stm32f10x_tim.c **** }
 461              		.loc 1 269 0
 462 00ca 07F11407 		add	r7, r7, #20
 463 00ce BD46     		mov	sp, r7
 464 00d0 80BC     		pop	{r7}
 465 00d2 7047     		bx	lr
 466              	.L28:
 467              		.align	2
 468              	.L27:
 469 00d4 002C0140 		.word	1073818624
 470 00d8 00340140 		.word	1073820672
 471 00dc 00040040 		.word	1073742848
 472 00e0 00080040 		.word	1073743872
 473 00e4 000C0040 		.word	1073744896
 474 00e8 00100040 		.word	1073745920
 475 00ec 00140040 		.word	1073746944
 476 00f0 00400140 		.word	1073823744
 477 00f4 00440140 		.word	1073824768
 478 00f8 00480140 		.word	1073825792
 479              		.cfi_endproc
 480              	.LFE30:
 482              		.section	.text.TIM_OC1Init,"ax",%progbits
 483              		.align	2
 484              		.global	TIM_OC1Init
 485              		.thumb
 486              		.thumb_func
 488              	TIM_OC1Init:
 489              	.LFB31:
 270:../STM32F10x_StdPeriph_Lib_V3.5.0/Libraries/STM32F10x_StdPeriph_Driver/src/stm32f10x_tim.c **** 
 271:../STM32F10x_StdPeriph_Lib_V3.5.0/Libraries/STM32F10x_StdPeriph_Driver/src/stm32f10x_tim.c **** /**
 272:../STM32F10x_StdPeriph_Lib_V3.5.0/Libraries/STM32F10x_StdPeriph_Driver/src/stm32f10x_tim.c ****   * @brief  Initializes the TIMx Channel1 according to the specified
 273:../STM32F10x_StdPeriph_Lib_V3.5.0/Libraries/STM32F10x_StdPeriph_Driver/src/stm32f10x_tim.c ****   *         parameters in the TIM_OCInitStruct.
 274:../STM32F10x_StdPeriph_Lib_V3.5.0/Libraries/STM32F10x_StdPeriph_Driver/src/stm32f10x_tim.c ****   * @param  TIMx: where x can be  1 to 17 except 6 and 7 to select the TIM peripheral.
 275:../STM32F10x_StdPeriph_Lib_V3.5.0/Libraries/STM32F10x_StdPeriph_Driver/src/stm32f10x_tim.c ****   * @param  TIM_OCInitStruct: pointer to a TIM_OCInitTypeDef structure
 276:../STM32F10x_StdPeriph_Lib_V3.5.0/Libraries/STM32F10x_StdPeriph_Driver/src/stm32f10x_tim.c ****   *         that contains the configuration information for the specified TIM peripheral.
 277:../STM32F10x_StdPeriph_Lib_V3.5.0/Libraries/STM32F10x_StdPeriph_Driver/src/stm32f10x_tim.c ****   * @retval None
 278:../STM32F10x_StdPeriph_Lib_V3.5.0/Libraries/STM32F10x_StdPeriph_Driver/src/stm32f10x_tim.c ****   */
 279:../STM32F10x_StdPeriph_Lib_V3.5.0/Libraries/STM32F10x_StdPeriph_Driver/src/stm32f10x_tim.c **** void TIM_OC1Init(TIM_TypeDef* TIMx, TIM_OCInitTypeDef* TIM_OCInitStruct)
 280:../STM32F10x_StdPeriph_Lib_V3.5.0/Libraries/STM32F10x_StdPeriph_Driver/src/stm32f10x_tim.c **** {
 490              		.loc 1 280 0
 491              		.cfi_startproc
 492              		@ args = 0, pretend = 0, frame = 16
 493              		@ frame_needed = 1, uses_anonymous_args = 0
 494              		@ link register save eliminated.
 495 0000 80B4     		push	{r7}
 496              	.LCFI6:
 497              		.cfi_def_cfa_offset 4
 498              		.cfi_offset 7, -4
 499 0002 85B0     		sub	sp, sp, #20
 500              	.LCFI7:
 501              		.cfi_def_cfa_offset 24
 502 0004 00AF     		add	r7, sp, #0
 503              	.LCFI8:
 504              		.cfi_def_cfa_register 7
 505 0006 7860     		str	r0, [r7, #4]
 506 0008 3960     		str	r1, [r7, #0]
 281:../STM32F10x_StdPeriph_Lib_V3.5.0/Libraries/STM32F10x_StdPeriph_Driver/src/stm32f10x_tim.c ****   uint16_t tmpccmrx = 0, tmpccer = 0, tmpcr2 = 0;
 507              		.loc 1 281 0
 508 000a 4FF00003 		mov	r3, #0
 509 000e 7B81     		strh	r3, [r7, #10]	@ movhi
 510 0010 4FF00003 		mov	r3, #0
 511 0014 FB81     		strh	r3, [r7, #14]	@ movhi
 512 0016 4FF00003 		mov	r3, #0
 513 001a BB81     		strh	r3, [r7, #12]	@ movhi
 282:../STM32F10x_StdPeriph_Lib_V3.5.0/Libraries/STM32F10x_StdPeriph_Driver/src/stm32f10x_tim.c ****    
 283:../STM32F10x_StdPeriph_Lib_V3.5.0/Libraries/STM32F10x_StdPeriph_Driver/src/stm32f10x_tim.c ****   /* Check the parameters */
 284:../STM32F10x_StdPeriph_Lib_V3.5.0/Libraries/STM32F10x_StdPeriph_Driver/src/stm32f10x_tim.c ****   assert_param(IS_TIM_LIST8_PERIPH(TIMx));
 285:../STM32F10x_StdPeriph_Lib_V3.5.0/Libraries/STM32F10x_StdPeriph_Driver/src/stm32f10x_tim.c ****   assert_param(IS_TIM_OC_MODE(TIM_OCInitStruct->TIM_OCMode));
 286:../STM32F10x_StdPeriph_Lib_V3.5.0/Libraries/STM32F10x_StdPeriph_Driver/src/stm32f10x_tim.c ****   assert_param(IS_TIM_OUTPUT_STATE(TIM_OCInitStruct->TIM_OutputState));
 287:../STM32F10x_StdPeriph_Lib_V3.5.0/Libraries/STM32F10x_StdPeriph_Driver/src/stm32f10x_tim.c ****   assert_param(IS_TIM_OC_POLARITY(TIM_OCInitStruct->TIM_OCPolarity));   
 288:../STM32F10x_StdPeriph_Lib_V3.5.0/Libraries/STM32F10x_StdPeriph_Driver/src/stm32f10x_tim.c ****  /* Disable the Channel 1: Reset the CC1E Bit */
 289:../STM32F10x_StdPeriph_Lib_V3.5.0/Libraries/STM32F10x_StdPeriph_Driver/src/stm32f10x_tim.c ****   TIMx->CCER &= (uint16_t)(~(uint16_t)TIM_CCER_CC1E);
 514              		.loc 1 289 0
 515 001c 7B68     		ldr	r3, [r7, #4]
 516 001e 1B8C     		ldrh	r3, [r3, #32]	@ movhi
 517 0020 9BB2     		uxth	r3, r3
 518 0022 23F00103 		bic	r3, r3, #1
 519 0026 9AB2     		uxth	r2, r3
 520 0028 7B68     		ldr	r3, [r7, #4]
 521 002a 1A84     		strh	r2, [r3, #32]	@ movhi
 290:../STM32F10x_StdPeriph_Lib_V3.5.0/Libraries/STM32F10x_StdPeriph_Driver/src/stm32f10x_tim.c ****   /* Get the TIMx CCER register value */
 291:../STM32F10x_StdPeriph_Lib_V3.5.0/Libraries/STM32F10x_StdPeriph_Driver/src/stm32f10x_tim.c ****   tmpccer = TIMx->CCER;
 522              		.loc 1 291 0
 523 002c 7B68     		ldr	r3, [r7, #4]
 524 002e 1B8C     		ldrh	r3, [r3, #32]	@ movhi
 525 0030 FB81     		strh	r3, [r7, #14]	@ movhi
 292:../STM32F10x_StdPeriph_Lib_V3.5.0/Libraries/STM32F10x_StdPeriph_Driver/src/stm32f10x_tim.c ****   /* Get the TIMx CR2 register value */
 293:../STM32F10x_StdPeriph_Lib_V3.5.0/Libraries/STM32F10x_StdPeriph_Driver/src/stm32f10x_tim.c ****   tmpcr2 =  TIMx->CR2;
 526              		.loc 1 293 0
 527 0032 7B68     		ldr	r3, [r7, #4]
 528 0034 9B88     		ldrh	r3, [r3, #4]	@ movhi
 529 0036 BB81     		strh	r3, [r7, #12]	@ movhi
 294:../STM32F10x_StdPeriph_Lib_V3.5.0/Libraries/STM32F10x_StdPeriph_Driver/src/stm32f10x_tim.c ****   
 295:../STM32F10x_StdPeriph_Lib_V3.5.0/Libraries/STM32F10x_StdPeriph_Driver/src/stm32f10x_tim.c ****   /* Get the TIMx CCMR1 register value */
 296:../STM32F10x_StdPeriph_Lib_V3.5.0/Libraries/STM32F10x_StdPeriph_Driver/src/stm32f10x_tim.c ****   tmpccmrx = TIMx->CCMR1;
 530              		.loc 1 296 0
 531 0038 7B68     		ldr	r3, [r7, #4]
 532 003a 1B8B     		ldrh	r3, [r3, #24]	@ movhi
 533 003c 7B81     		strh	r3, [r7, #10]	@ movhi
 297:../STM32F10x_StdPeriph_Lib_V3.5.0/Libraries/STM32F10x_StdPeriph_Driver/src/stm32f10x_tim.c ****     
 298:../STM32F10x_StdPeriph_Lib_V3.5.0/Libraries/STM32F10x_StdPeriph_Driver/src/stm32f10x_tim.c ****   /* Reset the Output Compare Mode Bits */
 299:../STM32F10x_StdPeriph_Lib_V3.5.0/Libraries/STM32F10x_StdPeriph_Driver/src/stm32f10x_tim.c ****   tmpccmrx &= (uint16_t)(~((uint16_t)TIM_CCMR1_OC1M));
 534              		.loc 1 299 0
 535 003e 7B89     		ldrh	r3, [r7, #10]	@ movhi
 536 0040 23F07003 		bic	r3, r3, #112
 537 0044 7B81     		strh	r3, [r7, #10]	@ movhi
 300:../STM32F10x_StdPeriph_Lib_V3.5.0/Libraries/STM32F10x_StdPeriph_Driver/src/stm32f10x_tim.c ****   tmpccmrx &= (uint16_t)(~((uint16_t)TIM_CCMR1_CC1S));
 538              		.loc 1 300 0
 539 0046 7B89     		ldrh	r3, [r7, #10]	@ movhi
 540 0048 23F00303 		bic	r3, r3, #3
 541 004c 7B81     		strh	r3, [r7, #10]	@ movhi
 301:../STM32F10x_StdPeriph_Lib_V3.5.0/Libraries/STM32F10x_StdPeriph_Driver/src/stm32f10x_tim.c **** 
 302:../STM32F10x_StdPeriph_Lib_V3.5.0/Libraries/STM32F10x_StdPeriph_Driver/src/stm32f10x_tim.c ****   /* Select the Output Compare Mode */
 303:../STM32F10x_StdPeriph_Lib_V3.5.0/Libraries/STM32F10x_StdPeriph_Driver/src/stm32f10x_tim.c ****   tmpccmrx |= TIM_OCInitStruct->TIM_OCMode;
 542              		.loc 1 303 0
 543 004e 3B68     		ldr	r3, [r7, #0]
 544 0050 1A88     		ldrh	r2, [r3, #0]
 545 0052 7B89     		ldrh	r3, [r7, #10]	@ movhi
 546 0054 1343     		orrs	r3, r3, r2
 547 0056 7B81     		strh	r3, [r7, #10]	@ movhi
 304:../STM32F10x_StdPeriph_Lib_V3.5.0/Libraries/STM32F10x_StdPeriph_Driver/src/stm32f10x_tim.c ****   
 305:../STM32F10x_StdPeriph_Lib_V3.5.0/Libraries/STM32F10x_StdPeriph_Driver/src/stm32f10x_tim.c ****   /* Reset the Output Polarity level */
 306:../STM32F10x_StdPeriph_Lib_V3.5.0/Libraries/STM32F10x_StdPeriph_Driver/src/stm32f10x_tim.c ****   tmpccer &= (uint16_t)(~((uint16_t)TIM_CCER_CC1P));
 548              		.loc 1 306 0
 549 0058 FB89     		ldrh	r3, [r7, #14]	@ movhi
 550 005a 23F00203 		bic	r3, r3, #2
 551 005e FB81     		strh	r3, [r7, #14]	@ movhi
 307:../STM32F10x_StdPeriph_Lib_V3.5.0/Libraries/STM32F10x_StdPeriph_Driver/src/stm32f10x_tim.c ****   /* Set the Output Compare Polarity */
 308:../STM32F10x_StdPeriph_Lib_V3.5.0/Libraries/STM32F10x_StdPeriph_Driver/src/stm32f10x_tim.c ****   tmpccer |= TIM_OCInitStruct->TIM_OCPolarity;
 552              		.loc 1 308 0
 553 0060 3B68     		ldr	r3, [r7, #0]
 554 0062 1A89     		ldrh	r2, [r3, #8]
 555 0064 FB89     		ldrh	r3, [r7, #14]	@ movhi
 556 0066 1343     		orrs	r3, r3, r2
 557 0068 FB81     		strh	r3, [r7, #14]	@ movhi
 309:../STM32F10x_StdPeriph_Lib_V3.5.0/Libraries/STM32F10x_StdPeriph_Driver/src/stm32f10x_tim.c ****   
 310:../STM32F10x_StdPeriph_Lib_V3.5.0/Libraries/STM32F10x_StdPeriph_Driver/src/stm32f10x_tim.c ****   /* Set the Output State */
 311:../STM32F10x_StdPeriph_Lib_V3.5.0/Libraries/STM32F10x_StdPeriph_Driver/src/stm32f10x_tim.c ****   tmpccer |= TIM_OCInitStruct->TIM_OutputState;
 558              		.loc 1 311 0
 559 006a 3B68     		ldr	r3, [r7, #0]
 560 006c 5A88     		ldrh	r2, [r3, #2]
 561 006e FB89     		ldrh	r3, [r7, #14]	@ movhi
 562 0070 1343     		orrs	r3, r3, r2
 563 0072 FB81     		strh	r3, [r7, #14]	@ movhi
 312:../STM32F10x_StdPeriph_Lib_V3.5.0/Libraries/STM32F10x_StdPeriph_Driver/src/stm32f10x_tim.c ****     
 313:../STM32F10x_StdPeriph_Lib_V3.5.0/Libraries/STM32F10x_StdPeriph_Driver/src/stm32f10x_tim.c ****   if((TIMx == TIM1) || (TIMx == TIM8)|| (TIMx == TIM15)||
 564              		.loc 1 313 0
 565 0074 7A68     		ldr	r2, [r7, #4]
 566 0076 244B     		ldr	r3, .L32
 567 0078 9A42     		cmp	r2, r3
 568 007a 0FD0     		beq	.L30
 569              		.loc 1 313 0 is_stmt 0 discriminator 1
 570 007c 7A68     		ldr	r2, [r7, #4]
 571 007e 234B     		ldr	r3, .L32+4
 572 0080 9A42     		cmp	r2, r3
 573 0082 0BD0     		beq	.L30
 574 0084 7A68     		ldr	r2, [r7, #4]
 575 0086 224B     		ldr	r3, .L32+8
 576 0088 9A42     		cmp	r2, r3
 577 008a 07D0     		beq	.L30
 578 008c 7A68     		ldr	r2, [r7, #4]
 579 008e 214B     		ldr	r3, .L32+12
 580 0090 9A42     		cmp	r2, r3
 581 0092 03D0     		beq	.L30
 314:../STM32F10x_StdPeriph_Lib_V3.5.0/Libraries/STM32F10x_StdPeriph_Driver/src/stm32f10x_tim.c ****      (TIMx == TIM16)|| (TIMx == TIM17))
 582              		.loc 1 314 0 is_stmt 1
 583 0094 7A68     		ldr	r2, [r7, #4]
 584 0096 204B     		ldr	r3, .L32+16
 585 0098 9A42     		cmp	r2, r3
 586 009a 23D1     		bne	.L31
 587              	.L30:
 315:../STM32F10x_StdPeriph_Lib_V3.5.0/Libraries/STM32F10x_StdPeriph_Driver/src/stm32f10x_tim.c ****   {
 316:../STM32F10x_StdPeriph_Lib_V3.5.0/Libraries/STM32F10x_StdPeriph_Driver/src/stm32f10x_tim.c ****     assert_param(IS_TIM_OUTPUTN_STATE(TIM_OCInitStruct->TIM_OutputNState));
 317:../STM32F10x_StdPeriph_Lib_V3.5.0/Libraries/STM32F10x_StdPeriph_Driver/src/stm32f10x_tim.c ****     assert_param(IS_TIM_OCN_POLARITY(TIM_OCInitStruct->TIM_OCNPolarity));
 318:../STM32F10x_StdPeriph_Lib_V3.5.0/Libraries/STM32F10x_StdPeriph_Driver/src/stm32f10x_tim.c ****     assert_param(IS_TIM_OCNIDLE_STATE(TIM_OCInitStruct->TIM_OCNIdleState));
 319:../STM32F10x_StdPeriph_Lib_V3.5.0/Libraries/STM32F10x_StdPeriph_Driver/src/stm32f10x_tim.c ****     assert_param(IS_TIM_OCIDLE_STATE(TIM_OCInitStruct->TIM_OCIdleState));
 320:../STM32F10x_StdPeriph_Lib_V3.5.0/Libraries/STM32F10x_StdPeriph_Driver/src/stm32f10x_tim.c ****     
 321:../STM32F10x_StdPeriph_Lib_V3.5.0/Libraries/STM32F10x_StdPeriph_Driver/src/stm32f10x_tim.c ****     /* Reset the Output N Polarity level */
 322:../STM32F10x_StdPeriph_Lib_V3.5.0/Libraries/STM32F10x_StdPeriph_Driver/src/stm32f10x_tim.c ****     tmpccer &= (uint16_t)(~((uint16_t)TIM_CCER_CC1NP));
 588              		.loc 1 322 0
 589 009c FB89     		ldrh	r3, [r7, #14]	@ movhi
 590 009e 23F00803 		bic	r3, r3, #8
 591 00a2 FB81     		strh	r3, [r7, #14]	@ movhi
 323:../STM32F10x_StdPeriph_Lib_V3.5.0/Libraries/STM32F10x_StdPeriph_Driver/src/stm32f10x_tim.c ****     /* Set the Output N Polarity */
 324:../STM32F10x_StdPeriph_Lib_V3.5.0/Libraries/STM32F10x_StdPeriph_Driver/src/stm32f10x_tim.c ****     tmpccer |= TIM_OCInitStruct->TIM_OCNPolarity;
 592              		.loc 1 324 0
 593 00a4 3B68     		ldr	r3, [r7, #0]
 594 00a6 5A89     		ldrh	r2, [r3, #10]
 595 00a8 FB89     		ldrh	r3, [r7, #14]	@ movhi
 596 00aa 1343     		orrs	r3, r3, r2
 597 00ac FB81     		strh	r3, [r7, #14]	@ movhi
 325:../STM32F10x_StdPeriph_Lib_V3.5.0/Libraries/STM32F10x_StdPeriph_Driver/src/stm32f10x_tim.c ****     
 326:../STM32F10x_StdPeriph_Lib_V3.5.0/Libraries/STM32F10x_StdPeriph_Driver/src/stm32f10x_tim.c ****     /* Reset the Output N State */
 327:../STM32F10x_StdPeriph_Lib_V3.5.0/Libraries/STM32F10x_StdPeriph_Driver/src/stm32f10x_tim.c ****     tmpccer &= (uint16_t)(~((uint16_t)TIM_CCER_CC1NE));    
 598              		.loc 1 327 0
 599 00ae FB89     		ldrh	r3, [r7, #14]	@ movhi
 600 00b0 23F00403 		bic	r3, r3, #4
 601 00b4 FB81     		strh	r3, [r7, #14]	@ movhi
 328:../STM32F10x_StdPeriph_Lib_V3.5.0/Libraries/STM32F10x_StdPeriph_Driver/src/stm32f10x_tim.c ****     /* Set the Output N State */
 329:../STM32F10x_StdPeriph_Lib_V3.5.0/Libraries/STM32F10x_StdPeriph_Driver/src/stm32f10x_tim.c ****     tmpccer |= TIM_OCInitStruct->TIM_OutputNState;
 602              		.loc 1 329 0
 603 00b6 3B68     		ldr	r3, [r7, #0]
 604 00b8 9A88     		ldrh	r2, [r3, #4]
 605 00ba FB89     		ldrh	r3, [r7, #14]	@ movhi
 606 00bc 1343     		orrs	r3, r3, r2
 607 00be FB81     		strh	r3, [r7, #14]	@ movhi
 330:../STM32F10x_StdPeriph_Lib_V3.5.0/Libraries/STM32F10x_StdPeriph_Driver/src/stm32f10x_tim.c ****     
 331:../STM32F10x_StdPeriph_Lib_V3.5.0/Libraries/STM32F10x_StdPeriph_Driver/src/stm32f10x_tim.c ****     /* Reset the Output Compare and Output Compare N IDLE State */
 332:../STM32F10x_StdPeriph_Lib_V3.5.0/Libraries/STM32F10x_StdPeriph_Driver/src/stm32f10x_tim.c ****     tmpcr2 &= (uint16_t)(~((uint16_t)TIM_CR2_OIS1));
 608              		.loc 1 332 0
 609 00c0 BB89     		ldrh	r3, [r7, #12]	@ movhi
 610 00c2 23F48073 		bic	r3, r3, #256
 611 00c6 BB81     		strh	r3, [r7, #12]	@ movhi
 333:../STM32F10x_StdPeriph_Lib_V3.5.0/Libraries/STM32F10x_StdPeriph_Driver/src/stm32f10x_tim.c ****     tmpcr2 &= (uint16_t)(~((uint16_t)TIM_CR2_OIS1N));
 612              		.loc 1 333 0
 613 00c8 BB89     		ldrh	r3, [r7, #12]	@ movhi
 614 00ca 23F40073 		bic	r3, r3, #512
 615 00ce BB81     		strh	r3, [r7, #12]	@ movhi
 334:../STM32F10x_StdPeriph_Lib_V3.5.0/Libraries/STM32F10x_StdPeriph_Driver/src/stm32f10x_tim.c ****     
 335:../STM32F10x_StdPeriph_Lib_V3.5.0/Libraries/STM32F10x_StdPeriph_Driver/src/stm32f10x_tim.c ****     /* Set the Output Idle state */
 336:../STM32F10x_StdPeriph_Lib_V3.5.0/Libraries/STM32F10x_StdPeriph_Driver/src/stm32f10x_tim.c ****     tmpcr2 |= TIM_OCInitStruct->TIM_OCIdleState;
 616              		.loc 1 336 0
 617 00d0 3B68     		ldr	r3, [r7, #0]
 618 00d2 9A89     		ldrh	r2, [r3, #12]
 619 00d4 BB89     		ldrh	r3, [r7, #12]	@ movhi
 620 00d6 1343     		orrs	r3, r3, r2
 621 00d8 BB81     		strh	r3, [r7, #12]	@ movhi
 337:../STM32F10x_StdPeriph_Lib_V3.5.0/Libraries/STM32F10x_StdPeriph_Driver/src/stm32f10x_tim.c ****     /* Set the Output N Idle state */
 338:../STM32F10x_StdPeriph_Lib_V3.5.0/Libraries/STM32F10x_StdPeriph_Driver/src/stm32f10x_tim.c ****     tmpcr2 |= TIM_OCInitStruct->TIM_OCNIdleState;
 622              		.loc 1 338 0
 623 00da 3B68     		ldr	r3, [r7, #0]
 624 00dc DA89     		ldrh	r2, [r3, #14]
 625 00de BB89     		ldrh	r3, [r7, #12]	@ movhi
 626 00e0 1343     		orrs	r3, r3, r2
 627 00e2 BB81     		strh	r3, [r7, #12]	@ movhi
 628              	.L31:
 339:../STM32F10x_StdPeriph_Lib_V3.5.0/Libraries/STM32F10x_StdPeriph_Driver/src/stm32f10x_tim.c ****   }
 340:../STM32F10x_StdPeriph_Lib_V3.5.0/Libraries/STM32F10x_StdPeriph_Driver/src/stm32f10x_tim.c ****   /* Write to TIMx CR2 */
 341:../STM32F10x_StdPeriph_Lib_V3.5.0/Libraries/STM32F10x_StdPeriph_Driver/src/stm32f10x_tim.c ****   TIMx->CR2 = tmpcr2;
 629              		.loc 1 341 0
 630 00e4 7B68     		ldr	r3, [r7, #4]
 631 00e6 BA89     		ldrh	r2, [r7, #12]	@ movhi
 632 00e8 9A80     		strh	r2, [r3, #4]	@ movhi
 342:../STM32F10x_StdPeriph_Lib_V3.5.0/Libraries/STM32F10x_StdPeriph_Driver/src/stm32f10x_tim.c ****   
 343:../STM32F10x_StdPeriph_Lib_V3.5.0/Libraries/STM32F10x_StdPeriph_Driver/src/stm32f10x_tim.c ****   /* Write to TIMx CCMR1 */
 344:../STM32F10x_StdPeriph_Lib_V3.5.0/Libraries/STM32F10x_StdPeriph_Driver/src/stm32f10x_tim.c ****   TIMx->CCMR1 = tmpccmrx;
 633              		.loc 1 344 0
 634 00ea 7B68     		ldr	r3, [r7, #4]
 635 00ec 7A89     		ldrh	r2, [r7, #10]	@ movhi
 636 00ee 1A83     		strh	r2, [r3, #24]	@ movhi
 345:../STM32F10x_StdPeriph_Lib_V3.5.0/Libraries/STM32F10x_StdPeriph_Driver/src/stm32f10x_tim.c **** 
 346:../STM32F10x_StdPeriph_Lib_V3.5.0/Libraries/STM32F10x_StdPeriph_Driver/src/stm32f10x_tim.c ****   /* Set the Capture Compare Register value */
 347:../STM32F10x_StdPeriph_Lib_V3.5.0/Libraries/STM32F10x_StdPeriph_Driver/src/stm32f10x_tim.c ****   TIMx->CCR1 = TIM_OCInitStruct->TIM_Pulse; 
 637              		.loc 1 347 0
 638 00f0 3B68     		ldr	r3, [r7, #0]
 639 00f2 DA88     		ldrh	r2, [r3, #6]
 640 00f4 7B68     		ldr	r3, [r7, #4]
 641 00f6 9A86     		strh	r2, [r3, #52]	@ movhi
 348:../STM32F10x_StdPeriph_Lib_V3.5.0/Libraries/STM32F10x_StdPeriph_Driver/src/stm32f10x_tim.c ****  
 349:../STM32F10x_StdPeriph_Lib_V3.5.0/Libraries/STM32F10x_StdPeriph_Driver/src/stm32f10x_tim.c ****   /* Write to TIMx CCER */
 350:../STM32F10x_StdPeriph_Lib_V3.5.0/Libraries/STM32F10x_StdPeriph_Driver/src/stm32f10x_tim.c ****   TIMx->CCER = tmpccer;
 642              		.loc 1 350 0
 643 00f8 7B68     		ldr	r3, [r7, #4]
 644 00fa FA89     		ldrh	r2, [r7, #14]	@ movhi
 645 00fc 1A84     		strh	r2, [r3, #32]	@ movhi
 351:../STM32F10x_StdPeriph_Lib_V3.5.0/Libraries/STM32F10x_StdPeriph_Driver/src/stm32f10x_tim.c **** }
 646              		.loc 1 351 0
 647 00fe 07F11407 		add	r7, r7, #20
 648 0102 BD46     		mov	sp, r7
 649 0104 80BC     		pop	{r7}
 650 0106 7047     		bx	lr
 651              	.L33:
 652              		.align	2
 653              	.L32:
 654 0108 002C0140 		.word	1073818624
 655 010c 00340140 		.word	1073820672
 656 0110 00400140 		.word	1073823744
 657 0114 00440140 		.word	1073824768
 658 0118 00480140 		.word	1073825792
 659              		.cfi_endproc
 660              	.LFE31:
 662              		.section	.text.TIM_OC2Init,"ax",%progbits
 663              		.align	2
 664              		.global	TIM_OC2Init
 665              		.thumb
 666              		.thumb_func
 668              	TIM_OC2Init:
 669              	.LFB32:
 352:../STM32F10x_StdPeriph_Lib_V3.5.0/Libraries/STM32F10x_StdPeriph_Driver/src/stm32f10x_tim.c **** 
 353:../STM32F10x_StdPeriph_Lib_V3.5.0/Libraries/STM32F10x_StdPeriph_Driver/src/stm32f10x_tim.c **** /**
 354:../STM32F10x_StdPeriph_Lib_V3.5.0/Libraries/STM32F10x_StdPeriph_Driver/src/stm32f10x_tim.c ****   * @brief  Initializes the TIMx Channel2 according to the specified
 355:../STM32F10x_StdPeriph_Lib_V3.5.0/Libraries/STM32F10x_StdPeriph_Driver/src/stm32f10x_tim.c ****   *         parameters in the TIM_OCInitStruct.
 356:../STM32F10x_StdPeriph_Lib_V3.5.0/Libraries/STM32F10x_StdPeriph_Driver/src/stm32f10x_tim.c ****   * @param  TIMx: where x can be  1, 2, 3, 4, 5, 8, 9, 12 or 15 to select 
 357:../STM32F10x_StdPeriph_Lib_V3.5.0/Libraries/STM32F10x_StdPeriph_Driver/src/stm32f10x_tim.c ****   *         the TIM peripheral.
 358:../STM32F10x_StdPeriph_Lib_V3.5.0/Libraries/STM32F10x_StdPeriph_Driver/src/stm32f10x_tim.c ****   * @param  TIM_OCInitStruct: pointer to a TIM_OCInitTypeDef structure
 359:../STM32F10x_StdPeriph_Lib_V3.5.0/Libraries/STM32F10x_StdPeriph_Driver/src/stm32f10x_tim.c ****   *         that contains the configuration information for the specified TIM peripheral.
 360:../STM32F10x_StdPeriph_Lib_V3.5.0/Libraries/STM32F10x_StdPeriph_Driver/src/stm32f10x_tim.c ****   * @retval None
 361:../STM32F10x_StdPeriph_Lib_V3.5.0/Libraries/STM32F10x_StdPeriph_Driver/src/stm32f10x_tim.c ****   */
 362:../STM32F10x_StdPeriph_Lib_V3.5.0/Libraries/STM32F10x_StdPeriph_Driver/src/stm32f10x_tim.c **** void TIM_OC2Init(TIM_TypeDef* TIMx, TIM_OCInitTypeDef* TIM_OCInitStruct)
 363:../STM32F10x_StdPeriph_Lib_V3.5.0/Libraries/STM32F10x_StdPeriph_Driver/src/stm32f10x_tim.c **** {
 670              		.loc 1 363 0
 671              		.cfi_startproc
 672              		@ args = 0, pretend = 0, frame = 16
 673              		@ frame_needed = 1, uses_anonymous_args = 0
 674              		@ link register save eliminated.
 675 0000 80B4     		push	{r7}
 676              	.LCFI9:
 677              		.cfi_def_cfa_offset 4
 678              		.cfi_offset 7, -4
 679 0002 85B0     		sub	sp, sp, #20
 680              	.LCFI10:
 681              		.cfi_def_cfa_offset 24
 682 0004 00AF     		add	r7, sp, #0
 683              	.LCFI11:
 684              		.cfi_def_cfa_register 7
 685 0006 7860     		str	r0, [r7, #4]
 686 0008 3960     		str	r1, [r7, #0]
 364:../STM32F10x_StdPeriph_Lib_V3.5.0/Libraries/STM32F10x_StdPeriph_Driver/src/stm32f10x_tim.c ****   uint16_t tmpccmrx = 0, tmpccer = 0, tmpcr2 = 0;
 687              		.loc 1 364 0
 688 000a 4FF00003 		mov	r3, #0
 689 000e 7B81     		strh	r3, [r7, #10]	@ movhi
 690 0010 4FF00003 		mov	r3, #0
 691 0014 FB81     		strh	r3, [r7, #14]	@ movhi
 692 0016 4FF00003 		mov	r3, #0
 693 001a BB81     		strh	r3, [r7, #12]	@ movhi
 365:../STM32F10x_StdPeriph_Lib_V3.5.0/Libraries/STM32F10x_StdPeriph_Driver/src/stm32f10x_tim.c ****    
 366:../STM32F10x_StdPeriph_Lib_V3.5.0/Libraries/STM32F10x_StdPeriph_Driver/src/stm32f10x_tim.c ****   /* Check the parameters */
 367:../STM32F10x_StdPeriph_Lib_V3.5.0/Libraries/STM32F10x_StdPeriph_Driver/src/stm32f10x_tim.c ****   assert_param(IS_TIM_LIST6_PERIPH(TIMx)); 
 368:../STM32F10x_StdPeriph_Lib_V3.5.0/Libraries/STM32F10x_StdPeriph_Driver/src/stm32f10x_tim.c ****   assert_param(IS_TIM_OC_MODE(TIM_OCInitStruct->TIM_OCMode));
 369:../STM32F10x_StdPeriph_Lib_V3.5.0/Libraries/STM32F10x_StdPeriph_Driver/src/stm32f10x_tim.c ****   assert_param(IS_TIM_OUTPUT_STATE(TIM_OCInitStruct->TIM_OutputState));
 370:../STM32F10x_StdPeriph_Lib_V3.5.0/Libraries/STM32F10x_StdPeriph_Driver/src/stm32f10x_tim.c ****   assert_param(IS_TIM_OC_POLARITY(TIM_OCInitStruct->TIM_OCPolarity));   
 371:../STM32F10x_StdPeriph_Lib_V3.5.0/Libraries/STM32F10x_StdPeriph_Driver/src/stm32f10x_tim.c ****    /* Disable the Channel 2: Reset the CC2E Bit */
 372:../STM32F10x_StdPeriph_Lib_V3.5.0/Libraries/STM32F10x_StdPeriph_Driver/src/stm32f10x_tim.c ****   TIMx->CCER &= (uint16_t)(~((uint16_t)TIM_CCER_CC2E));
 694              		.loc 1 372 0
 695 001c 7B68     		ldr	r3, [r7, #4]
 696 001e 1B8C     		ldrh	r3, [r3, #32]	@ movhi
 697 0020 9BB2     		uxth	r3, r3
 698 0022 23F01003 		bic	r3, r3, #16
 699 0026 9AB2     		uxth	r2, r3
 700 0028 7B68     		ldr	r3, [r7, #4]
 701 002a 1A84     		strh	r2, [r3, #32]	@ movhi
 373:../STM32F10x_StdPeriph_Lib_V3.5.0/Libraries/STM32F10x_StdPeriph_Driver/src/stm32f10x_tim.c ****   
 374:../STM32F10x_StdPeriph_Lib_V3.5.0/Libraries/STM32F10x_StdPeriph_Driver/src/stm32f10x_tim.c ****   /* Get the TIMx CCER register value */  
 375:../STM32F10x_StdPeriph_Lib_V3.5.0/Libraries/STM32F10x_StdPeriph_Driver/src/stm32f10x_tim.c ****   tmpccer = TIMx->CCER;
 702              		.loc 1 375 0
 703 002c 7B68     		ldr	r3, [r7, #4]
 704 002e 1B8C     		ldrh	r3, [r3, #32]	@ movhi
 705 0030 FB81     		strh	r3, [r7, #14]	@ movhi
 376:../STM32F10x_StdPeriph_Lib_V3.5.0/Libraries/STM32F10x_StdPeriph_Driver/src/stm32f10x_tim.c ****   /* Get the TIMx CR2 register value */
 377:../STM32F10x_StdPeriph_Lib_V3.5.0/Libraries/STM32F10x_StdPeriph_Driver/src/stm32f10x_tim.c ****   tmpcr2 =  TIMx->CR2;
 706              		.loc 1 377 0
 707 0032 7B68     		ldr	r3, [r7, #4]
 708 0034 9B88     		ldrh	r3, [r3, #4]	@ movhi
 709 0036 BB81     		strh	r3, [r7, #12]	@ movhi
 378:../STM32F10x_StdPeriph_Lib_V3.5.0/Libraries/STM32F10x_StdPeriph_Driver/src/stm32f10x_tim.c ****   
 379:../STM32F10x_StdPeriph_Lib_V3.5.0/Libraries/STM32F10x_StdPeriph_Driver/src/stm32f10x_tim.c ****   /* Get the TIMx CCMR1 register value */
 380:../STM32F10x_StdPeriph_Lib_V3.5.0/Libraries/STM32F10x_StdPeriph_Driver/src/stm32f10x_tim.c ****   tmpccmrx = TIMx->CCMR1;
 710              		.loc 1 380 0
 711 0038 7B68     		ldr	r3, [r7, #4]
 712 003a 1B8B     		ldrh	r3, [r3, #24]	@ movhi
 713 003c 7B81     		strh	r3, [r7, #10]	@ movhi
 381:../STM32F10x_StdPeriph_Lib_V3.5.0/Libraries/STM32F10x_StdPeriph_Driver/src/stm32f10x_tim.c ****     
 382:../STM32F10x_StdPeriph_Lib_V3.5.0/Libraries/STM32F10x_StdPeriph_Driver/src/stm32f10x_tim.c ****   /* Reset the Output Compare mode and Capture/Compare selection Bits */
 383:../STM32F10x_StdPeriph_Lib_V3.5.0/Libraries/STM32F10x_StdPeriph_Driver/src/stm32f10x_tim.c ****   tmpccmrx &= (uint16_t)(~((uint16_t)TIM_CCMR1_OC2M));
 714              		.loc 1 383 0
 715 003e 7B89     		ldrh	r3, [r7, #10]	@ movhi
 716 0040 23F4E043 		bic	r3, r3, #28672
 717 0044 7B81     		strh	r3, [r7, #10]	@ movhi
 384:../STM32F10x_StdPeriph_Lib_V3.5.0/Libraries/STM32F10x_StdPeriph_Driver/src/stm32f10x_tim.c ****   tmpccmrx &= (uint16_t)(~((uint16_t)TIM_CCMR1_CC2S));
 718              		.loc 1 384 0
 719 0046 7B89     		ldrh	r3, [r7, #10]	@ movhi
 720 0048 23F44073 		bic	r3, r3, #768
 721 004c 7B81     		strh	r3, [r7, #10]	@ movhi
 385:../STM32F10x_StdPeriph_Lib_V3.5.0/Libraries/STM32F10x_StdPeriph_Driver/src/stm32f10x_tim.c ****   
 386:../STM32F10x_StdPeriph_Lib_V3.5.0/Libraries/STM32F10x_StdPeriph_Driver/src/stm32f10x_tim.c ****   /* Select the Output Compare Mode */
 387:../STM32F10x_StdPeriph_Lib_V3.5.0/Libraries/STM32F10x_StdPeriph_Driver/src/stm32f10x_tim.c ****   tmpccmrx |= (uint16_t)(TIM_OCInitStruct->TIM_OCMode << 8);
 722              		.loc 1 387 0
 723 004e 3B68     		ldr	r3, [r7, #0]
 724 0050 1B88     		ldrh	r3, [r3, #0]
 725 0052 4FEA0323 		lsl	r3, r3, #8
 726 0056 9AB2     		uxth	r2, r3
 727 0058 7B89     		ldrh	r3, [r7, #10]	@ movhi
 728 005a 1343     		orrs	r3, r3, r2
 729 005c 7B81     		strh	r3, [r7, #10]	@ movhi
 388:../STM32F10x_StdPeriph_Lib_V3.5.0/Libraries/STM32F10x_StdPeriph_Driver/src/stm32f10x_tim.c ****   
 389:../STM32F10x_StdPeriph_Lib_V3.5.0/Libraries/STM32F10x_StdPeriph_Driver/src/stm32f10x_tim.c ****   /* Reset the Output Polarity level */
 390:../STM32F10x_StdPeriph_Lib_V3.5.0/Libraries/STM32F10x_StdPeriph_Driver/src/stm32f10x_tim.c ****   tmpccer &= (uint16_t)(~((uint16_t)TIM_CCER_CC2P));
 730              		.loc 1 390 0
 731 005e FB89     		ldrh	r3, [r7, #14]	@ movhi
 732 0060 23F02003 		bic	r3, r3, #32
 733 0064 FB81     		strh	r3, [r7, #14]	@ movhi
 391:../STM32F10x_StdPeriph_Lib_V3.5.0/Libraries/STM32F10x_StdPeriph_Driver/src/stm32f10x_tim.c ****   /* Set the Output Compare Polarity */
 392:../STM32F10x_StdPeriph_Lib_V3.5.0/Libraries/STM32F10x_StdPeriph_Driver/src/stm32f10x_tim.c ****   tmpccer |= (uint16_t)(TIM_OCInitStruct->TIM_OCPolarity << 4);
 734              		.loc 1 392 0
 735 0066 3B68     		ldr	r3, [r7, #0]
 736 0068 1B89     		ldrh	r3, [r3, #8]
 737 006a 4FEA0313 		lsl	r3, r3, #4
 738 006e 9AB2     		uxth	r2, r3
 739 0070 FB89     		ldrh	r3, [r7, #14]	@ movhi
 740 0072 1343     		orrs	r3, r3, r2
 741 0074 FB81     		strh	r3, [r7, #14]	@ movhi
 393:../STM32F10x_StdPeriph_Lib_V3.5.0/Libraries/STM32F10x_StdPeriph_Driver/src/stm32f10x_tim.c ****   
 394:../STM32F10x_StdPeriph_Lib_V3.5.0/Libraries/STM32F10x_StdPeriph_Driver/src/stm32f10x_tim.c ****   /* Set the Output State */
 395:../STM32F10x_StdPeriph_Lib_V3.5.0/Libraries/STM32F10x_StdPeriph_Driver/src/stm32f10x_tim.c ****   tmpccer |= (uint16_t)(TIM_OCInitStruct->TIM_OutputState << 4);
 742              		.loc 1 395 0
 743 0076 3B68     		ldr	r3, [r7, #0]
 744 0078 5B88     		ldrh	r3, [r3, #2]
 745 007a 4FEA0313 		lsl	r3, r3, #4
 746 007e 9AB2     		uxth	r2, r3
 747 0080 FB89     		ldrh	r3, [r7, #14]	@ movhi
 748 0082 1343     		orrs	r3, r3, r2
 749 0084 FB81     		strh	r3, [r7, #14]	@ movhi
 396:../STM32F10x_StdPeriph_Lib_V3.5.0/Libraries/STM32F10x_StdPeriph_Driver/src/stm32f10x_tim.c ****     
 397:../STM32F10x_StdPeriph_Lib_V3.5.0/Libraries/STM32F10x_StdPeriph_Driver/src/stm32f10x_tim.c ****   if((TIMx == TIM1) || (TIMx == TIM8))
 750              		.loc 1 397 0
 751 0086 7A68     		ldr	r2, [r7, #4]
 752 0088 244B     		ldr	r3, .L37
 753 008a 9A42     		cmp	r2, r3
 754 008c 03D0     		beq	.L35
 755              		.loc 1 397 0 is_stmt 0 discriminator 1
 756 008e 7A68     		ldr	r2, [r7, #4]
 757 0090 234B     		ldr	r3, .L37+4
 758 0092 9A42     		cmp	r2, r3
 759 0094 2FD1     		bne	.L36
 760              	.L35:
 398:../STM32F10x_StdPeriph_Lib_V3.5.0/Libraries/STM32F10x_StdPeriph_Driver/src/stm32f10x_tim.c ****   {
 399:../STM32F10x_StdPeriph_Lib_V3.5.0/Libraries/STM32F10x_StdPeriph_Driver/src/stm32f10x_tim.c ****     assert_param(IS_TIM_OUTPUTN_STATE(TIM_OCInitStruct->TIM_OutputNState));
 400:../STM32F10x_StdPeriph_Lib_V3.5.0/Libraries/STM32F10x_StdPeriph_Driver/src/stm32f10x_tim.c ****     assert_param(IS_TIM_OCN_POLARITY(TIM_OCInitStruct->TIM_OCNPolarity));
 401:../STM32F10x_StdPeriph_Lib_V3.5.0/Libraries/STM32F10x_StdPeriph_Driver/src/stm32f10x_tim.c ****     assert_param(IS_TIM_OCNIDLE_STATE(TIM_OCInitStruct->TIM_OCNIdleState));
 402:../STM32F10x_StdPeriph_Lib_V3.5.0/Libraries/STM32F10x_StdPeriph_Driver/src/stm32f10x_tim.c ****     assert_param(IS_TIM_OCIDLE_STATE(TIM_OCInitStruct->TIM_OCIdleState));
 403:../STM32F10x_StdPeriph_Lib_V3.5.0/Libraries/STM32F10x_StdPeriph_Driver/src/stm32f10x_tim.c ****     
 404:../STM32F10x_StdPeriph_Lib_V3.5.0/Libraries/STM32F10x_StdPeriph_Driver/src/stm32f10x_tim.c ****     /* Reset the Output N Polarity level */
 405:../STM32F10x_StdPeriph_Lib_V3.5.0/Libraries/STM32F10x_StdPeriph_Driver/src/stm32f10x_tim.c ****     tmpccer &= (uint16_t)(~((uint16_t)TIM_CCER_CC2NP));
 761              		.loc 1 405 0 is_stmt 1
 762 0096 FB89     		ldrh	r3, [r7, #14]	@ movhi
 763 0098 23F08003 		bic	r3, r3, #128
 764 009c FB81     		strh	r3, [r7, #14]	@ movhi
 406:../STM32F10x_StdPeriph_Lib_V3.5.0/Libraries/STM32F10x_StdPeriph_Driver/src/stm32f10x_tim.c ****     /* Set the Output N Polarity */
 407:../STM32F10x_StdPeriph_Lib_V3.5.0/Libraries/STM32F10x_StdPeriph_Driver/src/stm32f10x_tim.c ****     tmpccer |= (uint16_t)(TIM_OCInitStruct->TIM_OCNPolarity << 4);
 765              		.loc 1 407 0
 766 009e 3B68     		ldr	r3, [r7, #0]
 767 00a0 5B89     		ldrh	r3, [r3, #10]
 768 00a2 4FEA0313 		lsl	r3, r3, #4
 769 00a6 9AB2     		uxth	r2, r3
 770 00a8 FB89     		ldrh	r3, [r7, #14]	@ movhi
 771 00aa 1343     		orrs	r3, r3, r2
 772 00ac FB81     		strh	r3, [r7, #14]	@ movhi
 408:../STM32F10x_StdPeriph_Lib_V3.5.0/Libraries/STM32F10x_StdPeriph_Driver/src/stm32f10x_tim.c ****     
 409:../STM32F10x_StdPeriph_Lib_V3.5.0/Libraries/STM32F10x_StdPeriph_Driver/src/stm32f10x_tim.c ****     /* Reset the Output N State */
 410:../STM32F10x_StdPeriph_Lib_V3.5.0/Libraries/STM32F10x_StdPeriph_Driver/src/stm32f10x_tim.c ****     tmpccer &= (uint16_t)(~((uint16_t)TIM_CCER_CC2NE));    
 773              		.loc 1 410 0
 774 00ae FB89     		ldrh	r3, [r7, #14]	@ movhi
 775 00b0 23F04003 		bic	r3, r3, #64
 776 00b4 FB81     		strh	r3, [r7, #14]	@ movhi
 411:../STM32F10x_StdPeriph_Lib_V3.5.0/Libraries/STM32F10x_StdPeriph_Driver/src/stm32f10x_tim.c ****     /* Set the Output N State */
 412:../STM32F10x_StdPeriph_Lib_V3.5.0/Libraries/STM32F10x_StdPeriph_Driver/src/stm32f10x_tim.c ****     tmpccer |= (uint16_t)(TIM_OCInitStruct->TIM_OutputNState << 4);
 777              		.loc 1 412 0
 778 00b6 3B68     		ldr	r3, [r7, #0]
 779 00b8 9B88     		ldrh	r3, [r3, #4]
 780 00ba 4FEA0313 		lsl	r3, r3, #4
 781 00be 9AB2     		uxth	r2, r3
 782 00c0 FB89     		ldrh	r3, [r7, #14]	@ movhi
 783 00c2 1343     		orrs	r3, r3, r2
 784 00c4 FB81     		strh	r3, [r7, #14]	@ movhi
 413:../STM32F10x_StdPeriph_Lib_V3.5.0/Libraries/STM32F10x_StdPeriph_Driver/src/stm32f10x_tim.c ****     
 414:../STM32F10x_StdPeriph_Lib_V3.5.0/Libraries/STM32F10x_StdPeriph_Driver/src/stm32f10x_tim.c ****     /* Reset the Output Compare and Output Compare N IDLE State */
 415:../STM32F10x_StdPeriph_Lib_V3.5.0/Libraries/STM32F10x_StdPeriph_Driver/src/stm32f10x_tim.c ****     tmpcr2 &= (uint16_t)(~((uint16_t)TIM_CR2_OIS2));
 785              		.loc 1 415 0
 786 00c6 BB89     		ldrh	r3, [r7, #12]	@ movhi
 787 00c8 23F48063 		bic	r3, r3, #1024
 788 00cc BB81     		strh	r3, [r7, #12]	@ movhi
 416:../STM32F10x_StdPeriph_Lib_V3.5.0/Libraries/STM32F10x_StdPeriph_Driver/src/stm32f10x_tim.c ****     tmpcr2 &= (uint16_t)(~((uint16_t)TIM_CR2_OIS2N));
 789              		.loc 1 416 0
 790 00ce BB89     		ldrh	r3, [r7, #12]	@ movhi
 791 00d0 23F40063 		bic	r3, r3, #2048
 792 00d4 BB81     		strh	r3, [r7, #12]	@ movhi
 417:../STM32F10x_StdPeriph_Lib_V3.5.0/Libraries/STM32F10x_StdPeriph_Driver/src/stm32f10x_tim.c ****     
 418:../STM32F10x_StdPeriph_Lib_V3.5.0/Libraries/STM32F10x_StdPeriph_Driver/src/stm32f10x_tim.c ****     /* Set the Output Idle state */
 419:../STM32F10x_StdPeriph_Lib_V3.5.0/Libraries/STM32F10x_StdPeriph_Driver/src/stm32f10x_tim.c ****     tmpcr2 |= (uint16_t)(TIM_OCInitStruct->TIM_OCIdleState << 2);
 793              		.loc 1 419 0
 794 00d6 3B68     		ldr	r3, [r7, #0]
 795 00d8 9B89     		ldrh	r3, [r3, #12]
 796 00da 4FEA8303 		lsl	r3, r3, #2
 797 00de 9AB2     		uxth	r2, r3
 798 00e0 BB89     		ldrh	r3, [r7, #12]	@ movhi
 799 00e2 1343     		orrs	r3, r3, r2
 800 00e4 BB81     		strh	r3, [r7, #12]	@ movhi
 420:../STM32F10x_StdPeriph_Lib_V3.5.0/Libraries/STM32F10x_StdPeriph_Driver/src/stm32f10x_tim.c ****     /* Set the Output N Idle state */
 421:../STM32F10x_StdPeriph_Lib_V3.5.0/Libraries/STM32F10x_StdPeriph_Driver/src/stm32f10x_tim.c ****     tmpcr2 |= (uint16_t)(TIM_OCInitStruct->TIM_OCNIdleState << 2);
 801              		.loc 1 421 0
 802 00e6 3B68     		ldr	r3, [r7, #0]
 803 00e8 DB89     		ldrh	r3, [r3, #14]
 804 00ea 4FEA8303 		lsl	r3, r3, #2
 805 00ee 9AB2     		uxth	r2, r3
 806 00f0 BB89     		ldrh	r3, [r7, #12]	@ movhi
 807 00f2 1343     		orrs	r3, r3, r2
 808 00f4 BB81     		strh	r3, [r7, #12]	@ movhi
 809              	.L36:
 422:../STM32F10x_StdPeriph_Lib_V3.5.0/Libraries/STM32F10x_StdPeriph_Driver/src/stm32f10x_tim.c ****   }
 423:../STM32F10x_StdPeriph_Lib_V3.5.0/Libraries/STM32F10x_StdPeriph_Driver/src/stm32f10x_tim.c ****   /* Write to TIMx CR2 */
 424:../STM32F10x_StdPeriph_Lib_V3.5.0/Libraries/STM32F10x_StdPeriph_Driver/src/stm32f10x_tim.c ****   TIMx->CR2 = tmpcr2;
 810              		.loc 1 424 0
 811 00f6 7B68     		ldr	r3, [r7, #4]
 812 00f8 BA89     		ldrh	r2, [r7, #12]	@ movhi
 813 00fa 9A80     		strh	r2, [r3, #4]	@ movhi
 425:../STM32F10x_StdPeriph_Lib_V3.5.0/Libraries/STM32F10x_StdPeriph_Driver/src/stm32f10x_tim.c ****   
 426:../STM32F10x_StdPeriph_Lib_V3.5.0/Libraries/STM32F10x_StdPeriph_Driver/src/stm32f10x_tim.c ****   /* Write to TIMx CCMR1 */
 427:../STM32F10x_StdPeriph_Lib_V3.5.0/Libraries/STM32F10x_StdPeriph_Driver/src/stm32f10x_tim.c ****   TIMx->CCMR1 = tmpccmrx;
 814              		.loc 1 427 0
 815 00fc 7B68     		ldr	r3, [r7, #4]
 816 00fe 7A89     		ldrh	r2, [r7, #10]	@ movhi
 817 0100 1A83     		strh	r2, [r3, #24]	@ movhi
 428:../STM32F10x_StdPeriph_Lib_V3.5.0/Libraries/STM32F10x_StdPeriph_Driver/src/stm32f10x_tim.c **** 
 429:../STM32F10x_StdPeriph_Lib_V3.5.0/Libraries/STM32F10x_StdPeriph_Driver/src/stm32f10x_tim.c ****   /* Set the Capture Compare Register value */
 430:../STM32F10x_StdPeriph_Lib_V3.5.0/Libraries/STM32F10x_StdPeriph_Driver/src/stm32f10x_tim.c ****   TIMx->CCR2 = TIM_OCInitStruct->TIM_Pulse;
 818              		.loc 1 430 0
 819 0102 3B68     		ldr	r3, [r7, #0]
 820 0104 DA88     		ldrh	r2, [r3, #6]
 821 0106 7B68     		ldr	r3, [r7, #4]
 822 0108 1A87     		strh	r2, [r3, #56]	@ movhi
 431:../STM32F10x_StdPeriph_Lib_V3.5.0/Libraries/STM32F10x_StdPeriph_Driver/src/stm32f10x_tim.c ****   
 432:../STM32F10x_StdPeriph_Lib_V3.5.0/Libraries/STM32F10x_StdPeriph_Driver/src/stm32f10x_tim.c ****   /* Write to TIMx CCER */
 433:../STM32F10x_StdPeriph_Lib_V3.5.0/Libraries/STM32F10x_StdPeriph_Driver/src/stm32f10x_tim.c ****   TIMx->CCER = tmpccer;
 823              		.loc 1 433 0
 824 010a 7B68     		ldr	r3, [r7, #4]
 825 010c FA89     		ldrh	r2, [r7, #14]	@ movhi
 826 010e 1A84     		strh	r2, [r3, #32]	@ movhi
 434:../STM32F10x_StdPeriph_Lib_V3.5.0/Libraries/STM32F10x_StdPeriph_Driver/src/stm32f10x_tim.c **** }
 827              		.loc 1 434 0
 828 0110 07F11407 		add	r7, r7, #20
 829 0114 BD46     		mov	sp, r7
 830 0116 80BC     		pop	{r7}
 831 0118 7047     		bx	lr
 832              	.L38:
 833 011a 00BF     		.align	2
 834              	.L37:
 835 011c 002C0140 		.word	1073818624
 836 0120 00340140 		.word	1073820672
 837              		.cfi_endproc
 838              	.LFE32:
 840              		.section	.text.TIM_OC3Init,"ax",%progbits
 841              		.align	2
 842              		.global	TIM_OC3Init
 843              		.thumb
 844              		.thumb_func
 846              	TIM_OC3Init:
 847              	.LFB33:
 435:../STM32F10x_StdPeriph_Lib_V3.5.0/Libraries/STM32F10x_StdPeriph_Driver/src/stm32f10x_tim.c **** 
 436:../STM32F10x_StdPeriph_Lib_V3.5.0/Libraries/STM32F10x_StdPeriph_Driver/src/stm32f10x_tim.c **** /**
 437:../STM32F10x_StdPeriph_Lib_V3.5.0/Libraries/STM32F10x_StdPeriph_Driver/src/stm32f10x_tim.c ****   * @brief  Initializes the TIMx Channel3 according to the specified
 438:../STM32F10x_StdPeriph_Lib_V3.5.0/Libraries/STM32F10x_StdPeriph_Driver/src/stm32f10x_tim.c ****   *         parameters in the TIM_OCInitStruct.
 439:../STM32F10x_StdPeriph_Lib_V3.5.0/Libraries/STM32F10x_StdPeriph_Driver/src/stm32f10x_tim.c ****   * @param  TIMx: where x can be  1, 2, 3, 4, 5 or 8 to select the TIM peripheral.
 440:../STM32F10x_StdPeriph_Lib_V3.5.0/Libraries/STM32F10x_StdPeriph_Driver/src/stm32f10x_tim.c ****   * @param  TIM_OCInitStruct: pointer to a TIM_OCInitTypeDef structure
 441:../STM32F10x_StdPeriph_Lib_V3.5.0/Libraries/STM32F10x_StdPeriph_Driver/src/stm32f10x_tim.c ****   *         that contains the configuration information for the specified TIM peripheral.
 442:../STM32F10x_StdPeriph_Lib_V3.5.0/Libraries/STM32F10x_StdPeriph_Driver/src/stm32f10x_tim.c ****   * @retval None
 443:../STM32F10x_StdPeriph_Lib_V3.5.0/Libraries/STM32F10x_StdPeriph_Driver/src/stm32f10x_tim.c ****   */
 444:../STM32F10x_StdPeriph_Lib_V3.5.0/Libraries/STM32F10x_StdPeriph_Driver/src/stm32f10x_tim.c **** void TIM_OC3Init(TIM_TypeDef* TIMx, TIM_OCInitTypeDef* TIM_OCInitStruct)
 445:../STM32F10x_StdPeriph_Lib_V3.5.0/Libraries/STM32F10x_StdPeriph_Driver/src/stm32f10x_tim.c **** {
 848              		.loc 1 445 0
 849              		.cfi_startproc
 850              		@ args = 0, pretend = 0, frame = 16
 851              		@ frame_needed = 1, uses_anonymous_args = 0
 852              		@ link register save eliminated.
 853 0000 80B4     		push	{r7}
 854              	.LCFI12:
 855              		.cfi_def_cfa_offset 4
 856              		.cfi_offset 7, -4
 857 0002 85B0     		sub	sp, sp, #20
 858              	.LCFI13:
 859              		.cfi_def_cfa_offset 24
 860 0004 00AF     		add	r7, sp, #0
 861              	.LCFI14:
 862              		.cfi_def_cfa_register 7
 863 0006 7860     		str	r0, [r7, #4]
 864 0008 3960     		str	r1, [r7, #0]
 446:../STM32F10x_StdPeriph_Lib_V3.5.0/Libraries/STM32F10x_StdPeriph_Driver/src/stm32f10x_tim.c ****   uint16_t tmpccmrx = 0, tmpccer = 0, tmpcr2 = 0;
 865              		.loc 1 446 0
 866 000a 4FF00003 		mov	r3, #0
 867 000e 7B81     		strh	r3, [r7, #10]	@ movhi
 868 0010 4FF00003 		mov	r3, #0
 869 0014 FB81     		strh	r3, [r7, #14]	@ movhi
 870 0016 4FF00003 		mov	r3, #0
 871 001a BB81     		strh	r3, [r7, #12]	@ movhi
 447:../STM32F10x_StdPeriph_Lib_V3.5.0/Libraries/STM32F10x_StdPeriph_Driver/src/stm32f10x_tim.c ****    
 448:../STM32F10x_StdPeriph_Lib_V3.5.0/Libraries/STM32F10x_StdPeriph_Driver/src/stm32f10x_tim.c ****   /* Check the parameters */
 449:../STM32F10x_StdPeriph_Lib_V3.5.0/Libraries/STM32F10x_StdPeriph_Driver/src/stm32f10x_tim.c ****   assert_param(IS_TIM_LIST3_PERIPH(TIMx)); 
 450:../STM32F10x_StdPeriph_Lib_V3.5.0/Libraries/STM32F10x_StdPeriph_Driver/src/stm32f10x_tim.c ****   assert_param(IS_TIM_OC_MODE(TIM_OCInitStruct->TIM_OCMode));
 451:../STM32F10x_StdPeriph_Lib_V3.5.0/Libraries/STM32F10x_StdPeriph_Driver/src/stm32f10x_tim.c ****   assert_param(IS_TIM_OUTPUT_STATE(TIM_OCInitStruct->TIM_OutputState));
 452:../STM32F10x_StdPeriph_Lib_V3.5.0/Libraries/STM32F10x_StdPeriph_Driver/src/stm32f10x_tim.c ****   assert_param(IS_TIM_OC_POLARITY(TIM_OCInitStruct->TIM_OCPolarity));   
 453:../STM32F10x_StdPeriph_Lib_V3.5.0/Libraries/STM32F10x_StdPeriph_Driver/src/stm32f10x_tim.c ****   /* Disable the Channel 2: Reset the CC2E Bit */
 454:../STM32F10x_StdPeriph_Lib_V3.5.0/Libraries/STM32F10x_StdPeriph_Driver/src/stm32f10x_tim.c ****   TIMx->CCER &= (uint16_t)(~((uint16_t)TIM_CCER_CC3E));
 872              		.loc 1 454 0
 873 001c 7B68     		ldr	r3, [r7, #4]
 874 001e 1B8C     		ldrh	r3, [r3, #32]	@ movhi
 875 0020 9BB2     		uxth	r3, r3
 876 0022 23F48073 		bic	r3, r3, #256
 877 0026 9AB2     		uxth	r2, r3
 878 0028 7B68     		ldr	r3, [r7, #4]
 879 002a 1A84     		strh	r2, [r3, #32]	@ movhi
 455:../STM32F10x_StdPeriph_Lib_V3.5.0/Libraries/STM32F10x_StdPeriph_Driver/src/stm32f10x_tim.c ****   
 456:../STM32F10x_StdPeriph_Lib_V3.5.0/Libraries/STM32F10x_StdPeriph_Driver/src/stm32f10x_tim.c ****   /* Get the TIMx CCER register value */
 457:../STM32F10x_StdPeriph_Lib_V3.5.0/Libraries/STM32F10x_StdPeriph_Driver/src/stm32f10x_tim.c ****   tmpccer = TIMx->CCER;
 880              		.loc 1 457 0
 881 002c 7B68     		ldr	r3, [r7, #4]
 882 002e 1B8C     		ldrh	r3, [r3, #32]	@ movhi
 883 0030 FB81     		strh	r3, [r7, #14]	@ movhi
 458:../STM32F10x_StdPeriph_Lib_V3.5.0/Libraries/STM32F10x_StdPeriph_Driver/src/stm32f10x_tim.c ****   /* Get the TIMx CR2 register value */
 459:../STM32F10x_StdPeriph_Lib_V3.5.0/Libraries/STM32F10x_StdPeriph_Driver/src/stm32f10x_tim.c ****   tmpcr2 =  TIMx->CR2;
 884              		.loc 1 459 0
 885 0032 7B68     		ldr	r3, [r7, #4]
 886 0034 9B88     		ldrh	r3, [r3, #4]	@ movhi
 887 0036 BB81     		strh	r3, [r7, #12]	@ movhi
 460:../STM32F10x_StdPeriph_Lib_V3.5.0/Libraries/STM32F10x_StdPeriph_Driver/src/stm32f10x_tim.c ****   
 461:../STM32F10x_StdPeriph_Lib_V3.5.0/Libraries/STM32F10x_StdPeriph_Driver/src/stm32f10x_tim.c ****   /* Get the TIMx CCMR2 register value */
 462:../STM32F10x_StdPeriph_Lib_V3.5.0/Libraries/STM32F10x_StdPeriph_Driver/src/stm32f10x_tim.c ****   tmpccmrx = TIMx->CCMR2;
 888              		.loc 1 462 0
 889 0038 7B68     		ldr	r3, [r7, #4]
 890 003a 9B8B     		ldrh	r3, [r3, #28]	@ movhi
 891 003c 7B81     		strh	r3, [r7, #10]	@ movhi
 463:../STM32F10x_StdPeriph_Lib_V3.5.0/Libraries/STM32F10x_StdPeriph_Driver/src/stm32f10x_tim.c ****     
 464:../STM32F10x_StdPeriph_Lib_V3.5.0/Libraries/STM32F10x_StdPeriph_Driver/src/stm32f10x_tim.c ****   /* Reset the Output Compare mode and Capture/Compare selection Bits */
 465:../STM32F10x_StdPeriph_Lib_V3.5.0/Libraries/STM32F10x_StdPeriph_Driver/src/stm32f10x_tim.c ****   tmpccmrx &= (uint16_t)(~((uint16_t)TIM_CCMR2_OC3M));
 892              		.loc 1 465 0
 893 003e 7B89     		ldrh	r3, [r7, #10]	@ movhi
 894 0040 23F07003 		bic	r3, r3, #112
 895 0044 7B81     		strh	r3, [r7, #10]	@ movhi
 466:../STM32F10x_StdPeriph_Lib_V3.5.0/Libraries/STM32F10x_StdPeriph_Driver/src/stm32f10x_tim.c ****   tmpccmrx &= (uint16_t)(~((uint16_t)TIM_CCMR2_CC3S));  
 896              		.loc 1 466 0
 897 0046 7B89     		ldrh	r3, [r7, #10]	@ movhi
 898 0048 23F00303 		bic	r3, r3, #3
 899 004c 7B81     		strh	r3, [r7, #10]	@ movhi
 467:../STM32F10x_StdPeriph_Lib_V3.5.0/Libraries/STM32F10x_StdPeriph_Driver/src/stm32f10x_tim.c ****   /* Select the Output Compare Mode */
 468:../STM32F10x_StdPeriph_Lib_V3.5.0/Libraries/STM32F10x_StdPeriph_Driver/src/stm32f10x_tim.c ****   tmpccmrx |= TIM_OCInitStruct->TIM_OCMode;
 900              		.loc 1 468 0
 901 004e 3B68     		ldr	r3, [r7, #0]
 902 0050 1A88     		ldrh	r2, [r3, #0]
 903 0052 7B89     		ldrh	r3, [r7, #10]	@ movhi
 904 0054 1343     		orrs	r3, r3, r2
 905 0056 7B81     		strh	r3, [r7, #10]	@ movhi
 469:../STM32F10x_StdPeriph_Lib_V3.5.0/Libraries/STM32F10x_StdPeriph_Driver/src/stm32f10x_tim.c ****   
 470:../STM32F10x_StdPeriph_Lib_V3.5.0/Libraries/STM32F10x_StdPeriph_Driver/src/stm32f10x_tim.c ****   /* Reset the Output Polarity level */
 471:../STM32F10x_StdPeriph_Lib_V3.5.0/Libraries/STM32F10x_StdPeriph_Driver/src/stm32f10x_tim.c ****   tmpccer &= (uint16_t)(~((uint16_t)TIM_CCER_CC3P));
 906              		.loc 1 471 0
 907 0058 FB89     		ldrh	r3, [r7, #14]	@ movhi
 908 005a 23F40073 		bic	r3, r3, #512
 909 005e FB81     		strh	r3, [r7, #14]	@ movhi
 472:../STM32F10x_StdPeriph_Lib_V3.5.0/Libraries/STM32F10x_StdPeriph_Driver/src/stm32f10x_tim.c ****   /* Set the Output Compare Polarity */
 473:../STM32F10x_StdPeriph_Lib_V3.5.0/Libraries/STM32F10x_StdPeriph_Driver/src/stm32f10x_tim.c ****   tmpccer |= (uint16_t)(TIM_OCInitStruct->TIM_OCPolarity << 8);
 910              		.loc 1 473 0
 911 0060 3B68     		ldr	r3, [r7, #0]
 912 0062 1B89     		ldrh	r3, [r3, #8]
 913 0064 4FEA0323 		lsl	r3, r3, #8
 914 0068 9AB2     		uxth	r2, r3
 915 006a FB89     		ldrh	r3, [r7, #14]	@ movhi
 916 006c 1343     		orrs	r3, r3, r2
 917 006e FB81     		strh	r3, [r7, #14]	@ movhi
 474:../STM32F10x_StdPeriph_Lib_V3.5.0/Libraries/STM32F10x_StdPeriph_Driver/src/stm32f10x_tim.c ****   
 475:../STM32F10x_StdPeriph_Lib_V3.5.0/Libraries/STM32F10x_StdPeriph_Driver/src/stm32f10x_tim.c ****   /* Set the Output State */
 476:../STM32F10x_StdPeriph_Lib_V3.5.0/Libraries/STM32F10x_StdPeriph_Driver/src/stm32f10x_tim.c ****   tmpccer |= (uint16_t)(TIM_OCInitStruct->TIM_OutputState << 8);
 918              		.loc 1 476 0
 919 0070 3B68     		ldr	r3, [r7, #0]
 920 0072 5B88     		ldrh	r3, [r3, #2]
 921 0074 4FEA0323 		lsl	r3, r3, #8
 922 0078 9AB2     		uxth	r2, r3
 923 007a FB89     		ldrh	r3, [r7, #14]	@ movhi
 924 007c 1343     		orrs	r3, r3, r2
 925 007e FB81     		strh	r3, [r7, #14]	@ movhi
 477:../STM32F10x_StdPeriph_Lib_V3.5.0/Libraries/STM32F10x_StdPeriph_Driver/src/stm32f10x_tim.c ****     
 478:../STM32F10x_StdPeriph_Lib_V3.5.0/Libraries/STM32F10x_StdPeriph_Driver/src/stm32f10x_tim.c ****   if((TIMx == TIM1) || (TIMx == TIM8))
 926              		.loc 1 478 0
 927 0080 7A68     		ldr	r2, [r7, #4]
 928 0082 244B     		ldr	r3, .L42
 929 0084 9A42     		cmp	r2, r3
 930 0086 03D0     		beq	.L40
 931              		.loc 1 478 0 is_stmt 0 discriminator 1
 932 0088 7A68     		ldr	r2, [r7, #4]
 933 008a 234B     		ldr	r3, .L42+4
 934 008c 9A42     		cmp	r2, r3
 935 008e 2FD1     		bne	.L41
 936              	.L40:
 479:../STM32F10x_StdPeriph_Lib_V3.5.0/Libraries/STM32F10x_StdPeriph_Driver/src/stm32f10x_tim.c ****   {
 480:../STM32F10x_StdPeriph_Lib_V3.5.0/Libraries/STM32F10x_StdPeriph_Driver/src/stm32f10x_tim.c ****     assert_param(IS_TIM_OUTPUTN_STATE(TIM_OCInitStruct->TIM_OutputNState));
 481:../STM32F10x_StdPeriph_Lib_V3.5.0/Libraries/STM32F10x_StdPeriph_Driver/src/stm32f10x_tim.c ****     assert_param(IS_TIM_OCN_POLARITY(TIM_OCInitStruct->TIM_OCNPolarity));
 482:../STM32F10x_StdPeriph_Lib_V3.5.0/Libraries/STM32F10x_StdPeriph_Driver/src/stm32f10x_tim.c ****     assert_param(IS_TIM_OCNIDLE_STATE(TIM_OCInitStruct->TIM_OCNIdleState));
 483:../STM32F10x_StdPeriph_Lib_V3.5.0/Libraries/STM32F10x_StdPeriph_Driver/src/stm32f10x_tim.c ****     assert_param(IS_TIM_OCIDLE_STATE(TIM_OCInitStruct->TIM_OCIdleState));
 484:../STM32F10x_StdPeriph_Lib_V3.5.0/Libraries/STM32F10x_StdPeriph_Driver/src/stm32f10x_tim.c ****     
 485:../STM32F10x_StdPeriph_Lib_V3.5.0/Libraries/STM32F10x_StdPeriph_Driver/src/stm32f10x_tim.c ****     /* Reset the Output N Polarity level */
 486:../STM32F10x_StdPeriph_Lib_V3.5.0/Libraries/STM32F10x_StdPeriph_Driver/src/stm32f10x_tim.c ****     tmpccer &= (uint16_t)(~((uint16_t)TIM_CCER_CC3NP));
 937              		.loc 1 486 0 is_stmt 1
 938 0090 FB89     		ldrh	r3, [r7, #14]	@ movhi
 939 0092 23F40063 		bic	r3, r3, #2048
 940 0096 FB81     		strh	r3, [r7, #14]	@ movhi
 487:../STM32F10x_StdPeriph_Lib_V3.5.0/Libraries/STM32F10x_StdPeriph_Driver/src/stm32f10x_tim.c ****     /* Set the Output N Polarity */
 488:../STM32F10x_StdPeriph_Lib_V3.5.0/Libraries/STM32F10x_StdPeriph_Driver/src/stm32f10x_tim.c ****     tmpccer |= (uint16_t)(TIM_OCInitStruct->TIM_OCNPolarity << 8);
 941              		.loc 1 488 0
 942 0098 3B68     		ldr	r3, [r7, #0]
 943 009a 5B89     		ldrh	r3, [r3, #10]
 944 009c 4FEA0323 		lsl	r3, r3, #8
 945 00a0 9AB2     		uxth	r2, r3
 946 00a2 FB89     		ldrh	r3, [r7, #14]	@ movhi
 947 00a4 1343     		orrs	r3, r3, r2
 948 00a6 FB81     		strh	r3, [r7, #14]	@ movhi
 489:../STM32F10x_StdPeriph_Lib_V3.5.0/Libraries/STM32F10x_StdPeriph_Driver/src/stm32f10x_tim.c ****     /* Reset the Output N State */
 490:../STM32F10x_StdPeriph_Lib_V3.5.0/Libraries/STM32F10x_StdPeriph_Driver/src/stm32f10x_tim.c ****     tmpccer &= (uint16_t)(~((uint16_t)TIM_CCER_CC3NE));
 949              		.loc 1 490 0
 950 00a8 FB89     		ldrh	r3, [r7, #14]	@ movhi
 951 00aa 23F48063 		bic	r3, r3, #1024
 952 00ae FB81     		strh	r3, [r7, #14]	@ movhi
 491:../STM32F10x_StdPeriph_Lib_V3.5.0/Libraries/STM32F10x_StdPeriph_Driver/src/stm32f10x_tim.c ****     
 492:../STM32F10x_StdPeriph_Lib_V3.5.0/Libraries/STM32F10x_StdPeriph_Driver/src/stm32f10x_tim.c ****     /* Set the Output N State */
 493:../STM32F10x_StdPeriph_Lib_V3.5.0/Libraries/STM32F10x_StdPeriph_Driver/src/stm32f10x_tim.c ****     tmpccer |= (uint16_t)(TIM_OCInitStruct->TIM_OutputNState << 8);
 953              		.loc 1 493 0
 954 00b0 3B68     		ldr	r3, [r7, #0]
 955 00b2 9B88     		ldrh	r3, [r3, #4]
 956 00b4 4FEA0323 		lsl	r3, r3, #8
 957 00b8 9AB2     		uxth	r2, r3
 958 00ba FB89     		ldrh	r3, [r7, #14]	@ movhi
 959 00bc 1343     		orrs	r3, r3, r2
 960 00be FB81     		strh	r3, [r7, #14]	@ movhi
 494:../STM32F10x_StdPeriph_Lib_V3.5.0/Libraries/STM32F10x_StdPeriph_Driver/src/stm32f10x_tim.c ****     /* Reset the Output Compare and Output Compare N IDLE State */
 495:../STM32F10x_StdPeriph_Lib_V3.5.0/Libraries/STM32F10x_StdPeriph_Driver/src/stm32f10x_tim.c ****     tmpcr2 &= (uint16_t)(~((uint16_t)TIM_CR2_OIS3));
 961              		.loc 1 495 0
 962 00c0 BB89     		ldrh	r3, [r7, #12]	@ movhi
 963 00c2 23F48053 		bic	r3, r3, #4096
 964 00c6 BB81     		strh	r3, [r7, #12]	@ movhi
 496:../STM32F10x_StdPeriph_Lib_V3.5.0/Libraries/STM32F10x_StdPeriph_Driver/src/stm32f10x_tim.c ****     tmpcr2 &= (uint16_t)(~((uint16_t)TIM_CR2_OIS3N));
 965              		.loc 1 496 0
 966 00c8 BB89     		ldrh	r3, [r7, #12]	@ movhi
 967 00ca 23F40053 		bic	r3, r3, #8192
 968 00ce BB81     		strh	r3, [r7, #12]	@ movhi
 497:../STM32F10x_StdPeriph_Lib_V3.5.0/Libraries/STM32F10x_StdPeriph_Driver/src/stm32f10x_tim.c ****     /* Set the Output Idle state */
 498:../STM32F10x_StdPeriph_Lib_V3.5.0/Libraries/STM32F10x_StdPeriph_Driver/src/stm32f10x_tim.c ****     tmpcr2 |= (uint16_t)(TIM_OCInitStruct->TIM_OCIdleState << 4);
 969              		.loc 1 498 0
 970 00d0 3B68     		ldr	r3, [r7, #0]
 971 00d2 9B89     		ldrh	r3, [r3, #12]
 972 00d4 4FEA0313 		lsl	r3, r3, #4
 973 00d8 9AB2     		uxth	r2, r3
 974 00da BB89     		ldrh	r3, [r7, #12]	@ movhi
 975 00dc 1343     		orrs	r3, r3, r2
 976 00de BB81     		strh	r3, [r7, #12]	@ movhi
 499:../STM32F10x_StdPeriph_Lib_V3.5.0/Libraries/STM32F10x_StdPeriph_Driver/src/stm32f10x_tim.c ****     /* Set the Output N Idle state */
 500:../STM32F10x_StdPeriph_Lib_V3.5.0/Libraries/STM32F10x_StdPeriph_Driver/src/stm32f10x_tim.c ****     tmpcr2 |= (uint16_t)(TIM_OCInitStruct->TIM_OCNIdleState << 4);
 977              		.loc 1 500 0
 978 00e0 3B68     		ldr	r3, [r7, #0]
 979 00e2 DB89     		ldrh	r3, [r3, #14]
 980 00e4 4FEA0313 		lsl	r3, r3, #4
 981 00e8 9AB2     		uxth	r2, r3
 982 00ea BB89     		ldrh	r3, [r7, #12]	@ movhi
 983 00ec 1343     		orrs	r3, r3, r2
 984 00ee BB81     		strh	r3, [r7, #12]	@ movhi
 985              	.L41:
 501:../STM32F10x_StdPeriph_Lib_V3.5.0/Libraries/STM32F10x_StdPeriph_Driver/src/stm32f10x_tim.c ****   }
 502:../STM32F10x_StdPeriph_Lib_V3.5.0/Libraries/STM32F10x_StdPeriph_Driver/src/stm32f10x_tim.c ****   /* Write to TIMx CR2 */
 503:../STM32F10x_StdPeriph_Lib_V3.5.0/Libraries/STM32F10x_StdPeriph_Driver/src/stm32f10x_tim.c ****   TIMx->CR2 = tmpcr2;
 986              		.loc 1 503 0
 987 00f0 7B68     		ldr	r3, [r7, #4]
 988 00f2 BA89     		ldrh	r2, [r7, #12]	@ movhi
 989 00f4 9A80     		strh	r2, [r3, #4]	@ movhi
 504:../STM32F10x_StdPeriph_Lib_V3.5.0/Libraries/STM32F10x_StdPeriph_Driver/src/stm32f10x_tim.c ****   
 505:../STM32F10x_StdPeriph_Lib_V3.5.0/Libraries/STM32F10x_StdPeriph_Driver/src/stm32f10x_tim.c ****   /* Write to TIMx CCMR2 */
 506:../STM32F10x_StdPeriph_Lib_V3.5.0/Libraries/STM32F10x_StdPeriph_Driver/src/stm32f10x_tim.c ****   TIMx->CCMR2 = tmpccmrx;
 990              		.loc 1 506 0
 991 00f6 7B68     		ldr	r3, [r7, #4]
 992 00f8 7A89     		ldrh	r2, [r7, #10]	@ movhi
 993 00fa 9A83     		strh	r2, [r3, #28]	@ movhi
 507:../STM32F10x_StdPeriph_Lib_V3.5.0/Libraries/STM32F10x_StdPeriph_Driver/src/stm32f10x_tim.c **** 
 508:../STM32F10x_StdPeriph_Lib_V3.5.0/Libraries/STM32F10x_StdPeriph_Driver/src/stm32f10x_tim.c ****   /* Set the Capture Compare Register value */
 509:../STM32F10x_StdPeriph_Lib_V3.5.0/Libraries/STM32F10x_StdPeriph_Driver/src/stm32f10x_tim.c ****   TIMx->CCR3 = TIM_OCInitStruct->TIM_Pulse;
 994              		.loc 1 509 0
 995 00fc 3B68     		ldr	r3, [r7, #0]
 996 00fe DA88     		ldrh	r2, [r3, #6]
 997 0100 7B68     		ldr	r3, [r7, #4]
 998 0102 9A87     		strh	r2, [r3, #60]	@ movhi
 510:../STM32F10x_StdPeriph_Lib_V3.5.0/Libraries/STM32F10x_StdPeriph_Driver/src/stm32f10x_tim.c ****   
 511:../STM32F10x_StdPeriph_Lib_V3.5.0/Libraries/STM32F10x_StdPeriph_Driver/src/stm32f10x_tim.c ****   /* Write to TIMx CCER */
 512:../STM32F10x_StdPeriph_Lib_V3.5.0/Libraries/STM32F10x_StdPeriph_Driver/src/stm32f10x_tim.c ****   TIMx->CCER = tmpccer;
 999              		.loc 1 512 0
 1000 0104 7B68     		ldr	r3, [r7, #4]
 1001 0106 FA89     		ldrh	r2, [r7, #14]	@ movhi
 1002 0108 1A84     		strh	r2, [r3, #32]	@ movhi
 513:../STM32F10x_StdPeriph_Lib_V3.5.0/Libraries/STM32F10x_StdPeriph_Driver/src/stm32f10x_tim.c **** }
 1003              		.loc 1 513 0
 1004 010a 07F11407 		add	r7, r7, #20
 1005 010e BD46     		mov	sp, r7
 1006 0110 80BC     		pop	{r7}
 1007 0112 7047     		bx	lr
 1008              	.L43:
 1009              		.align	2
 1010              	.L42:
 1011 0114 002C0140 		.word	1073818624
 1012 0118 00340140 		.word	1073820672
 1013              		.cfi_endproc
 1014              	.LFE33:
 1016              		.section	.text.TIM_OC4Init,"ax",%progbits
 1017              		.align	2
 1018              		.global	TIM_OC4Init
 1019              		.thumb
 1020              		.thumb_func
 1022              	TIM_OC4Init:
 1023              	.LFB34:
 514:../STM32F10x_StdPeriph_Lib_V3.5.0/Libraries/STM32F10x_StdPeriph_Driver/src/stm32f10x_tim.c **** 
 515:../STM32F10x_StdPeriph_Lib_V3.5.0/Libraries/STM32F10x_StdPeriph_Driver/src/stm32f10x_tim.c **** /**
 516:../STM32F10x_StdPeriph_Lib_V3.5.0/Libraries/STM32F10x_StdPeriph_Driver/src/stm32f10x_tim.c ****   * @brief  Initializes the TIMx Channel4 according to the specified
 517:../STM32F10x_StdPeriph_Lib_V3.5.0/Libraries/STM32F10x_StdPeriph_Driver/src/stm32f10x_tim.c ****   *         parameters in the TIM_OCInitStruct.
 518:../STM32F10x_StdPeriph_Lib_V3.5.0/Libraries/STM32F10x_StdPeriph_Driver/src/stm32f10x_tim.c ****   * @param  TIMx: where x can be  1, 2, 3, 4, 5 or 8 to select the TIM peripheral.
 519:../STM32F10x_StdPeriph_Lib_V3.5.0/Libraries/STM32F10x_StdPeriph_Driver/src/stm32f10x_tim.c ****   * @param  TIM_OCInitStruct: pointer to a TIM_OCInitTypeDef structure
 520:../STM32F10x_StdPeriph_Lib_V3.5.0/Libraries/STM32F10x_StdPeriph_Driver/src/stm32f10x_tim.c ****   *         that contains the configuration information for the specified TIM peripheral.
 521:../STM32F10x_StdPeriph_Lib_V3.5.0/Libraries/STM32F10x_StdPeriph_Driver/src/stm32f10x_tim.c ****   * @retval None
 522:../STM32F10x_StdPeriph_Lib_V3.5.0/Libraries/STM32F10x_StdPeriph_Driver/src/stm32f10x_tim.c ****   */
 523:../STM32F10x_StdPeriph_Lib_V3.5.0/Libraries/STM32F10x_StdPeriph_Driver/src/stm32f10x_tim.c **** void TIM_OC4Init(TIM_TypeDef* TIMx, TIM_OCInitTypeDef* TIM_OCInitStruct)
 524:../STM32F10x_StdPeriph_Lib_V3.5.0/Libraries/STM32F10x_StdPeriph_Driver/src/stm32f10x_tim.c **** {
 1024              		.loc 1 524 0
 1025              		.cfi_startproc
 1026              		@ args = 0, pretend = 0, frame = 16
 1027              		@ frame_needed = 1, uses_anonymous_args = 0
 1028              		@ link register save eliminated.
 1029 0000 80B4     		push	{r7}
 1030              	.LCFI15:
 1031              		.cfi_def_cfa_offset 4
 1032              		.cfi_offset 7, -4
 1033 0002 85B0     		sub	sp, sp, #20
 1034              	.LCFI16:
 1035              		.cfi_def_cfa_offset 24
 1036 0004 00AF     		add	r7, sp, #0
 1037              	.LCFI17:
 1038              		.cfi_def_cfa_register 7
 1039 0006 7860     		str	r0, [r7, #4]
 1040 0008 3960     		str	r1, [r7, #0]
 525:../STM32F10x_StdPeriph_Lib_V3.5.0/Libraries/STM32F10x_StdPeriph_Driver/src/stm32f10x_tim.c ****   uint16_t tmpccmrx = 0, tmpccer = 0, tmpcr2 = 0;
 1041              		.loc 1 525 0
 1042 000a 4FF00003 		mov	r3, #0
 1043 000e BB81     		strh	r3, [r7, #12]	@ movhi
 1044 0010 4FF00003 		mov	r3, #0
 1045 0014 7B81     		strh	r3, [r7, #10]	@ movhi
 1046 0016 4FF00003 		mov	r3, #0
 1047 001a FB81     		strh	r3, [r7, #14]	@ movhi
 526:../STM32F10x_StdPeriph_Lib_V3.5.0/Libraries/STM32F10x_StdPeriph_Driver/src/stm32f10x_tim.c ****    
 527:../STM32F10x_StdPeriph_Lib_V3.5.0/Libraries/STM32F10x_StdPeriph_Driver/src/stm32f10x_tim.c ****   /* Check the parameters */
 528:../STM32F10x_StdPeriph_Lib_V3.5.0/Libraries/STM32F10x_StdPeriph_Driver/src/stm32f10x_tim.c ****   assert_param(IS_TIM_LIST3_PERIPH(TIMx)); 
 529:../STM32F10x_StdPeriph_Lib_V3.5.0/Libraries/STM32F10x_StdPeriph_Driver/src/stm32f10x_tim.c ****   assert_param(IS_TIM_OC_MODE(TIM_OCInitStruct->TIM_OCMode));
 530:../STM32F10x_StdPeriph_Lib_V3.5.0/Libraries/STM32F10x_StdPeriph_Driver/src/stm32f10x_tim.c ****   assert_param(IS_TIM_OUTPUT_STATE(TIM_OCInitStruct->TIM_OutputState));
 531:../STM32F10x_StdPeriph_Lib_V3.5.0/Libraries/STM32F10x_StdPeriph_Driver/src/stm32f10x_tim.c ****   assert_param(IS_TIM_OC_POLARITY(TIM_OCInitStruct->TIM_OCPolarity));   
 532:../STM32F10x_StdPeriph_Lib_V3.5.0/Libraries/STM32F10x_StdPeriph_Driver/src/stm32f10x_tim.c ****   /* Disable the Channel 2: Reset the CC4E Bit */
 533:../STM32F10x_StdPeriph_Lib_V3.5.0/Libraries/STM32F10x_StdPeriph_Driver/src/stm32f10x_tim.c ****   TIMx->CCER &= (uint16_t)(~((uint16_t)TIM_CCER_CC4E));
 1048              		.loc 1 533 0
 1049 001c 7B68     		ldr	r3, [r7, #4]
 1050 001e 1B8C     		ldrh	r3, [r3, #32]	@ movhi
 1051 0020 9BB2     		uxth	r3, r3
 1052 0022 23F48053 		bic	r3, r3, #4096
 1053 0026 9AB2     		uxth	r2, r3
 1054 0028 7B68     		ldr	r3, [r7, #4]
 1055 002a 1A84     		strh	r2, [r3, #32]	@ movhi
 534:../STM32F10x_StdPeriph_Lib_V3.5.0/Libraries/STM32F10x_StdPeriph_Driver/src/stm32f10x_tim.c ****   
 535:../STM32F10x_StdPeriph_Lib_V3.5.0/Libraries/STM32F10x_StdPeriph_Driver/src/stm32f10x_tim.c ****   /* Get the TIMx CCER register value */
 536:../STM32F10x_StdPeriph_Lib_V3.5.0/Libraries/STM32F10x_StdPeriph_Driver/src/stm32f10x_tim.c ****   tmpccer = TIMx->CCER;
 1056              		.loc 1 536 0
 1057 002c 7B68     		ldr	r3, [r7, #4]
 1058 002e 1B8C     		ldrh	r3, [r3, #32]	@ movhi
 1059 0030 7B81     		strh	r3, [r7, #10]	@ movhi
 537:../STM32F10x_StdPeriph_Lib_V3.5.0/Libraries/STM32F10x_StdPeriph_Driver/src/stm32f10x_tim.c ****   /* Get the TIMx CR2 register value */
 538:../STM32F10x_StdPeriph_Lib_V3.5.0/Libraries/STM32F10x_StdPeriph_Driver/src/stm32f10x_tim.c ****   tmpcr2 =  TIMx->CR2;
 1060              		.loc 1 538 0
 1061 0032 7B68     		ldr	r3, [r7, #4]
 1062 0034 9B88     		ldrh	r3, [r3, #4]	@ movhi
 1063 0036 FB81     		strh	r3, [r7, #14]	@ movhi
 539:../STM32F10x_StdPeriph_Lib_V3.5.0/Libraries/STM32F10x_StdPeriph_Driver/src/stm32f10x_tim.c ****   
 540:../STM32F10x_StdPeriph_Lib_V3.5.0/Libraries/STM32F10x_StdPeriph_Driver/src/stm32f10x_tim.c ****   /* Get the TIMx CCMR2 register value */
 541:../STM32F10x_StdPeriph_Lib_V3.5.0/Libraries/STM32F10x_StdPeriph_Driver/src/stm32f10x_tim.c ****   tmpccmrx = TIMx->CCMR2;
 1064              		.loc 1 541 0
 1065 0038 7B68     		ldr	r3, [r7, #4]
 1066 003a 9B8B     		ldrh	r3, [r3, #28]	@ movhi
 1067 003c BB81     		strh	r3, [r7, #12]	@ movhi
 542:../STM32F10x_StdPeriph_Lib_V3.5.0/Libraries/STM32F10x_StdPeriph_Driver/src/stm32f10x_tim.c ****     
 543:../STM32F10x_StdPeriph_Lib_V3.5.0/Libraries/STM32F10x_StdPeriph_Driver/src/stm32f10x_tim.c ****   /* Reset the Output Compare mode and Capture/Compare selection Bits */
 544:../STM32F10x_StdPeriph_Lib_V3.5.0/Libraries/STM32F10x_StdPeriph_Driver/src/stm32f10x_tim.c ****   tmpccmrx &= (uint16_t)(~((uint16_t)TIM_CCMR2_OC4M));
 1068              		.loc 1 544 0
 1069 003e BB89     		ldrh	r3, [r7, #12]	@ movhi
 1070 0040 23F4E043 		bic	r3, r3, #28672
 1071 0044 BB81     		strh	r3, [r7, #12]	@ movhi
 545:../STM32F10x_StdPeriph_Lib_V3.5.0/Libraries/STM32F10x_StdPeriph_Driver/src/stm32f10x_tim.c ****   tmpccmrx &= (uint16_t)(~((uint16_t)TIM_CCMR2_CC4S));
 1072              		.loc 1 545 0
 1073 0046 BB89     		ldrh	r3, [r7, #12]	@ movhi
 1074 0048 23F44073 		bic	r3, r3, #768
 1075 004c BB81     		strh	r3, [r7, #12]	@ movhi
 546:../STM32F10x_StdPeriph_Lib_V3.5.0/Libraries/STM32F10x_StdPeriph_Driver/src/stm32f10x_tim.c ****   
 547:../STM32F10x_StdPeriph_Lib_V3.5.0/Libraries/STM32F10x_StdPeriph_Driver/src/stm32f10x_tim.c ****   /* Select the Output Compare Mode */
 548:../STM32F10x_StdPeriph_Lib_V3.5.0/Libraries/STM32F10x_StdPeriph_Driver/src/stm32f10x_tim.c ****   tmpccmrx |= (uint16_t)(TIM_OCInitStruct->TIM_OCMode << 8);
 1076              		.loc 1 548 0
 1077 004e 3B68     		ldr	r3, [r7, #0]
 1078 0050 1B88     		ldrh	r3, [r3, #0]
 1079 0052 4FEA0323 		lsl	r3, r3, #8
 1080 0056 9AB2     		uxth	r2, r3
 1081 0058 BB89     		ldrh	r3, [r7, #12]	@ movhi
 1082 005a 1343     		orrs	r3, r3, r2
 1083 005c BB81     		strh	r3, [r7, #12]	@ movhi
 549:../STM32F10x_StdPeriph_Lib_V3.5.0/Libraries/STM32F10x_StdPeriph_Driver/src/stm32f10x_tim.c ****   
 550:../STM32F10x_StdPeriph_Lib_V3.5.0/Libraries/STM32F10x_StdPeriph_Driver/src/stm32f10x_tim.c ****   /* Reset the Output Polarity level */
 551:../STM32F10x_StdPeriph_Lib_V3.5.0/Libraries/STM32F10x_StdPeriph_Driver/src/stm32f10x_tim.c ****   tmpccer &= (uint16_t)(~((uint16_t)TIM_CCER_CC4P));
 1084              		.loc 1 551 0
 1085 005e 7B89     		ldrh	r3, [r7, #10]	@ movhi
 1086 0060 23F40053 		bic	r3, r3, #8192
 1087 0064 7B81     		strh	r3, [r7, #10]	@ movhi
 552:../STM32F10x_StdPeriph_Lib_V3.5.0/Libraries/STM32F10x_StdPeriph_Driver/src/stm32f10x_tim.c ****   /* Set the Output Compare Polarity */
 553:../STM32F10x_StdPeriph_Lib_V3.5.0/Libraries/STM32F10x_StdPeriph_Driver/src/stm32f10x_tim.c ****   tmpccer |= (uint16_t)(TIM_OCInitStruct->TIM_OCPolarity << 12);
 1088              		.loc 1 553 0
 1089 0066 3B68     		ldr	r3, [r7, #0]
 1090 0068 1B89     		ldrh	r3, [r3, #8]
 1091 006a 4FEA0333 		lsl	r3, r3, #12
 1092 006e 9AB2     		uxth	r2, r3
 1093 0070 7B89     		ldrh	r3, [r7, #10]	@ movhi
 1094 0072 1343     		orrs	r3, r3, r2
 1095 0074 7B81     		strh	r3, [r7, #10]	@ movhi
 554:../STM32F10x_StdPeriph_Lib_V3.5.0/Libraries/STM32F10x_StdPeriph_Driver/src/stm32f10x_tim.c ****   
 555:../STM32F10x_StdPeriph_Lib_V3.5.0/Libraries/STM32F10x_StdPeriph_Driver/src/stm32f10x_tim.c ****   /* Set the Output State */
 556:../STM32F10x_StdPeriph_Lib_V3.5.0/Libraries/STM32F10x_StdPeriph_Driver/src/stm32f10x_tim.c ****   tmpccer |= (uint16_t)(TIM_OCInitStruct->TIM_OutputState << 12);
 1096              		.loc 1 556 0
 1097 0076 3B68     		ldr	r3, [r7, #0]
 1098 0078 5B88     		ldrh	r3, [r3, #2]
 1099 007a 4FEA0333 		lsl	r3, r3, #12
 1100 007e 9AB2     		uxth	r2, r3
 1101 0080 7B89     		ldrh	r3, [r7, #10]	@ movhi
 1102 0082 1343     		orrs	r3, r3, r2
 1103 0084 7B81     		strh	r3, [r7, #10]	@ movhi
 557:../STM32F10x_StdPeriph_Lib_V3.5.0/Libraries/STM32F10x_StdPeriph_Driver/src/stm32f10x_tim.c ****     
 558:../STM32F10x_StdPeriph_Lib_V3.5.0/Libraries/STM32F10x_StdPeriph_Driver/src/stm32f10x_tim.c ****   if((TIMx == TIM1) || (TIMx == TIM8))
 1104              		.loc 1 558 0
 1105 0086 7A68     		ldr	r2, [r7, #4]
 1106 0088 124B     		ldr	r3, .L47
 1107 008a 9A42     		cmp	r2, r3
 1108 008c 03D0     		beq	.L45
 1109              		.loc 1 558 0 is_stmt 0 discriminator 1
 1110 008e 7A68     		ldr	r2, [r7, #4]
 1111 0090 114B     		ldr	r3, .L47+4
 1112 0092 9A42     		cmp	r2, r3
 1113 0094 0BD1     		bne	.L46
 1114              	.L45:
 559:../STM32F10x_StdPeriph_Lib_V3.5.0/Libraries/STM32F10x_StdPeriph_Driver/src/stm32f10x_tim.c ****   {
 560:../STM32F10x_StdPeriph_Lib_V3.5.0/Libraries/STM32F10x_StdPeriph_Driver/src/stm32f10x_tim.c ****     assert_param(IS_TIM_OCIDLE_STATE(TIM_OCInitStruct->TIM_OCIdleState));
 561:../STM32F10x_StdPeriph_Lib_V3.5.0/Libraries/STM32F10x_StdPeriph_Driver/src/stm32f10x_tim.c ****     /* Reset the Output Compare IDLE State */
 562:../STM32F10x_StdPeriph_Lib_V3.5.0/Libraries/STM32F10x_StdPeriph_Driver/src/stm32f10x_tim.c ****     tmpcr2 &= (uint16_t)(~((uint16_t)TIM_CR2_OIS4));
 1115              		.loc 1 562 0 is_stmt 1
 1116 0096 FB89     		ldrh	r3, [r7, #14]	@ movhi
 1117 0098 23F48043 		bic	r3, r3, #16384
 1118 009c FB81     		strh	r3, [r7, #14]	@ movhi
 563:../STM32F10x_StdPeriph_Lib_V3.5.0/Libraries/STM32F10x_StdPeriph_Driver/src/stm32f10x_tim.c ****     /* Set the Output Idle state */
 564:../STM32F10x_StdPeriph_Lib_V3.5.0/Libraries/STM32F10x_StdPeriph_Driver/src/stm32f10x_tim.c ****     tmpcr2 |= (uint16_t)(TIM_OCInitStruct->TIM_OCIdleState << 6);
 1119              		.loc 1 564 0
 1120 009e 3B68     		ldr	r3, [r7, #0]
 1121 00a0 9B89     		ldrh	r3, [r3, #12]
 1122 00a2 4FEA8313 		lsl	r3, r3, #6
 1123 00a6 9AB2     		uxth	r2, r3
 1124 00a8 FB89     		ldrh	r3, [r7, #14]	@ movhi
 1125 00aa 1343     		orrs	r3, r3, r2
 1126 00ac FB81     		strh	r3, [r7, #14]	@ movhi
 1127              	.L46:
 565:../STM32F10x_StdPeriph_Lib_V3.5.0/Libraries/STM32F10x_StdPeriph_Driver/src/stm32f10x_tim.c ****   }
 566:../STM32F10x_StdPeriph_Lib_V3.5.0/Libraries/STM32F10x_StdPeriph_Driver/src/stm32f10x_tim.c ****   /* Write to TIMx CR2 */
 567:../STM32F10x_StdPeriph_Lib_V3.5.0/Libraries/STM32F10x_StdPeriph_Driver/src/stm32f10x_tim.c ****   TIMx->CR2 = tmpcr2;
 1128              		.loc 1 567 0
 1129 00ae 7B68     		ldr	r3, [r7, #4]
 1130 00b0 FA89     		ldrh	r2, [r7, #14]	@ movhi
 1131 00b2 9A80     		strh	r2, [r3, #4]	@ movhi
 568:../STM32F10x_StdPeriph_Lib_V3.5.0/Libraries/STM32F10x_StdPeriph_Driver/src/stm32f10x_tim.c ****   
 569:../STM32F10x_StdPeriph_Lib_V3.5.0/Libraries/STM32F10x_StdPeriph_Driver/src/stm32f10x_tim.c ****   /* Write to TIMx CCMR2 */  
 570:../STM32F10x_StdPeriph_Lib_V3.5.0/Libraries/STM32F10x_StdPeriph_Driver/src/stm32f10x_tim.c ****   TIMx->CCMR2 = tmpccmrx;
 1132              		.loc 1 570 0
 1133 00b4 7B68     		ldr	r3, [r7, #4]
 1134 00b6 BA89     		ldrh	r2, [r7, #12]	@ movhi
 1135 00b8 9A83     		strh	r2, [r3, #28]	@ movhi
 571:../STM32F10x_StdPeriph_Lib_V3.5.0/Libraries/STM32F10x_StdPeriph_Driver/src/stm32f10x_tim.c **** 
 572:../STM32F10x_StdPeriph_Lib_V3.5.0/Libraries/STM32F10x_StdPeriph_Driver/src/stm32f10x_tim.c ****   /* Set the Capture Compare Register value */
 573:../STM32F10x_StdPeriph_Lib_V3.5.0/Libraries/STM32F10x_StdPeriph_Driver/src/stm32f10x_tim.c ****   TIMx->CCR4 = TIM_OCInitStruct->TIM_Pulse;
 1136              		.loc 1 573 0
 1137 00ba 3B68     		ldr	r3, [r7, #0]
 1138 00bc DA88     		ldrh	r2, [r3, #6]
 1139 00be 7B68     		ldr	r3, [r7, #4]
 1140 00c0 A3F84020 		strh	r2, [r3, #64]	@ movhi
 574:../STM32F10x_StdPeriph_Lib_V3.5.0/Libraries/STM32F10x_StdPeriph_Driver/src/stm32f10x_tim.c ****   
 575:../STM32F10x_StdPeriph_Lib_V3.5.0/Libraries/STM32F10x_StdPeriph_Driver/src/stm32f10x_tim.c ****   /* Write to TIMx CCER */
 576:../STM32F10x_StdPeriph_Lib_V3.5.0/Libraries/STM32F10x_StdPeriph_Driver/src/stm32f10x_tim.c ****   TIMx->CCER = tmpccer;
 1141              		.loc 1 576 0
 1142 00c4 7B68     		ldr	r3, [r7, #4]
 1143 00c6 7A89     		ldrh	r2, [r7, #10]	@ movhi
 1144 00c8 1A84     		strh	r2, [r3, #32]	@ movhi
 577:../STM32F10x_StdPeriph_Lib_V3.5.0/Libraries/STM32F10x_StdPeriph_Driver/src/stm32f10x_tim.c **** }
 1145              		.loc 1 577 0
 1146 00ca 07F11407 		add	r7, r7, #20
 1147 00ce BD46     		mov	sp, r7
 1148 00d0 80BC     		pop	{r7}
 1149 00d2 7047     		bx	lr
 1150              	.L48:
 1151              		.align	2
 1152              	.L47:
 1153 00d4 002C0140 		.word	1073818624
 1154 00d8 00340140 		.word	1073820672
 1155              		.cfi_endproc
 1156              	.LFE34:
 1158              		.section	.text.TIM_ICInit,"ax",%progbits
 1159              		.align	2
 1160              		.global	TIM_ICInit
 1161              		.thumb
 1162              		.thumb_func
 1164              	TIM_ICInit:
 1165              	.LFB35:
 578:../STM32F10x_StdPeriph_Lib_V3.5.0/Libraries/STM32F10x_StdPeriph_Driver/src/stm32f10x_tim.c **** 
 579:../STM32F10x_StdPeriph_Lib_V3.5.0/Libraries/STM32F10x_StdPeriph_Driver/src/stm32f10x_tim.c **** /**
 580:../STM32F10x_StdPeriph_Lib_V3.5.0/Libraries/STM32F10x_StdPeriph_Driver/src/stm32f10x_tim.c ****   * @brief  Initializes the TIM peripheral according to the specified
 581:../STM32F10x_StdPeriph_Lib_V3.5.0/Libraries/STM32F10x_StdPeriph_Driver/src/stm32f10x_tim.c ****   *         parameters in the TIM_ICInitStruct.
 582:../STM32F10x_StdPeriph_Lib_V3.5.0/Libraries/STM32F10x_StdPeriph_Driver/src/stm32f10x_tim.c ****   * @param  TIMx: where x can be  1 to 17 except 6 and 7 to select the TIM peripheral.
 583:../STM32F10x_StdPeriph_Lib_V3.5.0/Libraries/STM32F10x_StdPeriph_Driver/src/stm32f10x_tim.c ****   * @param  TIM_ICInitStruct: pointer to a TIM_ICInitTypeDef structure
 584:../STM32F10x_StdPeriph_Lib_V3.5.0/Libraries/STM32F10x_StdPeriph_Driver/src/stm32f10x_tim.c ****   *         that contains the configuration information for the specified TIM peripheral.
 585:../STM32F10x_StdPeriph_Lib_V3.5.0/Libraries/STM32F10x_StdPeriph_Driver/src/stm32f10x_tim.c ****   * @retval None
 586:../STM32F10x_StdPeriph_Lib_V3.5.0/Libraries/STM32F10x_StdPeriph_Driver/src/stm32f10x_tim.c ****   */
 587:../STM32F10x_StdPeriph_Lib_V3.5.0/Libraries/STM32F10x_StdPeriph_Driver/src/stm32f10x_tim.c **** void TIM_ICInit(TIM_TypeDef* TIMx, TIM_ICInitTypeDef* TIM_ICInitStruct)
 588:../STM32F10x_StdPeriph_Lib_V3.5.0/Libraries/STM32F10x_StdPeriph_Driver/src/stm32f10x_tim.c **** {
 1166              		.loc 1 588 0
 1167              		.cfi_startproc
 1168              		@ args = 0, pretend = 0, frame = 8
 1169              		@ frame_needed = 1, uses_anonymous_args = 0
 1170 0000 80B5     		push	{r7, lr}
 1171              	.LCFI18:
 1172              		.cfi_def_cfa_offset 8
 1173              		.cfi_offset 7, -8
 1174              		.cfi_offset 14, -4
 1175 0002 82B0     		sub	sp, sp, #8
 1176              	.LCFI19:
 1177              		.cfi_def_cfa_offset 16
 1178 0004 00AF     		add	r7, sp, #0
 1179              	.LCFI20:
 1180              		.cfi_def_cfa_register 7
 1181 0006 7860     		str	r0, [r7, #4]
 1182 0008 3960     		str	r1, [r7, #0]
 589:../STM32F10x_StdPeriph_Lib_V3.5.0/Libraries/STM32F10x_StdPeriph_Driver/src/stm32f10x_tim.c ****   /* Check the parameters */
 590:../STM32F10x_StdPeriph_Lib_V3.5.0/Libraries/STM32F10x_StdPeriph_Driver/src/stm32f10x_tim.c ****   assert_param(IS_TIM_CHANNEL(TIM_ICInitStruct->TIM_Channel));  
 591:../STM32F10x_StdPeriph_Lib_V3.5.0/Libraries/STM32F10x_StdPeriph_Driver/src/stm32f10x_tim.c ****   assert_param(IS_TIM_IC_SELECTION(TIM_ICInitStruct->TIM_ICSelection));
 592:../STM32F10x_StdPeriph_Lib_V3.5.0/Libraries/STM32F10x_StdPeriph_Driver/src/stm32f10x_tim.c ****   assert_param(IS_TIM_IC_PRESCALER(TIM_ICInitStruct->TIM_ICPrescaler));
 593:../STM32F10x_StdPeriph_Lib_V3.5.0/Libraries/STM32F10x_StdPeriph_Driver/src/stm32f10x_tim.c ****   assert_param(IS_TIM_IC_FILTER(TIM_ICInitStruct->TIM_ICFilter));
 594:../STM32F10x_StdPeriph_Lib_V3.5.0/Libraries/STM32F10x_StdPeriph_Driver/src/stm32f10x_tim.c ****   
 595:../STM32F10x_StdPeriph_Lib_V3.5.0/Libraries/STM32F10x_StdPeriph_Driver/src/stm32f10x_tim.c ****   if((TIMx == TIM1) || (TIMx == TIM8) || (TIMx == TIM2) || (TIMx == TIM3) ||
 596:../STM32F10x_StdPeriph_Lib_V3.5.0/Libraries/STM32F10x_StdPeriph_Driver/src/stm32f10x_tim.c ****      (TIMx == TIM4) ||(TIMx == TIM5))
 597:../STM32F10x_StdPeriph_Lib_V3.5.0/Libraries/STM32F10x_StdPeriph_Driver/src/stm32f10x_tim.c ****   {
 598:../STM32F10x_StdPeriph_Lib_V3.5.0/Libraries/STM32F10x_StdPeriph_Driver/src/stm32f10x_tim.c ****     assert_param(IS_TIM_IC_POLARITY(TIM_ICInitStruct->TIM_ICPolarity));
 599:../STM32F10x_StdPeriph_Lib_V3.5.0/Libraries/STM32F10x_StdPeriph_Driver/src/stm32f10x_tim.c ****   }
 600:../STM32F10x_StdPeriph_Lib_V3.5.0/Libraries/STM32F10x_StdPeriph_Driver/src/stm32f10x_tim.c ****   else
 601:../STM32F10x_StdPeriph_Lib_V3.5.0/Libraries/STM32F10x_StdPeriph_Driver/src/stm32f10x_tim.c ****   {
 602:../STM32F10x_StdPeriph_Lib_V3.5.0/Libraries/STM32F10x_StdPeriph_Driver/src/stm32f10x_tim.c ****     assert_param(IS_TIM_IC_POLARITY_LITE(TIM_ICInitStruct->TIM_ICPolarity));
 603:../STM32F10x_StdPeriph_Lib_V3.5.0/Libraries/STM32F10x_StdPeriph_Driver/src/stm32f10x_tim.c ****   }
 604:../STM32F10x_StdPeriph_Lib_V3.5.0/Libraries/STM32F10x_StdPeriph_Driver/src/stm32f10x_tim.c ****   if (TIM_ICInitStruct->TIM_Channel == TIM_Channel_1)
 1183              		.loc 1 604 0
 1184 000a 3B68     		ldr	r3, [r7, #0]
 1185 000c 1B88     		ldrh	r3, [r3, #0]
 1186 000e 002B     		cmp	r3, #0
 1187 0010 0FD1     		bne	.L50
 605:../STM32F10x_StdPeriph_Lib_V3.5.0/Libraries/STM32F10x_StdPeriph_Driver/src/stm32f10x_tim.c ****   {
 606:../STM32F10x_StdPeriph_Lib_V3.5.0/Libraries/STM32F10x_StdPeriph_Driver/src/stm32f10x_tim.c ****     assert_param(IS_TIM_LIST8_PERIPH(TIMx));
 607:../STM32F10x_StdPeriph_Lib_V3.5.0/Libraries/STM32F10x_StdPeriph_Driver/src/stm32f10x_tim.c ****     /* TI1 Configuration */
 608:../STM32F10x_StdPeriph_Lib_V3.5.0/Libraries/STM32F10x_StdPeriph_Driver/src/stm32f10x_tim.c ****     TI1_Config(TIMx, TIM_ICInitStruct->TIM_ICPolarity,
 1188              		.loc 1 608 0
 1189 0012 3B68     		ldr	r3, [r7, #0]
 1190 0014 5988     		ldrh	r1, [r3, #2]
 609:../STM32F10x_StdPeriph_Lib_V3.5.0/Libraries/STM32F10x_StdPeriph_Driver/src/stm32f10x_tim.c ****                TIM_ICInitStruct->TIM_ICSelection,
 1191              		.loc 1 609 0
 1192 0016 3B68     		ldr	r3, [r7, #0]
 608:../STM32F10x_StdPeriph_Lib_V3.5.0/Libraries/STM32F10x_StdPeriph_Driver/src/stm32f10x_tim.c ****     TI1_Config(TIMx, TIM_ICInitStruct->TIM_ICPolarity,
 1193              		.loc 1 608 0
 1194 0018 9A88     		ldrh	r2, [r3, #4]
 610:../STM32F10x_StdPeriph_Lib_V3.5.0/Libraries/STM32F10x_StdPeriph_Driver/src/stm32f10x_tim.c ****                TIM_ICInitStruct->TIM_ICFilter);
 1195              		.loc 1 610 0
 1196 001a 3B68     		ldr	r3, [r7, #0]
 608:../STM32F10x_StdPeriph_Lib_V3.5.0/Libraries/STM32F10x_StdPeriph_Driver/src/stm32f10x_tim.c ****     TI1_Config(TIMx, TIM_ICInitStruct->TIM_ICPolarity,
 1197              		.loc 1 608 0
 1198 001c 1B89     		ldrh	r3, [r3, #8]
 1199 001e 7868     		ldr	r0, [r7, #4]
 1200 0020 FFF7FEFF 		bl	TI1_Config
 611:../STM32F10x_StdPeriph_Lib_V3.5.0/Libraries/STM32F10x_StdPeriph_Driver/src/stm32f10x_tim.c ****     /* Set the Input Capture Prescaler value */
 612:../STM32F10x_StdPeriph_Lib_V3.5.0/Libraries/STM32F10x_StdPeriph_Driver/src/stm32f10x_tim.c ****     TIM_SetIC1Prescaler(TIMx, TIM_ICInitStruct->TIM_ICPrescaler);
 1201              		.loc 1 612 0
 1202 0024 3B68     		ldr	r3, [r7, #0]
 1203 0026 DB88     		ldrh	r3, [r3, #6]
 1204 0028 7868     		ldr	r0, [r7, #4]
 1205 002a 1946     		mov	r1, r3
 1206 002c FFF7FEFF 		bl	TIM_SetIC1Prescaler
 1207 0030 36E0     		b	.L49
 1208              	.L50:
 613:../STM32F10x_StdPeriph_Lib_V3.5.0/Libraries/STM32F10x_StdPeriph_Driver/src/stm32f10x_tim.c ****   }
 614:../STM32F10x_StdPeriph_Lib_V3.5.0/Libraries/STM32F10x_StdPeriph_Driver/src/stm32f10x_tim.c ****   else if (TIM_ICInitStruct->TIM_Channel == TIM_Channel_2)
 1209              		.loc 1 614 0
 1210 0032 3B68     		ldr	r3, [r7, #0]
 1211 0034 1B88     		ldrh	r3, [r3, #0]
 1212 0036 042B     		cmp	r3, #4
 1213 0038 0FD1     		bne	.L52
 615:../STM32F10x_StdPeriph_Lib_V3.5.0/Libraries/STM32F10x_StdPeriph_Driver/src/stm32f10x_tim.c ****   {
 616:../STM32F10x_StdPeriph_Lib_V3.5.0/Libraries/STM32F10x_StdPeriph_Driver/src/stm32f10x_tim.c ****     assert_param(IS_TIM_LIST6_PERIPH(TIMx));
 617:../STM32F10x_StdPeriph_Lib_V3.5.0/Libraries/STM32F10x_StdPeriph_Driver/src/stm32f10x_tim.c ****     /* TI2 Configuration */
 618:../STM32F10x_StdPeriph_Lib_V3.5.0/Libraries/STM32F10x_StdPeriph_Driver/src/stm32f10x_tim.c ****     TI2_Config(TIMx, TIM_ICInitStruct->TIM_ICPolarity,
 1214              		.loc 1 618 0
 1215 003a 3B68     		ldr	r3, [r7, #0]
 1216 003c 5988     		ldrh	r1, [r3, #2]
 619:../STM32F10x_StdPeriph_Lib_V3.5.0/Libraries/STM32F10x_StdPeriph_Driver/src/stm32f10x_tim.c ****                TIM_ICInitStruct->TIM_ICSelection,
 1217              		.loc 1 619 0
 1218 003e 3B68     		ldr	r3, [r7, #0]
 618:../STM32F10x_StdPeriph_Lib_V3.5.0/Libraries/STM32F10x_StdPeriph_Driver/src/stm32f10x_tim.c ****     TI2_Config(TIMx, TIM_ICInitStruct->TIM_ICPolarity,
 1219              		.loc 1 618 0
 1220 0040 9A88     		ldrh	r2, [r3, #4]
 620:../STM32F10x_StdPeriph_Lib_V3.5.0/Libraries/STM32F10x_StdPeriph_Driver/src/stm32f10x_tim.c ****                TIM_ICInitStruct->TIM_ICFilter);
 1221              		.loc 1 620 0
 1222 0042 3B68     		ldr	r3, [r7, #0]
 618:../STM32F10x_StdPeriph_Lib_V3.5.0/Libraries/STM32F10x_StdPeriph_Driver/src/stm32f10x_tim.c ****     TI2_Config(TIMx, TIM_ICInitStruct->TIM_ICPolarity,
 1223              		.loc 1 618 0
 1224 0044 1B89     		ldrh	r3, [r3, #8]
 1225 0046 7868     		ldr	r0, [r7, #4]
 1226 0048 FFF7FEFF 		bl	TI2_Config
 621:../STM32F10x_StdPeriph_Lib_V3.5.0/Libraries/STM32F10x_StdPeriph_Driver/src/stm32f10x_tim.c ****     /* Set the Input Capture Prescaler value */
 622:../STM32F10x_StdPeriph_Lib_V3.5.0/Libraries/STM32F10x_StdPeriph_Driver/src/stm32f10x_tim.c ****     TIM_SetIC2Prescaler(TIMx, TIM_ICInitStruct->TIM_ICPrescaler);
 1227              		.loc 1 622 0
 1228 004c 3B68     		ldr	r3, [r7, #0]
 1229 004e DB88     		ldrh	r3, [r3, #6]
 1230 0050 7868     		ldr	r0, [r7, #4]
 1231 0052 1946     		mov	r1, r3
 1232 0054 FFF7FEFF 		bl	TIM_SetIC2Prescaler
 1233 0058 22E0     		b	.L49
 1234              	.L52:
 623:../STM32F10x_StdPeriph_Lib_V3.5.0/Libraries/STM32F10x_StdPeriph_Driver/src/stm32f10x_tim.c ****   }
 624:../STM32F10x_StdPeriph_Lib_V3.5.0/Libraries/STM32F10x_StdPeriph_Driver/src/stm32f10x_tim.c ****   else if (TIM_ICInitStruct->TIM_Channel == TIM_Channel_3)
 1235              		.loc 1 624 0
 1236 005a 3B68     		ldr	r3, [r7, #0]
 1237 005c 1B88     		ldrh	r3, [r3, #0]
 1238 005e 082B     		cmp	r3, #8
 1239 0060 0FD1     		bne	.L53
 625:../STM32F10x_StdPeriph_Lib_V3.5.0/Libraries/STM32F10x_StdPeriph_Driver/src/stm32f10x_tim.c ****   {
 626:../STM32F10x_StdPeriph_Lib_V3.5.0/Libraries/STM32F10x_StdPeriph_Driver/src/stm32f10x_tim.c ****     assert_param(IS_TIM_LIST3_PERIPH(TIMx));
 627:../STM32F10x_StdPeriph_Lib_V3.5.0/Libraries/STM32F10x_StdPeriph_Driver/src/stm32f10x_tim.c ****     /* TI3 Configuration */
 628:../STM32F10x_StdPeriph_Lib_V3.5.0/Libraries/STM32F10x_StdPeriph_Driver/src/stm32f10x_tim.c ****     TI3_Config(TIMx,  TIM_ICInitStruct->TIM_ICPolarity,
 1240              		.loc 1 628 0
 1241 0062 3B68     		ldr	r3, [r7, #0]
 1242 0064 5988     		ldrh	r1, [r3, #2]
 629:../STM32F10x_StdPeriph_Lib_V3.5.0/Libraries/STM32F10x_StdPeriph_Driver/src/stm32f10x_tim.c ****                TIM_ICInitStruct->TIM_ICSelection,
 1243              		.loc 1 629 0
 1244 0066 3B68     		ldr	r3, [r7, #0]
 628:../STM32F10x_StdPeriph_Lib_V3.5.0/Libraries/STM32F10x_StdPeriph_Driver/src/stm32f10x_tim.c ****     TI3_Config(TIMx,  TIM_ICInitStruct->TIM_ICPolarity,
 1245              		.loc 1 628 0
 1246 0068 9A88     		ldrh	r2, [r3, #4]
 630:../STM32F10x_StdPeriph_Lib_V3.5.0/Libraries/STM32F10x_StdPeriph_Driver/src/stm32f10x_tim.c ****                TIM_ICInitStruct->TIM_ICFilter);
 1247              		.loc 1 630 0
 1248 006a 3B68     		ldr	r3, [r7, #0]
 628:../STM32F10x_StdPeriph_Lib_V3.5.0/Libraries/STM32F10x_StdPeriph_Driver/src/stm32f10x_tim.c ****     TI3_Config(TIMx,  TIM_ICInitStruct->TIM_ICPolarity,
 1249              		.loc 1 628 0
 1250 006c 1B89     		ldrh	r3, [r3, #8]
 1251 006e 7868     		ldr	r0, [r7, #4]
 1252 0070 FFF7FEFF 		bl	TI3_Config
 631:../STM32F10x_StdPeriph_Lib_V3.5.0/Libraries/STM32F10x_StdPeriph_Driver/src/stm32f10x_tim.c ****     /* Set the Input Capture Prescaler value */
 632:../STM32F10x_StdPeriph_Lib_V3.5.0/Libraries/STM32F10x_StdPeriph_Driver/src/stm32f10x_tim.c ****     TIM_SetIC3Prescaler(TIMx, TIM_ICInitStruct->TIM_ICPrescaler);
 1253              		.loc 1 632 0
 1254 0074 3B68     		ldr	r3, [r7, #0]
 1255 0076 DB88     		ldrh	r3, [r3, #6]
 1256 0078 7868     		ldr	r0, [r7, #4]
 1257 007a 1946     		mov	r1, r3
 1258 007c FFF7FEFF 		bl	TIM_SetIC3Prescaler
 1259 0080 0EE0     		b	.L49
 1260              	.L53:
 633:../STM32F10x_StdPeriph_Lib_V3.5.0/Libraries/STM32F10x_StdPeriph_Driver/src/stm32f10x_tim.c ****   }
 634:../STM32F10x_StdPeriph_Lib_V3.5.0/Libraries/STM32F10x_StdPeriph_Driver/src/stm32f10x_tim.c ****   else
 635:../STM32F10x_StdPeriph_Lib_V3.5.0/Libraries/STM32F10x_StdPeriph_Driver/src/stm32f10x_tim.c ****   {
 636:../STM32F10x_StdPeriph_Lib_V3.5.0/Libraries/STM32F10x_StdPeriph_Driver/src/stm32f10x_tim.c ****     assert_param(IS_TIM_LIST3_PERIPH(TIMx));
 637:../STM32F10x_StdPeriph_Lib_V3.5.0/Libraries/STM32F10x_StdPeriph_Driver/src/stm32f10x_tim.c ****     /* TI4 Configuration */
 638:../STM32F10x_StdPeriph_Lib_V3.5.0/Libraries/STM32F10x_StdPeriph_Driver/src/stm32f10x_tim.c ****     TI4_Config(TIMx, TIM_ICInitStruct->TIM_ICPolarity,
 1261              		.loc 1 638 0
 1262 0082 3B68     		ldr	r3, [r7, #0]
 1263 0084 5988     		ldrh	r1, [r3, #2]
 639:../STM32F10x_StdPeriph_Lib_V3.5.0/Libraries/STM32F10x_StdPeriph_Driver/src/stm32f10x_tim.c ****                TIM_ICInitStruct->TIM_ICSelection,
 1264              		.loc 1 639 0
 1265 0086 3B68     		ldr	r3, [r7, #0]
 638:../STM32F10x_StdPeriph_Lib_V3.5.0/Libraries/STM32F10x_StdPeriph_Driver/src/stm32f10x_tim.c ****     TI4_Config(TIMx, TIM_ICInitStruct->TIM_ICPolarity,
 1266              		.loc 1 638 0
 1267 0088 9A88     		ldrh	r2, [r3, #4]
 640:../STM32F10x_StdPeriph_Lib_V3.5.0/Libraries/STM32F10x_StdPeriph_Driver/src/stm32f10x_tim.c ****                TIM_ICInitStruct->TIM_ICFilter);
 1268              		.loc 1 640 0
 1269 008a 3B68     		ldr	r3, [r7, #0]
 638:../STM32F10x_StdPeriph_Lib_V3.5.0/Libraries/STM32F10x_StdPeriph_Driver/src/stm32f10x_tim.c ****     TI4_Config(TIMx, TIM_ICInitStruct->TIM_ICPolarity,
 1270              		.loc 1 638 0
 1271 008c 1B89     		ldrh	r3, [r3, #8]
 1272 008e 7868     		ldr	r0, [r7, #4]
 1273 0090 FFF7FEFF 		bl	TI4_Config
 641:../STM32F10x_StdPeriph_Lib_V3.5.0/Libraries/STM32F10x_StdPeriph_Driver/src/stm32f10x_tim.c ****     /* Set the Input Capture Prescaler value */
 642:../STM32F10x_StdPeriph_Lib_V3.5.0/Libraries/STM32F10x_StdPeriph_Driver/src/stm32f10x_tim.c ****     TIM_SetIC4Prescaler(TIMx, TIM_ICInitStruct->TIM_ICPrescaler);
 1274              		.loc 1 642 0
 1275 0094 3B68     		ldr	r3, [r7, #0]
 1276 0096 DB88     		ldrh	r3, [r3, #6]
 1277 0098 7868     		ldr	r0, [r7, #4]
 1278 009a 1946     		mov	r1, r3
 1279 009c FFF7FEFF 		bl	TIM_SetIC4Prescaler
 1280              	.L49:
 643:../STM32F10x_StdPeriph_Lib_V3.5.0/Libraries/STM32F10x_StdPeriph_Driver/src/stm32f10x_tim.c ****   }
 644:../STM32F10x_StdPeriph_Lib_V3.5.0/Libraries/STM32F10x_StdPeriph_Driver/src/stm32f10x_tim.c **** }
 1281              		.loc 1 644 0
 1282 00a0 07F10807 		add	r7, r7, #8
 1283 00a4 BD46     		mov	sp, r7
 1284 00a6 80BD     		pop	{r7, pc}
 1285              		.cfi_endproc
 1286              	.LFE35:
 1288              		.section	.text.TIM_PWMIConfig,"ax",%progbits
 1289              		.align	2
 1290              		.global	TIM_PWMIConfig
 1291              		.thumb
 1292              		.thumb_func
 1294              	TIM_PWMIConfig:
 1295              	.LFB36:
 645:../STM32F10x_StdPeriph_Lib_V3.5.0/Libraries/STM32F10x_StdPeriph_Driver/src/stm32f10x_tim.c **** 
 646:../STM32F10x_StdPeriph_Lib_V3.5.0/Libraries/STM32F10x_StdPeriph_Driver/src/stm32f10x_tim.c **** /**
 647:../STM32F10x_StdPeriph_Lib_V3.5.0/Libraries/STM32F10x_StdPeriph_Driver/src/stm32f10x_tim.c ****   * @brief  Configures the TIM peripheral according to the specified
 648:../STM32F10x_StdPeriph_Lib_V3.5.0/Libraries/STM32F10x_StdPeriph_Driver/src/stm32f10x_tim.c ****   *         parameters in the TIM_ICInitStruct to measure an external PWM signal.
 649:../STM32F10x_StdPeriph_Lib_V3.5.0/Libraries/STM32F10x_StdPeriph_Driver/src/stm32f10x_tim.c ****   * @param  TIMx: where x can be  1, 2, 3, 4, 5, 8, 9, 12 or 15 to select the TIM peripheral.
 650:../STM32F10x_StdPeriph_Lib_V3.5.0/Libraries/STM32F10x_StdPeriph_Driver/src/stm32f10x_tim.c ****   * @param  TIM_ICInitStruct: pointer to a TIM_ICInitTypeDef structure
 651:../STM32F10x_StdPeriph_Lib_V3.5.0/Libraries/STM32F10x_StdPeriph_Driver/src/stm32f10x_tim.c ****   *         that contains the configuration information for the specified TIM peripheral.
 652:../STM32F10x_StdPeriph_Lib_V3.5.0/Libraries/STM32F10x_StdPeriph_Driver/src/stm32f10x_tim.c ****   * @retval None
 653:../STM32F10x_StdPeriph_Lib_V3.5.0/Libraries/STM32F10x_StdPeriph_Driver/src/stm32f10x_tim.c ****   */
 654:../STM32F10x_StdPeriph_Lib_V3.5.0/Libraries/STM32F10x_StdPeriph_Driver/src/stm32f10x_tim.c **** void TIM_PWMIConfig(TIM_TypeDef* TIMx, TIM_ICInitTypeDef* TIM_ICInitStruct)
 655:../STM32F10x_StdPeriph_Lib_V3.5.0/Libraries/STM32F10x_StdPeriph_Driver/src/stm32f10x_tim.c **** {
 1296              		.loc 1 655 0
 1297              		.cfi_startproc
 1298              		@ args = 0, pretend = 0, frame = 16
 1299              		@ frame_needed = 1, uses_anonymous_args = 0
 1300 0000 80B5     		push	{r7, lr}
 1301              	.LCFI21:
 1302              		.cfi_def_cfa_offset 8
 1303              		.cfi_offset 7, -8
 1304              		.cfi_offset 14, -4
 1305 0002 84B0     		sub	sp, sp, #16
 1306              	.LCFI22:
 1307              		.cfi_def_cfa_offset 24
 1308 0004 00AF     		add	r7, sp, #0
 1309              	.LCFI23:
 1310              		.cfi_def_cfa_register 7
 1311 0006 7860     		str	r0, [r7, #4]
 1312 0008 3960     		str	r1, [r7, #0]
 656:../STM32F10x_StdPeriph_Lib_V3.5.0/Libraries/STM32F10x_StdPeriph_Driver/src/stm32f10x_tim.c ****   uint16_t icoppositepolarity = TIM_ICPolarity_Rising;
 1313              		.loc 1 656 0
 1314 000a 4FF00003 		mov	r3, #0
 1315 000e FB81     		strh	r3, [r7, #14]	@ movhi
 657:../STM32F10x_StdPeriph_Lib_V3.5.0/Libraries/STM32F10x_StdPeriph_Driver/src/stm32f10x_tim.c ****   uint16_t icoppositeselection = TIM_ICSelection_DirectTI;
 1316              		.loc 1 657 0
 1317 0010 4FF00103 		mov	r3, #1
 1318 0014 BB81     		strh	r3, [r7, #12]	@ movhi
 658:../STM32F10x_StdPeriph_Lib_V3.5.0/Libraries/STM32F10x_StdPeriph_Driver/src/stm32f10x_tim.c ****   /* Check the parameters */
 659:../STM32F10x_StdPeriph_Lib_V3.5.0/Libraries/STM32F10x_StdPeriph_Driver/src/stm32f10x_tim.c ****   assert_param(IS_TIM_LIST6_PERIPH(TIMx));
 660:../STM32F10x_StdPeriph_Lib_V3.5.0/Libraries/STM32F10x_StdPeriph_Driver/src/stm32f10x_tim.c ****   /* Select the Opposite Input Polarity */
 661:../STM32F10x_StdPeriph_Lib_V3.5.0/Libraries/STM32F10x_StdPeriph_Driver/src/stm32f10x_tim.c ****   if (TIM_ICInitStruct->TIM_ICPolarity == TIM_ICPolarity_Rising)
 1319              		.loc 1 661 0
 1320 0016 3B68     		ldr	r3, [r7, #0]
 1321 0018 5B88     		ldrh	r3, [r3, #2]
 1322 001a 002B     		cmp	r3, #0
 1323 001c 03D1     		bne	.L55
 662:../STM32F10x_StdPeriph_Lib_V3.5.0/Libraries/STM32F10x_StdPeriph_Driver/src/stm32f10x_tim.c ****   {
 663:../STM32F10x_StdPeriph_Lib_V3.5.0/Libraries/STM32F10x_StdPeriph_Driver/src/stm32f10x_tim.c ****     icoppositepolarity = TIM_ICPolarity_Falling;
 1324              		.loc 1 663 0
 1325 001e 4FF00203 		mov	r3, #2
 1326 0022 FB81     		strh	r3, [r7, #14]	@ movhi
 1327 0024 02E0     		b	.L56
 1328              	.L55:
 664:../STM32F10x_StdPeriph_Lib_V3.5.0/Libraries/STM32F10x_StdPeriph_Driver/src/stm32f10x_tim.c ****   }
 665:../STM32F10x_StdPeriph_Lib_V3.5.0/Libraries/STM32F10x_StdPeriph_Driver/src/stm32f10x_tim.c ****   else
 666:../STM32F10x_StdPeriph_Lib_V3.5.0/Libraries/STM32F10x_StdPeriph_Driver/src/stm32f10x_tim.c ****   {
 667:../STM32F10x_StdPeriph_Lib_V3.5.0/Libraries/STM32F10x_StdPeriph_Driver/src/stm32f10x_tim.c ****     icoppositepolarity = TIM_ICPolarity_Rising;
 1329              		.loc 1 667 0
 1330 0026 4FF00003 		mov	r3, #0
 1331 002a FB81     		strh	r3, [r7, #14]	@ movhi
 1332              	.L56:
 668:../STM32F10x_StdPeriph_Lib_V3.5.0/Libraries/STM32F10x_StdPeriph_Driver/src/stm32f10x_tim.c ****   }
 669:../STM32F10x_StdPeriph_Lib_V3.5.0/Libraries/STM32F10x_StdPeriph_Driver/src/stm32f10x_tim.c ****   /* Select the Opposite Input */
 670:../STM32F10x_StdPeriph_Lib_V3.5.0/Libraries/STM32F10x_StdPeriph_Driver/src/stm32f10x_tim.c ****   if (TIM_ICInitStruct->TIM_ICSelection == TIM_ICSelection_DirectTI)
 1333              		.loc 1 670 0
 1334 002c 3B68     		ldr	r3, [r7, #0]
 1335 002e 9B88     		ldrh	r3, [r3, #4]
 1336 0030 012B     		cmp	r3, #1
 1337 0032 03D1     		bne	.L57
 671:../STM32F10x_StdPeriph_Lib_V3.5.0/Libraries/STM32F10x_StdPeriph_Driver/src/stm32f10x_tim.c ****   {
 672:../STM32F10x_StdPeriph_Lib_V3.5.0/Libraries/STM32F10x_StdPeriph_Driver/src/stm32f10x_tim.c ****     icoppositeselection = TIM_ICSelection_IndirectTI;
 1338              		.loc 1 672 0
 1339 0034 4FF00203 		mov	r3, #2
 1340 0038 BB81     		strh	r3, [r7, #12]	@ movhi
 1341 003a 02E0     		b	.L58
 1342              	.L57:
 673:../STM32F10x_StdPeriph_Lib_V3.5.0/Libraries/STM32F10x_StdPeriph_Driver/src/stm32f10x_tim.c ****   }
 674:../STM32F10x_StdPeriph_Lib_V3.5.0/Libraries/STM32F10x_StdPeriph_Driver/src/stm32f10x_tim.c ****   else
 675:../STM32F10x_StdPeriph_Lib_V3.5.0/Libraries/STM32F10x_StdPeriph_Driver/src/stm32f10x_tim.c ****   {
 676:../STM32F10x_StdPeriph_Lib_V3.5.0/Libraries/STM32F10x_StdPeriph_Driver/src/stm32f10x_tim.c ****     icoppositeselection = TIM_ICSelection_DirectTI;
 1343              		.loc 1 676 0
 1344 003c 4FF00103 		mov	r3, #1
 1345 0040 BB81     		strh	r3, [r7, #12]	@ movhi
 1346              	.L58:
 677:../STM32F10x_StdPeriph_Lib_V3.5.0/Libraries/STM32F10x_StdPeriph_Driver/src/stm32f10x_tim.c ****   }
 678:../STM32F10x_StdPeriph_Lib_V3.5.0/Libraries/STM32F10x_StdPeriph_Driver/src/stm32f10x_tim.c ****   if (TIM_ICInitStruct->TIM_Channel == TIM_Channel_1)
 1347              		.loc 1 678 0
 1348 0042 3B68     		ldr	r3, [r7, #0]
 1349 0044 1B88     		ldrh	r3, [r3, #0]
 1350 0046 002B     		cmp	r3, #0
 1351 0048 1CD1     		bne	.L59
 679:../STM32F10x_StdPeriph_Lib_V3.5.0/Libraries/STM32F10x_StdPeriph_Driver/src/stm32f10x_tim.c ****   {
 680:../STM32F10x_StdPeriph_Lib_V3.5.0/Libraries/STM32F10x_StdPeriph_Driver/src/stm32f10x_tim.c ****     /* TI1 Configuration */
 681:../STM32F10x_StdPeriph_Lib_V3.5.0/Libraries/STM32F10x_StdPeriph_Driver/src/stm32f10x_tim.c ****     TI1_Config(TIMx, TIM_ICInitStruct->TIM_ICPolarity, TIM_ICInitStruct->TIM_ICSelection,
 1352              		.loc 1 681 0
 1353 004a 3B68     		ldr	r3, [r7, #0]
 1354 004c 5988     		ldrh	r1, [r3, #2]
 1355 004e 3B68     		ldr	r3, [r7, #0]
 1356 0050 9A88     		ldrh	r2, [r3, #4]
 682:../STM32F10x_StdPeriph_Lib_V3.5.0/Libraries/STM32F10x_StdPeriph_Driver/src/stm32f10x_tim.c ****                TIM_ICInitStruct->TIM_ICFilter);
 1357              		.loc 1 682 0
 1358 0052 3B68     		ldr	r3, [r7, #0]
 681:../STM32F10x_StdPeriph_Lib_V3.5.0/Libraries/STM32F10x_StdPeriph_Driver/src/stm32f10x_tim.c ****     TI1_Config(TIMx, TIM_ICInitStruct->TIM_ICPolarity, TIM_ICInitStruct->TIM_ICSelection,
 1359              		.loc 1 681 0
 1360 0054 1B89     		ldrh	r3, [r3, #8]
 1361 0056 7868     		ldr	r0, [r7, #4]
 1362 0058 FFF7FEFF 		bl	TI1_Config
 683:../STM32F10x_StdPeriph_Lib_V3.5.0/Libraries/STM32F10x_StdPeriph_Driver/src/stm32f10x_tim.c ****     /* Set the Input Capture Prescaler value */
 684:../STM32F10x_StdPeriph_Lib_V3.5.0/Libraries/STM32F10x_StdPeriph_Driver/src/stm32f10x_tim.c ****     TIM_SetIC1Prescaler(TIMx, TIM_ICInitStruct->TIM_ICPrescaler);
 1363              		.loc 1 684 0
 1364 005c 3B68     		ldr	r3, [r7, #0]
 1365 005e DB88     		ldrh	r3, [r3, #6]
 1366 0060 7868     		ldr	r0, [r7, #4]
 1367 0062 1946     		mov	r1, r3
 1368 0064 FFF7FEFF 		bl	TIM_SetIC1Prescaler
 685:../STM32F10x_StdPeriph_Lib_V3.5.0/Libraries/STM32F10x_StdPeriph_Driver/src/stm32f10x_tim.c ****     /* TI2 Configuration */
 686:../STM32F10x_StdPeriph_Lib_V3.5.0/Libraries/STM32F10x_StdPeriph_Driver/src/stm32f10x_tim.c ****     TI2_Config(TIMx, icoppositepolarity, icoppositeselection, TIM_ICInitStruct->TIM_ICFilter);
 1369              		.loc 1 686 0
 1370 0068 3B68     		ldr	r3, [r7, #0]
 1371 006a 1B89     		ldrh	r3, [r3, #8]
 1372 006c F989     		ldrh	r1, [r7, #14]
 1373 006e BA89     		ldrh	r2, [r7, #12]
 1374 0070 7868     		ldr	r0, [r7, #4]
 1375 0072 FFF7FEFF 		bl	TI2_Config
 687:../STM32F10x_StdPeriph_Lib_V3.5.0/Libraries/STM32F10x_StdPeriph_Driver/src/stm32f10x_tim.c ****     /* Set the Input Capture Prescaler value */
 688:../STM32F10x_StdPeriph_Lib_V3.5.0/Libraries/STM32F10x_StdPeriph_Driver/src/stm32f10x_tim.c ****     TIM_SetIC2Prescaler(TIMx, TIM_ICInitStruct->TIM_ICPrescaler);
 1376              		.loc 1 688 0
 1377 0076 3B68     		ldr	r3, [r7, #0]
 1378 0078 DB88     		ldrh	r3, [r3, #6]
 1379 007a 7868     		ldr	r0, [r7, #4]
 1380 007c 1946     		mov	r1, r3
 1381 007e FFF7FEFF 		bl	TIM_SetIC2Prescaler
 1382 0082 1BE0     		b	.L54
 1383              	.L59:
 689:../STM32F10x_StdPeriph_Lib_V3.5.0/Libraries/STM32F10x_StdPeriph_Driver/src/stm32f10x_tim.c ****   }
 690:../STM32F10x_StdPeriph_Lib_V3.5.0/Libraries/STM32F10x_StdPeriph_Driver/src/stm32f10x_tim.c ****   else
 691:../STM32F10x_StdPeriph_Lib_V3.5.0/Libraries/STM32F10x_StdPeriph_Driver/src/stm32f10x_tim.c ****   { 
 692:../STM32F10x_StdPeriph_Lib_V3.5.0/Libraries/STM32F10x_StdPeriph_Driver/src/stm32f10x_tim.c ****     /* TI2 Configuration */
 693:../STM32F10x_StdPeriph_Lib_V3.5.0/Libraries/STM32F10x_StdPeriph_Driver/src/stm32f10x_tim.c ****     TI2_Config(TIMx, TIM_ICInitStruct->TIM_ICPolarity, TIM_ICInitStruct->TIM_ICSelection,
 1384              		.loc 1 693 0
 1385 0084 3B68     		ldr	r3, [r7, #0]
 1386 0086 5988     		ldrh	r1, [r3, #2]
 1387 0088 3B68     		ldr	r3, [r7, #0]
 1388 008a 9A88     		ldrh	r2, [r3, #4]
 694:../STM32F10x_StdPeriph_Lib_V3.5.0/Libraries/STM32F10x_StdPeriph_Driver/src/stm32f10x_tim.c ****                TIM_ICInitStruct->TIM_ICFilter);
 1389              		.loc 1 694 0
 1390 008c 3B68     		ldr	r3, [r7, #0]
 693:../STM32F10x_StdPeriph_Lib_V3.5.0/Libraries/STM32F10x_StdPeriph_Driver/src/stm32f10x_tim.c ****     TI2_Config(TIMx, TIM_ICInitStruct->TIM_ICPolarity, TIM_ICInitStruct->TIM_ICSelection,
 1391              		.loc 1 693 0
 1392 008e 1B89     		ldrh	r3, [r3, #8]
 1393 0090 7868     		ldr	r0, [r7, #4]
 1394 0092 FFF7FEFF 		bl	TI2_Config
 695:../STM32F10x_StdPeriph_Lib_V3.5.0/Libraries/STM32F10x_StdPeriph_Driver/src/stm32f10x_tim.c ****     /* Set the Input Capture Prescaler value */
 696:../STM32F10x_StdPeriph_Lib_V3.5.0/Libraries/STM32F10x_StdPeriph_Driver/src/stm32f10x_tim.c ****     TIM_SetIC2Prescaler(TIMx, TIM_ICInitStruct->TIM_ICPrescaler);
 1395              		.loc 1 696 0
 1396 0096 3B68     		ldr	r3, [r7, #0]
 1397 0098 DB88     		ldrh	r3, [r3, #6]
 1398 009a 7868     		ldr	r0, [r7, #4]
 1399 009c 1946     		mov	r1, r3
 1400 009e FFF7FEFF 		bl	TIM_SetIC2Prescaler
 697:../STM32F10x_StdPeriph_Lib_V3.5.0/Libraries/STM32F10x_StdPeriph_Driver/src/stm32f10x_tim.c ****     /* TI1 Configuration */
 698:../STM32F10x_StdPeriph_Lib_V3.5.0/Libraries/STM32F10x_StdPeriph_Driver/src/stm32f10x_tim.c ****     TI1_Config(TIMx, icoppositepolarity, icoppositeselection, TIM_ICInitStruct->TIM_ICFilter);
 1401              		.loc 1 698 0
 1402 00a2 3B68     		ldr	r3, [r7, #0]
 1403 00a4 1B89     		ldrh	r3, [r3, #8]
 1404 00a6 F989     		ldrh	r1, [r7, #14]
 1405 00a8 BA89     		ldrh	r2, [r7, #12]
 1406 00aa 7868     		ldr	r0, [r7, #4]
 1407 00ac FFF7FEFF 		bl	TI1_Config
 699:../STM32F10x_StdPeriph_Lib_V3.5.0/Libraries/STM32F10x_StdPeriph_Driver/src/stm32f10x_tim.c ****     /* Set the Input Capture Prescaler value */
 700:../STM32F10x_StdPeriph_Lib_V3.5.0/Libraries/STM32F10x_StdPeriph_Driver/src/stm32f10x_tim.c ****     TIM_SetIC1Prescaler(TIMx, TIM_ICInitStruct->TIM_ICPrescaler);
 1408              		.loc 1 700 0
 1409 00b0 3B68     		ldr	r3, [r7, #0]
 1410 00b2 DB88     		ldrh	r3, [r3, #6]
 1411 00b4 7868     		ldr	r0, [r7, #4]
 1412 00b6 1946     		mov	r1, r3
 1413 00b8 FFF7FEFF 		bl	TIM_SetIC1Prescaler
 1414              	.L54:
 701:../STM32F10x_StdPeriph_Lib_V3.5.0/Libraries/STM32F10x_StdPeriph_Driver/src/stm32f10x_tim.c ****   }
 702:../STM32F10x_StdPeriph_Lib_V3.5.0/Libraries/STM32F10x_StdPeriph_Driver/src/stm32f10x_tim.c **** }
 1415              		.loc 1 702 0
 1416 00bc 07F11007 		add	r7, r7, #16
 1417 00c0 BD46     		mov	sp, r7
 1418 00c2 80BD     		pop	{r7, pc}
 1419              		.cfi_endproc
 1420              	.LFE36:
 1422              		.section	.text.TIM_BDTRConfig,"ax",%progbits
 1423              		.align	2
 1424              		.global	TIM_BDTRConfig
 1425              		.thumb
 1426              		.thumb_func
 1428              	TIM_BDTRConfig:
 1429              	.LFB37:
 703:../STM32F10x_StdPeriph_Lib_V3.5.0/Libraries/STM32F10x_StdPeriph_Driver/src/stm32f10x_tim.c **** 
 704:../STM32F10x_StdPeriph_Lib_V3.5.0/Libraries/STM32F10x_StdPeriph_Driver/src/stm32f10x_tim.c **** /**
 705:../STM32F10x_StdPeriph_Lib_V3.5.0/Libraries/STM32F10x_StdPeriph_Driver/src/stm32f10x_tim.c ****   * @brief  Configures the: Break feature, dead time, Lock level, the OSSI,
 706:../STM32F10x_StdPeriph_Lib_V3.5.0/Libraries/STM32F10x_StdPeriph_Driver/src/stm32f10x_tim.c ****   *         the OSSR State and the AOE(automatic output enable).
 707:../STM32F10x_StdPeriph_Lib_V3.5.0/Libraries/STM32F10x_StdPeriph_Driver/src/stm32f10x_tim.c ****   * @param  TIMx: where x can be  1 or 8 to select the TIM 
 708:../STM32F10x_StdPeriph_Lib_V3.5.0/Libraries/STM32F10x_StdPeriph_Driver/src/stm32f10x_tim.c ****   * @param  TIM_BDTRInitStruct: pointer to a TIM_BDTRInitTypeDef structure that
 709:../STM32F10x_StdPeriph_Lib_V3.5.0/Libraries/STM32F10x_StdPeriph_Driver/src/stm32f10x_tim.c ****   *         contains the BDTR Register configuration  information for the TIM peripheral.
 710:../STM32F10x_StdPeriph_Lib_V3.5.0/Libraries/STM32F10x_StdPeriph_Driver/src/stm32f10x_tim.c ****   * @retval None
 711:../STM32F10x_StdPeriph_Lib_V3.5.0/Libraries/STM32F10x_StdPeriph_Driver/src/stm32f10x_tim.c ****   */
 712:../STM32F10x_StdPeriph_Lib_V3.5.0/Libraries/STM32F10x_StdPeriph_Driver/src/stm32f10x_tim.c **** void TIM_BDTRConfig(TIM_TypeDef* TIMx, TIM_BDTRInitTypeDef *TIM_BDTRInitStruct)
 713:../STM32F10x_StdPeriph_Lib_V3.5.0/Libraries/STM32F10x_StdPeriph_Driver/src/stm32f10x_tim.c **** {
 1430              		.loc 1 713 0
 1431              		.cfi_startproc
 1432              		@ args = 0, pretend = 0, frame = 8
 1433              		@ frame_needed = 1, uses_anonymous_args = 0
 1434              		@ link register save eliminated.
 1435 0000 80B4     		push	{r7}
 1436              	.LCFI24:
 1437              		.cfi_def_cfa_offset 4
 1438              		.cfi_offset 7, -4
 1439 0002 83B0     		sub	sp, sp, #12
 1440              	.LCFI25:
 1441              		.cfi_def_cfa_offset 16
 1442 0004 00AF     		add	r7, sp, #0
 1443              	.LCFI26:
 1444              		.cfi_def_cfa_register 7
 1445 0006 7860     		str	r0, [r7, #4]
 1446 0008 3960     		str	r1, [r7, #0]
 714:../STM32F10x_StdPeriph_Lib_V3.5.0/Libraries/STM32F10x_StdPeriph_Driver/src/stm32f10x_tim.c ****   /* Check the parameters */
 715:../STM32F10x_StdPeriph_Lib_V3.5.0/Libraries/STM32F10x_StdPeriph_Driver/src/stm32f10x_tim.c ****   assert_param(IS_TIM_LIST2_PERIPH(TIMx));
 716:../STM32F10x_StdPeriph_Lib_V3.5.0/Libraries/STM32F10x_StdPeriph_Driver/src/stm32f10x_tim.c ****   assert_param(IS_TIM_OSSR_STATE(TIM_BDTRInitStruct->TIM_OSSRState));
 717:../STM32F10x_StdPeriph_Lib_V3.5.0/Libraries/STM32F10x_StdPeriph_Driver/src/stm32f10x_tim.c ****   assert_param(IS_TIM_OSSI_STATE(TIM_BDTRInitStruct->TIM_OSSIState));
 718:../STM32F10x_StdPeriph_Lib_V3.5.0/Libraries/STM32F10x_StdPeriph_Driver/src/stm32f10x_tim.c ****   assert_param(IS_TIM_LOCK_LEVEL(TIM_BDTRInitStruct->TIM_LOCKLevel));
 719:../STM32F10x_StdPeriph_Lib_V3.5.0/Libraries/STM32F10x_StdPeriph_Driver/src/stm32f10x_tim.c ****   assert_param(IS_TIM_BREAK_STATE(TIM_BDTRInitStruct->TIM_Break));
 720:../STM32F10x_StdPeriph_Lib_V3.5.0/Libraries/STM32F10x_StdPeriph_Driver/src/stm32f10x_tim.c ****   assert_param(IS_TIM_BREAK_POLARITY(TIM_BDTRInitStruct->TIM_BreakPolarity));
 721:../STM32F10x_StdPeriph_Lib_V3.5.0/Libraries/STM32F10x_StdPeriph_Driver/src/stm32f10x_tim.c ****   assert_param(IS_TIM_AUTOMATIC_OUTPUT_STATE(TIM_BDTRInitStruct->TIM_AutomaticOutput));
 722:../STM32F10x_StdPeriph_Lib_V3.5.0/Libraries/STM32F10x_StdPeriph_Driver/src/stm32f10x_tim.c ****   /* Set the Lock level, the Break enable Bit and the Ploarity, the OSSR State,
 723:../STM32F10x_StdPeriph_Lib_V3.5.0/Libraries/STM32F10x_StdPeriph_Driver/src/stm32f10x_tim.c ****      the OSSI State, the dead time value and the Automatic Output Enable Bit */
 724:../STM32F10x_StdPeriph_Lib_V3.5.0/Libraries/STM32F10x_StdPeriph_Driver/src/stm32f10x_tim.c ****   TIMx->BDTR = (uint32_t)TIM_BDTRInitStruct->TIM_OSSRState | TIM_BDTRInitStruct->TIM_OSSIState |
 1447              		.loc 1 724 0
 1448 000a 3B68     		ldr	r3, [r7, #0]
 1449 000c 1A88     		ldrh	r2, [r3, #0]
 1450 000e 3B68     		ldr	r3, [r7, #0]
 1451 0010 5B88     		ldrh	r3, [r3, #2]
 1452 0012 1343     		orrs	r3, r3, r2
 1453 0014 9AB2     		uxth	r2, r3
 725:../STM32F10x_StdPeriph_Lib_V3.5.0/Libraries/STM32F10x_StdPeriph_Driver/src/stm32f10x_tim.c ****              TIM_BDTRInitStruct->TIM_LOCKLevel | TIM_BDTRInitStruct->TIM_DeadTime |
 1454              		.loc 1 725 0
 1455 0016 3B68     		ldr	r3, [r7, #0]
 1456 0018 9B88     		ldrh	r3, [r3, #4]
 724:../STM32F10x_StdPeriph_Lib_V3.5.0/Libraries/STM32F10x_StdPeriph_Driver/src/stm32f10x_tim.c ****   TIMx->BDTR = (uint32_t)TIM_BDTRInitStruct->TIM_OSSRState | TIM_BDTRInitStruct->TIM_OSSIState |
 1457              		.loc 1 724 0
 1458 001a 1343     		orrs	r3, r3, r2
 1459 001c 9AB2     		uxth	r2, r3
 1460              		.loc 1 725 0
 1461 001e 3B68     		ldr	r3, [r7, #0]
 1462 0020 DB88     		ldrh	r3, [r3, #6]
 724:../STM32F10x_StdPeriph_Lib_V3.5.0/Libraries/STM32F10x_StdPeriph_Driver/src/stm32f10x_tim.c ****   TIMx->BDTR = (uint32_t)TIM_BDTRInitStruct->TIM_OSSRState | TIM_BDTRInitStruct->TIM_OSSIState |
 1463              		.loc 1 724 0
 1464 0022 1343     		orrs	r3, r3, r2
 1465 0024 9AB2     		uxth	r2, r3
 726:../STM32F10x_StdPeriph_Lib_V3.5.0/Libraries/STM32F10x_StdPeriph_Driver/src/stm32f10x_tim.c ****              TIM_BDTRInitStruct->TIM_Break | TIM_BDTRInitStruct->TIM_BreakPolarity |
 1466              		.loc 1 726 0
 1467 0026 3B68     		ldr	r3, [r7, #0]
 1468 0028 1B89     		ldrh	r3, [r3, #8]
 724:../STM32F10x_StdPeriph_Lib_V3.5.0/Libraries/STM32F10x_StdPeriph_Driver/src/stm32f10x_tim.c ****   TIMx->BDTR = (uint32_t)TIM_BDTRInitStruct->TIM_OSSRState | TIM_BDTRInitStruct->TIM_OSSIState |
 1469              		.loc 1 724 0
 1470 002a 1343     		orrs	r3, r3, r2
 1471 002c 9AB2     		uxth	r2, r3
 1472              		.loc 1 726 0
 1473 002e 3B68     		ldr	r3, [r7, #0]
 1474 0030 5B89     		ldrh	r3, [r3, #10]
 724:../STM32F10x_StdPeriph_Lib_V3.5.0/Libraries/STM32F10x_StdPeriph_Driver/src/stm32f10x_tim.c ****   TIMx->BDTR = (uint32_t)TIM_BDTRInitStruct->TIM_OSSRState | TIM_BDTRInitStruct->TIM_OSSIState |
 1475              		.loc 1 724 0
 1476 0032 1343     		orrs	r3, r3, r2
 1477 0034 9AB2     		uxth	r2, r3
 727:../STM32F10x_StdPeriph_Lib_V3.5.0/Libraries/STM32F10x_StdPeriph_Driver/src/stm32f10x_tim.c ****              TIM_BDTRInitStruct->TIM_AutomaticOutput;
 1478              		.loc 1 727 0
 1479 0036 3B68     		ldr	r3, [r7, #0]
 1480 0038 9B89     		ldrh	r3, [r3, #12]
 724:../STM32F10x_StdPeriph_Lib_V3.5.0/Libraries/STM32F10x_StdPeriph_Driver/src/stm32f10x_tim.c ****   TIMx->BDTR = (uint32_t)TIM_BDTRInitStruct->TIM_OSSRState | TIM_BDTRInitStruct->TIM_OSSIState |
 1481              		.loc 1 724 0
 1482 003a 1343     		orrs	r3, r3, r2
 1483 003c 9AB2     		uxth	r2, r3
 1484 003e 7B68     		ldr	r3, [r7, #4]
 1485 0040 A3F84420 		strh	r2, [r3, #68]	@ movhi
 728:../STM32F10x_StdPeriph_Lib_V3.5.0/Libraries/STM32F10x_StdPeriph_Driver/src/stm32f10x_tim.c **** }
 1486              		.loc 1 728 0
 1487 0044 07F10C07 		add	r7, r7, #12
 1488 0048 BD46     		mov	sp, r7
 1489 004a 80BC     		pop	{r7}
 1490 004c 7047     		bx	lr
 1491              		.cfi_endproc
 1492              	.LFE37:
 1494 004e 00BF     		.section	.text.TIM_TimeBaseStructInit,"ax",%progbits
 1495              		.align	2
 1496              		.global	TIM_TimeBaseStructInit
 1497              		.thumb
 1498              		.thumb_func
 1500              	TIM_TimeBaseStructInit:
 1501              	.LFB38:
 729:../STM32F10x_StdPeriph_Lib_V3.5.0/Libraries/STM32F10x_StdPeriph_Driver/src/stm32f10x_tim.c **** 
 730:../STM32F10x_StdPeriph_Lib_V3.5.0/Libraries/STM32F10x_StdPeriph_Driver/src/stm32f10x_tim.c **** /**
 731:../STM32F10x_StdPeriph_Lib_V3.5.0/Libraries/STM32F10x_StdPeriph_Driver/src/stm32f10x_tim.c ****   * @brief  Fills each TIM_TimeBaseInitStruct member with its default value.
 732:../STM32F10x_StdPeriph_Lib_V3.5.0/Libraries/STM32F10x_StdPeriph_Driver/src/stm32f10x_tim.c ****   * @param  TIM_TimeBaseInitStruct : pointer to a TIM_TimeBaseInitTypeDef
 733:../STM32F10x_StdPeriph_Lib_V3.5.0/Libraries/STM32F10x_StdPeriph_Driver/src/stm32f10x_tim.c ****   *         structure which will be initialized.
 734:../STM32F10x_StdPeriph_Lib_V3.5.0/Libraries/STM32F10x_StdPeriph_Driver/src/stm32f10x_tim.c ****   * @retval None
 735:../STM32F10x_StdPeriph_Lib_V3.5.0/Libraries/STM32F10x_StdPeriph_Driver/src/stm32f10x_tim.c ****   */
 736:../STM32F10x_StdPeriph_Lib_V3.5.0/Libraries/STM32F10x_StdPeriph_Driver/src/stm32f10x_tim.c **** void TIM_TimeBaseStructInit(TIM_TimeBaseInitTypeDef* TIM_TimeBaseInitStruct)
 737:../STM32F10x_StdPeriph_Lib_V3.5.0/Libraries/STM32F10x_StdPeriph_Driver/src/stm32f10x_tim.c **** {
 1502              		.loc 1 737 0
 1503              		.cfi_startproc
 1504              		@ args = 0, pretend = 0, frame = 8
 1505              		@ frame_needed = 1, uses_anonymous_args = 0
 1506              		@ link register save eliminated.
 1507 0000 80B4     		push	{r7}
 1508              	.LCFI27:
 1509              		.cfi_def_cfa_offset 4
 1510              		.cfi_offset 7, -4
 1511 0002 83B0     		sub	sp, sp, #12
 1512              	.LCFI28:
 1513              		.cfi_def_cfa_offset 16
 1514 0004 00AF     		add	r7, sp, #0
 1515              	.LCFI29:
 1516              		.cfi_def_cfa_register 7
 1517 0006 7860     		str	r0, [r7, #4]
 738:../STM32F10x_StdPeriph_Lib_V3.5.0/Libraries/STM32F10x_StdPeriph_Driver/src/stm32f10x_tim.c ****   /* Set the default configuration */
 739:../STM32F10x_StdPeriph_Lib_V3.5.0/Libraries/STM32F10x_StdPeriph_Driver/src/stm32f10x_tim.c ****   TIM_TimeBaseInitStruct->TIM_Period = 0xFFFF;
 1518              		.loc 1 739 0
 1519 0008 7B68     		ldr	r3, [r7, #4]
 1520 000a 4FF6FF72 		movw	r2, #65535
 1521 000e 9A80     		strh	r2, [r3, #4]	@ movhi
 740:../STM32F10x_StdPeriph_Lib_V3.5.0/Libraries/STM32F10x_StdPeriph_Driver/src/stm32f10x_tim.c ****   TIM_TimeBaseInitStruct->TIM_Prescaler = 0x0000;
 1522              		.loc 1 740 0
 1523 0010 7B68     		ldr	r3, [r7, #4]
 1524 0012 4FF00002 		mov	r2, #0
 1525 0016 1A80     		strh	r2, [r3, #0]	@ movhi
 741:../STM32F10x_StdPeriph_Lib_V3.5.0/Libraries/STM32F10x_StdPeriph_Driver/src/stm32f10x_tim.c ****   TIM_TimeBaseInitStruct->TIM_ClockDivision = TIM_CKD_DIV1;
 1526              		.loc 1 741 0
 1527 0018 7B68     		ldr	r3, [r7, #4]
 1528 001a 4FF00002 		mov	r2, #0
 1529 001e DA80     		strh	r2, [r3, #6]	@ movhi
 742:../STM32F10x_StdPeriph_Lib_V3.5.0/Libraries/STM32F10x_StdPeriph_Driver/src/stm32f10x_tim.c ****   TIM_TimeBaseInitStruct->TIM_CounterMode = TIM_CounterMode_Up;
 1530              		.loc 1 742 0
 1531 0020 7B68     		ldr	r3, [r7, #4]
 1532 0022 4FF00002 		mov	r2, #0
 1533 0026 5A80     		strh	r2, [r3, #2]	@ movhi
 743:../STM32F10x_StdPeriph_Lib_V3.5.0/Libraries/STM32F10x_StdPeriph_Driver/src/stm32f10x_tim.c ****   TIM_TimeBaseInitStruct->TIM_RepetitionCounter = 0x0000;
 1534              		.loc 1 743 0
 1535 0028 7B68     		ldr	r3, [r7, #4]
 1536 002a 4FF00002 		mov	r2, #0
 1537 002e 1A72     		strb	r2, [r3, #8]
 744:../STM32F10x_StdPeriph_Lib_V3.5.0/Libraries/STM32F10x_StdPeriph_Driver/src/stm32f10x_tim.c **** }
 1538              		.loc 1 744 0
 1539 0030 07F10C07 		add	r7, r7, #12
 1540 0034 BD46     		mov	sp, r7
 1541 0036 80BC     		pop	{r7}
 1542 0038 7047     		bx	lr
 1543              		.cfi_endproc
 1544              	.LFE38:
 1546 003a 00BF     		.section	.text.TIM_OCStructInit,"ax",%progbits
 1547              		.align	2
 1548              		.global	TIM_OCStructInit
 1549              		.thumb
 1550              		.thumb_func
 1552              	TIM_OCStructInit:
 1553              	.LFB39:
 745:../STM32F10x_StdPeriph_Lib_V3.5.0/Libraries/STM32F10x_StdPeriph_Driver/src/stm32f10x_tim.c **** 
 746:../STM32F10x_StdPeriph_Lib_V3.5.0/Libraries/STM32F10x_StdPeriph_Driver/src/stm32f10x_tim.c **** /**
 747:../STM32F10x_StdPeriph_Lib_V3.5.0/Libraries/STM32F10x_StdPeriph_Driver/src/stm32f10x_tim.c ****   * @brief  Fills each TIM_OCInitStruct member with its default value.
 748:../STM32F10x_StdPeriph_Lib_V3.5.0/Libraries/STM32F10x_StdPeriph_Driver/src/stm32f10x_tim.c ****   * @param  TIM_OCInitStruct : pointer to a TIM_OCInitTypeDef structure which will
 749:../STM32F10x_StdPeriph_Lib_V3.5.0/Libraries/STM32F10x_StdPeriph_Driver/src/stm32f10x_tim.c ****   *         be initialized.
 750:../STM32F10x_StdPeriph_Lib_V3.5.0/Libraries/STM32F10x_StdPeriph_Driver/src/stm32f10x_tim.c ****   * @retval None
 751:../STM32F10x_StdPeriph_Lib_V3.5.0/Libraries/STM32F10x_StdPeriph_Driver/src/stm32f10x_tim.c ****   */
 752:../STM32F10x_StdPeriph_Lib_V3.5.0/Libraries/STM32F10x_StdPeriph_Driver/src/stm32f10x_tim.c **** void TIM_OCStructInit(TIM_OCInitTypeDef* TIM_OCInitStruct)
 753:../STM32F10x_StdPeriph_Lib_V3.5.0/Libraries/STM32F10x_StdPeriph_Driver/src/stm32f10x_tim.c **** {
 1554              		.loc 1 753 0
 1555              		.cfi_startproc
 1556              		@ args = 0, pretend = 0, frame = 8
 1557              		@ frame_needed = 1, uses_anonymous_args = 0
 1558              		@ link register save eliminated.
 1559 0000 80B4     		push	{r7}
 1560              	.LCFI30:
 1561              		.cfi_def_cfa_offset 4
 1562              		.cfi_offset 7, -4
 1563 0002 83B0     		sub	sp, sp, #12
 1564              	.LCFI31:
 1565              		.cfi_def_cfa_offset 16
 1566 0004 00AF     		add	r7, sp, #0
 1567              	.LCFI32:
 1568              		.cfi_def_cfa_register 7
 1569 0006 7860     		str	r0, [r7, #4]
 754:../STM32F10x_StdPeriph_Lib_V3.5.0/Libraries/STM32F10x_StdPeriph_Driver/src/stm32f10x_tim.c ****   /* Set the default configuration */
 755:../STM32F10x_StdPeriph_Lib_V3.5.0/Libraries/STM32F10x_StdPeriph_Driver/src/stm32f10x_tim.c ****   TIM_OCInitStruct->TIM_OCMode = TIM_OCMode_Timing;
 1570              		.loc 1 755 0
 1571 0008 7B68     		ldr	r3, [r7, #4]
 1572 000a 4FF00002 		mov	r2, #0
 1573 000e 1A80     		strh	r2, [r3, #0]	@ movhi
 756:../STM32F10x_StdPeriph_Lib_V3.5.0/Libraries/STM32F10x_StdPeriph_Driver/src/stm32f10x_tim.c ****   TIM_OCInitStruct->TIM_OutputState = TIM_OutputState_Disable;
 1574              		.loc 1 756 0
 1575 0010 7B68     		ldr	r3, [r7, #4]
 1576 0012 4FF00002 		mov	r2, #0
 1577 0016 5A80     		strh	r2, [r3, #2]	@ movhi
 757:../STM32F10x_StdPeriph_Lib_V3.5.0/Libraries/STM32F10x_StdPeriph_Driver/src/stm32f10x_tim.c ****   TIM_OCInitStruct->TIM_OutputNState = TIM_OutputNState_Disable;
 1578              		.loc 1 757 0
 1579 0018 7B68     		ldr	r3, [r7, #4]
 1580 001a 4FF00002 		mov	r2, #0
 1581 001e 9A80     		strh	r2, [r3, #4]	@ movhi
 758:../STM32F10x_StdPeriph_Lib_V3.5.0/Libraries/STM32F10x_StdPeriph_Driver/src/stm32f10x_tim.c ****   TIM_OCInitStruct->TIM_Pulse = 0x0000;
 1582              		.loc 1 758 0
 1583 0020 7B68     		ldr	r3, [r7, #4]
 1584 0022 4FF00002 		mov	r2, #0
 1585 0026 DA80     		strh	r2, [r3, #6]	@ movhi
 759:../STM32F10x_StdPeriph_Lib_V3.5.0/Libraries/STM32F10x_StdPeriph_Driver/src/stm32f10x_tim.c ****   TIM_OCInitStruct->TIM_OCPolarity = TIM_OCPolarity_High;
 1586              		.loc 1 759 0
 1587 0028 7B68     		ldr	r3, [r7, #4]
 1588 002a 4FF00002 		mov	r2, #0
 1589 002e 1A81     		strh	r2, [r3, #8]	@ movhi
 760:../STM32F10x_StdPeriph_Lib_V3.5.0/Libraries/STM32F10x_StdPeriph_Driver/src/stm32f10x_tim.c ****   TIM_OCInitStruct->TIM_OCNPolarity = TIM_OCPolarity_High;
 1590              		.loc 1 760 0
 1591 0030 7B68     		ldr	r3, [r7, #4]
 1592 0032 4FF00002 		mov	r2, #0
 1593 0036 5A81     		strh	r2, [r3, #10]	@ movhi
 761:../STM32F10x_StdPeriph_Lib_V3.5.0/Libraries/STM32F10x_StdPeriph_Driver/src/stm32f10x_tim.c ****   TIM_OCInitStruct->TIM_OCIdleState = TIM_OCIdleState_Reset;
 1594              		.loc 1 761 0
 1595 0038 7B68     		ldr	r3, [r7, #4]
 1596 003a 4FF00002 		mov	r2, #0
 1597 003e 9A81     		strh	r2, [r3, #12]	@ movhi
 762:../STM32F10x_StdPeriph_Lib_V3.5.0/Libraries/STM32F10x_StdPeriph_Driver/src/stm32f10x_tim.c ****   TIM_OCInitStruct->TIM_OCNIdleState = TIM_OCNIdleState_Reset;
 1598              		.loc 1 762 0
 1599 0040 7B68     		ldr	r3, [r7, #4]
 1600 0042 4FF00002 		mov	r2, #0
 1601 0046 DA81     		strh	r2, [r3, #14]	@ movhi
 763:../STM32F10x_StdPeriph_Lib_V3.5.0/Libraries/STM32F10x_StdPeriph_Driver/src/stm32f10x_tim.c **** }
 1602              		.loc 1 763 0
 1603 0048 07F10C07 		add	r7, r7, #12
 1604 004c BD46     		mov	sp, r7
 1605 004e 80BC     		pop	{r7}
 1606 0050 7047     		bx	lr
 1607              		.cfi_endproc
 1608              	.LFE39:
 1610 0052 00BF     		.section	.text.TIM_ICStructInit,"ax",%progbits
 1611              		.align	2
 1612              		.global	TIM_ICStructInit
 1613              		.thumb
 1614              		.thumb_func
 1616              	TIM_ICStructInit:
 1617              	.LFB40:
 764:../STM32F10x_StdPeriph_Lib_V3.5.0/Libraries/STM32F10x_StdPeriph_Driver/src/stm32f10x_tim.c **** 
 765:../STM32F10x_StdPeriph_Lib_V3.5.0/Libraries/STM32F10x_StdPeriph_Driver/src/stm32f10x_tim.c **** /**
 766:../STM32F10x_StdPeriph_Lib_V3.5.0/Libraries/STM32F10x_StdPeriph_Driver/src/stm32f10x_tim.c ****   * @brief  Fills each TIM_ICInitStruct member with its default value.
 767:../STM32F10x_StdPeriph_Lib_V3.5.0/Libraries/STM32F10x_StdPeriph_Driver/src/stm32f10x_tim.c ****   * @param  TIM_ICInitStruct: pointer to a TIM_ICInitTypeDef structure which will
 768:../STM32F10x_StdPeriph_Lib_V3.5.0/Libraries/STM32F10x_StdPeriph_Driver/src/stm32f10x_tim.c ****   *         be initialized.
 769:../STM32F10x_StdPeriph_Lib_V3.5.0/Libraries/STM32F10x_StdPeriph_Driver/src/stm32f10x_tim.c ****   * @retval None
 770:../STM32F10x_StdPeriph_Lib_V3.5.0/Libraries/STM32F10x_StdPeriph_Driver/src/stm32f10x_tim.c ****   */
 771:../STM32F10x_StdPeriph_Lib_V3.5.0/Libraries/STM32F10x_StdPeriph_Driver/src/stm32f10x_tim.c **** void TIM_ICStructInit(TIM_ICInitTypeDef* TIM_ICInitStruct)
 772:../STM32F10x_StdPeriph_Lib_V3.5.0/Libraries/STM32F10x_StdPeriph_Driver/src/stm32f10x_tim.c **** {
 1618              		.loc 1 772 0
 1619              		.cfi_startproc
 1620              		@ args = 0, pretend = 0, frame = 8
 1621              		@ frame_needed = 1, uses_anonymous_args = 0
 1622              		@ link register save eliminated.
 1623 0000 80B4     		push	{r7}
 1624              	.LCFI33:
 1625              		.cfi_def_cfa_offset 4
 1626              		.cfi_offset 7, -4
 1627 0002 83B0     		sub	sp, sp, #12
 1628              	.LCFI34:
 1629              		.cfi_def_cfa_offset 16
 1630 0004 00AF     		add	r7, sp, #0
 1631              	.LCFI35:
 1632              		.cfi_def_cfa_register 7
 1633 0006 7860     		str	r0, [r7, #4]
 773:../STM32F10x_StdPeriph_Lib_V3.5.0/Libraries/STM32F10x_StdPeriph_Driver/src/stm32f10x_tim.c ****   /* Set the default configuration */
 774:../STM32F10x_StdPeriph_Lib_V3.5.0/Libraries/STM32F10x_StdPeriph_Driver/src/stm32f10x_tim.c ****   TIM_ICInitStruct->TIM_Channel = TIM_Channel_1;
 1634              		.loc 1 774 0
 1635 0008 7B68     		ldr	r3, [r7, #4]
 1636 000a 4FF00002 		mov	r2, #0
 1637 000e 1A80     		strh	r2, [r3, #0]	@ movhi
 775:../STM32F10x_StdPeriph_Lib_V3.5.0/Libraries/STM32F10x_StdPeriph_Driver/src/stm32f10x_tim.c ****   TIM_ICInitStruct->TIM_ICPolarity = TIM_ICPolarity_Rising;
 1638              		.loc 1 775 0
 1639 0010 7B68     		ldr	r3, [r7, #4]
 1640 0012 4FF00002 		mov	r2, #0
 1641 0016 5A80     		strh	r2, [r3, #2]	@ movhi
 776:../STM32F10x_StdPeriph_Lib_V3.5.0/Libraries/STM32F10x_StdPeriph_Driver/src/stm32f10x_tim.c ****   TIM_ICInitStruct->TIM_ICSelection = TIM_ICSelection_DirectTI;
 1642              		.loc 1 776 0
 1643 0018 7B68     		ldr	r3, [r7, #4]
 1644 001a 4FF00102 		mov	r2, #1
 1645 001e 9A80     		strh	r2, [r3, #4]	@ movhi
 777:../STM32F10x_StdPeriph_Lib_V3.5.0/Libraries/STM32F10x_StdPeriph_Driver/src/stm32f10x_tim.c ****   TIM_ICInitStruct->TIM_ICPrescaler = TIM_ICPSC_DIV1;
 1646              		.loc 1 777 0
 1647 0020 7B68     		ldr	r3, [r7, #4]
 1648 0022 4FF00002 		mov	r2, #0
 1649 0026 DA80     		strh	r2, [r3, #6]	@ movhi
 778:../STM32F10x_StdPeriph_Lib_V3.5.0/Libraries/STM32F10x_StdPeriph_Driver/src/stm32f10x_tim.c ****   TIM_ICInitStruct->TIM_ICFilter = 0x00;
 1650              		.loc 1 778 0
 1651 0028 7B68     		ldr	r3, [r7, #4]
 1652 002a 4FF00002 		mov	r2, #0
 1653 002e 1A81     		strh	r2, [r3, #8]	@ movhi
 779:../STM32F10x_StdPeriph_Lib_V3.5.0/Libraries/STM32F10x_StdPeriph_Driver/src/stm32f10x_tim.c **** }
 1654              		.loc 1 779 0
 1655 0030 07F10C07 		add	r7, r7, #12
 1656 0034 BD46     		mov	sp, r7
 1657 0036 80BC     		pop	{r7}
 1658 0038 7047     		bx	lr
 1659              		.cfi_endproc
 1660              	.LFE40:
 1662 003a 00BF     		.section	.text.TIM_BDTRStructInit,"ax",%progbits
 1663              		.align	2
 1664              		.global	TIM_BDTRStructInit
 1665              		.thumb
 1666              		.thumb_func
 1668              	TIM_BDTRStructInit:
 1669              	.LFB41:
 780:../STM32F10x_StdPeriph_Lib_V3.5.0/Libraries/STM32F10x_StdPeriph_Driver/src/stm32f10x_tim.c **** 
 781:../STM32F10x_StdPeriph_Lib_V3.5.0/Libraries/STM32F10x_StdPeriph_Driver/src/stm32f10x_tim.c **** /**
 782:../STM32F10x_StdPeriph_Lib_V3.5.0/Libraries/STM32F10x_StdPeriph_Driver/src/stm32f10x_tim.c ****   * @brief  Fills each TIM_BDTRInitStruct member with its default value.
 783:../STM32F10x_StdPeriph_Lib_V3.5.0/Libraries/STM32F10x_StdPeriph_Driver/src/stm32f10x_tim.c ****   * @param  TIM_BDTRInitStruct: pointer to a TIM_BDTRInitTypeDef structure which
 784:../STM32F10x_StdPeriph_Lib_V3.5.0/Libraries/STM32F10x_StdPeriph_Driver/src/stm32f10x_tim.c ****   *         will be initialized.
 785:../STM32F10x_StdPeriph_Lib_V3.5.0/Libraries/STM32F10x_StdPeriph_Driver/src/stm32f10x_tim.c ****   * @retval None
 786:../STM32F10x_StdPeriph_Lib_V3.5.0/Libraries/STM32F10x_StdPeriph_Driver/src/stm32f10x_tim.c ****   */
 787:../STM32F10x_StdPeriph_Lib_V3.5.0/Libraries/STM32F10x_StdPeriph_Driver/src/stm32f10x_tim.c **** void TIM_BDTRStructInit(TIM_BDTRInitTypeDef* TIM_BDTRInitStruct)
 788:../STM32F10x_StdPeriph_Lib_V3.5.0/Libraries/STM32F10x_StdPeriph_Driver/src/stm32f10x_tim.c **** {
 1670              		.loc 1 788 0
 1671              		.cfi_startproc
 1672              		@ args = 0, pretend = 0, frame = 8
 1673              		@ frame_needed = 1, uses_anonymous_args = 0
 1674              		@ link register save eliminated.
 1675 0000 80B4     		push	{r7}
 1676              	.LCFI36:
 1677              		.cfi_def_cfa_offset 4
 1678              		.cfi_offset 7, -4
 1679 0002 83B0     		sub	sp, sp, #12
 1680              	.LCFI37:
 1681              		.cfi_def_cfa_offset 16
 1682 0004 00AF     		add	r7, sp, #0
 1683              	.LCFI38:
 1684              		.cfi_def_cfa_register 7
 1685 0006 7860     		str	r0, [r7, #4]
 789:../STM32F10x_StdPeriph_Lib_V3.5.0/Libraries/STM32F10x_StdPeriph_Driver/src/stm32f10x_tim.c ****   /* Set the default configuration */
 790:../STM32F10x_StdPeriph_Lib_V3.5.0/Libraries/STM32F10x_StdPeriph_Driver/src/stm32f10x_tim.c ****   TIM_BDTRInitStruct->TIM_OSSRState = TIM_OSSRState_Disable;
 1686              		.loc 1 790 0
 1687 0008 7B68     		ldr	r3, [r7, #4]
 1688 000a 4FF00002 		mov	r2, #0
 1689 000e 1A80     		strh	r2, [r3, #0]	@ movhi
 791:../STM32F10x_StdPeriph_Lib_V3.5.0/Libraries/STM32F10x_StdPeriph_Driver/src/stm32f10x_tim.c ****   TIM_BDTRInitStruct->TIM_OSSIState = TIM_OSSIState_Disable;
 1690              		.loc 1 791 0
 1691 0010 7B68     		ldr	r3, [r7, #4]
 1692 0012 4FF00002 		mov	r2, #0
 1693 0016 5A80     		strh	r2, [r3, #2]	@ movhi
 792:../STM32F10x_StdPeriph_Lib_V3.5.0/Libraries/STM32F10x_StdPeriph_Driver/src/stm32f10x_tim.c ****   TIM_BDTRInitStruct->TIM_LOCKLevel = TIM_LOCKLevel_OFF;
 1694              		.loc 1 792 0
 1695 0018 7B68     		ldr	r3, [r7, #4]
 1696 001a 4FF00002 		mov	r2, #0
 1697 001e 9A80     		strh	r2, [r3, #4]	@ movhi
 793:../STM32F10x_StdPeriph_Lib_V3.5.0/Libraries/STM32F10x_StdPeriph_Driver/src/stm32f10x_tim.c ****   TIM_BDTRInitStruct->TIM_DeadTime = 0x00;
 1698              		.loc 1 793 0
 1699 0020 7B68     		ldr	r3, [r7, #4]
 1700 0022 4FF00002 		mov	r2, #0
 1701 0026 DA80     		strh	r2, [r3, #6]	@ movhi
 794:../STM32F10x_StdPeriph_Lib_V3.5.0/Libraries/STM32F10x_StdPeriph_Driver/src/stm32f10x_tim.c ****   TIM_BDTRInitStruct->TIM_Break = TIM_Break_Disable;
 1702              		.loc 1 794 0
 1703 0028 7B68     		ldr	r3, [r7, #4]
 1704 002a 4FF00002 		mov	r2, #0
 1705 002e 1A81     		strh	r2, [r3, #8]	@ movhi
 795:../STM32F10x_StdPeriph_Lib_V3.5.0/Libraries/STM32F10x_StdPeriph_Driver/src/stm32f10x_tim.c ****   TIM_BDTRInitStruct->TIM_BreakPolarity = TIM_BreakPolarity_Low;
 1706              		.loc 1 795 0
 1707 0030 7B68     		ldr	r3, [r7, #4]
 1708 0032 4FF00002 		mov	r2, #0
 1709 0036 5A81     		strh	r2, [r3, #10]	@ movhi
 796:../STM32F10x_StdPeriph_Lib_V3.5.0/Libraries/STM32F10x_StdPeriph_Driver/src/stm32f10x_tim.c ****   TIM_BDTRInitStruct->TIM_AutomaticOutput = TIM_AutomaticOutput_Disable;
 1710              		.loc 1 796 0
 1711 0038 7B68     		ldr	r3, [r7, #4]
 1712 003a 4FF00002 		mov	r2, #0
 1713 003e 9A81     		strh	r2, [r3, #12]	@ movhi
 797:../STM32F10x_StdPeriph_Lib_V3.5.0/Libraries/STM32F10x_StdPeriph_Driver/src/stm32f10x_tim.c **** }
 1714              		.loc 1 797 0
 1715 0040 07F10C07 		add	r7, r7, #12
 1716 0044 BD46     		mov	sp, r7
 1717 0046 80BC     		pop	{r7}
 1718 0048 7047     		bx	lr
 1719              		.cfi_endproc
 1720              	.LFE41:
 1722 004a 00BF     		.section	.text.TIM_Cmd,"ax",%progbits
 1723              		.align	2
 1724              		.global	TIM_Cmd
 1725              		.thumb
 1726              		.thumb_func
 1728              	TIM_Cmd:
 1729              	.LFB42:
 798:../STM32F10x_StdPeriph_Lib_V3.5.0/Libraries/STM32F10x_StdPeriph_Driver/src/stm32f10x_tim.c **** 
 799:../STM32F10x_StdPeriph_Lib_V3.5.0/Libraries/STM32F10x_StdPeriph_Driver/src/stm32f10x_tim.c **** /**
 800:../STM32F10x_StdPeriph_Lib_V3.5.0/Libraries/STM32F10x_StdPeriph_Driver/src/stm32f10x_tim.c ****   * @brief  Enables or disables the specified TIM peripheral.
 801:../STM32F10x_StdPeriph_Lib_V3.5.0/Libraries/STM32F10x_StdPeriph_Driver/src/stm32f10x_tim.c ****   * @param  TIMx: where x can be 1 to 17 to select the TIMx peripheral.
 802:../STM32F10x_StdPeriph_Lib_V3.5.0/Libraries/STM32F10x_StdPeriph_Driver/src/stm32f10x_tim.c ****   * @param  NewState: new state of the TIMx peripheral.
 803:../STM32F10x_StdPeriph_Lib_V3.5.0/Libraries/STM32F10x_StdPeriph_Driver/src/stm32f10x_tim.c ****   *   This parameter can be: ENABLE or DISABLE.
 804:../STM32F10x_StdPeriph_Lib_V3.5.0/Libraries/STM32F10x_StdPeriph_Driver/src/stm32f10x_tim.c ****   * @retval None
 805:../STM32F10x_StdPeriph_Lib_V3.5.0/Libraries/STM32F10x_StdPeriph_Driver/src/stm32f10x_tim.c ****   */
 806:../STM32F10x_StdPeriph_Lib_V3.5.0/Libraries/STM32F10x_StdPeriph_Driver/src/stm32f10x_tim.c **** void TIM_Cmd(TIM_TypeDef* TIMx, FunctionalState NewState)
 807:../STM32F10x_StdPeriph_Lib_V3.5.0/Libraries/STM32F10x_StdPeriph_Driver/src/stm32f10x_tim.c **** {
 1730              		.loc 1 807 0
 1731              		.cfi_startproc
 1732              		@ args = 0, pretend = 0, frame = 8
 1733              		@ frame_needed = 1, uses_anonymous_args = 0
 1734              		@ link register save eliminated.
 1735 0000 80B4     		push	{r7}
 1736              	.LCFI39:
 1737              		.cfi_def_cfa_offset 4
 1738              		.cfi_offset 7, -4
 1739 0002 83B0     		sub	sp, sp, #12
 1740              	.LCFI40:
 1741              		.cfi_def_cfa_offset 16
 1742 0004 00AF     		add	r7, sp, #0
 1743              	.LCFI41:
 1744              		.cfi_def_cfa_register 7
 1745 0006 7860     		str	r0, [r7, #4]
 1746 0008 0B46     		mov	r3, r1
 1747 000a FB70     		strb	r3, [r7, #3]
 808:../STM32F10x_StdPeriph_Lib_V3.5.0/Libraries/STM32F10x_StdPeriph_Driver/src/stm32f10x_tim.c ****   /* Check the parameters */
 809:../STM32F10x_StdPeriph_Lib_V3.5.0/Libraries/STM32F10x_StdPeriph_Driver/src/stm32f10x_tim.c ****   assert_param(IS_TIM_ALL_PERIPH(TIMx));
 810:../STM32F10x_StdPeriph_Lib_V3.5.0/Libraries/STM32F10x_StdPeriph_Driver/src/stm32f10x_tim.c ****   assert_param(IS_FUNCTIONAL_STATE(NewState));
 811:../STM32F10x_StdPeriph_Lib_V3.5.0/Libraries/STM32F10x_StdPeriph_Driver/src/stm32f10x_tim.c ****   
 812:../STM32F10x_StdPeriph_Lib_V3.5.0/Libraries/STM32F10x_StdPeriph_Driver/src/stm32f10x_tim.c ****   if (NewState != DISABLE)
 1748              		.loc 1 812 0
 1749 000c FB78     		ldrb	r3, [r7, #3]	@ zero_extendqisi2
 1750 000e 002B     		cmp	r3, #0
 1751 0010 08D0     		beq	.L67
 813:../STM32F10x_StdPeriph_Lib_V3.5.0/Libraries/STM32F10x_StdPeriph_Driver/src/stm32f10x_tim.c ****   {
 814:../STM32F10x_StdPeriph_Lib_V3.5.0/Libraries/STM32F10x_StdPeriph_Driver/src/stm32f10x_tim.c ****     /* Enable the TIM Counter */
 815:../STM32F10x_StdPeriph_Lib_V3.5.0/Libraries/STM32F10x_StdPeriph_Driver/src/stm32f10x_tim.c ****     TIMx->CR1 |= TIM_CR1_CEN;
 1752              		.loc 1 815 0
 1753 0012 7B68     		ldr	r3, [r7, #4]
 1754 0014 1B88     		ldrh	r3, [r3, #0]	@ movhi
 1755 0016 9BB2     		uxth	r3, r3
 1756 0018 43F00103 		orr	r3, r3, #1
 1757 001c 9AB2     		uxth	r2, r3
 1758 001e 7B68     		ldr	r3, [r7, #4]
 1759 0020 1A80     		strh	r2, [r3, #0]	@ movhi
 1760 0022 07E0     		b	.L66
 1761              	.L67:
 816:../STM32F10x_StdPeriph_Lib_V3.5.0/Libraries/STM32F10x_StdPeriph_Driver/src/stm32f10x_tim.c ****   }
 817:../STM32F10x_StdPeriph_Lib_V3.5.0/Libraries/STM32F10x_StdPeriph_Driver/src/stm32f10x_tim.c ****   else
 818:../STM32F10x_StdPeriph_Lib_V3.5.0/Libraries/STM32F10x_StdPeriph_Driver/src/stm32f10x_tim.c ****   {
 819:../STM32F10x_StdPeriph_Lib_V3.5.0/Libraries/STM32F10x_StdPeriph_Driver/src/stm32f10x_tim.c ****     /* Disable the TIM Counter */
 820:../STM32F10x_StdPeriph_Lib_V3.5.0/Libraries/STM32F10x_StdPeriph_Driver/src/stm32f10x_tim.c ****     TIMx->CR1 &= (uint16_t)(~((uint16_t)TIM_CR1_CEN));
 1762              		.loc 1 820 0
 1763 0024 7B68     		ldr	r3, [r7, #4]
 1764 0026 1B88     		ldrh	r3, [r3, #0]	@ movhi
 1765 0028 9BB2     		uxth	r3, r3
 1766 002a 23F00103 		bic	r3, r3, #1
 1767 002e 9AB2     		uxth	r2, r3
 1768 0030 7B68     		ldr	r3, [r7, #4]
 1769 0032 1A80     		strh	r2, [r3, #0]	@ movhi
 1770              	.L66:
 821:../STM32F10x_StdPeriph_Lib_V3.5.0/Libraries/STM32F10x_StdPeriph_Driver/src/stm32f10x_tim.c ****   }
 822:../STM32F10x_StdPeriph_Lib_V3.5.0/Libraries/STM32F10x_StdPeriph_Driver/src/stm32f10x_tim.c **** }
 1771              		.loc 1 822 0
 1772 0034 07F10C07 		add	r7, r7, #12
 1773 0038 BD46     		mov	sp, r7
 1774 003a 80BC     		pop	{r7}
 1775 003c 7047     		bx	lr
 1776              		.cfi_endproc
 1777              	.LFE42:
 1779 003e 00BF     		.section	.text.TIM_CtrlPWMOutputs,"ax",%progbits
 1780              		.align	2
 1781              		.global	TIM_CtrlPWMOutputs
 1782              		.thumb
 1783              		.thumb_func
 1785              	TIM_CtrlPWMOutputs:
 1786              	.LFB43:
 823:../STM32F10x_StdPeriph_Lib_V3.5.0/Libraries/STM32F10x_StdPeriph_Driver/src/stm32f10x_tim.c **** 
 824:../STM32F10x_StdPeriph_Lib_V3.5.0/Libraries/STM32F10x_StdPeriph_Driver/src/stm32f10x_tim.c **** /**
 825:../STM32F10x_StdPeriph_Lib_V3.5.0/Libraries/STM32F10x_StdPeriph_Driver/src/stm32f10x_tim.c ****   * @brief  Enables or disables the TIM peripheral Main Outputs.
 826:../STM32F10x_StdPeriph_Lib_V3.5.0/Libraries/STM32F10x_StdPeriph_Driver/src/stm32f10x_tim.c ****   * @param  TIMx: where x can be 1, 8, 15, 16 or 17 to select the TIMx peripheral.
 827:../STM32F10x_StdPeriph_Lib_V3.5.0/Libraries/STM32F10x_StdPeriph_Driver/src/stm32f10x_tim.c ****   * @param  NewState: new state of the TIM peripheral Main Outputs.
 828:../STM32F10x_StdPeriph_Lib_V3.5.0/Libraries/STM32F10x_StdPeriph_Driver/src/stm32f10x_tim.c ****   *   This parameter can be: ENABLE or DISABLE.
 829:../STM32F10x_StdPeriph_Lib_V3.5.0/Libraries/STM32F10x_StdPeriph_Driver/src/stm32f10x_tim.c ****   * @retval None
 830:../STM32F10x_StdPeriph_Lib_V3.5.0/Libraries/STM32F10x_StdPeriph_Driver/src/stm32f10x_tim.c ****   */
 831:../STM32F10x_StdPeriph_Lib_V3.5.0/Libraries/STM32F10x_StdPeriph_Driver/src/stm32f10x_tim.c **** void TIM_CtrlPWMOutputs(TIM_TypeDef* TIMx, FunctionalState NewState)
 832:../STM32F10x_StdPeriph_Lib_V3.5.0/Libraries/STM32F10x_StdPeriph_Driver/src/stm32f10x_tim.c **** {
 1787              		.loc 1 832 0
 1788              		.cfi_startproc
 1789              		@ args = 0, pretend = 0, frame = 8
 1790              		@ frame_needed = 1, uses_anonymous_args = 0
 1791              		@ link register save eliminated.
 1792 0000 80B4     		push	{r7}
 1793              	.LCFI42:
 1794              		.cfi_def_cfa_offset 4
 1795              		.cfi_offset 7, -4
 1796 0002 83B0     		sub	sp, sp, #12
 1797              	.LCFI43:
 1798              		.cfi_def_cfa_offset 16
 1799 0004 00AF     		add	r7, sp, #0
 1800              	.LCFI44:
 1801              		.cfi_def_cfa_register 7
 1802 0006 7860     		str	r0, [r7, #4]
 1803 0008 0B46     		mov	r3, r1
 1804 000a FB70     		strb	r3, [r7, #3]
 833:../STM32F10x_StdPeriph_Lib_V3.5.0/Libraries/STM32F10x_StdPeriph_Driver/src/stm32f10x_tim.c ****   /* Check the parameters */
 834:../STM32F10x_StdPeriph_Lib_V3.5.0/Libraries/STM32F10x_StdPeriph_Driver/src/stm32f10x_tim.c ****   assert_param(IS_TIM_LIST2_PERIPH(TIMx));
 835:../STM32F10x_StdPeriph_Lib_V3.5.0/Libraries/STM32F10x_StdPeriph_Driver/src/stm32f10x_tim.c ****   assert_param(IS_FUNCTIONAL_STATE(NewState));
 836:../STM32F10x_StdPeriph_Lib_V3.5.0/Libraries/STM32F10x_StdPeriph_Driver/src/stm32f10x_tim.c ****   if (NewState != DISABLE)
 1805              		.loc 1 836 0
 1806 000c FB78     		ldrb	r3, [r7, #3]	@ zero_extendqisi2
 1807 000e 002B     		cmp	r3, #0
 1808 0010 0CD0     		beq	.L70
 837:../STM32F10x_StdPeriph_Lib_V3.5.0/Libraries/STM32F10x_StdPeriph_Driver/src/stm32f10x_tim.c ****   {
 838:../STM32F10x_StdPeriph_Lib_V3.5.0/Libraries/STM32F10x_StdPeriph_Driver/src/stm32f10x_tim.c ****     /* Enable the TIM Main Output */
 839:../STM32F10x_StdPeriph_Lib_V3.5.0/Libraries/STM32F10x_StdPeriph_Driver/src/stm32f10x_tim.c ****     TIMx->BDTR |= TIM_BDTR_MOE;
 1809              		.loc 1 839 0
 1810 0012 7B68     		ldr	r3, [r7, #4]
 1811 0014 B3F84430 		ldrh	r3, [r3, #68]	@ movhi
 1812 0018 9BB2     		uxth	r3, r3
 1813 001a 6FEA4343 		mvn	r3, r3, lsl #17
 1814 001e 6FEA5343 		mvn	r3, r3, lsr #17
 1815 0022 9AB2     		uxth	r2, r3
 1816 0024 7B68     		ldr	r3, [r7, #4]
 1817 0026 A3F84420 		strh	r2, [r3, #68]	@ movhi
 1818 002a 0BE0     		b	.L69
 1819              	.L70:
 840:../STM32F10x_StdPeriph_Lib_V3.5.0/Libraries/STM32F10x_StdPeriph_Driver/src/stm32f10x_tim.c ****   }
 841:../STM32F10x_StdPeriph_Lib_V3.5.0/Libraries/STM32F10x_StdPeriph_Driver/src/stm32f10x_tim.c ****   else
 842:../STM32F10x_StdPeriph_Lib_V3.5.0/Libraries/STM32F10x_StdPeriph_Driver/src/stm32f10x_tim.c ****   {
 843:../STM32F10x_StdPeriph_Lib_V3.5.0/Libraries/STM32F10x_StdPeriph_Driver/src/stm32f10x_tim.c ****     /* Disable the TIM Main Output */
 844:../STM32F10x_StdPeriph_Lib_V3.5.0/Libraries/STM32F10x_StdPeriph_Driver/src/stm32f10x_tim.c ****     TIMx->BDTR &= (uint16_t)(~((uint16_t)TIM_BDTR_MOE));
 1820              		.loc 1 844 0
 1821 002c 7B68     		ldr	r3, [r7, #4]
 1822 002e B3F84430 		ldrh	r3, [r3, #68]	@ movhi
 1823 0032 9BB2     		uxth	r3, r3
 1824 0034 4FEA4343 		lsl	r3, r3, #17
 1825 0038 4FEA5343 		lsr	r3, r3, #17
 1826 003c 9AB2     		uxth	r2, r3
 1827 003e 7B68     		ldr	r3, [r7, #4]
 1828 0040 A3F84420 		strh	r2, [r3, #68]	@ movhi
 1829              	.L69:
 845:../STM32F10x_StdPeriph_Lib_V3.5.0/Libraries/STM32F10x_StdPeriph_Driver/src/stm32f10x_tim.c ****   }  
 846:../STM32F10x_StdPeriph_Lib_V3.5.0/Libraries/STM32F10x_StdPeriph_Driver/src/stm32f10x_tim.c **** }
 1830              		.loc 1 846 0
 1831 0044 07F10C07 		add	r7, r7, #12
 1832 0048 BD46     		mov	sp, r7
 1833 004a 80BC     		pop	{r7}
 1834 004c 7047     		bx	lr
 1835              		.cfi_endproc
 1836              	.LFE43:
 1838 004e 00BF     		.section	.text.TIM_ITConfig,"ax",%progbits
 1839              		.align	2
 1840              		.global	TIM_ITConfig
 1841              		.thumb
 1842              		.thumb_func
 1844              	TIM_ITConfig:
 1845              	.LFB44:
 847:../STM32F10x_StdPeriph_Lib_V3.5.0/Libraries/STM32F10x_StdPeriph_Driver/src/stm32f10x_tim.c **** 
 848:../STM32F10x_StdPeriph_Lib_V3.5.0/Libraries/STM32F10x_StdPeriph_Driver/src/stm32f10x_tim.c **** /**
 849:../STM32F10x_StdPeriph_Lib_V3.5.0/Libraries/STM32F10x_StdPeriph_Driver/src/stm32f10x_tim.c ****   * @brief  Enables or disables the specified TIM interrupts.
 850:../STM32F10x_StdPeriph_Lib_V3.5.0/Libraries/STM32F10x_StdPeriph_Driver/src/stm32f10x_tim.c ****   * @param  TIMx: where x can be 1 to 17 to select the TIMx peripheral.
 851:../STM32F10x_StdPeriph_Lib_V3.5.0/Libraries/STM32F10x_StdPeriph_Driver/src/stm32f10x_tim.c ****   * @param  TIM_IT: specifies the TIM interrupts sources to be enabled or disabled.
 852:../STM32F10x_StdPeriph_Lib_V3.5.0/Libraries/STM32F10x_StdPeriph_Driver/src/stm32f10x_tim.c ****   *   This parameter can be any combination of the following values:
 853:../STM32F10x_StdPeriph_Lib_V3.5.0/Libraries/STM32F10x_StdPeriph_Driver/src/stm32f10x_tim.c ****   *     @arg TIM_IT_Update: TIM update Interrupt source
 854:../STM32F10x_StdPeriph_Lib_V3.5.0/Libraries/STM32F10x_StdPeriph_Driver/src/stm32f10x_tim.c ****   *     @arg TIM_IT_CC1: TIM Capture Compare 1 Interrupt source
 855:../STM32F10x_StdPeriph_Lib_V3.5.0/Libraries/STM32F10x_StdPeriph_Driver/src/stm32f10x_tim.c ****   *     @arg TIM_IT_CC2: TIM Capture Compare 2 Interrupt source
 856:../STM32F10x_StdPeriph_Lib_V3.5.0/Libraries/STM32F10x_StdPeriph_Driver/src/stm32f10x_tim.c ****   *     @arg TIM_IT_CC3: TIM Capture Compare 3 Interrupt source
 857:../STM32F10x_StdPeriph_Lib_V3.5.0/Libraries/STM32F10x_StdPeriph_Driver/src/stm32f10x_tim.c ****   *     @arg TIM_IT_CC4: TIM Capture Compare 4 Interrupt source
 858:../STM32F10x_StdPeriph_Lib_V3.5.0/Libraries/STM32F10x_StdPeriph_Driver/src/stm32f10x_tim.c ****   *     @arg TIM_IT_COM: TIM Commutation Interrupt source
 859:../STM32F10x_StdPeriph_Lib_V3.5.0/Libraries/STM32F10x_StdPeriph_Driver/src/stm32f10x_tim.c ****   *     @arg TIM_IT_Trigger: TIM Trigger Interrupt source
 860:../STM32F10x_StdPeriph_Lib_V3.5.0/Libraries/STM32F10x_StdPeriph_Driver/src/stm32f10x_tim.c ****   *     @arg TIM_IT_Break: TIM Break Interrupt source
 861:../STM32F10x_StdPeriph_Lib_V3.5.0/Libraries/STM32F10x_StdPeriph_Driver/src/stm32f10x_tim.c ****   * @note 
 862:../STM32F10x_StdPeriph_Lib_V3.5.0/Libraries/STM32F10x_StdPeriph_Driver/src/stm32f10x_tim.c ****   *   - TIM6 and TIM7 can only generate an update interrupt.
 863:../STM32F10x_StdPeriph_Lib_V3.5.0/Libraries/STM32F10x_StdPeriph_Driver/src/stm32f10x_tim.c ****   *   - TIM9, TIM12 and TIM15 can have only TIM_IT_Update, TIM_IT_CC1,
 864:../STM32F10x_StdPeriph_Lib_V3.5.0/Libraries/STM32F10x_StdPeriph_Driver/src/stm32f10x_tim.c ****   *      TIM_IT_CC2 or TIM_IT_Trigger. 
 865:../STM32F10x_StdPeriph_Lib_V3.5.0/Libraries/STM32F10x_StdPeriph_Driver/src/stm32f10x_tim.c ****   *   - TIM10, TIM11, TIM13, TIM14, TIM16 and TIM17 can have TIM_IT_Update or TIM_IT_CC1.   
 866:../STM32F10x_StdPeriph_Lib_V3.5.0/Libraries/STM32F10x_StdPeriph_Driver/src/stm32f10x_tim.c ****   *   - TIM_IT_Break is used only with TIM1, TIM8 and TIM15. 
 867:../STM32F10x_StdPeriph_Lib_V3.5.0/Libraries/STM32F10x_StdPeriph_Driver/src/stm32f10x_tim.c ****   *   - TIM_IT_COM is used only with TIM1, TIM8, TIM15, TIM16 and TIM17.    
 868:../STM32F10x_StdPeriph_Lib_V3.5.0/Libraries/STM32F10x_StdPeriph_Driver/src/stm32f10x_tim.c ****   * @param  NewState: new state of the TIM interrupts.
 869:../STM32F10x_StdPeriph_Lib_V3.5.0/Libraries/STM32F10x_StdPeriph_Driver/src/stm32f10x_tim.c ****   *   This parameter can be: ENABLE or DISABLE.
 870:../STM32F10x_StdPeriph_Lib_V3.5.0/Libraries/STM32F10x_StdPeriph_Driver/src/stm32f10x_tim.c ****   * @retval None
 871:../STM32F10x_StdPeriph_Lib_V3.5.0/Libraries/STM32F10x_StdPeriph_Driver/src/stm32f10x_tim.c ****   */
 872:../STM32F10x_StdPeriph_Lib_V3.5.0/Libraries/STM32F10x_StdPeriph_Driver/src/stm32f10x_tim.c **** void TIM_ITConfig(TIM_TypeDef* TIMx, uint16_t TIM_IT, FunctionalState NewState)
 873:../STM32F10x_StdPeriph_Lib_V3.5.0/Libraries/STM32F10x_StdPeriph_Driver/src/stm32f10x_tim.c **** {  
 1846              		.loc 1 873 0
 1847              		.cfi_startproc
 1848              		@ args = 0, pretend = 0, frame = 8
 1849              		@ frame_needed = 1, uses_anonymous_args = 0
 1850              		@ link register save eliminated.
 1851 0000 80B4     		push	{r7}
 1852              	.LCFI45:
 1853              		.cfi_def_cfa_offset 4
 1854              		.cfi_offset 7, -4
 1855 0002 83B0     		sub	sp, sp, #12
 1856              	.LCFI46:
 1857              		.cfi_def_cfa_offset 16
 1858 0004 00AF     		add	r7, sp, #0
 1859              	.LCFI47:
 1860              		.cfi_def_cfa_register 7
 1861 0006 7860     		str	r0, [r7, #4]
 1862 0008 1346     		mov	r3, r2
 1863 000a 0A46     		mov	r2, r1	@ movhi
 1864 000c 7A80     		strh	r2, [r7, #2]	@ movhi
 1865 000e 7B70     		strb	r3, [r7, #1]
 874:../STM32F10x_StdPeriph_Lib_V3.5.0/Libraries/STM32F10x_StdPeriph_Driver/src/stm32f10x_tim.c ****   /* Check the parameters */
 875:../STM32F10x_StdPeriph_Lib_V3.5.0/Libraries/STM32F10x_StdPeriph_Driver/src/stm32f10x_tim.c ****   assert_param(IS_TIM_ALL_PERIPH(TIMx));
 876:../STM32F10x_StdPeriph_Lib_V3.5.0/Libraries/STM32F10x_StdPeriph_Driver/src/stm32f10x_tim.c ****   assert_param(IS_TIM_IT(TIM_IT));
 877:../STM32F10x_StdPeriph_Lib_V3.5.0/Libraries/STM32F10x_StdPeriph_Driver/src/stm32f10x_tim.c ****   assert_param(IS_FUNCTIONAL_STATE(NewState));
 878:../STM32F10x_StdPeriph_Lib_V3.5.0/Libraries/STM32F10x_StdPeriph_Driver/src/stm32f10x_tim.c ****   
 879:../STM32F10x_StdPeriph_Lib_V3.5.0/Libraries/STM32F10x_StdPeriph_Driver/src/stm32f10x_tim.c ****   if (NewState != DISABLE)
 1866              		.loc 1 879 0
 1867 0010 7B78     		ldrb	r3, [r7, #1]	@ zero_extendqisi2
 1868 0012 002B     		cmp	r3, #0
 1869 0014 08D0     		beq	.L73
 880:../STM32F10x_StdPeriph_Lib_V3.5.0/Libraries/STM32F10x_StdPeriph_Driver/src/stm32f10x_tim.c ****   {
 881:../STM32F10x_StdPeriph_Lib_V3.5.0/Libraries/STM32F10x_StdPeriph_Driver/src/stm32f10x_tim.c ****     /* Enable the Interrupt sources */
 882:../STM32F10x_StdPeriph_Lib_V3.5.0/Libraries/STM32F10x_StdPeriph_Driver/src/stm32f10x_tim.c ****     TIMx->DIER |= TIM_IT;
 1870              		.loc 1 882 0
 1871 0016 7B68     		ldr	r3, [r7, #4]
 1872 0018 9B89     		ldrh	r3, [r3, #12]	@ movhi
 1873 001a 9AB2     		uxth	r2, r3
 1874 001c 7B88     		ldrh	r3, [r7, #2]	@ movhi
 1875 001e 1343     		orrs	r3, r3, r2
 1876 0020 9AB2     		uxth	r2, r3
 1877 0022 7B68     		ldr	r3, [r7, #4]
 1878 0024 9A81     		strh	r2, [r3, #12]	@ movhi
 1879 0026 0AE0     		b	.L72
 1880              	.L73:
 883:../STM32F10x_StdPeriph_Lib_V3.5.0/Libraries/STM32F10x_StdPeriph_Driver/src/stm32f10x_tim.c ****   }
 884:../STM32F10x_StdPeriph_Lib_V3.5.0/Libraries/STM32F10x_StdPeriph_Driver/src/stm32f10x_tim.c ****   else
 885:../STM32F10x_StdPeriph_Lib_V3.5.0/Libraries/STM32F10x_StdPeriph_Driver/src/stm32f10x_tim.c ****   {
 886:../STM32F10x_StdPeriph_Lib_V3.5.0/Libraries/STM32F10x_StdPeriph_Driver/src/stm32f10x_tim.c ****     /* Disable the Interrupt sources */
 887:../STM32F10x_StdPeriph_Lib_V3.5.0/Libraries/STM32F10x_StdPeriph_Driver/src/stm32f10x_tim.c ****     TIMx->DIER &= (uint16_t)~TIM_IT;
 1881              		.loc 1 887 0
 1882 0028 7B68     		ldr	r3, [r7, #4]
 1883 002a 9B89     		ldrh	r3, [r3, #12]	@ movhi
 1884 002c 9AB2     		uxth	r2, r3
 1885 002e 7B88     		ldrh	r3, [r7, #2]	@ movhi
 1886 0030 6FEA0303 		mvn	r3, r3
 1887 0034 9BB2     		uxth	r3, r3
 1888 0036 1340     		ands	r3, r3, r2
 1889 0038 9AB2     		uxth	r2, r3
 1890 003a 7B68     		ldr	r3, [r7, #4]
 1891 003c 9A81     		strh	r2, [r3, #12]	@ movhi
 1892              	.L72:
 888:../STM32F10x_StdPeriph_Lib_V3.5.0/Libraries/STM32F10x_StdPeriph_Driver/src/stm32f10x_tim.c ****   }
 889:../STM32F10x_StdPeriph_Lib_V3.5.0/Libraries/STM32F10x_StdPeriph_Driver/src/stm32f10x_tim.c **** }
 1893              		.loc 1 889 0
 1894 003e 07F10C07 		add	r7, r7, #12
 1895 0042 BD46     		mov	sp, r7
 1896 0044 80BC     		pop	{r7}
 1897 0046 7047     		bx	lr
 1898              		.cfi_endproc
 1899              	.LFE44:
 1901              		.section	.text.TIM_GenerateEvent,"ax",%progbits
 1902              		.align	2
 1903              		.global	TIM_GenerateEvent
 1904              		.thumb
 1905              		.thumb_func
 1907              	TIM_GenerateEvent:
 1908              	.LFB45:
 890:../STM32F10x_StdPeriph_Lib_V3.5.0/Libraries/STM32F10x_StdPeriph_Driver/src/stm32f10x_tim.c **** 
 891:../STM32F10x_StdPeriph_Lib_V3.5.0/Libraries/STM32F10x_StdPeriph_Driver/src/stm32f10x_tim.c **** /**
 892:../STM32F10x_StdPeriph_Lib_V3.5.0/Libraries/STM32F10x_StdPeriph_Driver/src/stm32f10x_tim.c ****   * @brief  Configures the TIMx event to be generate by software.
 893:../STM32F10x_StdPeriph_Lib_V3.5.0/Libraries/STM32F10x_StdPeriph_Driver/src/stm32f10x_tim.c ****   * @param  TIMx: where x can be 1 to 17 to select the TIM peripheral.
 894:../STM32F10x_StdPeriph_Lib_V3.5.0/Libraries/STM32F10x_StdPeriph_Driver/src/stm32f10x_tim.c ****   * @param  TIM_EventSource: specifies the event source.
 895:../STM32F10x_StdPeriph_Lib_V3.5.0/Libraries/STM32F10x_StdPeriph_Driver/src/stm32f10x_tim.c ****   *   This parameter can be one or more of the following values:	   
 896:../STM32F10x_StdPeriph_Lib_V3.5.0/Libraries/STM32F10x_StdPeriph_Driver/src/stm32f10x_tim.c ****   *     @arg TIM_EventSource_Update: Timer update Event source
 897:../STM32F10x_StdPeriph_Lib_V3.5.0/Libraries/STM32F10x_StdPeriph_Driver/src/stm32f10x_tim.c ****   *     @arg TIM_EventSource_CC1: Timer Capture Compare 1 Event source
 898:../STM32F10x_StdPeriph_Lib_V3.5.0/Libraries/STM32F10x_StdPeriph_Driver/src/stm32f10x_tim.c ****   *     @arg TIM_EventSource_CC2: Timer Capture Compare 2 Event source
 899:../STM32F10x_StdPeriph_Lib_V3.5.0/Libraries/STM32F10x_StdPeriph_Driver/src/stm32f10x_tim.c ****   *     @arg TIM_EventSource_CC3: Timer Capture Compare 3 Event source
 900:../STM32F10x_StdPeriph_Lib_V3.5.0/Libraries/STM32F10x_StdPeriph_Driver/src/stm32f10x_tim.c ****   *     @arg TIM_EventSource_CC4: Timer Capture Compare 4 Event source
 901:../STM32F10x_StdPeriph_Lib_V3.5.0/Libraries/STM32F10x_StdPeriph_Driver/src/stm32f10x_tim.c ****   *     @arg TIM_EventSource_COM: Timer COM event source  
 902:../STM32F10x_StdPeriph_Lib_V3.5.0/Libraries/STM32F10x_StdPeriph_Driver/src/stm32f10x_tim.c ****   *     @arg TIM_EventSource_Trigger: Timer Trigger Event source
 903:../STM32F10x_StdPeriph_Lib_V3.5.0/Libraries/STM32F10x_StdPeriph_Driver/src/stm32f10x_tim.c ****   *     @arg TIM_EventSource_Break: Timer Break event source
 904:../STM32F10x_StdPeriph_Lib_V3.5.0/Libraries/STM32F10x_StdPeriph_Driver/src/stm32f10x_tim.c ****   * @note 
 905:../STM32F10x_StdPeriph_Lib_V3.5.0/Libraries/STM32F10x_StdPeriph_Driver/src/stm32f10x_tim.c ****   *   - TIM6 and TIM7 can only generate an update event. 
 906:../STM32F10x_StdPeriph_Lib_V3.5.0/Libraries/STM32F10x_StdPeriph_Driver/src/stm32f10x_tim.c ****   *   - TIM_EventSource_COM and TIM_EventSource_Break are used only with TIM1 and TIM8.      
 907:../STM32F10x_StdPeriph_Lib_V3.5.0/Libraries/STM32F10x_StdPeriph_Driver/src/stm32f10x_tim.c ****   * @retval None
 908:../STM32F10x_StdPeriph_Lib_V3.5.0/Libraries/STM32F10x_StdPeriph_Driver/src/stm32f10x_tim.c ****   */
 909:../STM32F10x_StdPeriph_Lib_V3.5.0/Libraries/STM32F10x_StdPeriph_Driver/src/stm32f10x_tim.c **** void TIM_GenerateEvent(TIM_TypeDef* TIMx, uint16_t TIM_EventSource)
 910:../STM32F10x_StdPeriph_Lib_V3.5.0/Libraries/STM32F10x_StdPeriph_Driver/src/stm32f10x_tim.c **** { 
 1909              		.loc 1 910 0
 1910              		.cfi_startproc
 1911              		@ args = 0, pretend = 0, frame = 8
 1912              		@ frame_needed = 1, uses_anonymous_args = 0
 1913              		@ link register save eliminated.
 1914 0000 80B4     		push	{r7}
 1915              	.LCFI48:
 1916              		.cfi_def_cfa_offset 4
 1917              		.cfi_offset 7, -4
 1918 0002 83B0     		sub	sp, sp, #12
 1919              	.LCFI49:
 1920              		.cfi_def_cfa_offset 16
 1921 0004 00AF     		add	r7, sp, #0
 1922              	.LCFI50:
 1923              		.cfi_def_cfa_register 7
 1924 0006 7860     		str	r0, [r7, #4]
 1925 0008 0B46     		mov	r3, r1
 1926 000a 7B80     		strh	r3, [r7, #2]	@ movhi
 911:../STM32F10x_StdPeriph_Lib_V3.5.0/Libraries/STM32F10x_StdPeriph_Driver/src/stm32f10x_tim.c ****   /* Check the parameters */
 912:../STM32F10x_StdPeriph_Lib_V3.5.0/Libraries/STM32F10x_StdPeriph_Driver/src/stm32f10x_tim.c ****   assert_param(IS_TIM_ALL_PERIPH(TIMx));
 913:../STM32F10x_StdPeriph_Lib_V3.5.0/Libraries/STM32F10x_StdPeriph_Driver/src/stm32f10x_tim.c ****   assert_param(IS_TIM_EVENT_SOURCE(TIM_EventSource));
 914:../STM32F10x_StdPeriph_Lib_V3.5.0/Libraries/STM32F10x_StdPeriph_Driver/src/stm32f10x_tim.c ****   
 915:../STM32F10x_StdPeriph_Lib_V3.5.0/Libraries/STM32F10x_StdPeriph_Driver/src/stm32f10x_tim.c ****   /* Set the event sources */
 916:../STM32F10x_StdPeriph_Lib_V3.5.0/Libraries/STM32F10x_StdPeriph_Driver/src/stm32f10x_tim.c ****   TIMx->EGR = TIM_EventSource;
 1927              		.loc 1 916 0
 1928 000c 7B68     		ldr	r3, [r7, #4]
 1929 000e 7A88     		ldrh	r2, [r7, #2]	@ movhi
 1930 0010 9A82     		strh	r2, [r3, #20]	@ movhi
 917:../STM32F10x_StdPeriph_Lib_V3.5.0/Libraries/STM32F10x_StdPeriph_Driver/src/stm32f10x_tim.c **** }
 1931              		.loc 1 917 0
 1932 0012 07F10C07 		add	r7, r7, #12
 1933 0016 BD46     		mov	sp, r7
 1934 0018 80BC     		pop	{r7}
 1935 001a 7047     		bx	lr
 1936              		.cfi_endproc
 1937              	.LFE45:
 1939              		.section	.text.TIM_DMAConfig,"ax",%progbits
 1940              		.align	2
 1941              		.global	TIM_DMAConfig
 1942              		.thumb
 1943              		.thumb_func
 1945              	TIM_DMAConfig:
 1946              	.LFB46:
 918:../STM32F10x_StdPeriph_Lib_V3.5.0/Libraries/STM32F10x_StdPeriph_Driver/src/stm32f10x_tim.c **** 
 919:../STM32F10x_StdPeriph_Lib_V3.5.0/Libraries/STM32F10x_StdPeriph_Driver/src/stm32f10x_tim.c **** /**
 920:../STM32F10x_StdPeriph_Lib_V3.5.0/Libraries/STM32F10x_StdPeriph_Driver/src/stm32f10x_tim.c ****   * @brief  Configures the TIMx's DMA interface.
 921:../STM32F10x_StdPeriph_Lib_V3.5.0/Libraries/STM32F10x_StdPeriph_Driver/src/stm32f10x_tim.c ****   * @param  TIMx: where x can be  1, 2, 3, 4, 5, 8, 15, 16 or 17 to select 
 922:../STM32F10x_StdPeriph_Lib_V3.5.0/Libraries/STM32F10x_StdPeriph_Driver/src/stm32f10x_tim.c ****   *   the TIM peripheral.
 923:../STM32F10x_StdPeriph_Lib_V3.5.0/Libraries/STM32F10x_StdPeriph_Driver/src/stm32f10x_tim.c ****   * @param  TIM_DMABase: DMA Base address.
 924:../STM32F10x_StdPeriph_Lib_V3.5.0/Libraries/STM32F10x_StdPeriph_Driver/src/stm32f10x_tim.c ****   *   This parameter can be one of the following values:
 925:../STM32F10x_StdPeriph_Lib_V3.5.0/Libraries/STM32F10x_StdPeriph_Driver/src/stm32f10x_tim.c ****   *     @arg TIM_DMABase_CR, TIM_DMABase_CR2, TIM_DMABase_SMCR,
 926:../STM32F10x_StdPeriph_Lib_V3.5.0/Libraries/STM32F10x_StdPeriph_Driver/src/stm32f10x_tim.c ****   *          TIM_DMABase_DIER, TIM1_DMABase_SR, TIM_DMABase_EGR,
 927:../STM32F10x_StdPeriph_Lib_V3.5.0/Libraries/STM32F10x_StdPeriph_Driver/src/stm32f10x_tim.c ****   *          TIM_DMABase_CCMR1, TIM_DMABase_CCMR2, TIM_DMABase_CCER,
 928:../STM32F10x_StdPeriph_Lib_V3.5.0/Libraries/STM32F10x_StdPeriph_Driver/src/stm32f10x_tim.c ****   *          TIM_DMABase_CNT, TIM_DMABase_PSC, TIM_DMABase_ARR,
 929:../STM32F10x_StdPeriph_Lib_V3.5.0/Libraries/STM32F10x_StdPeriph_Driver/src/stm32f10x_tim.c ****   *          TIM_DMABase_RCR, TIM_DMABase_CCR1, TIM_DMABase_CCR2,
 930:../STM32F10x_StdPeriph_Lib_V3.5.0/Libraries/STM32F10x_StdPeriph_Driver/src/stm32f10x_tim.c ****   *          TIM_DMABase_CCR3, TIM_DMABase_CCR4, TIM_DMABase_BDTR,
 931:../STM32F10x_StdPeriph_Lib_V3.5.0/Libraries/STM32F10x_StdPeriph_Driver/src/stm32f10x_tim.c ****   *          TIM_DMABase_DCR.
 932:../STM32F10x_StdPeriph_Lib_V3.5.0/Libraries/STM32F10x_StdPeriph_Driver/src/stm32f10x_tim.c ****   * @param  TIM_DMABurstLength: DMA Burst length.
 933:../STM32F10x_StdPeriph_Lib_V3.5.0/Libraries/STM32F10x_StdPeriph_Driver/src/stm32f10x_tim.c ****   *   This parameter can be one value between:
 934:../STM32F10x_StdPeriph_Lib_V3.5.0/Libraries/STM32F10x_StdPeriph_Driver/src/stm32f10x_tim.c ****   *   TIM_DMABurstLength_1Transfer and TIM_DMABurstLength_18Transfers.
 935:../STM32F10x_StdPeriph_Lib_V3.5.0/Libraries/STM32F10x_StdPeriph_Driver/src/stm32f10x_tim.c ****   * @retval None
 936:../STM32F10x_StdPeriph_Lib_V3.5.0/Libraries/STM32F10x_StdPeriph_Driver/src/stm32f10x_tim.c ****   */
 937:../STM32F10x_StdPeriph_Lib_V3.5.0/Libraries/STM32F10x_StdPeriph_Driver/src/stm32f10x_tim.c **** void TIM_DMAConfig(TIM_TypeDef* TIMx, uint16_t TIM_DMABase, uint16_t TIM_DMABurstLength)
 938:../STM32F10x_StdPeriph_Lib_V3.5.0/Libraries/STM32F10x_StdPeriph_Driver/src/stm32f10x_tim.c **** {
 1947              		.loc 1 938 0
 1948              		.cfi_startproc
 1949              		@ args = 0, pretend = 0, frame = 8
 1950              		@ frame_needed = 1, uses_anonymous_args = 0
 1951              		@ link register save eliminated.
 1952 0000 80B4     		push	{r7}
 1953              	.LCFI51:
 1954              		.cfi_def_cfa_offset 4
 1955              		.cfi_offset 7, -4
 1956 0002 83B0     		sub	sp, sp, #12
 1957              	.LCFI52:
 1958              		.cfi_def_cfa_offset 16
 1959 0004 00AF     		add	r7, sp, #0
 1960              	.LCFI53:
 1961              		.cfi_def_cfa_register 7
 1962 0006 7860     		str	r0, [r7, #4]
 1963 0008 1346     		mov	r3, r2
 1964 000a 0A46     		mov	r2, r1	@ movhi
 1965 000c 7A80     		strh	r2, [r7, #2]	@ movhi
 1966 000e 3B80     		strh	r3, [r7, #0]	@ movhi
 939:../STM32F10x_StdPeriph_Lib_V3.5.0/Libraries/STM32F10x_StdPeriph_Driver/src/stm32f10x_tim.c ****   /* Check the parameters */
 940:../STM32F10x_StdPeriph_Lib_V3.5.0/Libraries/STM32F10x_StdPeriph_Driver/src/stm32f10x_tim.c ****   assert_param(IS_TIM_LIST4_PERIPH(TIMx));
 941:../STM32F10x_StdPeriph_Lib_V3.5.0/Libraries/STM32F10x_StdPeriph_Driver/src/stm32f10x_tim.c ****   assert_param(IS_TIM_DMA_BASE(TIM_DMABase));
 942:../STM32F10x_StdPeriph_Lib_V3.5.0/Libraries/STM32F10x_StdPeriph_Driver/src/stm32f10x_tim.c ****   assert_param(IS_TIM_DMA_LENGTH(TIM_DMABurstLength));
 943:../STM32F10x_StdPeriph_Lib_V3.5.0/Libraries/STM32F10x_StdPeriph_Driver/src/stm32f10x_tim.c ****   /* Set the DMA Base and the DMA Burst Length */
 944:../STM32F10x_StdPeriph_Lib_V3.5.0/Libraries/STM32F10x_StdPeriph_Driver/src/stm32f10x_tim.c ****   TIMx->DCR = TIM_DMABase | TIM_DMABurstLength;
 1967              		.loc 1 944 0
 1968 0010 7A88     		ldrh	r2, [r7, #2]	@ movhi
 1969 0012 3B88     		ldrh	r3, [r7, #0]	@ movhi
 1970 0014 1343     		orrs	r3, r3, r2
 1971 0016 9AB2     		uxth	r2, r3
 1972 0018 7B68     		ldr	r3, [r7, #4]
 1973 001a A3F84820 		strh	r2, [r3, #72]	@ movhi
 945:../STM32F10x_StdPeriph_Lib_V3.5.0/Libraries/STM32F10x_StdPeriph_Driver/src/stm32f10x_tim.c **** }
 1974              		.loc 1 945 0
 1975 001e 07F10C07 		add	r7, r7, #12
 1976 0022 BD46     		mov	sp, r7
 1977 0024 80BC     		pop	{r7}
 1978 0026 7047     		bx	lr
 1979              		.cfi_endproc
 1980              	.LFE46:
 1982              		.section	.text.TIM_DMACmd,"ax",%progbits
 1983              		.align	2
 1984              		.global	TIM_DMACmd
 1985              		.thumb
 1986              		.thumb_func
 1988              	TIM_DMACmd:
 1989              	.LFB47:
 946:../STM32F10x_StdPeriph_Lib_V3.5.0/Libraries/STM32F10x_StdPeriph_Driver/src/stm32f10x_tim.c **** 
 947:../STM32F10x_StdPeriph_Lib_V3.5.0/Libraries/STM32F10x_StdPeriph_Driver/src/stm32f10x_tim.c **** /**
 948:../STM32F10x_StdPeriph_Lib_V3.5.0/Libraries/STM32F10x_StdPeriph_Driver/src/stm32f10x_tim.c ****   * @brief  Enables or disables the TIMx's DMA Requests.
 949:../STM32F10x_StdPeriph_Lib_V3.5.0/Libraries/STM32F10x_StdPeriph_Driver/src/stm32f10x_tim.c ****   * @param  TIMx: where x can be  1, 2, 3, 4, 5, 6, 7, 8, 15, 16 or 17 
 950:../STM32F10x_StdPeriph_Lib_V3.5.0/Libraries/STM32F10x_StdPeriph_Driver/src/stm32f10x_tim.c ****   *   to select the TIM peripheral. 
 951:../STM32F10x_StdPeriph_Lib_V3.5.0/Libraries/STM32F10x_StdPeriph_Driver/src/stm32f10x_tim.c ****   * @param  TIM_DMASource: specifies the DMA Request sources.
 952:../STM32F10x_StdPeriph_Lib_V3.5.0/Libraries/STM32F10x_StdPeriph_Driver/src/stm32f10x_tim.c ****   *   This parameter can be any combination of the following values:
 953:../STM32F10x_StdPeriph_Lib_V3.5.0/Libraries/STM32F10x_StdPeriph_Driver/src/stm32f10x_tim.c ****   *     @arg TIM_DMA_Update: TIM update Interrupt source
 954:../STM32F10x_StdPeriph_Lib_V3.5.0/Libraries/STM32F10x_StdPeriph_Driver/src/stm32f10x_tim.c ****   *     @arg TIM_DMA_CC1: TIM Capture Compare 1 DMA source
 955:../STM32F10x_StdPeriph_Lib_V3.5.0/Libraries/STM32F10x_StdPeriph_Driver/src/stm32f10x_tim.c ****   *     @arg TIM_DMA_CC2: TIM Capture Compare 2 DMA source
 956:../STM32F10x_StdPeriph_Lib_V3.5.0/Libraries/STM32F10x_StdPeriph_Driver/src/stm32f10x_tim.c ****   *     @arg TIM_DMA_CC3: TIM Capture Compare 3 DMA source
 957:../STM32F10x_StdPeriph_Lib_V3.5.0/Libraries/STM32F10x_StdPeriph_Driver/src/stm32f10x_tim.c ****   *     @arg TIM_DMA_CC4: TIM Capture Compare 4 DMA source
 958:../STM32F10x_StdPeriph_Lib_V3.5.0/Libraries/STM32F10x_StdPeriph_Driver/src/stm32f10x_tim.c ****   *     @arg TIM_DMA_COM: TIM Commutation DMA source
 959:../STM32F10x_StdPeriph_Lib_V3.5.0/Libraries/STM32F10x_StdPeriph_Driver/src/stm32f10x_tim.c ****   *     @arg TIM_DMA_Trigger: TIM Trigger DMA source
 960:../STM32F10x_StdPeriph_Lib_V3.5.0/Libraries/STM32F10x_StdPeriph_Driver/src/stm32f10x_tim.c ****   * @param  NewState: new state of the DMA Request sources.
 961:../STM32F10x_StdPeriph_Lib_V3.5.0/Libraries/STM32F10x_StdPeriph_Driver/src/stm32f10x_tim.c ****   *   This parameter can be: ENABLE or DISABLE.
 962:../STM32F10x_StdPeriph_Lib_V3.5.0/Libraries/STM32F10x_StdPeriph_Driver/src/stm32f10x_tim.c ****   * @retval None
 963:../STM32F10x_StdPeriph_Lib_V3.5.0/Libraries/STM32F10x_StdPeriph_Driver/src/stm32f10x_tim.c ****   */
 964:../STM32F10x_StdPeriph_Lib_V3.5.0/Libraries/STM32F10x_StdPeriph_Driver/src/stm32f10x_tim.c **** void TIM_DMACmd(TIM_TypeDef* TIMx, uint16_t TIM_DMASource, FunctionalState NewState)
 965:../STM32F10x_StdPeriph_Lib_V3.5.0/Libraries/STM32F10x_StdPeriph_Driver/src/stm32f10x_tim.c **** { 
 1990              		.loc 1 965 0
 1991              		.cfi_startproc
 1992              		@ args = 0, pretend = 0, frame = 8
 1993              		@ frame_needed = 1, uses_anonymous_args = 0
 1994              		@ link register save eliminated.
 1995 0000 80B4     		push	{r7}
 1996              	.LCFI54:
 1997              		.cfi_def_cfa_offset 4
 1998              		.cfi_offset 7, -4
 1999 0002 83B0     		sub	sp, sp, #12
 2000              	.LCFI55:
 2001              		.cfi_def_cfa_offset 16
 2002 0004 00AF     		add	r7, sp, #0
 2003              	.LCFI56:
 2004              		.cfi_def_cfa_register 7
 2005 0006 7860     		str	r0, [r7, #4]
 2006 0008 1346     		mov	r3, r2
 2007 000a 0A46     		mov	r2, r1	@ movhi
 2008 000c 7A80     		strh	r2, [r7, #2]	@ movhi
 2009 000e 7B70     		strb	r3, [r7, #1]
 966:../STM32F10x_StdPeriph_Lib_V3.5.0/Libraries/STM32F10x_StdPeriph_Driver/src/stm32f10x_tim.c ****   /* Check the parameters */
 967:../STM32F10x_StdPeriph_Lib_V3.5.0/Libraries/STM32F10x_StdPeriph_Driver/src/stm32f10x_tim.c ****   assert_param(IS_TIM_LIST9_PERIPH(TIMx));
 968:../STM32F10x_StdPeriph_Lib_V3.5.0/Libraries/STM32F10x_StdPeriph_Driver/src/stm32f10x_tim.c ****   assert_param(IS_TIM_DMA_SOURCE(TIM_DMASource));
 969:../STM32F10x_StdPeriph_Lib_V3.5.0/Libraries/STM32F10x_StdPeriph_Driver/src/stm32f10x_tim.c ****   assert_param(IS_FUNCTIONAL_STATE(NewState));
 970:../STM32F10x_StdPeriph_Lib_V3.5.0/Libraries/STM32F10x_StdPeriph_Driver/src/stm32f10x_tim.c ****   
 971:../STM32F10x_StdPeriph_Lib_V3.5.0/Libraries/STM32F10x_StdPeriph_Driver/src/stm32f10x_tim.c ****   if (NewState != DISABLE)
 2010              		.loc 1 971 0
 2011 0010 7B78     		ldrb	r3, [r7, #1]	@ zero_extendqisi2
 2012 0012 002B     		cmp	r3, #0
 2013 0014 08D0     		beq	.L78
 972:../STM32F10x_StdPeriph_Lib_V3.5.0/Libraries/STM32F10x_StdPeriph_Driver/src/stm32f10x_tim.c ****   {
 973:../STM32F10x_StdPeriph_Lib_V3.5.0/Libraries/STM32F10x_StdPeriph_Driver/src/stm32f10x_tim.c ****     /* Enable the DMA sources */
 974:../STM32F10x_StdPeriph_Lib_V3.5.0/Libraries/STM32F10x_StdPeriph_Driver/src/stm32f10x_tim.c ****     TIMx->DIER |= TIM_DMASource; 
 2014              		.loc 1 974 0
 2015 0016 7B68     		ldr	r3, [r7, #4]
 2016 0018 9B89     		ldrh	r3, [r3, #12]	@ movhi
 2017 001a 9AB2     		uxth	r2, r3
 2018 001c 7B88     		ldrh	r3, [r7, #2]	@ movhi
 2019 001e 1343     		orrs	r3, r3, r2
 2020 0020 9AB2     		uxth	r2, r3
 2021 0022 7B68     		ldr	r3, [r7, #4]
 2022 0024 9A81     		strh	r2, [r3, #12]	@ movhi
 2023 0026 0AE0     		b	.L77
 2024              	.L78:
 975:../STM32F10x_StdPeriph_Lib_V3.5.0/Libraries/STM32F10x_StdPeriph_Driver/src/stm32f10x_tim.c ****   }
 976:../STM32F10x_StdPeriph_Lib_V3.5.0/Libraries/STM32F10x_StdPeriph_Driver/src/stm32f10x_tim.c ****   else
 977:../STM32F10x_StdPeriph_Lib_V3.5.0/Libraries/STM32F10x_StdPeriph_Driver/src/stm32f10x_tim.c ****   {
 978:../STM32F10x_StdPeriph_Lib_V3.5.0/Libraries/STM32F10x_StdPeriph_Driver/src/stm32f10x_tim.c ****     /* Disable the DMA sources */
 979:../STM32F10x_StdPeriph_Lib_V3.5.0/Libraries/STM32F10x_StdPeriph_Driver/src/stm32f10x_tim.c ****     TIMx->DIER &= (uint16_t)~TIM_DMASource;
 2025              		.loc 1 979 0
 2026 0028 7B68     		ldr	r3, [r7, #4]
 2027 002a 9B89     		ldrh	r3, [r3, #12]	@ movhi
 2028 002c 9AB2     		uxth	r2, r3
 2029 002e 7B88     		ldrh	r3, [r7, #2]	@ movhi
 2030 0030 6FEA0303 		mvn	r3, r3
 2031 0034 9BB2     		uxth	r3, r3
 2032 0036 1340     		ands	r3, r3, r2
 2033 0038 9AB2     		uxth	r2, r3
 2034 003a 7B68     		ldr	r3, [r7, #4]
 2035 003c 9A81     		strh	r2, [r3, #12]	@ movhi
 2036              	.L77:
 980:../STM32F10x_StdPeriph_Lib_V3.5.0/Libraries/STM32F10x_StdPeriph_Driver/src/stm32f10x_tim.c ****   }
 981:../STM32F10x_StdPeriph_Lib_V3.5.0/Libraries/STM32F10x_StdPeriph_Driver/src/stm32f10x_tim.c **** }
 2037              		.loc 1 981 0
 2038 003e 07F10C07 		add	r7, r7, #12
 2039 0042 BD46     		mov	sp, r7
 2040 0044 80BC     		pop	{r7}
 2041 0046 7047     		bx	lr
 2042              		.cfi_endproc
 2043              	.LFE47:
 2045              		.section	.text.TIM_InternalClockConfig,"ax",%progbits
 2046              		.align	2
 2047              		.global	TIM_InternalClockConfig
 2048              		.thumb
 2049              		.thumb_func
 2051              	TIM_InternalClockConfig:
 2052              	.LFB48:
 982:../STM32F10x_StdPeriph_Lib_V3.5.0/Libraries/STM32F10x_StdPeriph_Driver/src/stm32f10x_tim.c **** 
 983:../STM32F10x_StdPeriph_Lib_V3.5.0/Libraries/STM32F10x_StdPeriph_Driver/src/stm32f10x_tim.c **** /**
 984:../STM32F10x_StdPeriph_Lib_V3.5.0/Libraries/STM32F10x_StdPeriph_Driver/src/stm32f10x_tim.c ****   * @brief  Configures the TIMx internal Clock
 985:../STM32F10x_StdPeriph_Lib_V3.5.0/Libraries/STM32F10x_StdPeriph_Driver/src/stm32f10x_tim.c ****   * @param  TIMx: where x can be  1, 2, 3, 4, 5, 8, 9, 12 or 15
 986:../STM32F10x_StdPeriph_Lib_V3.5.0/Libraries/STM32F10x_StdPeriph_Driver/src/stm32f10x_tim.c ****   *         to select the TIM peripheral.
 987:../STM32F10x_StdPeriph_Lib_V3.5.0/Libraries/STM32F10x_StdPeriph_Driver/src/stm32f10x_tim.c ****   * @retval None
 988:../STM32F10x_StdPeriph_Lib_V3.5.0/Libraries/STM32F10x_StdPeriph_Driver/src/stm32f10x_tim.c ****   */
 989:../STM32F10x_StdPeriph_Lib_V3.5.0/Libraries/STM32F10x_StdPeriph_Driver/src/stm32f10x_tim.c **** void TIM_InternalClockConfig(TIM_TypeDef* TIMx)
 990:../STM32F10x_StdPeriph_Lib_V3.5.0/Libraries/STM32F10x_StdPeriph_Driver/src/stm32f10x_tim.c **** {
 2053              		.loc 1 990 0
 2054              		.cfi_startproc
 2055              		@ args = 0, pretend = 0, frame = 8
 2056              		@ frame_needed = 1, uses_anonymous_args = 0
 2057              		@ link register save eliminated.
 2058 0000 80B4     		push	{r7}
 2059              	.LCFI57:
 2060              		.cfi_def_cfa_offset 4
 2061              		.cfi_offset 7, -4
 2062 0002 83B0     		sub	sp, sp, #12
 2063              	.LCFI58:
 2064              		.cfi_def_cfa_offset 16
 2065 0004 00AF     		add	r7, sp, #0
 2066              	.LCFI59:
 2067              		.cfi_def_cfa_register 7
 2068 0006 7860     		str	r0, [r7, #4]
 991:../STM32F10x_StdPeriph_Lib_V3.5.0/Libraries/STM32F10x_StdPeriph_Driver/src/stm32f10x_tim.c ****   /* Check the parameters */
 992:../STM32F10x_StdPeriph_Lib_V3.5.0/Libraries/STM32F10x_StdPeriph_Driver/src/stm32f10x_tim.c ****   assert_param(IS_TIM_LIST6_PERIPH(TIMx));
 993:../STM32F10x_StdPeriph_Lib_V3.5.0/Libraries/STM32F10x_StdPeriph_Driver/src/stm32f10x_tim.c ****   /* Disable slave mode to clock the prescaler directly with the internal clock */
 994:../STM32F10x_StdPeriph_Lib_V3.5.0/Libraries/STM32F10x_StdPeriph_Driver/src/stm32f10x_tim.c ****   TIMx->SMCR &=  (uint16_t)(~((uint16_t)TIM_SMCR_SMS));
 2069              		.loc 1 994 0
 2070 0008 7B68     		ldr	r3, [r7, #4]
 2071 000a 1B89     		ldrh	r3, [r3, #8]	@ movhi
 2072 000c 9BB2     		uxth	r3, r3
 2073 000e 23F00703 		bic	r3, r3, #7
 2074 0012 9AB2     		uxth	r2, r3
 2075 0014 7B68     		ldr	r3, [r7, #4]
 2076 0016 1A81     		strh	r2, [r3, #8]	@ movhi
 995:../STM32F10x_StdPeriph_Lib_V3.5.0/Libraries/STM32F10x_StdPeriph_Driver/src/stm32f10x_tim.c **** }
 2077              		.loc 1 995 0
 2078 0018 07F10C07 		add	r7, r7, #12
 2079 001c BD46     		mov	sp, r7
 2080 001e 80BC     		pop	{r7}
 2081 0020 7047     		bx	lr
 2082              		.cfi_endproc
 2083              	.LFE48:
 2085 0022 00BF     		.section	.text.TIM_ITRxExternalClockConfig,"ax",%progbits
 2086              		.align	2
 2087              		.global	TIM_ITRxExternalClockConfig
 2088              		.thumb
 2089              		.thumb_func
 2091              	TIM_ITRxExternalClockConfig:
 2092              	.LFB49:
 996:../STM32F10x_StdPeriph_Lib_V3.5.0/Libraries/STM32F10x_StdPeriph_Driver/src/stm32f10x_tim.c **** 
 997:../STM32F10x_StdPeriph_Lib_V3.5.0/Libraries/STM32F10x_StdPeriph_Driver/src/stm32f10x_tim.c **** /**
 998:../STM32F10x_StdPeriph_Lib_V3.5.0/Libraries/STM32F10x_StdPeriph_Driver/src/stm32f10x_tim.c ****   * @brief  Configures the TIMx Internal Trigger as External Clock
 999:../STM32F10x_StdPeriph_Lib_V3.5.0/Libraries/STM32F10x_StdPeriph_Driver/src/stm32f10x_tim.c ****   * @param  TIMx: where x can be  1, 2, 3, 4, 5, 9, 12 or 15 to select the TIM peripheral.
1000:../STM32F10x_StdPeriph_Lib_V3.5.0/Libraries/STM32F10x_StdPeriph_Driver/src/stm32f10x_tim.c ****   * @param  TIM_ITRSource: Trigger source.
1001:../STM32F10x_StdPeriph_Lib_V3.5.0/Libraries/STM32F10x_StdPeriph_Driver/src/stm32f10x_tim.c ****   *   This parameter can be one of the following values:
1002:../STM32F10x_StdPeriph_Lib_V3.5.0/Libraries/STM32F10x_StdPeriph_Driver/src/stm32f10x_tim.c ****   * @param  TIM_TS_ITR0: Internal Trigger 0
1003:../STM32F10x_StdPeriph_Lib_V3.5.0/Libraries/STM32F10x_StdPeriph_Driver/src/stm32f10x_tim.c ****   * @param  TIM_TS_ITR1: Internal Trigger 1
1004:../STM32F10x_StdPeriph_Lib_V3.5.0/Libraries/STM32F10x_StdPeriph_Driver/src/stm32f10x_tim.c ****   * @param  TIM_TS_ITR2: Internal Trigger 2
1005:../STM32F10x_StdPeriph_Lib_V3.5.0/Libraries/STM32F10x_StdPeriph_Driver/src/stm32f10x_tim.c ****   * @param  TIM_TS_ITR3: Internal Trigger 3
1006:../STM32F10x_StdPeriph_Lib_V3.5.0/Libraries/STM32F10x_StdPeriph_Driver/src/stm32f10x_tim.c ****   * @retval None
1007:../STM32F10x_StdPeriph_Lib_V3.5.0/Libraries/STM32F10x_StdPeriph_Driver/src/stm32f10x_tim.c ****   */
1008:../STM32F10x_StdPeriph_Lib_V3.5.0/Libraries/STM32F10x_StdPeriph_Driver/src/stm32f10x_tim.c **** void TIM_ITRxExternalClockConfig(TIM_TypeDef* TIMx, uint16_t TIM_InputTriggerSource)
1009:../STM32F10x_StdPeriph_Lib_V3.5.0/Libraries/STM32F10x_StdPeriph_Driver/src/stm32f10x_tim.c **** {
 2093              		.loc 1 1009 0
 2094              		.cfi_startproc
 2095              		@ args = 0, pretend = 0, frame = 8
 2096              		@ frame_needed = 1, uses_anonymous_args = 0
 2097 0000 80B5     		push	{r7, lr}
 2098              	.LCFI60:
 2099              		.cfi_def_cfa_offset 8
 2100              		.cfi_offset 7, -8
 2101              		.cfi_offset 14, -4
 2102 0002 82B0     		sub	sp, sp, #8
 2103              	.LCFI61:
 2104              		.cfi_def_cfa_offset 16
 2105 0004 00AF     		add	r7, sp, #0
 2106              	.LCFI62:
 2107              		.cfi_def_cfa_register 7
 2108 0006 7860     		str	r0, [r7, #4]
 2109 0008 0B46     		mov	r3, r1
 2110 000a 7B80     		strh	r3, [r7, #2]	@ movhi
1010:../STM32F10x_StdPeriph_Lib_V3.5.0/Libraries/STM32F10x_StdPeriph_Driver/src/stm32f10x_tim.c ****   /* Check the parameters */
1011:../STM32F10x_StdPeriph_Lib_V3.5.0/Libraries/STM32F10x_StdPeriph_Driver/src/stm32f10x_tim.c ****   assert_param(IS_TIM_LIST6_PERIPH(TIMx));
1012:../STM32F10x_StdPeriph_Lib_V3.5.0/Libraries/STM32F10x_StdPeriph_Driver/src/stm32f10x_tim.c ****   assert_param(IS_TIM_INTERNAL_TRIGGER_SELECTION(TIM_InputTriggerSource));
1013:../STM32F10x_StdPeriph_Lib_V3.5.0/Libraries/STM32F10x_StdPeriph_Driver/src/stm32f10x_tim.c ****   /* Select the Internal Trigger */
1014:../STM32F10x_StdPeriph_Lib_V3.5.0/Libraries/STM32F10x_StdPeriph_Driver/src/stm32f10x_tim.c ****   TIM_SelectInputTrigger(TIMx, TIM_InputTriggerSource);
 2111              		.loc 1 1014 0
 2112 000c 7B88     		ldrh	r3, [r7, #2]
 2113 000e 7868     		ldr	r0, [r7, #4]
 2114 0010 1946     		mov	r1, r3
 2115 0012 FFF7FEFF 		bl	TIM_SelectInputTrigger
1015:../STM32F10x_StdPeriph_Lib_V3.5.0/Libraries/STM32F10x_StdPeriph_Driver/src/stm32f10x_tim.c ****   /* Select the External clock mode1 */
1016:../STM32F10x_StdPeriph_Lib_V3.5.0/Libraries/STM32F10x_StdPeriph_Driver/src/stm32f10x_tim.c ****   TIMx->SMCR |= TIM_SlaveMode_External1;
 2116              		.loc 1 1016 0
 2117 0016 7B68     		ldr	r3, [r7, #4]
 2118 0018 1B89     		ldrh	r3, [r3, #8]	@ movhi
 2119 001a 9BB2     		uxth	r3, r3
 2120 001c 43F00703 		orr	r3, r3, #7
 2121 0020 9AB2     		uxth	r2, r3
 2122 0022 7B68     		ldr	r3, [r7, #4]
 2123 0024 1A81     		strh	r2, [r3, #8]	@ movhi
1017:../STM32F10x_StdPeriph_Lib_V3.5.0/Libraries/STM32F10x_StdPeriph_Driver/src/stm32f10x_tim.c **** }
 2124              		.loc 1 1017 0
 2125 0026 07F10807 		add	r7, r7, #8
 2126 002a BD46     		mov	sp, r7
 2127 002c 80BD     		pop	{r7, pc}
 2128              		.cfi_endproc
 2129              	.LFE49:
 2131 002e 00BF     		.section	.text.TIM_TIxExternalClockConfig,"ax",%progbits
 2132              		.align	2
 2133              		.global	TIM_TIxExternalClockConfig
 2134              		.thumb
 2135              		.thumb_func
 2137              	TIM_TIxExternalClockConfig:
 2138              	.LFB50:
1018:../STM32F10x_StdPeriph_Lib_V3.5.0/Libraries/STM32F10x_StdPeriph_Driver/src/stm32f10x_tim.c **** 
1019:../STM32F10x_StdPeriph_Lib_V3.5.0/Libraries/STM32F10x_StdPeriph_Driver/src/stm32f10x_tim.c **** /**
1020:../STM32F10x_StdPeriph_Lib_V3.5.0/Libraries/STM32F10x_StdPeriph_Driver/src/stm32f10x_tim.c ****   * @brief  Configures the TIMx Trigger as External Clock
1021:../STM32F10x_StdPeriph_Lib_V3.5.0/Libraries/STM32F10x_StdPeriph_Driver/src/stm32f10x_tim.c ****   * @param  TIMx: where x can be  1, 2, 3, 4, 5, 9, 12 or 15 to select the TIM peripheral.
1022:../STM32F10x_StdPeriph_Lib_V3.5.0/Libraries/STM32F10x_StdPeriph_Driver/src/stm32f10x_tim.c ****   * @param  TIM_TIxExternalCLKSource: Trigger source.
1023:../STM32F10x_StdPeriph_Lib_V3.5.0/Libraries/STM32F10x_StdPeriph_Driver/src/stm32f10x_tim.c ****   *   This parameter can be one of the following values:
1024:../STM32F10x_StdPeriph_Lib_V3.5.0/Libraries/STM32F10x_StdPeriph_Driver/src/stm32f10x_tim.c ****   *     @arg TIM_TIxExternalCLK1Source_TI1ED: TI1 Edge Detector
1025:../STM32F10x_StdPeriph_Lib_V3.5.0/Libraries/STM32F10x_StdPeriph_Driver/src/stm32f10x_tim.c ****   *     @arg TIM_TIxExternalCLK1Source_TI1: Filtered Timer Input 1
1026:../STM32F10x_StdPeriph_Lib_V3.5.0/Libraries/STM32F10x_StdPeriph_Driver/src/stm32f10x_tim.c ****   *     @arg TIM_TIxExternalCLK1Source_TI2: Filtered Timer Input 2
1027:../STM32F10x_StdPeriph_Lib_V3.5.0/Libraries/STM32F10x_StdPeriph_Driver/src/stm32f10x_tim.c ****   * @param  TIM_ICPolarity: specifies the TIx Polarity.
1028:../STM32F10x_StdPeriph_Lib_V3.5.0/Libraries/STM32F10x_StdPeriph_Driver/src/stm32f10x_tim.c ****   *   This parameter can be one of the following values:
1029:../STM32F10x_StdPeriph_Lib_V3.5.0/Libraries/STM32F10x_StdPeriph_Driver/src/stm32f10x_tim.c ****   *     @arg TIM_ICPolarity_Rising
1030:../STM32F10x_StdPeriph_Lib_V3.5.0/Libraries/STM32F10x_StdPeriph_Driver/src/stm32f10x_tim.c ****   *     @arg TIM_ICPolarity_Falling
1031:../STM32F10x_StdPeriph_Lib_V3.5.0/Libraries/STM32F10x_StdPeriph_Driver/src/stm32f10x_tim.c ****   * @param  ICFilter : specifies the filter value.
1032:../STM32F10x_StdPeriph_Lib_V3.5.0/Libraries/STM32F10x_StdPeriph_Driver/src/stm32f10x_tim.c ****   *   This parameter must be a value between 0x0 and 0xF.
1033:../STM32F10x_StdPeriph_Lib_V3.5.0/Libraries/STM32F10x_StdPeriph_Driver/src/stm32f10x_tim.c ****   * @retval None
1034:../STM32F10x_StdPeriph_Lib_V3.5.0/Libraries/STM32F10x_StdPeriph_Driver/src/stm32f10x_tim.c ****   */
1035:../STM32F10x_StdPeriph_Lib_V3.5.0/Libraries/STM32F10x_StdPeriph_Driver/src/stm32f10x_tim.c **** void TIM_TIxExternalClockConfig(TIM_TypeDef* TIMx, uint16_t TIM_TIxExternalCLKSource,
1036:../STM32F10x_StdPeriph_Lib_V3.5.0/Libraries/STM32F10x_StdPeriph_Driver/src/stm32f10x_tim.c ****                                 uint16_t TIM_ICPolarity, uint16_t ICFilter)
1037:../STM32F10x_StdPeriph_Lib_V3.5.0/Libraries/STM32F10x_StdPeriph_Driver/src/stm32f10x_tim.c **** {
 2139              		.loc 1 1037 0
 2140              		.cfi_startproc
 2141              		@ args = 0, pretend = 0, frame = 16
 2142              		@ frame_needed = 1, uses_anonymous_args = 0
 2143 0000 80B5     		push	{r7, lr}
 2144              	.LCFI63:
 2145              		.cfi_def_cfa_offset 8
 2146              		.cfi_offset 7, -8
 2147              		.cfi_offset 14, -4
 2148 0002 84B0     		sub	sp, sp, #16
 2149              	.LCFI64:
 2150              		.cfi_def_cfa_offset 24
 2151 0004 00AF     		add	r7, sp, #0
 2152              	.LCFI65:
 2153              		.cfi_def_cfa_register 7
 2154 0006 F860     		str	r0, [r7, #12]
 2155 0008 7981     		strh	r1, [r7, #10]	@ movhi
 2156 000a 3A81     		strh	r2, [r7, #8]	@ movhi
 2157 000c FB80     		strh	r3, [r7, #6]	@ movhi
1038:../STM32F10x_StdPeriph_Lib_V3.5.0/Libraries/STM32F10x_StdPeriph_Driver/src/stm32f10x_tim.c ****   /* Check the parameters */
1039:../STM32F10x_StdPeriph_Lib_V3.5.0/Libraries/STM32F10x_StdPeriph_Driver/src/stm32f10x_tim.c ****   assert_param(IS_TIM_LIST6_PERIPH(TIMx));
1040:../STM32F10x_StdPeriph_Lib_V3.5.0/Libraries/STM32F10x_StdPeriph_Driver/src/stm32f10x_tim.c ****   assert_param(IS_TIM_TIXCLK_SOURCE(TIM_TIxExternalCLKSource));
1041:../STM32F10x_StdPeriph_Lib_V3.5.0/Libraries/STM32F10x_StdPeriph_Driver/src/stm32f10x_tim.c ****   assert_param(IS_TIM_IC_POLARITY(TIM_ICPolarity));
1042:../STM32F10x_StdPeriph_Lib_V3.5.0/Libraries/STM32F10x_StdPeriph_Driver/src/stm32f10x_tim.c ****   assert_param(IS_TIM_IC_FILTER(ICFilter));
1043:../STM32F10x_StdPeriph_Lib_V3.5.0/Libraries/STM32F10x_StdPeriph_Driver/src/stm32f10x_tim.c ****   /* Configure the Timer Input Clock Source */
1044:../STM32F10x_StdPeriph_Lib_V3.5.0/Libraries/STM32F10x_StdPeriph_Driver/src/stm32f10x_tim.c ****   if (TIM_TIxExternalCLKSource == TIM_TIxExternalCLK1Source_TI2)
 2158              		.loc 1 1044 0
 2159 000e 7B89     		ldrh	r3, [r7, #10]
 2160 0010 602B     		cmp	r3, #96
 2161 0012 08D1     		bne	.L83
1045:../STM32F10x_StdPeriph_Lib_V3.5.0/Libraries/STM32F10x_StdPeriph_Driver/src/stm32f10x_tim.c ****   {
1046:../STM32F10x_StdPeriph_Lib_V3.5.0/Libraries/STM32F10x_StdPeriph_Driver/src/stm32f10x_tim.c ****     TI2_Config(TIMx, TIM_ICPolarity, TIM_ICSelection_DirectTI, ICFilter);
 2162              		.loc 1 1046 0
 2163 0014 3A89     		ldrh	r2, [r7, #8]
 2164 0016 FB88     		ldrh	r3, [r7, #6]
 2165 0018 F868     		ldr	r0, [r7, #12]
 2166 001a 1146     		mov	r1, r2
 2167 001c 4FF00102 		mov	r2, #1
 2168 0020 FFF7FEFF 		bl	TI2_Config
 2169 0024 07E0     		b	.L84
 2170              	.L83:
1047:../STM32F10x_StdPeriph_Lib_V3.5.0/Libraries/STM32F10x_StdPeriph_Driver/src/stm32f10x_tim.c ****   }
1048:../STM32F10x_StdPeriph_Lib_V3.5.0/Libraries/STM32F10x_StdPeriph_Driver/src/stm32f10x_tim.c ****   else
1049:../STM32F10x_StdPeriph_Lib_V3.5.0/Libraries/STM32F10x_StdPeriph_Driver/src/stm32f10x_tim.c ****   {
1050:../STM32F10x_StdPeriph_Lib_V3.5.0/Libraries/STM32F10x_StdPeriph_Driver/src/stm32f10x_tim.c ****     TI1_Config(TIMx, TIM_ICPolarity, TIM_ICSelection_DirectTI, ICFilter);
 2171              		.loc 1 1050 0
 2172 0026 3A89     		ldrh	r2, [r7, #8]
 2173 0028 FB88     		ldrh	r3, [r7, #6]
 2174 002a F868     		ldr	r0, [r7, #12]
 2175 002c 1146     		mov	r1, r2
 2176 002e 4FF00102 		mov	r2, #1
 2177 0032 FFF7FEFF 		bl	TI1_Config
 2178              	.L84:
1051:../STM32F10x_StdPeriph_Lib_V3.5.0/Libraries/STM32F10x_StdPeriph_Driver/src/stm32f10x_tim.c ****   }
1052:../STM32F10x_StdPeriph_Lib_V3.5.0/Libraries/STM32F10x_StdPeriph_Driver/src/stm32f10x_tim.c ****   /* Select the Trigger source */
1053:../STM32F10x_StdPeriph_Lib_V3.5.0/Libraries/STM32F10x_StdPeriph_Driver/src/stm32f10x_tim.c ****   TIM_SelectInputTrigger(TIMx, TIM_TIxExternalCLKSource);
 2179              		.loc 1 1053 0
 2180 0036 7B89     		ldrh	r3, [r7, #10]
 2181 0038 F868     		ldr	r0, [r7, #12]
 2182 003a 1946     		mov	r1, r3
 2183 003c FFF7FEFF 		bl	TIM_SelectInputTrigger
1054:../STM32F10x_StdPeriph_Lib_V3.5.0/Libraries/STM32F10x_StdPeriph_Driver/src/stm32f10x_tim.c ****   /* Select the External clock mode1 */
1055:../STM32F10x_StdPeriph_Lib_V3.5.0/Libraries/STM32F10x_StdPeriph_Driver/src/stm32f10x_tim.c ****   TIMx->SMCR |= TIM_SlaveMode_External1;
 2184              		.loc 1 1055 0
 2185 0040 FB68     		ldr	r3, [r7, #12]
 2186 0042 1B89     		ldrh	r3, [r3, #8]	@ movhi
 2187 0044 9BB2     		uxth	r3, r3
 2188 0046 43F00703 		orr	r3, r3, #7
 2189 004a 9AB2     		uxth	r2, r3
 2190 004c FB68     		ldr	r3, [r7, #12]
 2191 004e 1A81     		strh	r2, [r3, #8]	@ movhi
1056:../STM32F10x_StdPeriph_Lib_V3.5.0/Libraries/STM32F10x_StdPeriph_Driver/src/stm32f10x_tim.c **** }
 2192              		.loc 1 1056 0
 2193 0050 07F11007 		add	r7, r7, #16
 2194 0054 BD46     		mov	sp, r7
 2195 0056 80BD     		pop	{r7, pc}
 2196              		.cfi_endproc
 2197              	.LFE50:
 2199              		.section	.text.TIM_ETRClockMode1Config,"ax",%progbits
 2200              		.align	2
 2201              		.global	TIM_ETRClockMode1Config
 2202              		.thumb
 2203              		.thumb_func
 2205              	TIM_ETRClockMode1Config:
 2206              	.LFB51:
1057:../STM32F10x_StdPeriph_Lib_V3.5.0/Libraries/STM32F10x_StdPeriph_Driver/src/stm32f10x_tim.c **** 
1058:../STM32F10x_StdPeriph_Lib_V3.5.0/Libraries/STM32F10x_StdPeriph_Driver/src/stm32f10x_tim.c **** /**
1059:../STM32F10x_StdPeriph_Lib_V3.5.0/Libraries/STM32F10x_StdPeriph_Driver/src/stm32f10x_tim.c ****   * @brief  Configures the External clock Mode1
1060:../STM32F10x_StdPeriph_Lib_V3.5.0/Libraries/STM32F10x_StdPeriph_Driver/src/stm32f10x_tim.c ****   * @param  TIMx: where x can be  1, 2, 3, 4, 5 or 8 to select the TIM peripheral.
1061:../STM32F10x_StdPeriph_Lib_V3.5.0/Libraries/STM32F10x_StdPeriph_Driver/src/stm32f10x_tim.c ****   * @param  TIM_ExtTRGPrescaler: The external Trigger Prescaler.
1062:../STM32F10x_StdPeriph_Lib_V3.5.0/Libraries/STM32F10x_StdPeriph_Driver/src/stm32f10x_tim.c ****   *   This parameter can be one of the following values:
1063:../STM32F10x_StdPeriph_Lib_V3.5.0/Libraries/STM32F10x_StdPeriph_Driver/src/stm32f10x_tim.c ****   *     @arg TIM_ExtTRGPSC_OFF: ETRP Prescaler OFF.
1064:../STM32F10x_StdPeriph_Lib_V3.5.0/Libraries/STM32F10x_StdPeriph_Driver/src/stm32f10x_tim.c ****   *     @arg TIM_ExtTRGPSC_DIV2: ETRP frequency divided by 2.
1065:../STM32F10x_StdPeriph_Lib_V3.5.0/Libraries/STM32F10x_StdPeriph_Driver/src/stm32f10x_tim.c ****   *     @arg TIM_ExtTRGPSC_DIV4: ETRP frequency divided by 4.
1066:../STM32F10x_StdPeriph_Lib_V3.5.0/Libraries/STM32F10x_StdPeriph_Driver/src/stm32f10x_tim.c ****   *     @arg TIM_ExtTRGPSC_DIV8: ETRP frequency divided by 8.
1067:../STM32F10x_StdPeriph_Lib_V3.5.0/Libraries/STM32F10x_StdPeriph_Driver/src/stm32f10x_tim.c ****   * @param  TIM_ExtTRGPolarity: The external Trigger Polarity.
1068:../STM32F10x_StdPeriph_Lib_V3.5.0/Libraries/STM32F10x_StdPeriph_Driver/src/stm32f10x_tim.c ****   *   This parameter can be one of the following values:
1069:../STM32F10x_StdPeriph_Lib_V3.5.0/Libraries/STM32F10x_StdPeriph_Driver/src/stm32f10x_tim.c ****   *     @arg TIM_ExtTRGPolarity_Inverted: active low or falling edge active.
1070:../STM32F10x_StdPeriph_Lib_V3.5.0/Libraries/STM32F10x_StdPeriph_Driver/src/stm32f10x_tim.c ****   *     @arg TIM_ExtTRGPolarity_NonInverted: active high or rising edge active.
1071:../STM32F10x_StdPeriph_Lib_V3.5.0/Libraries/STM32F10x_StdPeriph_Driver/src/stm32f10x_tim.c ****   * @param  ExtTRGFilter: External Trigger Filter.
1072:../STM32F10x_StdPeriph_Lib_V3.5.0/Libraries/STM32F10x_StdPeriph_Driver/src/stm32f10x_tim.c ****   *   This parameter must be a value between 0x00 and 0x0F
1073:../STM32F10x_StdPeriph_Lib_V3.5.0/Libraries/STM32F10x_StdPeriph_Driver/src/stm32f10x_tim.c ****   * @retval None
1074:../STM32F10x_StdPeriph_Lib_V3.5.0/Libraries/STM32F10x_StdPeriph_Driver/src/stm32f10x_tim.c ****   */
1075:../STM32F10x_StdPeriph_Lib_V3.5.0/Libraries/STM32F10x_StdPeriph_Driver/src/stm32f10x_tim.c **** void TIM_ETRClockMode1Config(TIM_TypeDef* TIMx, uint16_t TIM_ExtTRGPrescaler, uint16_t TIM_ExtTRGPo
1076:../STM32F10x_StdPeriph_Lib_V3.5.0/Libraries/STM32F10x_StdPeriph_Driver/src/stm32f10x_tim.c ****                              uint16_t ExtTRGFilter)
1077:../STM32F10x_StdPeriph_Lib_V3.5.0/Libraries/STM32F10x_StdPeriph_Driver/src/stm32f10x_tim.c **** {
 2207              		.loc 1 1077 0
 2208              		.cfi_startproc
 2209              		@ args = 0, pretend = 0, frame = 24
 2210              		@ frame_needed = 1, uses_anonymous_args = 0
 2211 0000 80B5     		push	{r7, lr}
 2212              	.LCFI66:
 2213              		.cfi_def_cfa_offset 8
 2214              		.cfi_offset 7, -8
 2215              		.cfi_offset 14, -4
 2216 0002 86B0     		sub	sp, sp, #24
 2217              	.LCFI67:
 2218              		.cfi_def_cfa_offset 32
 2219 0004 00AF     		add	r7, sp, #0
 2220              	.LCFI68:
 2221              		.cfi_def_cfa_register 7
 2222 0006 F860     		str	r0, [r7, #12]
 2223 0008 7981     		strh	r1, [r7, #10]	@ movhi
 2224 000a 3A81     		strh	r2, [r7, #8]	@ movhi
 2225 000c FB80     		strh	r3, [r7, #6]	@ movhi
1078:../STM32F10x_StdPeriph_Lib_V3.5.0/Libraries/STM32F10x_StdPeriph_Driver/src/stm32f10x_tim.c ****   uint16_t tmpsmcr = 0;
 2226              		.loc 1 1078 0
 2227 000e 4FF00003 		mov	r3, #0
 2228 0012 FB82     		strh	r3, [r7, #22]	@ movhi
1079:../STM32F10x_StdPeriph_Lib_V3.5.0/Libraries/STM32F10x_StdPeriph_Driver/src/stm32f10x_tim.c ****   /* Check the parameters */
1080:../STM32F10x_StdPeriph_Lib_V3.5.0/Libraries/STM32F10x_StdPeriph_Driver/src/stm32f10x_tim.c ****   assert_param(IS_TIM_LIST3_PERIPH(TIMx));
1081:../STM32F10x_StdPeriph_Lib_V3.5.0/Libraries/STM32F10x_StdPeriph_Driver/src/stm32f10x_tim.c ****   assert_param(IS_TIM_EXT_PRESCALER(TIM_ExtTRGPrescaler));
1082:../STM32F10x_StdPeriph_Lib_V3.5.0/Libraries/STM32F10x_StdPeriph_Driver/src/stm32f10x_tim.c ****   assert_param(IS_TIM_EXT_POLARITY(TIM_ExtTRGPolarity));
1083:../STM32F10x_StdPeriph_Lib_V3.5.0/Libraries/STM32F10x_StdPeriph_Driver/src/stm32f10x_tim.c ****   assert_param(IS_TIM_EXT_FILTER(ExtTRGFilter));
1084:../STM32F10x_StdPeriph_Lib_V3.5.0/Libraries/STM32F10x_StdPeriph_Driver/src/stm32f10x_tim.c ****   /* Configure the ETR Clock source */
1085:../STM32F10x_StdPeriph_Lib_V3.5.0/Libraries/STM32F10x_StdPeriph_Driver/src/stm32f10x_tim.c ****   TIM_ETRConfig(TIMx, TIM_ExtTRGPrescaler, TIM_ExtTRGPolarity, ExtTRGFilter);
 2229              		.loc 1 1085 0
 2230 0014 7989     		ldrh	r1, [r7, #10]
 2231 0016 3A89     		ldrh	r2, [r7, #8]
 2232 0018 FB88     		ldrh	r3, [r7, #6]
 2233 001a F868     		ldr	r0, [r7, #12]
 2234 001c FFF7FEFF 		bl	TIM_ETRConfig
1086:../STM32F10x_StdPeriph_Lib_V3.5.0/Libraries/STM32F10x_StdPeriph_Driver/src/stm32f10x_tim.c ****   
1087:../STM32F10x_StdPeriph_Lib_V3.5.0/Libraries/STM32F10x_StdPeriph_Driver/src/stm32f10x_tim.c ****   /* Get the TIMx SMCR register value */
1088:../STM32F10x_StdPeriph_Lib_V3.5.0/Libraries/STM32F10x_StdPeriph_Driver/src/stm32f10x_tim.c ****   tmpsmcr = TIMx->SMCR;
 2235              		.loc 1 1088 0
 2236 0020 FB68     		ldr	r3, [r7, #12]
 2237 0022 1B89     		ldrh	r3, [r3, #8]	@ movhi
 2238 0024 FB82     		strh	r3, [r7, #22]	@ movhi
1089:../STM32F10x_StdPeriph_Lib_V3.5.0/Libraries/STM32F10x_StdPeriph_Driver/src/stm32f10x_tim.c ****   /* Reset the SMS Bits */
1090:../STM32F10x_StdPeriph_Lib_V3.5.0/Libraries/STM32F10x_StdPeriph_Driver/src/stm32f10x_tim.c ****   tmpsmcr &= (uint16_t)(~((uint16_t)TIM_SMCR_SMS));
 2239              		.loc 1 1090 0
 2240 0026 FB8A     		ldrh	r3, [r7, #22]	@ movhi
 2241 0028 23F00703 		bic	r3, r3, #7
 2242 002c FB82     		strh	r3, [r7, #22]	@ movhi
1091:../STM32F10x_StdPeriph_Lib_V3.5.0/Libraries/STM32F10x_StdPeriph_Driver/src/stm32f10x_tim.c ****   /* Select the External clock mode1 */
1092:../STM32F10x_StdPeriph_Lib_V3.5.0/Libraries/STM32F10x_StdPeriph_Driver/src/stm32f10x_tim.c ****   tmpsmcr |= TIM_SlaveMode_External1;
 2243              		.loc 1 1092 0
 2244 002e FB8A     		ldrh	r3, [r7, #22]	@ movhi
 2245 0030 43F00703 		orr	r3, r3, #7
 2246 0034 FB82     		strh	r3, [r7, #22]	@ movhi
1093:../STM32F10x_StdPeriph_Lib_V3.5.0/Libraries/STM32F10x_StdPeriph_Driver/src/stm32f10x_tim.c ****   /* Select the Trigger selection : ETRF */
1094:../STM32F10x_StdPeriph_Lib_V3.5.0/Libraries/STM32F10x_StdPeriph_Driver/src/stm32f10x_tim.c ****   tmpsmcr &= (uint16_t)(~((uint16_t)TIM_SMCR_TS));
 2247              		.loc 1 1094 0
 2248 0036 FB8A     		ldrh	r3, [r7, #22]	@ movhi
 2249 0038 23F07003 		bic	r3, r3, #112
 2250 003c FB82     		strh	r3, [r7, #22]	@ movhi
1095:../STM32F10x_StdPeriph_Lib_V3.5.0/Libraries/STM32F10x_StdPeriph_Driver/src/stm32f10x_tim.c ****   tmpsmcr |= TIM_TS_ETRF;
 2251              		.loc 1 1095 0
 2252 003e FB8A     		ldrh	r3, [r7, #22]	@ movhi
 2253 0040 43F07003 		orr	r3, r3, #112
 2254 0044 FB82     		strh	r3, [r7, #22]	@ movhi
1096:../STM32F10x_StdPeriph_Lib_V3.5.0/Libraries/STM32F10x_StdPeriph_Driver/src/stm32f10x_tim.c ****   /* Write to TIMx SMCR */
1097:../STM32F10x_StdPeriph_Lib_V3.5.0/Libraries/STM32F10x_StdPeriph_Driver/src/stm32f10x_tim.c ****   TIMx->SMCR = tmpsmcr;
 2255              		.loc 1 1097 0
 2256 0046 FB68     		ldr	r3, [r7, #12]
 2257 0048 FA8A     		ldrh	r2, [r7, #22]	@ movhi
 2258 004a 1A81     		strh	r2, [r3, #8]	@ movhi
1098:../STM32F10x_StdPeriph_Lib_V3.5.0/Libraries/STM32F10x_StdPeriph_Driver/src/stm32f10x_tim.c **** }
 2259              		.loc 1 1098 0
 2260 004c 07F11807 		add	r7, r7, #24
 2261 0050 BD46     		mov	sp, r7
 2262 0052 80BD     		pop	{r7, pc}
 2263              		.cfi_endproc
 2264              	.LFE51:
 2266              		.section	.text.TIM_ETRClockMode2Config,"ax",%progbits
 2267              		.align	2
 2268              		.global	TIM_ETRClockMode2Config
 2269              		.thumb
 2270              		.thumb_func
 2272              	TIM_ETRClockMode2Config:
 2273              	.LFB52:
1099:../STM32F10x_StdPeriph_Lib_V3.5.0/Libraries/STM32F10x_StdPeriph_Driver/src/stm32f10x_tim.c **** 
1100:../STM32F10x_StdPeriph_Lib_V3.5.0/Libraries/STM32F10x_StdPeriph_Driver/src/stm32f10x_tim.c **** /**
1101:../STM32F10x_StdPeriph_Lib_V3.5.0/Libraries/STM32F10x_StdPeriph_Driver/src/stm32f10x_tim.c ****   * @brief  Configures the External clock Mode2
1102:../STM32F10x_StdPeriph_Lib_V3.5.0/Libraries/STM32F10x_StdPeriph_Driver/src/stm32f10x_tim.c ****   * @param  TIMx: where x can be  1, 2, 3, 4, 5 or 8 to select the TIM peripheral.
1103:../STM32F10x_StdPeriph_Lib_V3.5.0/Libraries/STM32F10x_StdPeriph_Driver/src/stm32f10x_tim.c ****   * @param  TIM_ExtTRGPrescaler: The external Trigger Prescaler.
1104:../STM32F10x_StdPeriph_Lib_V3.5.0/Libraries/STM32F10x_StdPeriph_Driver/src/stm32f10x_tim.c ****   *   This parameter can be one of the following values:
1105:../STM32F10x_StdPeriph_Lib_V3.5.0/Libraries/STM32F10x_StdPeriph_Driver/src/stm32f10x_tim.c ****   *     @arg TIM_ExtTRGPSC_OFF: ETRP Prescaler OFF.
1106:../STM32F10x_StdPeriph_Lib_V3.5.0/Libraries/STM32F10x_StdPeriph_Driver/src/stm32f10x_tim.c ****   *     @arg TIM_ExtTRGPSC_DIV2: ETRP frequency divided by 2.
1107:../STM32F10x_StdPeriph_Lib_V3.5.0/Libraries/STM32F10x_StdPeriph_Driver/src/stm32f10x_tim.c ****   *     @arg TIM_ExtTRGPSC_DIV4: ETRP frequency divided by 4.
1108:../STM32F10x_StdPeriph_Lib_V3.5.0/Libraries/STM32F10x_StdPeriph_Driver/src/stm32f10x_tim.c ****   *     @arg TIM_ExtTRGPSC_DIV8: ETRP frequency divided by 8.
1109:../STM32F10x_StdPeriph_Lib_V3.5.0/Libraries/STM32F10x_StdPeriph_Driver/src/stm32f10x_tim.c ****   * @param  TIM_ExtTRGPolarity: The external Trigger Polarity.
1110:../STM32F10x_StdPeriph_Lib_V3.5.0/Libraries/STM32F10x_StdPeriph_Driver/src/stm32f10x_tim.c ****   *   This parameter can be one of the following values:
1111:../STM32F10x_StdPeriph_Lib_V3.5.0/Libraries/STM32F10x_StdPeriph_Driver/src/stm32f10x_tim.c ****   *     @arg TIM_ExtTRGPolarity_Inverted: active low or falling edge active.
1112:../STM32F10x_StdPeriph_Lib_V3.5.0/Libraries/STM32F10x_StdPeriph_Driver/src/stm32f10x_tim.c ****   *     @arg TIM_ExtTRGPolarity_NonInverted: active high or rising edge active.
1113:../STM32F10x_StdPeriph_Lib_V3.5.0/Libraries/STM32F10x_StdPeriph_Driver/src/stm32f10x_tim.c ****   * @param  ExtTRGFilter: External Trigger Filter.
1114:../STM32F10x_StdPeriph_Lib_V3.5.0/Libraries/STM32F10x_StdPeriph_Driver/src/stm32f10x_tim.c ****   *   This parameter must be a value between 0x00 and 0x0F
1115:../STM32F10x_StdPeriph_Lib_V3.5.0/Libraries/STM32F10x_StdPeriph_Driver/src/stm32f10x_tim.c ****   * @retval None
1116:../STM32F10x_StdPeriph_Lib_V3.5.0/Libraries/STM32F10x_StdPeriph_Driver/src/stm32f10x_tim.c ****   */
1117:../STM32F10x_StdPeriph_Lib_V3.5.0/Libraries/STM32F10x_StdPeriph_Driver/src/stm32f10x_tim.c **** void TIM_ETRClockMode2Config(TIM_TypeDef* TIMx, uint16_t TIM_ExtTRGPrescaler, 
1118:../STM32F10x_StdPeriph_Lib_V3.5.0/Libraries/STM32F10x_StdPeriph_Driver/src/stm32f10x_tim.c ****                              uint16_t TIM_ExtTRGPolarity, uint16_t ExtTRGFilter)
1119:../STM32F10x_StdPeriph_Lib_V3.5.0/Libraries/STM32F10x_StdPeriph_Driver/src/stm32f10x_tim.c **** {
 2274              		.loc 1 1119 0
 2275              		.cfi_startproc
 2276              		@ args = 0, pretend = 0, frame = 16
 2277              		@ frame_needed = 1, uses_anonymous_args = 0
 2278 0000 80B5     		push	{r7, lr}
 2279              	.LCFI69:
 2280              		.cfi_def_cfa_offset 8
 2281              		.cfi_offset 7, -8
 2282              		.cfi_offset 14, -4
 2283 0002 84B0     		sub	sp, sp, #16
 2284              	.LCFI70:
 2285              		.cfi_def_cfa_offset 24
 2286 0004 00AF     		add	r7, sp, #0
 2287              	.LCFI71:
 2288              		.cfi_def_cfa_register 7
 2289 0006 F860     		str	r0, [r7, #12]
 2290 0008 7981     		strh	r1, [r7, #10]	@ movhi
 2291 000a 3A81     		strh	r2, [r7, #8]	@ movhi
 2292 000c FB80     		strh	r3, [r7, #6]	@ movhi
1120:../STM32F10x_StdPeriph_Lib_V3.5.0/Libraries/STM32F10x_StdPeriph_Driver/src/stm32f10x_tim.c ****   /* Check the parameters */
1121:../STM32F10x_StdPeriph_Lib_V3.5.0/Libraries/STM32F10x_StdPeriph_Driver/src/stm32f10x_tim.c ****   assert_param(IS_TIM_LIST3_PERIPH(TIMx));
1122:../STM32F10x_StdPeriph_Lib_V3.5.0/Libraries/STM32F10x_StdPeriph_Driver/src/stm32f10x_tim.c ****   assert_param(IS_TIM_EXT_PRESCALER(TIM_ExtTRGPrescaler));
1123:../STM32F10x_StdPeriph_Lib_V3.5.0/Libraries/STM32F10x_StdPeriph_Driver/src/stm32f10x_tim.c ****   assert_param(IS_TIM_EXT_POLARITY(TIM_ExtTRGPolarity));
1124:../STM32F10x_StdPeriph_Lib_V3.5.0/Libraries/STM32F10x_StdPeriph_Driver/src/stm32f10x_tim.c ****   assert_param(IS_TIM_EXT_FILTER(ExtTRGFilter));
1125:../STM32F10x_StdPeriph_Lib_V3.5.0/Libraries/STM32F10x_StdPeriph_Driver/src/stm32f10x_tim.c ****   /* Configure the ETR Clock source */
1126:../STM32F10x_StdPeriph_Lib_V3.5.0/Libraries/STM32F10x_StdPeriph_Driver/src/stm32f10x_tim.c ****   TIM_ETRConfig(TIMx, TIM_ExtTRGPrescaler, TIM_ExtTRGPolarity, ExtTRGFilter);
 2293              		.loc 1 1126 0
 2294 000e 7989     		ldrh	r1, [r7, #10]
 2295 0010 3A89     		ldrh	r2, [r7, #8]
 2296 0012 FB88     		ldrh	r3, [r7, #6]
 2297 0014 F868     		ldr	r0, [r7, #12]
 2298 0016 FFF7FEFF 		bl	TIM_ETRConfig
1127:../STM32F10x_StdPeriph_Lib_V3.5.0/Libraries/STM32F10x_StdPeriph_Driver/src/stm32f10x_tim.c ****   /* Enable the External clock mode2 */
1128:../STM32F10x_StdPeriph_Lib_V3.5.0/Libraries/STM32F10x_StdPeriph_Driver/src/stm32f10x_tim.c ****   TIMx->SMCR |= TIM_SMCR_ECE;
 2299              		.loc 1 1128 0
 2300 001a FB68     		ldr	r3, [r7, #12]
 2301 001c 1B89     		ldrh	r3, [r3, #8]	@ movhi
 2302 001e 9BB2     		uxth	r3, r3
 2303 0020 43F48043 		orr	r3, r3, #16384
 2304 0024 9AB2     		uxth	r2, r3
 2305 0026 FB68     		ldr	r3, [r7, #12]
 2306 0028 1A81     		strh	r2, [r3, #8]	@ movhi
1129:../STM32F10x_StdPeriph_Lib_V3.5.0/Libraries/STM32F10x_StdPeriph_Driver/src/stm32f10x_tim.c **** }
 2307              		.loc 1 1129 0
 2308 002a 07F11007 		add	r7, r7, #16
 2309 002e BD46     		mov	sp, r7
 2310 0030 80BD     		pop	{r7, pc}
 2311              		.cfi_endproc
 2312              	.LFE52:
 2314 0032 00BF     		.section	.text.TIM_ETRConfig,"ax",%progbits
 2315              		.align	2
 2316              		.global	TIM_ETRConfig
 2317              		.thumb
 2318              		.thumb_func
 2320              	TIM_ETRConfig:
 2321              	.LFB53:
1130:../STM32F10x_StdPeriph_Lib_V3.5.0/Libraries/STM32F10x_StdPeriph_Driver/src/stm32f10x_tim.c **** 
1131:../STM32F10x_StdPeriph_Lib_V3.5.0/Libraries/STM32F10x_StdPeriph_Driver/src/stm32f10x_tim.c **** /**
1132:../STM32F10x_StdPeriph_Lib_V3.5.0/Libraries/STM32F10x_StdPeriph_Driver/src/stm32f10x_tim.c ****   * @brief  Configures the TIMx External Trigger (ETR).
1133:../STM32F10x_StdPeriph_Lib_V3.5.0/Libraries/STM32F10x_StdPeriph_Driver/src/stm32f10x_tim.c ****   * @param  TIMx: where x can be  1, 2, 3, 4, 5 or 8 to select the TIM peripheral.
1134:../STM32F10x_StdPeriph_Lib_V3.5.0/Libraries/STM32F10x_StdPeriph_Driver/src/stm32f10x_tim.c ****   * @param  TIM_ExtTRGPrescaler: The external Trigger Prescaler.
1135:../STM32F10x_StdPeriph_Lib_V3.5.0/Libraries/STM32F10x_StdPeriph_Driver/src/stm32f10x_tim.c ****   *   This parameter can be one of the following values:
1136:../STM32F10x_StdPeriph_Lib_V3.5.0/Libraries/STM32F10x_StdPeriph_Driver/src/stm32f10x_tim.c ****   *     @arg TIM_ExtTRGPSC_OFF: ETRP Prescaler OFF.
1137:../STM32F10x_StdPeriph_Lib_V3.5.0/Libraries/STM32F10x_StdPeriph_Driver/src/stm32f10x_tim.c ****   *     @arg TIM_ExtTRGPSC_DIV2: ETRP frequency divided by 2.
1138:../STM32F10x_StdPeriph_Lib_V3.5.0/Libraries/STM32F10x_StdPeriph_Driver/src/stm32f10x_tim.c ****   *     @arg TIM_ExtTRGPSC_DIV4: ETRP frequency divided by 4.
1139:../STM32F10x_StdPeriph_Lib_V3.5.0/Libraries/STM32F10x_StdPeriph_Driver/src/stm32f10x_tim.c ****   *     @arg TIM_ExtTRGPSC_DIV8: ETRP frequency divided by 8.
1140:../STM32F10x_StdPeriph_Lib_V3.5.0/Libraries/STM32F10x_StdPeriph_Driver/src/stm32f10x_tim.c ****   * @param  TIM_ExtTRGPolarity: The external Trigger Polarity.
1141:../STM32F10x_StdPeriph_Lib_V3.5.0/Libraries/STM32F10x_StdPeriph_Driver/src/stm32f10x_tim.c ****   *   This parameter can be one of the following values:
1142:../STM32F10x_StdPeriph_Lib_V3.5.0/Libraries/STM32F10x_StdPeriph_Driver/src/stm32f10x_tim.c ****   *     @arg TIM_ExtTRGPolarity_Inverted: active low or falling edge active.
1143:../STM32F10x_StdPeriph_Lib_V3.5.0/Libraries/STM32F10x_StdPeriph_Driver/src/stm32f10x_tim.c ****   *     @arg TIM_ExtTRGPolarity_NonInverted: active high or rising edge active.
1144:../STM32F10x_StdPeriph_Lib_V3.5.0/Libraries/STM32F10x_StdPeriph_Driver/src/stm32f10x_tim.c ****   * @param  ExtTRGFilter: External Trigger Filter.
1145:../STM32F10x_StdPeriph_Lib_V3.5.0/Libraries/STM32F10x_StdPeriph_Driver/src/stm32f10x_tim.c ****   *   This parameter must be a value between 0x00 and 0x0F
1146:../STM32F10x_StdPeriph_Lib_V3.5.0/Libraries/STM32F10x_StdPeriph_Driver/src/stm32f10x_tim.c ****   * @retval None
1147:../STM32F10x_StdPeriph_Lib_V3.5.0/Libraries/STM32F10x_StdPeriph_Driver/src/stm32f10x_tim.c ****   */
1148:../STM32F10x_StdPeriph_Lib_V3.5.0/Libraries/STM32F10x_StdPeriph_Driver/src/stm32f10x_tim.c **** void TIM_ETRConfig(TIM_TypeDef* TIMx, uint16_t TIM_ExtTRGPrescaler, uint16_t TIM_ExtTRGPolarity,
1149:../STM32F10x_StdPeriph_Lib_V3.5.0/Libraries/STM32F10x_StdPeriph_Driver/src/stm32f10x_tim.c ****                    uint16_t ExtTRGFilter)
1150:../STM32F10x_StdPeriph_Lib_V3.5.0/Libraries/STM32F10x_StdPeriph_Driver/src/stm32f10x_tim.c **** {
 2322              		.loc 1 1150 0
 2323              		.cfi_startproc
 2324              		@ args = 0, pretend = 0, frame = 24
 2325              		@ frame_needed = 1, uses_anonymous_args = 0
 2326              		@ link register save eliminated.
 2327 0000 80B4     		push	{r7}
 2328              	.LCFI72:
 2329              		.cfi_def_cfa_offset 4
 2330              		.cfi_offset 7, -4
 2331 0002 87B0     		sub	sp, sp, #28
 2332              	.LCFI73:
 2333              		.cfi_def_cfa_offset 32
 2334 0004 00AF     		add	r7, sp, #0
 2335              	.LCFI74:
 2336              		.cfi_def_cfa_register 7
 2337 0006 F860     		str	r0, [r7, #12]
 2338 0008 7981     		strh	r1, [r7, #10]	@ movhi
 2339 000a 3A81     		strh	r2, [r7, #8]	@ movhi
 2340 000c FB80     		strh	r3, [r7, #6]	@ movhi
1151:../STM32F10x_StdPeriph_Lib_V3.5.0/Libraries/STM32F10x_StdPeriph_Driver/src/stm32f10x_tim.c ****   uint16_t tmpsmcr = 0;
 2341              		.loc 1 1151 0
 2342 000e 4FF00003 		mov	r3, #0
 2343 0012 FB82     		strh	r3, [r7, #22]	@ movhi
1152:../STM32F10x_StdPeriph_Lib_V3.5.0/Libraries/STM32F10x_StdPeriph_Driver/src/stm32f10x_tim.c ****   /* Check the parameters */
1153:../STM32F10x_StdPeriph_Lib_V3.5.0/Libraries/STM32F10x_StdPeriph_Driver/src/stm32f10x_tim.c ****   assert_param(IS_TIM_LIST3_PERIPH(TIMx));
1154:../STM32F10x_StdPeriph_Lib_V3.5.0/Libraries/STM32F10x_StdPeriph_Driver/src/stm32f10x_tim.c ****   assert_param(IS_TIM_EXT_PRESCALER(TIM_ExtTRGPrescaler));
1155:../STM32F10x_StdPeriph_Lib_V3.5.0/Libraries/STM32F10x_StdPeriph_Driver/src/stm32f10x_tim.c ****   assert_param(IS_TIM_EXT_POLARITY(TIM_ExtTRGPolarity));
1156:../STM32F10x_StdPeriph_Lib_V3.5.0/Libraries/STM32F10x_StdPeriph_Driver/src/stm32f10x_tim.c ****   assert_param(IS_TIM_EXT_FILTER(ExtTRGFilter));
1157:../STM32F10x_StdPeriph_Lib_V3.5.0/Libraries/STM32F10x_StdPeriph_Driver/src/stm32f10x_tim.c ****   tmpsmcr = TIMx->SMCR;
 2344              		.loc 1 1157 0
 2345 0014 FB68     		ldr	r3, [r7, #12]
 2346 0016 1B89     		ldrh	r3, [r3, #8]	@ movhi
 2347 0018 FB82     		strh	r3, [r7, #22]	@ movhi
1158:../STM32F10x_StdPeriph_Lib_V3.5.0/Libraries/STM32F10x_StdPeriph_Driver/src/stm32f10x_tim.c ****   /* Reset the ETR Bits */
1159:../STM32F10x_StdPeriph_Lib_V3.5.0/Libraries/STM32F10x_StdPeriph_Driver/src/stm32f10x_tim.c ****   tmpsmcr &= SMCR_ETR_Mask;
 2348              		.loc 1 1159 0
 2349 001a FB8A     		ldrh	r3, [r7, #22]	@ movhi
 2350 001c DBB2     		uxtb	r3, r3
 2351 001e FB82     		strh	r3, [r7, #22]	@ movhi
1160:../STM32F10x_StdPeriph_Lib_V3.5.0/Libraries/STM32F10x_StdPeriph_Driver/src/stm32f10x_tim.c ****   /* Set the Prescaler, the Filter value and the Polarity */
