   1              		.syntax unified
   2              		.cpu cortex-m3
   3              		.fpu softvfp
   4              		.eabi_attribute 20, 1
   5              		.eabi_attribute 21, 1
   6              		.eabi_attribute 23, 3
   7              		.eabi_attribute 24, 1
   8              		.eabi_attribute 25, 1
   9              		.eabi_attribute 26, 1
  10              		.eabi_attribute 30, 6
  11              		.eabi_attribute 34, 1
  12              		.eabi_attribute 18, 4
  13              		.thumb
  14              		.file	"stm32f10x_fsmc.c"
  15              		.text
  16              	.Ltext0:
  17              		.cfi_sections	.debug_frame
  18              		.section	.text.FSMC_NORSRAMDeInit,"ax",%progbits
  19              		.align	2
  20              		.global	FSMC_NORSRAMDeInit
  21              		.thumb
  22              		.thumb_func
  24              	FSMC_NORSRAMDeInit:
  25              	.LFB29:
  26              		.file 1 "../STM32F10x_StdPeriph_Lib_V3.5.0/Libraries/STM32F10x_StdPeriph_Driver/src/stm32f10x_fsmc
   1:../STM32F10x_StdPeriph_Lib_V3.5.0/Libraries/STM32F10x_StdPeriph_Driver/src/stm32f10x_fsmc.c **** /**
   2:../STM32F10x_StdPeriph_Lib_V3.5.0/Libraries/STM32F10x_StdPeriph_Driver/src/stm32f10x_fsmc.c ****   ******************************************************************************
   3:../STM32F10x_StdPeriph_Lib_V3.5.0/Libraries/STM32F10x_StdPeriph_Driver/src/stm32f10x_fsmc.c ****   * @file    stm32f10x_fsmc.c
   4:../STM32F10x_StdPeriph_Lib_V3.5.0/Libraries/STM32F10x_StdPeriph_Driver/src/stm32f10x_fsmc.c ****   * @author  MCD Application Team
   5:../STM32F10x_StdPeriph_Lib_V3.5.0/Libraries/STM32F10x_StdPeriph_Driver/src/stm32f10x_fsmc.c ****   * @version V3.5.0
   6:../STM32F10x_StdPeriph_Lib_V3.5.0/Libraries/STM32F10x_StdPeriph_Driver/src/stm32f10x_fsmc.c ****   * @date    11-March-2011
   7:../STM32F10x_StdPeriph_Lib_V3.5.0/Libraries/STM32F10x_StdPeriph_Driver/src/stm32f10x_fsmc.c ****   * @brief   This file provides all the FSMC firmware functions.
   8:../STM32F10x_StdPeriph_Lib_V3.5.0/Libraries/STM32F10x_StdPeriph_Driver/src/stm32f10x_fsmc.c ****   ******************************************************************************
   9:../STM32F10x_StdPeriph_Lib_V3.5.0/Libraries/STM32F10x_StdPeriph_Driver/src/stm32f10x_fsmc.c ****   * @attention
  10:../STM32F10x_StdPeriph_Lib_V3.5.0/Libraries/STM32F10x_StdPeriph_Driver/src/stm32f10x_fsmc.c ****   *
  11:../STM32F10x_StdPeriph_Lib_V3.5.0/Libraries/STM32F10x_StdPeriph_Driver/src/stm32f10x_fsmc.c ****   * THE PRESENT FIRMWARE WHICH IS FOR GUIDANCE ONLY AIMS AT PROVIDING CUSTOMERS
  12:../STM32F10x_StdPeriph_Lib_V3.5.0/Libraries/STM32F10x_StdPeriph_Driver/src/stm32f10x_fsmc.c ****   * WITH CODING INFORMATION REGARDING THEIR PRODUCTS IN ORDER FOR THEM TO SAVE
  13:../STM32F10x_StdPeriph_Lib_V3.5.0/Libraries/STM32F10x_StdPeriph_Driver/src/stm32f10x_fsmc.c ****   * TIME. AS A RESULT, STMICROELECTRONICS SHALL NOT BE HELD LIABLE FOR ANY
  14:../STM32F10x_StdPeriph_Lib_V3.5.0/Libraries/STM32F10x_StdPeriph_Driver/src/stm32f10x_fsmc.c ****   * DIRECT, INDIRECT OR CONSEQUENTIAL DAMAGES WITH RESPECT TO ANY CLAIMS ARISING
  15:../STM32F10x_StdPeriph_Lib_V3.5.0/Libraries/STM32F10x_StdPeriph_Driver/src/stm32f10x_fsmc.c ****   * FROM THE CONTENT OF SUCH FIRMWARE AND/OR THE USE MADE BY CUSTOMERS OF THE
  16:../STM32F10x_StdPeriph_Lib_V3.5.0/Libraries/STM32F10x_StdPeriph_Driver/src/stm32f10x_fsmc.c ****   * CODING INFORMATION CONTAINED HEREIN IN CONNECTION WITH THEIR PRODUCTS.
  17:../STM32F10x_StdPeriph_Lib_V3.5.0/Libraries/STM32F10x_StdPeriph_Driver/src/stm32f10x_fsmc.c ****   *
  18:../STM32F10x_StdPeriph_Lib_V3.5.0/Libraries/STM32F10x_StdPeriph_Driver/src/stm32f10x_fsmc.c ****   * <h2><center>&copy; COPYRIGHT 2011 STMicroelectronics</center></h2>
  19:../STM32F10x_StdPeriph_Lib_V3.5.0/Libraries/STM32F10x_StdPeriph_Driver/src/stm32f10x_fsmc.c ****   ******************************************************************************
  20:../STM32F10x_StdPeriph_Lib_V3.5.0/Libraries/STM32F10x_StdPeriph_Driver/src/stm32f10x_fsmc.c ****   */
  21:../STM32F10x_StdPeriph_Lib_V3.5.0/Libraries/STM32F10x_StdPeriph_Driver/src/stm32f10x_fsmc.c **** 
  22:../STM32F10x_StdPeriph_Lib_V3.5.0/Libraries/STM32F10x_StdPeriph_Driver/src/stm32f10x_fsmc.c **** /* Includes ------------------------------------------------------------------*/
  23:../STM32F10x_StdPeriph_Lib_V3.5.0/Libraries/STM32F10x_StdPeriph_Driver/src/stm32f10x_fsmc.c **** #include "stm32f10x_fsmc.h"
  24:../STM32F10x_StdPeriph_Lib_V3.5.0/Libraries/STM32F10x_StdPeriph_Driver/src/stm32f10x_fsmc.c **** #include "stm32f10x_rcc.h"
  25:../STM32F10x_StdPeriph_Lib_V3.5.0/Libraries/STM32F10x_StdPeriph_Driver/src/stm32f10x_fsmc.c **** 
  26:../STM32F10x_StdPeriph_Lib_V3.5.0/Libraries/STM32F10x_StdPeriph_Driver/src/stm32f10x_fsmc.c **** /** @addtogroup STM32F10x_StdPeriph_Driver
  27:../STM32F10x_StdPeriph_Lib_V3.5.0/Libraries/STM32F10x_StdPeriph_Driver/src/stm32f10x_fsmc.c ****   * @{
  28:../STM32F10x_StdPeriph_Lib_V3.5.0/Libraries/STM32F10x_StdPeriph_Driver/src/stm32f10x_fsmc.c ****   */
  29:../STM32F10x_StdPeriph_Lib_V3.5.0/Libraries/STM32F10x_StdPeriph_Driver/src/stm32f10x_fsmc.c **** 
  30:../STM32F10x_StdPeriph_Lib_V3.5.0/Libraries/STM32F10x_StdPeriph_Driver/src/stm32f10x_fsmc.c **** /** @defgroup FSMC 
  31:../STM32F10x_StdPeriph_Lib_V3.5.0/Libraries/STM32F10x_StdPeriph_Driver/src/stm32f10x_fsmc.c ****   * @brief FSMC driver modules
  32:../STM32F10x_StdPeriph_Lib_V3.5.0/Libraries/STM32F10x_StdPeriph_Driver/src/stm32f10x_fsmc.c ****   * @{
  33:../STM32F10x_StdPeriph_Lib_V3.5.0/Libraries/STM32F10x_StdPeriph_Driver/src/stm32f10x_fsmc.c ****   */ 
  34:../STM32F10x_StdPeriph_Lib_V3.5.0/Libraries/STM32F10x_StdPeriph_Driver/src/stm32f10x_fsmc.c **** 
  35:../STM32F10x_StdPeriph_Lib_V3.5.0/Libraries/STM32F10x_StdPeriph_Driver/src/stm32f10x_fsmc.c **** /** @defgroup FSMC_Private_TypesDefinitions
  36:../STM32F10x_StdPeriph_Lib_V3.5.0/Libraries/STM32F10x_StdPeriph_Driver/src/stm32f10x_fsmc.c ****   * @{
  37:../STM32F10x_StdPeriph_Lib_V3.5.0/Libraries/STM32F10x_StdPeriph_Driver/src/stm32f10x_fsmc.c ****   */ 
  38:../STM32F10x_StdPeriph_Lib_V3.5.0/Libraries/STM32F10x_StdPeriph_Driver/src/stm32f10x_fsmc.c **** /**
  39:../STM32F10x_StdPeriph_Lib_V3.5.0/Libraries/STM32F10x_StdPeriph_Driver/src/stm32f10x_fsmc.c ****   * @}
  40:../STM32F10x_StdPeriph_Lib_V3.5.0/Libraries/STM32F10x_StdPeriph_Driver/src/stm32f10x_fsmc.c ****   */
  41:../STM32F10x_StdPeriph_Lib_V3.5.0/Libraries/STM32F10x_StdPeriph_Driver/src/stm32f10x_fsmc.c **** 
  42:../STM32F10x_StdPeriph_Lib_V3.5.0/Libraries/STM32F10x_StdPeriph_Driver/src/stm32f10x_fsmc.c **** /** @defgroup FSMC_Private_Defines
  43:../STM32F10x_StdPeriph_Lib_V3.5.0/Libraries/STM32F10x_StdPeriph_Driver/src/stm32f10x_fsmc.c ****   * @{
  44:../STM32F10x_StdPeriph_Lib_V3.5.0/Libraries/STM32F10x_StdPeriph_Driver/src/stm32f10x_fsmc.c ****   */
  45:../STM32F10x_StdPeriph_Lib_V3.5.0/Libraries/STM32F10x_StdPeriph_Driver/src/stm32f10x_fsmc.c **** 
  46:../STM32F10x_StdPeriph_Lib_V3.5.0/Libraries/STM32F10x_StdPeriph_Driver/src/stm32f10x_fsmc.c **** /* --------------------- FSMC registers bit mask ---------------------------- */
  47:../STM32F10x_StdPeriph_Lib_V3.5.0/Libraries/STM32F10x_StdPeriph_Driver/src/stm32f10x_fsmc.c **** 
  48:../STM32F10x_StdPeriph_Lib_V3.5.0/Libraries/STM32F10x_StdPeriph_Driver/src/stm32f10x_fsmc.c **** /* FSMC BCRx Mask */
  49:../STM32F10x_StdPeriph_Lib_V3.5.0/Libraries/STM32F10x_StdPeriph_Driver/src/stm32f10x_fsmc.c **** #define BCR_MBKEN_Set                       ((uint32_t)0x00000001)
  50:../STM32F10x_StdPeriph_Lib_V3.5.0/Libraries/STM32F10x_StdPeriph_Driver/src/stm32f10x_fsmc.c **** #define BCR_MBKEN_Reset                     ((uint32_t)0x000FFFFE)
  51:../STM32F10x_StdPeriph_Lib_V3.5.0/Libraries/STM32F10x_StdPeriph_Driver/src/stm32f10x_fsmc.c **** #define BCR_FACCEN_Set                      ((uint32_t)0x00000040)
  52:../STM32F10x_StdPeriph_Lib_V3.5.0/Libraries/STM32F10x_StdPeriph_Driver/src/stm32f10x_fsmc.c **** 
  53:../STM32F10x_StdPeriph_Lib_V3.5.0/Libraries/STM32F10x_StdPeriph_Driver/src/stm32f10x_fsmc.c **** /* FSMC PCRx Mask */
  54:../STM32F10x_StdPeriph_Lib_V3.5.0/Libraries/STM32F10x_StdPeriph_Driver/src/stm32f10x_fsmc.c **** #define PCR_PBKEN_Set                       ((uint32_t)0x00000004)
  55:../STM32F10x_StdPeriph_Lib_V3.5.0/Libraries/STM32F10x_StdPeriph_Driver/src/stm32f10x_fsmc.c **** #define PCR_PBKEN_Reset                     ((uint32_t)0x000FFFFB)
  56:../STM32F10x_StdPeriph_Lib_V3.5.0/Libraries/STM32F10x_StdPeriph_Driver/src/stm32f10x_fsmc.c **** #define PCR_ECCEN_Set                       ((uint32_t)0x00000040)
  57:../STM32F10x_StdPeriph_Lib_V3.5.0/Libraries/STM32F10x_StdPeriph_Driver/src/stm32f10x_fsmc.c **** #define PCR_ECCEN_Reset                     ((uint32_t)0x000FFFBF)
  58:../STM32F10x_StdPeriph_Lib_V3.5.0/Libraries/STM32F10x_StdPeriph_Driver/src/stm32f10x_fsmc.c **** #define PCR_MemoryType_NAND                 ((uint32_t)0x00000008)
  59:../STM32F10x_StdPeriph_Lib_V3.5.0/Libraries/STM32F10x_StdPeriph_Driver/src/stm32f10x_fsmc.c **** /**
  60:../STM32F10x_StdPeriph_Lib_V3.5.0/Libraries/STM32F10x_StdPeriph_Driver/src/stm32f10x_fsmc.c ****   * @}
  61:../STM32F10x_StdPeriph_Lib_V3.5.0/Libraries/STM32F10x_StdPeriph_Driver/src/stm32f10x_fsmc.c ****   */
  62:../STM32F10x_StdPeriph_Lib_V3.5.0/Libraries/STM32F10x_StdPeriph_Driver/src/stm32f10x_fsmc.c **** 
  63:../STM32F10x_StdPeriph_Lib_V3.5.0/Libraries/STM32F10x_StdPeriph_Driver/src/stm32f10x_fsmc.c **** /** @defgroup FSMC_Private_Macros
  64:../STM32F10x_StdPeriph_Lib_V3.5.0/Libraries/STM32F10x_StdPeriph_Driver/src/stm32f10x_fsmc.c ****   * @{
  65:../STM32F10x_StdPeriph_Lib_V3.5.0/Libraries/STM32F10x_StdPeriph_Driver/src/stm32f10x_fsmc.c ****   */
  66:../STM32F10x_StdPeriph_Lib_V3.5.0/Libraries/STM32F10x_StdPeriph_Driver/src/stm32f10x_fsmc.c **** 
  67:../STM32F10x_StdPeriph_Lib_V3.5.0/Libraries/STM32F10x_StdPeriph_Driver/src/stm32f10x_fsmc.c **** /**
  68:../STM32F10x_StdPeriph_Lib_V3.5.0/Libraries/STM32F10x_StdPeriph_Driver/src/stm32f10x_fsmc.c ****   * @}
  69:../STM32F10x_StdPeriph_Lib_V3.5.0/Libraries/STM32F10x_StdPeriph_Driver/src/stm32f10x_fsmc.c ****   */
  70:../STM32F10x_StdPeriph_Lib_V3.5.0/Libraries/STM32F10x_StdPeriph_Driver/src/stm32f10x_fsmc.c **** 
  71:../STM32F10x_StdPeriph_Lib_V3.5.0/Libraries/STM32F10x_StdPeriph_Driver/src/stm32f10x_fsmc.c **** /** @defgroup FSMC_Private_Variables
  72:../STM32F10x_StdPeriph_Lib_V3.5.0/Libraries/STM32F10x_StdPeriph_Driver/src/stm32f10x_fsmc.c ****   * @{
  73:../STM32F10x_StdPeriph_Lib_V3.5.0/Libraries/STM32F10x_StdPeriph_Driver/src/stm32f10x_fsmc.c ****   */
  74:../STM32F10x_StdPeriph_Lib_V3.5.0/Libraries/STM32F10x_StdPeriph_Driver/src/stm32f10x_fsmc.c **** 
  75:../STM32F10x_StdPeriph_Lib_V3.5.0/Libraries/STM32F10x_StdPeriph_Driver/src/stm32f10x_fsmc.c **** /**
  76:../STM32F10x_StdPeriph_Lib_V3.5.0/Libraries/STM32F10x_StdPeriph_Driver/src/stm32f10x_fsmc.c ****   * @}
  77:../STM32F10x_StdPeriph_Lib_V3.5.0/Libraries/STM32F10x_StdPeriph_Driver/src/stm32f10x_fsmc.c ****   */
  78:../STM32F10x_StdPeriph_Lib_V3.5.0/Libraries/STM32F10x_StdPeriph_Driver/src/stm32f10x_fsmc.c **** 
  79:../STM32F10x_StdPeriph_Lib_V3.5.0/Libraries/STM32F10x_StdPeriph_Driver/src/stm32f10x_fsmc.c **** /** @defgroup FSMC_Private_FunctionPrototypes
  80:../STM32F10x_StdPeriph_Lib_V3.5.0/Libraries/STM32F10x_StdPeriph_Driver/src/stm32f10x_fsmc.c ****   * @{
  81:../STM32F10x_StdPeriph_Lib_V3.5.0/Libraries/STM32F10x_StdPeriph_Driver/src/stm32f10x_fsmc.c ****   */
  82:../STM32F10x_StdPeriph_Lib_V3.5.0/Libraries/STM32F10x_StdPeriph_Driver/src/stm32f10x_fsmc.c **** 
  83:../STM32F10x_StdPeriph_Lib_V3.5.0/Libraries/STM32F10x_StdPeriph_Driver/src/stm32f10x_fsmc.c **** /**
  84:../STM32F10x_StdPeriph_Lib_V3.5.0/Libraries/STM32F10x_StdPeriph_Driver/src/stm32f10x_fsmc.c ****   * @}
  85:../STM32F10x_StdPeriph_Lib_V3.5.0/Libraries/STM32F10x_StdPeriph_Driver/src/stm32f10x_fsmc.c ****   */
  86:../STM32F10x_StdPeriph_Lib_V3.5.0/Libraries/STM32F10x_StdPeriph_Driver/src/stm32f10x_fsmc.c **** 
  87:../STM32F10x_StdPeriph_Lib_V3.5.0/Libraries/STM32F10x_StdPeriph_Driver/src/stm32f10x_fsmc.c **** /** @defgroup FSMC_Private_Functions
  88:../STM32F10x_StdPeriph_Lib_V3.5.0/Libraries/STM32F10x_StdPeriph_Driver/src/stm32f10x_fsmc.c ****   * @{
  89:../STM32F10x_StdPeriph_Lib_V3.5.0/Libraries/STM32F10x_StdPeriph_Driver/src/stm32f10x_fsmc.c ****   */
  90:../STM32F10x_StdPeriph_Lib_V3.5.0/Libraries/STM32F10x_StdPeriph_Driver/src/stm32f10x_fsmc.c **** 
  91:../STM32F10x_StdPeriph_Lib_V3.5.0/Libraries/STM32F10x_StdPeriph_Driver/src/stm32f10x_fsmc.c **** /**
  92:../STM32F10x_StdPeriph_Lib_V3.5.0/Libraries/STM32F10x_StdPeriph_Driver/src/stm32f10x_fsmc.c ****   * @brief  Deinitializes the FSMC NOR/SRAM Banks registers to their default 
  93:../STM32F10x_StdPeriph_Lib_V3.5.0/Libraries/STM32F10x_StdPeriph_Driver/src/stm32f10x_fsmc.c ****   *         reset values.
  94:../STM32F10x_StdPeriph_Lib_V3.5.0/Libraries/STM32F10x_StdPeriph_Driver/src/stm32f10x_fsmc.c ****   * @param  FSMC_Bank: specifies the FSMC Bank to be used
  95:../STM32F10x_StdPeriph_Lib_V3.5.0/Libraries/STM32F10x_StdPeriph_Driver/src/stm32f10x_fsmc.c ****   *   This parameter can be one of the following values:
  96:../STM32F10x_StdPeriph_Lib_V3.5.0/Libraries/STM32F10x_StdPeriph_Driver/src/stm32f10x_fsmc.c ****   *     @arg FSMC_Bank1_NORSRAM1: FSMC Bank1 NOR/SRAM1  
  97:../STM32F10x_StdPeriph_Lib_V3.5.0/Libraries/STM32F10x_StdPeriph_Driver/src/stm32f10x_fsmc.c ****   *     @arg FSMC_Bank1_NORSRAM2: FSMC Bank1 NOR/SRAM2 
  98:../STM32F10x_StdPeriph_Lib_V3.5.0/Libraries/STM32F10x_StdPeriph_Driver/src/stm32f10x_fsmc.c ****   *     @arg FSMC_Bank1_NORSRAM3: FSMC Bank1 NOR/SRAM3 
  99:../STM32F10x_StdPeriph_Lib_V3.5.0/Libraries/STM32F10x_StdPeriph_Driver/src/stm32f10x_fsmc.c ****   *     @arg FSMC_Bank1_NORSRAM4: FSMC Bank1 NOR/SRAM4 
 100:../STM32F10x_StdPeriph_Lib_V3.5.0/Libraries/STM32F10x_StdPeriph_Driver/src/stm32f10x_fsmc.c ****   * @retval None
 101:../STM32F10x_StdPeriph_Lib_V3.5.0/Libraries/STM32F10x_StdPeriph_Driver/src/stm32f10x_fsmc.c ****   */
 102:../STM32F10x_StdPeriph_Lib_V3.5.0/Libraries/STM32F10x_StdPeriph_Driver/src/stm32f10x_fsmc.c **** void FSMC_NORSRAMDeInit(uint32_t FSMC_Bank)
 103:../STM32F10x_StdPeriph_Lib_V3.5.0/Libraries/STM32F10x_StdPeriph_Driver/src/stm32f10x_fsmc.c **** {
  27              		.loc 1 103 0
  28              		.cfi_startproc
  29              		@ args = 0, pretend = 0, frame = 8
  30              		@ frame_needed = 1, uses_anonymous_args = 0
  31              		@ link register save eliminated.
  32 0000 80B4     		push	{r7}
  33              	.LCFI0:
  34              		.cfi_def_cfa_offset 4
  35              		.cfi_offset 7, -4
  36 0002 83B0     		sub	sp, sp, #12
  37              	.LCFI1:
  38              		.cfi_def_cfa_offset 16
  39 0004 00AF     		add	r7, sp, #0
  40              	.LCFI2:
  41              		.cfi_def_cfa_register 7
  42 0006 7860     		str	r0, [r7, #4]
 104:../STM32F10x_StdPeriph_Lib_V3.5.0/Libraries/STM32F10x_StdPeriph_Driver/src/stm32f10x_fsmc.c ****   /* Check the parameter */
 105:../STM32F10x_StdPeriph_Lib_V3.5.0/Libraries/STM32F10x_StdPeriph_Driver/src/stm32f10x_fsmc.c ****   assert_param(IS_FSMC_NORSRAM_BANK(FSMC_Bank));
 106:../STM32F10x_StdPeriph_Lib_V3.5.0/Libraries/STM32F10x_StdPeriph_Driver/src/stm32f10x_fsmc.c ****   
 107:../STM32F10x_StdPeriph_Lib_V3.5.0/Libraries/STM32F10x_StdPeriph_Driver/src/stm32f10x_fsmc.c ****   /* FSMC_Bank1_NORSRAM1 */
 108:../STM32F10x_StdPeriph_Lib_V3.5.0/Libraries/STM32F10x_StdPeriph_Driver/src/stm32f10x_fsmc.c ****   if(FSMC_Bank == FSMC_Bank1_NORSRAM1)
  43              		.loc 1 108 0
  44 0008 7B68     		ldr	r3, [r7, #4]
  45 000a 002B     		cmp	r3, #0
  46 000c 07D1     		bne	.L2
 109:../STM32F10x_StdPeriph_Lib_V3.5.0/Libraries/STM32F10x_StdPeriph_Driver/src/stm32f10x_fsmc.c ****   {
 110:../STM32F10x_StdPeriph_Lib_V3.5.0/Libraries/STM32F10x_StdPeriph_Driver/src/stm32f10x_fsmc.c ****     FSMC_Bank1->BTCR[FSMC_Bank] = 0x000030DB;    
  47              		.loc 1 110 0
  48 000e 4FF02043 		mov	r3, #-1610612736
  49 0012 7A68     		ldr	r2, [r7, #4]
  50 0014 43F2DB01 		movw	r1, #12507
  51 0018 43F82210 		str	r1, [r3, r2, lsl #2]
  52 001c 06E0     		b	.L3
  53              	.L2:
 111:../STM32F10x_StdPeriph_Lib_V3.5.0/Libraries/STM32F10x_StdPeriph_Driver/src/stm32f10x_fsmc.c ****   }
 112:../STM32F10x_StdPeriph_Lib_V3.5.0/Libraries/STM32F10x_StdPeriph_Driver/src/stm32f10x_fsmc.c ****   /* FSMC_Bank1_NORSRAM2,  FSMC_Bank1_NORSRAM3 or FSMC_Bank1_NORSRAM4 */
 113:../STM32F10x_StdPeriph_Lib_V3.5.0/Libraries/STM32F10x_StdPeriph_Driver/src/stm32f10x_fsmc.c ****   else
 114:../STM32F10x_StdPeriph_Lib_V3.5.0/Libraries/STM32F10x_StdPeriph_Driver/src/stm32f10x_fsmc.c ****   {   
 115:../STM32F10x_StdPeriph_Lib_V3.5.0/Libraries/STM32F10x_StdPeriph_Driver/src/stm32f10x_fsmc.c ****     FSMC_Bank1->BTCR[FSMC_Bank] = 0x000030D2; 
  54              		.loc 1 115 0
  55 001e 4FF02043 		mov	r3, #-1610612736
  56 0022 7A68     		ldr	r2, [r7, #4]
  57 0024 43F2D201 		movw	r1, #12498
  58 0028 43F82210 		str	r1, [r3, r2, lsl #2]
  59              	.L3:
 116:../STM32F10x_StdPeriph_Lib_V3.5.0/Libraries/STM32F10x_StdPeriph_Driver/src/stm32f10x_fsmc.c ****   }
 117:../STM32F10x_StdPeriph_Lib_V3.5.0/Libraries/STM32F10x_StdPeriph_Driver/src/stm32f10x_fsmc.c ****   FSMC_Bank1->BTCR[FSMC_Bank + 1] = 0x0FFFFFFF;
  60              		.loc 1 117 0
  61 002c 4FF02043 		mov	r3, #-1610612736
  62 0030 7A68     		ldr	r2, [r7, #4]
  63 0032 02F10102 		add	r2, r2, #1
  64 0036 6FF07041 		mvn	r1, #-268435456
  65 003a 43F82210 		str	r1, [r3, r2, lsl #2]
 118:../STM32F10x_StdPeriph_Lib_V3.5.0/Libraries/STM32F10x_StdPeriph_Driver/src/stm32f10x_fsmc.c ****   FSMC_Bank1E->BWTR[FSMC_Bank] = 0x0FFFFFFF;  
  66              		.loc 1 118 0
  67 003e 054B     		ldr	r3, .L4
  68 0040 7A68     		ldr	r2, [r7, #4]
  69 0042 6FF07041 		mvn	r1, #-268435456
  70 0046 43F82210 		str	r1, [r3, r2, lsl #2]
 119:../STM32F10x_StdPeriph_Lib_V3.5.0/Libraries/STM32F10x_StdPeriph_Driver/src/stm32f10x_fsmc.c **** }
  71              		.loc 1 119 0
  72 004a 07F10C07 		add	r7, r7, #12
  73 004e BD46     		mov	sp, r7
  74 0050 80BC     		pop	{r7}
  75 0052 7047     		bx	lr
  76              	.L5:
  77              		.align	2
  78              	.L4:
  79 0054 040100A0 		.word	-1610612476
  80              		.cfi_endproc
  81              	.LFE29:
  83              		.section	.text.FSMC_NANDDeInit,"ax",%progbits
  84              		.align	2
  85              		.global	FSMC_NANDDeInit
  86              		.thumb
  87              		.thumb_func
  89              	FSMC_NANDDeInit:
  90              	.LFB30:
 120:../STM32F10x_StdPeriph_Lib_V3.5.0/Libraries/STM32F10x_StdPeriph_Driver/src/stm32f10x_fsmc.c **** 
 121:../STM32F10x_StdPeriph_Lib_V3.5.0/Libraries/STM32F10x_StdPeriph_Driver/src/stm32f10x_fsmc.c **** /**
 122:../STM32F10x_StdPeriph_Lib_V3.5.0/Libraries/STM32F10x_StdPeriph_Driver/src/stm32f10x_fsmc.c ****   * @brief  Deinitializes the FSMC NAND Banks registers to their default reset values.
 123:../STM32F10x_StdPeriph_Lib_V3.5.0/Libraries/STM32F10x_StdPeriph_Driver/src/stm32f10x_fsmc.c ****   * @param  FSMC_Bank: specifies the FSMC Bank to be used
 124:../STM32F10x_StdPeriph_Lib_V3.5.0/Libraries/STM32F10x_StdPeriph_Driver/src/stm32f10x_fsmc.c ****   *   This parameter can be one of the following values:
 125:../STM32F10x_StdPeriph_Lib_V3.5.0/Libraries/STM32F10x_StdPeriph_Driver/src/stm32f10x_fsmc.c ****   *     @arg FSMC_Bank2_NAND: FSMC Bank2 NAND 
 126:../STM32F10x_StdPeriph_Lib_V3.5.0/Libraries/STM32F10x_StdPeriph_Driver/src/stm32f10x_fsmc.c ****   *     @arg FSMC_Bank3_NAND: FSMC Bank3 NAND 
 127:../STM32F10x_StdPeriph_Lib_V3.5.0/Libraries/STM32F10x_StdPeriph_Driver/src/stm32f10x_fsmc.c ****   * @retval None
 128:../STM32F10x_StdPeriph_Lib_V3.5.0/Libraries/STM32F10x_StdPeriph_Driver/src/stm32f10x_fsmc.c ****   */
 129:../STM32F10x_StdPeriph_Lib_V3.5.0/Libraries/STM32F10x_StdPeriph_Driver/src/stm32f10x_fsmc.c **** void FSMC_NANDDeInit(uint32_t FSMC_Bank)
 130:../STM32F10x_StdPeriph_Lib_V3.5.0/Libraries/STM32F10x_StdPeriph_Driver/src/stm32f10x_fsmc.c **** {
  91              		.loc 1 130 0
  92              		.cfi_startproc
  93              		@ args = 0, pretend = 0, frame = 8
  94              		@ frame_needed = 1, uses_anonymous_args = 0
  95              		@ link register save eliminated.
  96 0000 80B4     		push	{r7}
  97              	.LCFI3:
  98              		.cfi_def_cfa_offset 4
  99              		.cfi_offset 7, -4
 100 0002 83B0     		sub	sp, sp, #12
 101              	.LCFI4:
 102              		.cfi_def_cfa_offset 16
 103 0004 00AF     		add	r7, sp, #0
 104              	.LCFI5:
 105              		.cfi_def_cfa_register 7
 106 0006 7860     		str	r0, [r7, #4]
 131:../STM32F10x_StdPeriph_Lib_V3.5.0/Libraries/STM32F10x_StdPeriph_Driver/src/stm32f10x_fsmc.c ****   /* Check the parameter */
 132:../STM32F10x_StdPeriph_Lib_V3.5.0/Libraries/STM32F10x_StdPeriph_Driver/src/stm32f10x_fsmc.c ****   assert_param(IS_FSMC_NAND_BANK(FSMC_Bank));
 133:../STM32F10x_StdPeriph_Lib_V3.5.0/Libraries/STM32F10x_StdPeriph_Driver/src/stm32f10x_fsmc.c ****   
 134:../STM32F10x_StdPeriph_Lib_V3.5.0/Libraries/STM32F10x_StdPeriph_Driver/src/stm32f10x_fsmc.c ****   if(FSMC_Bank == FSMC_Bank2_NAND)
 107              		.loc 1 134 0
 108 0008 7B68     		ldr	r3, [r7, #4]
 109 000a 102B     		cmp	r3, #16
 110 000c 10D1     		bne	.L7
 135:../STM32F10x_StdPeriph_Lib_V3.5.0/Libraries/STM32F10x_StdPeriph_Driver/src/stm32f10x_fsmc.c ****   {
 136:../STM32F10x_StdPeriph_Lib_V3.5.0/Libraries/STM32F10x_StdPeriph_Driver/src/stm32f10x_fsmc.c ****     /* Set the FSMC_Bank2 registers to their reset values */
 137:../STM32F10x_StdPeriph_Lib_V3.5.0/Libraries/STM32F10x_StdPeriph_Driver/src/stm32f10x_fsmc.c ****     FSMC_Bank2->PCR2 = 0x00000018;
 111              		.loc 1 137 0
 112 000e 134B     		ldr	r3, .L9
 113 0010 4FF01802 		mov	r2, #24
 114 0014 1A60     		str	r2, [r3, #0]
 138:../STM32F10x_StdPeriph_Lib_V3.5.0/Libraries/STM32F10x_StdPeriph_Driver/src/stm32f10x_fsmc.c ****     FSMC_Bank2->SR2 = 0x00000040;
 115              		.loc 1 138 0
 116 0016 114B     		ldr	r3, .L9
 117 0018 4FF04002 		mov	r2, #64
 118 001c 5A60     		str	r2, [r3, #4]
 139:../STM32F10x_StdPeriph_Lib_V3.5.0/Libraries/STM32F10x_StdPeriph_Driver/src/stm32f10x_fsmc.c ****     FSMC_Bank2->PMEM2 = 0xFCFCFCFC;
 119              		.loc 1 139 0
 120 001e 0F4B     		ldr	r3, .L9
 121 0020 4FF0FC32 		mov	r2, #-50529028
 122 0024 9A60     		str	r2, [r3, #8]
 140:../STM32F10x_StdPeriph_Lib_V3.5.0/Libraries/STM32F10x_StdPeriph_Driver/src/stm32f10x_fsmc.c ****     FSMC_Bank2->PATT2 = 0xFCFCFCFC;  
 123              		.loc 1 140 0
 124 0026 0D4B     		ldr	r3, .L9
 125 0028 4FF0FC32 		mov	r2, #-50529028
 126 002c DA60     		str	r2, [r3, #12]
 127 002e 0FE0     		b	.L6
 128              	.L7:
 141:../STM32F10x_StdPeriph_Lib_V3.5.0/Libraries/STM32F10x_StdPeriph_Driver/src/stm32f10x_fsmc.c ****   }
 142:../STM32F10x_StdPeriph_Lib_V3.5.0/Libraries/STM32F10x_StdPeriph_Driver/src/stm32f10x_fsmc.c ****   /* FSMC_Bank3_NAND */  
 143:../STM32F10x_StdPeriph_Lib_V3.5.0/Libraries/STM32F10x_StdPeriph_Driver/src/stm32f10x_fsmc.c ****   else
 144:../STM32F10x_StdPeriph_Lib_V3.5.0/Libraries/STM32F10x_StdPeriph_Driver/src/stm32f10x_fsmc.c ****   {
 145:../STM32F10x_StdPeriph_Lib_V3.5.0/Libraries/STM32F10x_StdPeriph_Driver/src/stm32f10x_fsmc.c ****     /* Set the FSMC_Bank3 registers to their reset values */
 146:../STM32F10x_StdPeriph_Lib_V3.5.0/Libraries/STM32F10x_StdPeriph_Driver/src/stm32f10x_fsmc.c ****     FSMC_Bank3->PCR3 = 0x00000018;
 129              		.loc 1 146 0
 130 0030 0B4B     		ldr	r3, .L9+4
 131 0032 4FF01802 		mov	r2, #24
 132 0036 1A60     		str	r2, [r3, #0]
 147:../STM32F10x_StdPeriph_Lib_V3.5.0/Libraries/STM32F10x_StdPeriph_Driver/src/stm32f10x_fsmc.c ****     FSMC_Bank3->SR3 = 0x00000040;
 133              		.loc 1 147 0
 134 0038 094B     		ldr	r3, .L9+4
 135 003a 4FF04002 		mov	r2, #64
 136 003e 5A60     		str	r2, [r3, #4]
 148:../STM32F10x_StdPeriph_Lib_V3.5.0/Libraries/STM32F10x_StdPeriph_Driver/src/stm32f10x_fsmc.c ****     FSMC_Bank3->PMEM3 = 0xFCFCFCFC;
 137              		.loc 1 148 0
 138 0040 074B     		ldr	r3, .L9+4
 139 0042 4FF0FC32 		mov	r2, #-50529028
 140 0046 9A60     		str	r2, [r3, #8]
 149:../STM32F10x_StdPeriph_Lib_V3.5.0/Libraries/STM32F10x_StdPeriph_Driver/src/stm32f10x_fsmc.c ****     FSMC_Bank3->PATT3 = 0xFCFCFCFC; 
 141              		.loc 1 149 0
 142 0048 054B     		ldr	r3, .L9+4
 143 004a 4FF0FC32 		mov	r2, #-50529028
 144 004e DA60     		str	r2, [r3, #12]
 145              	.L6:
 150:../STM32F10x_StdPeriph_Lib_V3.5.0/Libraries/STM32F10x_StdPeriph_Driver/src/stm32f10x_fsmc.c ****   }  
 151:../STM32F10x_StdPeriph_Lib_V3.5.0/Libraries/STM32F10x_StdPeriph_Driver/src/stm32f10x_fsmc.c **** }
 146              		.loc 1 151 0
 147 0050 07F10C07 		add	r7, r7, #12
 148 0054 BD46     		mov	sp, r7
 149 0056 80BC     		pop	{r7}
 150 0058 7047     		bx	lr
 151              	.L10:
 152 005a 00BF     		.align	2
 153              	.L9:
 154 005c 600000A0 		.word	-1610612640
 155 0060 800000A0 		.word	-1610612608
 156              		.cfi_endproc
 157              	.LFE30:
 159              		.section	.text.FSMC_PCCARDDeInit,"ax",%progbits
 160              		.align	2
 161              		.global	FSMC_PCCARDDeInit
 162              		.thumb
 163              		.thumb_func
 165              	FSMC_PCCARDDeInit:
 166              	.LFB31:
 152:../STM32F10x_StdPeriph_Lib_V3.5.0/Libraries/STM32F10x_StdPeriph_Driver/src/stm32f10x_fsmc.c **** 
 153:../STM32F10x_StdPeriph_Lib_V3.5.0/Libraries/STM32F10x_StdPeriph_Driver/src/stm32f10x_fsmc.c **** /**
 154:../STM32F10x_StdPeriph_Lib_V3.5.0/Libraries/STM32F10x_StdPeriph_Driver/src/stm32f10x_fsmc.c ****   * @brief  Deinitializes the FSMC PCCARD Bank registers to their default reset values.
 155:../STM32F10x_StdPeriph_Lib_V3.5.0/Libraries/STM32F10x_StdPeriph_Driver/src/stm32f10x_fsmc.c ****   * @param  None                       
 156:../STM32F10x_StdPeriph_Lib_V3.5.0/Libraries/STM32F10x_StdPeriph_Driver/src/stm32f10x_fsmc.c ****   * @retval None
 157:../STM32F10x_StdPeriph_Lib_V3.5.0/Libraries/STM32F10x_StdPeriph_Driver/src/stm32f10x_fsmc.c ****   */
 158:../STM32F10x_StdPeriph_Lib_V3.5.0/Libraries/STM32F10x_StdPeriph_Driver/src/stm32f10x_fsmc.c **** void FSMC_PCCARDDeInit(void)
 159:../STM32F10x_StdPeriph_Lib_V3.5.0/Libraries/STM32F10x_StdPeriph_Driver/src/stm32f10x_fsmc.c **** {
 167              		.loc 1 159 0
 168              		.cfi_startproc
 169              		@ args = 0, pretend = 0, frame = 0
 170              		@ frame_needed = 1, uses_anonymous_args = 0
 171              		@ link register save eliminated.
 172 0000 80B4     		push	{r7}
 173              	.LCFI6:
 174              		.cfi_def_cfa_offset 4
 175              		.cfi_offset 7, -4
 176 0002 00AF     		add	r7, sp, #0
 177              	.LCFI7:
 178              		.cfi_def_cfa_register 7
 160:../STM32F10x_StdPeriph_Lib_V3.5.0/Libraries/STM32F10x_StdPeriph_Driver/src/stm32f10x_fsmc.c ****   /* Set the FSMC_Bank4 registers to their reset values */
 161:../STM32F10x_StdPeriph_Lib_V3.5.0/Libraries/STM32F10x_StdPeriph_Driver/src/stm32f10x_fsmc.c ****   FSMC_Bank4->PCR4 = 0x00000018; 
 179              		.loc 1 161 0
 180 0004 0B4B     		ldr	r3, .L12
 181 0006 4FF01802 		mov	r2, #24
 182 000a 1A60     		str	r2, [r3, #0]
 162:../STM32F10x_StdPeriph_Lib_V3.5.0/Libraries/STM32F10x_StdPeriph_Driver/src/stm32f10x_fsmc.c ****   FSMC_Bank4->SR4 = 0x00000000;	
 183              		.loc 1 162 0
 184 000c 094B     		ldr	r3, .L12
 185 000e 4FF00002 		mov	r2, #0
 186 0012 5A60     		str	r2, [r3, #4]
 163:../STM32F10x_StdPeriph_Lib_V3.5.0/Libraries/STM32F10x_StdPeriph_Driver/src/stm32f10x_fsmc.c ****   FSMC_Bank4->PMEM4 = 0xFCFCFCFC;
 187              		.loc 1 163 0
 188 0014 074B     		ldr	r3, .L12
 189 0016 4FF0FC32 		mov	r2, #-50529028
 190 001a 9A60     		str	r2, [r3, #8]
 164:../STM32F10x_StdPeriph_Lib_V3.5.0/Libraries/STM32F10x_StdPeriph_Driver/src/stm32f10x_fsmc.c ****   FSMC_Bank4->PATT4 = 0xFCFCFCFC;
 191              		.loc 1 164 0
 192 001c 054B     		ldr	r3, .L12
 193 001e 4FF0FC32 		mov	r2, #-50529028
 194 0022 DA60     		str	r2, [r3, #12]
 165:../STM32F10x_StdPeriph_Lib_V3.5.0/Libraries/STM32F10x_StdPeriph_Driver/src/stm32f10x_fsmc.c ****   FSMC_Bank4->PIO4 = 0xFCFCFCFC;
 195              		.loc 1 165 0
 196 0024 034B     		ldr	r3, .L12
 197 0026 4FF0FC32 		mov	r2, #-50529028
 198 002a 1A61     		str	r2, [r3, #16]
 166:../STM32F10x_StdPeriph_Lib_V3.5.0/Libraries/STM32F10x_StdPeriph_Driver/src/stm32f10x_fsmc.c **** }
 199              		.loc 1 166 0
 200 002c BD46     		mov	sp, r7
 201 002e 80BC     		pop	{r7}
 202 0030 7047     		bx	lr
 203              	.L13:
 204 0032 00BF     		.align	2
 205              	.L12:
 206 0034 A00000A0 		.word	-1610612576
 207              		.cfi_endproc
 208              	.LFE31:
 210              		.section	.text.FSMC_NORSRAMInit,"ax",%progbits
 211              		.align	2
 212              		.global	FSMC_NORSRAMInit
 213              		.thumb
 214              		.thumb_func
 216              	FSMC_NORSRAMInit:
 217              	.LFB32:
 167:../STM32F10x_StdPeriph_Lib_V3.5.0/Libraries/STM32F10x_StdPeriph_Driver/src/stm32f10x_fsmc.c **** 
 168:../STM32F10x_StdPeriph_Lib_V3.5.0/Libraries/STM32F10x_StdPeriph_Driver/src/stm32f10x_fsmc.c **** /**
 169:../STM32F10x_StdPeriph_Lib_V3.5.0/Libraries/STM32F10x_StdPeriph_Driver/src/stm32f10x_fsmc.c ****   * @brief  Initializes the FSMC NOR/SRAM Banks according to the specified
 170:../STM32F10x_StdPeriph_Lib_V3.5.0/Libraries/STM32F10x_StdPeriph_Driver/src/stm32f10x_fsmc.c ****   *         parameters in the FSMC_NORSRAMInitStruct.
 171:../STM32F10x_StdPeriph_Lib_V3.5.0/Libraries/STM32F10x_StdPeriph_Driver/src/stm32f10x_fsmc.c ****   * @param  FSMC_NORSRAMInitStruct : pointer to a FSMC_NORSRAMInitTypeDef
 172:../STM32F10x_StdPeriph_Lib_V3.5.0/Libraries/STM32F10x_StdPeriph_Driver/src/stm32f10x_fsmc.c ****   *         structure that contains the configuration information for 
 173:../STM32F10x_StdPeriph_Lib_V3.5.0/Libraries/STM32F10x_StdPeriph_Driver/src/stm32f10x_fsmc.c ****   *        the FSMC NOR/SRAM specified Banks.                       
 174:../STM32F10x_StdPeriph_Lib_V3.5.0/Libraries/STM32F10x_StdPeriph_Driver/src/stm32f10x_fsmc.c ****   * @retval None
 175:../STM32F10x_StdPeriph_Lib_V3.5.0/Libraries/STM32F10x_StdPeriph_Driver/src/stm32f10x_fsmc.c ****   */
 176:../STM32F10x_StdPeriph_Lib_V3.5.0/Libraries/STM32F10x_StdPeriph_Driver/src/stm32f10x_fsmc.c **** void FSMC_NORSRAMInit(FSMC_NORSRAMInitTypeDef* FSMC_NORSRAMInitStruct)
 177:../STM32F10x_StdPeriph_Lib_V3.5.0/Libraries/STM32F10x_StdPeriph_Driver/src/stm32f10x_fsmc.c **** { 
 218              		.loc 1 177 0
 219              		.cfi_startproc
 220              		@ args = 0, pretend = 0, frame = 8
 221              		@ frame_needed = 1, uses_anonymous_args = 0
 222              		@ link register save eliminated.
 223 0000 80B4     		push	{r7}
 224              	.LCFI8:
 225              		.cfi_def_cfa_offset 4
 226              		.cfi_offset 7, -4
 227 0002 83B0     		sub	sp, sp, #12
 228              	.LCFI9:
 229              		.cfi_def_cfa_offset 16
 230 0004 00AF     		add	r7, sp, #0
 231              	.LCFI10:
 232              		.cfi_def_cfa_register 7
 233 0006 7860     		str	r0, [r7, #4]
 178:../STM32F10x_StdPeriph_Lib_V3.5.0/Libraries/STM32F10x_StdPeriph_Driver/src/stm32f10x_fsmc.c ****   /* Check the parameters */
 179:../STM32F10x_StdPeriph_Lib_V3.5.0/Libraries/STM32F10x_StdPeriph_Driver/src/stm32f10x_fsmc.c ****   assert_param(IS_FSMC_NORSRAM_BANK(FSMC_NORSRAMInitStruct->FSMC_Bank));
 180:../STM32F10x_StdPeriph_Lib_V3.5.0/Libraries/STM32F10x_StdPeriph_Driver/src/stm32f10x_fsmc.c ****   assert_param(IS_FSMC_MUX(FSMC_NORSRAMInitStruct->FSMC_DataAddressMux));
 181:../STM32F10x_StdPeriph_Lib_V3.5.0/Libraries/STM32F10x_StdPeriph_Driver/src/stm32f10x_fsmc.c ****   assert_param(IS_FSMC_MEMORY(FSMC_NORSRAMInitStruct->FSMC_MemoryType));
 182:../STM32F10x_StdPeriph_Lib_V3.5.0/Libraries/STM32F10x_StdPeriph_Driver/src/stm32f10x_fsmc.c ****   assert_param(IS_FSMC_MEMORY_WIDTH(FSMC_NORSRAMInitStruct->FSMC_MemoryDataWidth));
 183:../STM32F10x_StdPeriph_Lib_V3.5.0/Libraries/STM32F10x_StdPeriph_Driver/src/stm32f10x_fsmc.c ****   assert_param(IS_FSMC_BURSTMODE(FSMC_NORSRAMInitStruct->FSMC_BurstAccessMode));
 184:../STM32F10x_StdPeriph_Lib_V3.5.0/Libraries/STM32F10x_StdPeriph_Driver/src/stm32f10x_fsmc.c ****   assert_param(IS_FSMC_ASYNWAIT(FSMC_NORSRAMInitStruct->FSMC_AsynchronousWait));
 185:../STM32F10x_StdPeriph_Lib_V3.5.0/Libraries/STM32F10x_StdPeriph_Driver/src/stm32f10x_fsmc.c ****   assert_param(IS_FSMC_WAIT_POLARITY(FSMC_NORSRAMInitStruct->FSMC_WaitSignalPolarity));
 186:../STM32F10x_StdPeriph_Lib_V3.5.0/Libraries/STM32F10x_StdPeriph_Driver/src/stm32f10x_fsmc.c ****   assert_param(IS_FSMC_WRAP_MODE(FSMC_NORSRAMInitStruct->FSMC_WrapMode));
 187:../STM32F10x_StdPeriph_Lib_V3.5.0/Libraries/STM32F10x_StdPeriph_Driver/src/stm32f10x_fsmc.c ****   assert_param(IS_FSMC_WAIT_SIGNAL_ACTIVE(FSMC_NORSRAMInitStruct->FSMC_WaitSignalActive));
 188:../STM32F10x_StdPeriph_Lib_V3.5.0/Libraries/STM32F10x_StdPeriph_Driver/src/stm32f10x_fsmc.c ****   assert_param(IS_FSMC_WRITE_OPERATION(FSMC_NORSRAMInitStruct->FSMC_WriteOperation));
 189:../STM32F10x_StdPeriph_Lib_V3.5.0/Libraries/STM32F10x_StdPeriph_Driver/src/stm32f10x_fsmc.c ****   assert_param(IS_FSMC_WAITE_SIGNAL(FSMC_NORSRAMInitStruct->FSMC_WaitSignal));
 190:../STM32F10x_StdPeriph_Lib_V3.5.0/Libraries/STM32F10x_StdPeriph_Driver/src/stm32f10x_fsmc.c ****   assert_param(IS_FSMC_EXTENDED_MODE(FSMC_NORSRAMInitStruct->FSMC_ExtendedMode));
 191:../STM32F10x_StdPeriph_Lib_V3.5.0/Libraries/STM32F10x_StdPeriph_Driver/src/stm32f10x_fsmc.c ****   assert_param(IS_FSMC_WRITE_BURST(FSMC_NORSRAMInitStruct->FSMC_WriteBurst));  
 192:../STM32F10x_StdPeriph_Lib_V3.5.0/Libraries/STM32F10x_StdPeriph_Driver/src/stm32f10x_fsmc.c ****   assert_param(IS_FSMC_ADDRESS_SETUP_TIME(FSMC_NORSRAMInitStruct->FSMC_ReadWriteTimingStruct->FSMC_
 193:../STM32F10x_StdPeriph_Lib_V3.5.0/Libraries/STM32F10x_StdPeriph_Driver/src/stm32f10x_fsmc.c ****   assert_param(IS_FSMC_ADDRESS_HOLD_TIME(FSMC_NORSRAMInitStruct->FSMC_ReadWriteTimingStruct->FSMC_A
 194:../STM32F10x_StdPeriph_Lib_V3.5.0/Libraries/STM32F10x_StdPeriph_Driver/src/stm32f10x_fsmc.c ****   assert_param(IS_FSMC_DATASETUP_TIME(FSMC_NORSRAMInitStruct->FSMC_ReadWriteTimingStruct->FSMC_Data
 195:../STM32F10x_StdPeriph_Lib_V3.5.0/Libraries/STM32F10x_StdPeriph_Driver/src/stm32f10x_fsmc.c ****   assert_param(IS_FSMC_TURNAROUND_TIME(FSMC_NORSRAMInitStruct->FSMC_ReadWriteTimingStruct->FSMC_Bus
 196:../STM32F10x_StdPeriph_Lib_V3.5.0/Libraries/STM32F10x_StdPeriph_Driver/src/stm32f10x_fsmc.c ****   assert_param(IS_FSMC_CLK_DIV(FSMC_NORSRAMInitStruct->FSMC_ReadWriteTimingStruct->FSMC_CLKDivision
 197:../STM32F10x_StdPeriph_Lib_V3.5.0/Libraries/STM32F10x_StdPeriph_Driver/src/stm32f10x_fsmc.c ****   assert_param(IS_FSMC_DATA_LATENCY(FSMC_NORSRAMInitStruct->FSMC_ReadWriteTimingStruct->FSMC_DataLa
 198:../STM32F10x_StdPeriph_Lib_V3.5.0/Libraries/STM32F10x_StdPeriph_Driver/src/stm32f10x_fsmc.c ****   assert_param(IS_FSMC_ACCESS_MODE(FSMC_NORSRAMInitStruct->FSMC_ReadWriteTimingStruct->FSMC_AccessM
 199:../STM32F10x_StdPeriph_Lib_V3.5.0/Libraries/STM32F10x_StdPeriph_Driver/src/stm32f10x_fsmc.c ****   
 200:../STM32F10x_StdPeriph_Lib_V3.5.0/Libraries/STM32F10x_StdPeriph_Driver/src/stm32f10x_fsmc.c ****   /* Bank1 NOR/SRAM control register configuration */ 
 201:../STM32F10x_StdPeriph_Lib_V3.5.0/Libraries/STM32F10x_StdPeriph_Driver/src/stm32f10x_fsmc.c ****   FSMC_Bank1->BTCR[FSMC_NORSRAMInitStruct->FSMC_Bank] = 
 234              		.loc 1 201 0
 235 0008 4FF02043 		mov	r3, #-1610612736
 236 000c 7A68     		ldr	r2, [r7, #4]
 237 000e 1268     		ldr	r2, [r2, #0]
 202:../STM32F10x_StdPeriph_Lib_V3.5.0/Libraries/STM32F10x_StdPeriph_Driver/src/stm32f10x_fsmc.c ****             (uint32_t)FSMC_NORSRAMInitStruct->FSMC_DataAddressMux |
 238              		.loc 1 202 0
 239 0010 7968     		ldr	r1, [r7, #4]
 240 0012 4868     		ldr	r0, [r1, #4]
 203:../STM32F10x_StdPeriph_Lib_V3.5.0/Libraries/STM32F10x_StdPeriph_Driver/src/stm32f10x_fsmc.c ****             FSMC_NORSRAMInitStruct->FSMC_MemoryType |
 241              		.loc 1 203 0
 242 0014 7968     		ldr	r1, [r7, #4]
 243 0016 8968     		ldr	r1, [r1, #8]
 202:../STM32F10x_StdPeriph_Lib_V3.5.0/Libraries/STM32F10x_StdPeriph_Driver/src/stm32f10x_fsmc.c ****             (uint32_t)FSMC_NORSRAMInitStruct->FSMC_DataAddressMux |
 244              		.loc 1 202 0
 245 0018 0843     		orrs	r0, r0, r1
 204:../STM32F10x_StdPeriph_Lib_V3.5.0/Libraries/STM32F10x_StdPeriph_Driver/src/stm32f10x_fsmc.c ****             FSMC_NORSRAMInitStruct->FSMC_MemoryDataWidth |
 246              		.loc 1 204 0
 247 001a 7968     		ldr	r1, [r7, #4]
 248 001c C968     		ldr	r1, [r1, #12]
 203:../STM32F10x_StdPeriph_Lib_V3.5.0/Libraries/STM32F10x_StdPeriph_Driver/src/stm32f10x_fsmc.c ****             FSMC_NORSRAMInitStruct->FSMC_MemoryType |
 249              		.loc 1 203 0
 250 001e 0843     		orrs	r0, r0, r1
 205:../STM32F10x_StdPeriph_Lib_V3.5.0/Libraries/STM32F10x_StdPeriph_Driver/src/stm32f10x_fsmc.c ****             FSMC_NORSRAMInitStruct->FSMC_BurstAccessMode |
 251              		.loc 1 205 0
 252 0020 7968     		ldr	r1, [r7, #4]
 253 0022 0969     		ldr	r1, [r1, #16]
 204:../STM32F10x_StdPeriph_Lib_V3.5.0/Libraries/STM32F10x_StdPeriph_Driver/src/stm32f10x_fsmc.c ****             FSMC_NORSRAMInitStruct->FSMC_MemoryDataWidth |
 254              		.loc 1 204 0
 255 0024 0843     		orrs	r0, r0, r1
 206:../STM32F10x_StdPeriph_Lib_V3.5.0/Libraries/STM32F10x_StdPeriph_Driver/src/stm32f10x_fsmc.c ****             FSMC_NORSRAMInitStruct->FSMC_AsynchronousWait |
 256              		.loc 1 206 0
 257 0026 7968     		ldr	r1, [r7, #4]
 258 0028 4969     		ldr	r1, [r1, #20]
 205:../STM32F10x_StdPeriph_Lib_V3.5.0/Libraries/STM32F10x_StdPeriph_Driver/src/stm32f10x_fsmc.c ****             FSMC_NORSRAMInitStruct->FSMC_BurstAccessMode |
 259              		.loc 1 205 0
 260 002a 0843     		orrs	r0, r0, r1
 207:../STM32F10x_StdPeriph_Lib_V3.5.0/Libraries/STM32F10x_StdPeriph_Driver/src/stm32f10x_fsmc.c ****             FSMC_NORSRAMInitStruct->FSMC_WaitSignalPolarity |
 261              		.loc 1 207 0
 262 002c 7968     		ldr	r1, [r7, #4]
 263 002e 8969     		ldr	r1, [r1, #24]
 206:../STM32F10x_StdPeriph_Lib_V3.5.0/Libraries/STM32F10x_StdPeriph_Driver/src/stm32f10x_fsmc.c ****             FSMC_NORSRAMInitStruct->FSMC_AsynchronousWait |
 264              		.loc 1 206 0
 265 0030 0843     		orrs	r0, r0, r1
 208:../STM32F10x_StdPeriph_Lib_V3.5.0/Libraries/STM32F10x_StdPeriph_Driver/src/stm32f10x_fsmc.c ****             FSMC_NORSRAMInitStruct->FSMC_WrapMode |
 266              		.loc 1 208 0
 267 0032 7968     		ldr	r1, [r7, #4]
 268 0034 C969     		ldr	r1, [r1, #28]
 207:../STM32F10x_StdPeriph_Lib_V3.5.0/Libraries/STM32F10x_StdPeriph_Driver/src/stm32f10x_fsmc.c ****             FSMC_NORSRAMInitStruct->FSMC_WaitSignalPolarity |
 269              		.loc 1 207 0
 270 0036 0843     		orrs	r0, r0, r1
 209:../STM32F10x_StdPeriph_Lib_V3.5.0/Libraries/STM32F10x_StdPeriph_Driver/src/stm32f10x_fsmc.c ****             FSMC_NORSRAMInitStruct->FSMC_WaitSignalActive |
 271              		.loc 1 209 0
 272 0038 7968     		ldr	r1, [r7, #4]
 273 003a 096A     		ldr	r1, [r1, #32]
 208:../STM32F10x_StdPeriph_Lib_V3.5.0/Libraries/STM32F10x_StdPeriph_Driver/src/stm32f10x_fsmc.c ****             FSMC_NORSRAMInitStruct->FSMC_WrapMode |
 274              		.loc 1 208 0
 275 003c 0843     		orrs	r0, r0, r1
 210:../STM32F10x_StdPeriph_Lib_V3.5.0/Libraries/STM32F10x_StdPeriph_Driver/src/stm32f10x_fsmc.c ****             FSMC_NORSRAMInitStruct->FSMC_WriteOperation |
 276              		.loc 1 210 0
 277 003e 7968     		ldr	r1, [r7, #4]
 278 0040 496A     		ldr	r1, [r1, #36]
 209:../STM32F10x_StdPeriph_Lib_V3.5.0/Libraries/STM32F10x_StdPeriph_Driver/src/stm32f10x_fsmc.c ****             FSMC_NORSRAMInitStruct->FSMC_WaitSignalActive |
 279              		.loc 1 209 0
 280 0042 0843     		orrs	r0, r0, r1
 211:../STM32F10x_StdPeriph_Lib_V3.5.0/Libraries/STM32F10x_StdPeriph_Driver/src/stm32f10x_fsmc.c ****             FSMC_NORSRAMInitStruct->FSMC_WaitSignal |
 281              		.loc 1 211 0
 282 0044 7968     		ldr	r1, [r7, #4]
 283 0046 896A     		ldr	r1, [r1, #40]
 210:../STM32F10x_StdPeriph_Lib_V3.5.0/Libraries/STM32F10x_StdPeriph_Driver/src/stm32f10x_fsmc.c ****             FSMC_NORSRAMInitStruct->FSMC_WriteOperation |
 284              		.loc 1 210 0
 285 0048 0843     		orrs	r0, r0, r1
 212:../STM32F10x_StdPeriph_Lib_V3.5.0/Libraries/STM32F10x_StdPeriph_Driver/src/stm32f10x_fsmc.c ****             FSMC_NORSRAMInitStruct->FSMC_ExtendedMode |
 286              		.loc 1 212 0
 287 004a 7968     		ldr	r1, [r7, #4]
 288 004c C96A     		ldr	r1, [r1, #44]
 211:../STM32F10x_StdPeriph_Lib_V3.5.0/Libraries/STM32F10x_StdPeriph_Driver/src/stm32f10x_fsmc.c ****             FSMC_NORSRAMInitStruct->FSMC_WaitSignal |
 289              		.loc 1 211 0
 290 004e 0843     		orrs	r0, r0, r1
 213:../STM32F10x_StdPeriph_Lib_V3.5.0/Libraries/STM32F10x_StdPeriph_Driver/src/stm32f10x_fsmc.c ****             FSMC_NORSRAMInitStruct->FSMC_WriteBurst;
 291              		.loc 1 213 0
 292 0050 7968     		ldr	r1, [r7, #4]
 293 0052 096B     		ldr	r1, [r1, #48]
 212:../STM32F10x_StdPeriph_Lib_V3.5.0/Libraries/STM32F10x_StdPeriph_Driver/src/stm32f10x_fsmc.c ****             FSMC_NORSRAMInitStruct->FSMC_ExtendedMode |
 294              		.loc 1 212 0
 295 0054 0143     		orrs	r1, r1, r0
 201:../STM32F10x_StdPeriph_Lib_V3.5.0/Libraries/STM32F10x_StdPeriph_Driver/src/stm32f10x_fsmc.c ****   FSMC_Bank1->BTCR[FSMC_NORSRAMInitStruct->FSMC_Bank] = 
 296              		.loc 1 201 0
 297 0056 43F82210 		str	r1, [r3, r2, lsl #2]
 214:../STM32F10x_StdPeriph_Lib_V3.5.0/Libraries/STM32F10x_StdPeriph_Driver/src/stm32f10x_fsmc.c **** 
 215:../STM32F10x_StdPeriph_Lib_V3.5.0/Libraries/STM32F10x_StdPeriph_Driver/src/stm32f10x_fsmc.c ****   if(FSMC_NORSRAMInitStruct->FSMC_MemoryType == FSMC_MemoryType_NOR)
 298              		.loc 1 215 0
 299 005a 7B68     		ldr	r3, [r7, #4]
 300 005c 9B68     		ldr	r3, [r3, #8]
 301 005e 082B     		cmp	r3, #8
 302 0060 0DD1     		bne	.L15
 216:../STM32F10x_StdPeriph_Lib_V3.5.0/Libraries/STM32F10x_StdPeriph_Driver/src/stm32f10x_fsmc.c ****   {
 217:../STM32F10x_StdPeriph_Lib_V3.5.0/Libraries/STM32F10x_StdPeriph_Driver/src/stm32f10x_fsmc.c ****     FSMC_Bank1->BTCR[FSMC_NORSRAMInitStruct->FSMC_Bank] |= (uint32_t)BCR_FACCEN_Set;
 303              		.loc 1 217 0
 304 0062 4FF02043 		mov	r3, #-1610612736
 305 0066 7A68     		ldr	r2, [r7, #4]
 306 0068 1268     		ldr	r2, [r2, #0]
 307 006a 4FF02041 		mov	r1, #-1610612736
 308 006e 7868     		ldr	r0, [r7, #4]
 309 0070 0068     		ldr	r0, [r0, #0]
 310 0072 51F82010 		ldr	r1, [r1, r0, lsl #2]
 311 0076 41F04001 		orr	r1, r1, #64
 312 007a 43F82210 		str	r1, [r3, r2, lsl #2]
 313              	.L15:
 218:../STM32F10x_StdPeriph_Lib_V3.5.0/Libraries/STM32F10x_StdPeriph_Driver/src/stm32f10x_fsmc.c ****   }
 219:../STM32F10x_StdPeriph_Lib_V3.5.0/Libraries/STM32F10x_StdPeriph_Driver/src/stm32f10x_fsmc.c ****   
 220:../STM32F10x_StdPeriph_Lib_V3.5.0/Libraries/STM32F10x_StdPeriph_Driver/src/stm32f10x_fsmc.c ****   /* Bank1 NOR/SRAM timing register configuration */
 221:../STM32F10x_StdPeriph_Lib_V3.5.0/Libraries/STM32F10x_StdPeriph_Driver/src/stm32f10x_fsmc.c ****   FSMC_Bank1->BTCR[FSMC_NORSRAMInitStruct->FSMC_Bank+1] = 
 314              		.loc 1 221 0
 315 007e 4FF02043 		mov	r3, #-1610612736
 316 0082 7A68     		ldr	r2, [r7, #4]
 317 0084 1268     		ldr	r2, [r2, #0]
 318 0086 02F10102 		add	r2, r2, #1
 222:../STM32F10x_StdPeriph_Lib_V3.5.0/Libraries/STM32F10x_StdPeriph_Driver/src/stm32f10x_fsmc.c ****             (uint32_t)FSMC_NORSRAMInitStruct->FSMC_ReadWriteTimingStruct->FSMC_AddressSetupTime |
 319              		.loc 1 222 0
 320 008a 7968     		ldr	r1, [r7, #4]
 321 008c 496B     		ldr	r1, [r1, #52]
 322 008e 0868     		ldr	r0, [r1, #0]
 223:../STM32F10x_StdPeriph_Lib_V3.5.0/Libraries/STM32F10x_StdPeriph_Driver/src/stm32f10x_fsmc.c ****             (FSMC_NORSRAMInitStruct->FSMC_ReadWriteTimingStruct->FSMC_AddressHoldTime << 4) |
 323              		.loc 1 223 0
 324 0090 7968     		ldr	r1, [r7, #4]
 325 0092 496B     		ldr	r1, [r1, #52]
 326 0094 4968     		ldr	r1, [r1, #4]
 327 0096 4FEA0111 		lsl	r1, r1, #4
 222:../STM32F10x_StdPeriph_Lib_V3.5.0/Libraries/STM32F10x_StdPeriph_Driver/src/stm32f10x_fsmc.c ****             (uint32_t)FSMC_NORSRAMInitStruct->FSMC_ReadWriteTimingStruct->FSMC_AddressSetupTime |
 328              		.loc 1 222 0
 329 009a 0843     		orrs	r0, r0, r1
 224:../STM32F10x_StdPeriph_Lib_V3.5.0/Libraries/STM32F10x_StdPeriph_Driver/src/stm32f10x_fsmc.c ****             (FSMC_NORSRAMInitStruct->FSMC_ReadWriteTimingStruct->FSMC_DataSetupTime << 8) |
 330              		.loc 1 224 0
 331 009c 7968     		ldr	r1, [r7, #4]
 332 009e 496B     		ldr	r1, [r1, #52]
 333 00a0 8968     		ldr	r1, [r1, #8]
 334 00a2 4FEA0121 		lsl	r1, r1, #8
 223:../STM32F10x_StdPeriph_Lib_V3.5.0/Libraries/STM32F10x_StdPeriph_Driver/src/stm32f10x_fsmc.c ****             (FSMC_NORSRAMInitStruct->FSMC_ReadWriteTimingStruct->FSMC_AddressHoldTime << 4) |
 335              		.loc 1 223 0
 336 00a6 0843     		orrs	r0, r0, r1
 225:../STM32F10x_StdPeriph_Lib_V3.5.0/Libraries/STM32F10x_StdPeriph_Driver/src/stm32f10x_fsmc.c ****             (FSMC_NORSRAMInitStruct->FSMC_ReadWriteTimingStruct->FSMC_BusTurnAroundDuration << 16) 
 337              		.loc 1 225 0
 338 00a8 7968     		ldr	r1, [r7, #4]
 339 00aa 496B     		ldr	r1, [r1, #52]
 340 00ac C968     		ldr	r1, [r1, #12]
 341 00ae 4FEA0141 		lsl	r1, r1, #16
 224:../STM32F10x_StdPeriph_Lib_V3.5.0/Libraries/STM32F10x_StdPeriph_Driver/src/stm32f10x_fsmc.c ****             (FSMC_NORSRAMInitStruct->FSMC_ReadWriteTimingStruct->FSMC_DataSetupTime << 8) |
 342              		.loc 1 224 0
 343 00b2 0843     		orrs	r0, r0, r1
 226:../STM32F10x_StdPeriph_Lib_V3.5.0/Libraries/STM32F10x_StdPeriph_Driver/src/stm32f10x_fsmc.c ****             (FSMC_NORSRAMInitStruct->FSMC_ReadWriteTimingStruct->FSMC_CLKDivision << 20) |
 344              		.loc 1 226 0
 345 00b4 7968     		ldr	r1, [r7, #4]
 346 00b6 496B     		ldr	r1, [r1, #52]
 347 00b8 0969     		ldr	r1, [r1, #16]
 348 00ba 4FEA0151 		lsl	r1, r1, #20
 225:../STM32F10x_StdPeriph_Lib_V3.5.0/Libraries/STM32F10x_StdPeriph_Driver/src/stm32f10x_fsmc.c ****             (FSMC_NORSRAMInitStruct->FSMC_ReadWriteTimingStruct->FSMC_BusTurnAroundDuration << 16) 
 349              		.loc 1 225 0
 350 00be 0843     		orrs	r0, r0, r1
 227:../STM32F10x_StdPeriph_Lib_V3.5.0/Libraries/STM32F10x_StdPeriph_Driver/src/stm32f10x_fsmc.c ****             (FSMC_NORSRAMInitStruct->FSMC_ReadWriteTimingStruct->FSMC_DataLatency << 24) |
 351              		.loc 1 227 0
 352 00c0 7968     		ldr	r1, [r7, #4]
 353 00c2 496B     		ldr	r1, [r1, #52]
 354 00c4 4969     		ldr	r1, [r1, #20]
 355 00c6 4FEA0161 		lsl	r1, r1, #24
 226:../STM32F10x_StdPeriph_Lib_V3.5.0/Libraries/STM32F10x_StdPeriph_Driver/src/stm32f10x_fsmc.c ****             (FSMC_NORSRAMInitStruct->FSMC_ReadWriteTimingStruct->FSMC_CLKDivision << 20) |
 356              		.loc 1 226 0
 357 00ca 0843     		orrs	r0, r0, r1
 228:../STM32F10x_StdPeriph_Lib_V3.5.0/Libraries/STM32F10x_StdPeriph_Driver/src/stm32f10x_fsmc.c ****              FSMC_NORSRAMInitStruct->FSMC_ReadWriteTimingStruct->FSMC_AccessMode;
 358              		.loc 1 228 0
 359 00cc 7968     		ldr	r1, [r7, #4]
 360 00ce 496B     		ldr	r1, [r1, #52]
 361 00d0 8969     		ldr	r1, [r1, #24]
 227:../STM32F10x_StdPeriph_Lib_V3.5.0/Libraries/STM32F10x_StdPeriph_Driver/src/stm32f10x_fsmc.c ****             (FSMC_NORSRAMInitStruct->FSMC_ReadWriteTimingStruct->FSMC_DataLatency << 24) |
 362              		.loc 1 227 0
 363 00d2 0143     		orrs	r1, r1, r0
 221:../STM32F10x_StdPeriph_Lib_V3.5.0/Libraries/STM32F10x_StdPeriph_Driver/src/stm32f10x_fsmc.c ****   FSMC_Bank1->BTCR[FSMC_NORSRAMInitStruct->FSMC_Bank+1] = 
 364              		.loc 1 221 0
 365 00d4 43F82210 		str	r1, [r3, r2, lsl #2]
 229:../STM32F10x_StdPeriph_Lib_V3.5.0/Libraries/STM32F10x_StdPeriph_Driver/src/stm32f10x_fsmc.c ****             
 230:../STM32F10x_StdPeriph_Lib_V3.5.0/Libraries/STM32F10x_StdPeriph_Driver/src/stm32f10x_fsmc.c ****     
 231:../STM32F10x_StdPeriph_Lib_V3.5.0/Libraries/STM32F10x_StdPeriph_Driver/src/stm32f10x_fsmc.c ****   /* Bank1 NOR/SRAM timing register for write configuration, if extended mode is used */
 232:../STM32F10x_StdPeriph_Lib_V3.5.0/Libraries/STM32F10x_StdPeriph_Driver/src/stm32f10x_fsmc.c ****   if(FSMC_NORSRAMInitStruct->FSMC_ExtendedMode == FSMC_ExtendedMode_Enable)
 366              		.loc 1 232 0
 367 00d8 7B68     		ldr	r3, [r7, #4]
 368 00da DB6A     		ldr	r3, [r3, #44]
 369 00dc B3F5804F 		cmp	r3, #16384
 370 00e0 24D1     		bne	.L16
 233:../STM32F10x_StdPeriph_Lib_V3.5.0/Libraries/STM32F10x_StdPeriph_Driver/src/stm32f10x_fsmc.c ****   {
 234:../STM32F10x_StdPeriph_Lib_V3.5.0/Libraries/STM32F10x_StdPeriph_Driver/src/stm32f10x_fsmc.c ****     assert_param(IS_FSMC_ADDRESS_SETUP_TIME(FSMC_NORSRAMInitStruct->FSMC_WriteTimingStruct->FSMC_Ad
 235:../STM32F10x_StdPeriph_Lib_V3.5.0/Libraries/STM32F10x_StdPeriph_Driver/src/stm32f10x_fsmc.c ****     assert_param(IS_FSMC_ADDRESS_HOLD_TIME(FSMC_NORSRAMInitStruct->FSMC_WriteTimingStruct->FSMC_Add
 236:../STM32F10x_StdPeriph_Lib_V3.5.0/Libraries/STM32F10x_StdPeriph_Driver/src/stm32f10x_fsmc.c ****     assert_param(IS_FSMC_DATASETUP_TIME(FSMC_NORSRAMInitStruct->FSMC_WriteTimingStruct->FSMC_DataSe
 237:../STM32F10x_StdPeriph_Lib_V3.5.0/Libraries/STM32F10x_StdPeriph_Driver/src/stm32f10x_fsmc.c ****     assert_param(IS_FSMC_CLK_DIV(FSMC_NORSRAMInitStruct->FSMC_WriteTimingStruct->FSMC_CLKDivision))
 238:../STM32F10x_StdPeriph_Lib_V3.5.0/Libraries/STM32F10x_StdPeriph_Driver/src/stm32f10x_fsmc.c ****     assert_param(IS_FSMC_DATA_LATENCY(FSMC_NORSRAMInitStruct->FSMC_WriteTimingStruct->FSMC_DataLate
 239:../STM32F10x_StdPeriph_Lib_V3.5.0/Libraries/STM32F10x_StdPeriph_Driver/src/stm32f10x_fsmc.c ****     assert_param(IS_FSMC_ACCESS_MODE(FSMC_NORSRAMInitStruct->FSMC_WriteTimingStruct->FSMC_AccessMod
 240:../STM32F10x_StdPeriph_Lib_V3.5.0/Libraries/STM32F10x_StdPeriph_Driver/src/stm32f10x_fsmc.c ****     FSMC_Bank1E->BWTR[FSMC_NORSRAMInitStruct->FSMC_Bank] = 
 371              		.loc 1 240 0
 372 00e2 184B     		ldr	r3, .L18
 373 00e4 7A68     		ldr	r2, [r7, #4]
 374 00e6 1268     		ldr	r2, [r2, #0]
 241:../STM32F10x_StdPeriph_Lib_V3.5.0/Libraries/STM32F10x_StdPeriph_Driver/src/stm32f10x_fsmc.c ****               (uint32_t)FSMC_NORSRAMInitStruct->FSMC_WriteTimingStruct->FSMC_AddressSetupTime |
 375              		.loc 1 241 0
 376 00e8 7968     		ldr	r1, [r7, #4]
 377 00ea 896B     		ldr	r1, [r1, #56]
 378 00ec 0868     		ldr	r0, [r1, #0]
 242:../STM32F10x_StdPeriph_Lib_V3.5.0/Libraries/STM32F10x_StdPeriph_Driver/src/stm32f10x_fsmc.c ****               (FSMC_NORSRAMInitStruct->FSMC_WriteTimingStruct->FSMC_AddressHoldTime << 4 )|
 379              		.loc 1 242 0
 380 00ee 7968     		ldr	r1, [r7, #4]
 381 00f0 896B     		ldr	r1, [r1, #56]
 382 00f2 4968     		ldr	r1, [r1, #4]
 383 00f4 4FEA0111 		lsl	r1, r1, #4
 241:../STM32F10x_StdPeriph_Lib_V3.5.0/Libraries/STM32F10x_StdPeriph_Driver/src/stm32f10x_fsmc.c ****               (uint32_t)FSMC_NORSRAMInitStruct->FSMC_WriteTimingStruct->FSMC_AddressSetupTime |
 384              		.loc 1 241 0
 385 00f8 0843     		orrs	r0, r0, r1
 243:../STM32F10x_StdPeriph_Lib_V3.5.0/Libraries/STM32F10x_StdPeriph_Driver/src/stm32f10x_fsmc.c ****               (FSMC_NORSRAMInitStruct->FSMC_WriteTimingStruct->FSMC_DataSetupTime << 8) |
 386              		.loc 1 243 0
 387 00fa 7968     		ldr	r1, [r7, #4]
 388 00fc 896B     		ldr	r1, [r1, #56]
 389 00fe 8968     		ldr	r1, [r1, #8]
 390 0100 4FEA0121 		lsl	r1, r1, #8
 242:../STM32F10x_StdPeriph_Lib_V3.5.0/Libraries/STM32F10x_StdPeriph_Driver/src/stm32f10x_fsmc.c ****               (FSMC_NORSRAMInitStruct->FSMC_WriteTimingStruct->FSMC_AddressHoldTime << 4 )|
 391              		.loc 1 242 0
 392 0104 0843     		orrs	r0, r0, r1
 244:../STM32F10x_StdPeriph_Lib_V3.5.0/Libraries/STM32F10x_StdPeriph_Driver/src/stm32f10x_fsmc.c ****               (FSMC_NORSRAMInitStruct->FSMC_WriteTimingStruct->FSMC_CLKDivision << 20) |
 393              		.loc 1 244 0
 394 0106 7968     		ldr	r1, [r7, #4]
 395 0108 896B     		ldr	r1, [r1, #56]
 396 010a 0969     		ldr	r1, [r1, #16]
 397 010c 4FEA0151 		lsl	r1, r1, #20
 243:../STM32F10x_StdPeriph_Lib_V3.5.0/Libraries/STM32F10x_StdPeriph_Driver/src/stm32f10x_fsmc.c ****               (FSMC_NORSRAMInitStruct->FSMC_WriteTimingStruct->FSMC_DataSetupTime << 8) |
 398              		.loc 1 243 0
 399 0110 0843     		orrs	r0, r0, r1
 245:../STM32F10x_StdPeriph_Lib_V3.5.0/Libraries/STM32F10x_StdPeriph_Driver/src/stm32f10x_fsmc.c ****               (FSMC_NORSRAMInitStruct->FSMC_WriteTimingStruct->FSMC_DataLatency << 24) |
 400              		.loc 1 245 0
 401 0112 7968     		ldr	r1, [r7, #4]
 402 0114 896B     		ldr	r1, [r1, #56]
 403 0116 4969     		ldr	r1, [r1, #20]
 404 0118 4FEA0161 		lsl	r1, r1, #24
 244:../STM32F10x_StdPeriph_Lib_V3.5.0/Libraries/STM32F10x_StdPeriph_Driver/src/stm32f10x_fsmc.c ****               (FSMC_NORSRAMInitStruct->FSMC_WriteTimingStruct->FSMC_CLKDivision << 20) |
 405              		.loc 1 244 0
 406 011c 0843     		orrs	r0, r0, r1
 246:../STM32F10x_StdPeriph_Lib_V3.5.0/Libraries/STM32F10x_StdPeriph_Driver/src/stm32f10x_fsmc.c ****                FSMC_NORSRAMInitStruct->FSMC_WriteTimingStruct->FSMC_AccessMode;
 407              		.loc 1 246 0
 408 011e 7968     		ldr	r1, [r7, #4]
 409 0120 896B     		ldr	r1, [r1, #56]
 410 0122 8969     		ldr	r1, [r1, #24]
 245:../STM32F10x_StdPeriph_Lib_V3.5.0/Libraries/STM32F10x_StdPeriph_Driver/src/stm32f10x_fsmc.c ****               (FSMC_NORSRAMInitStruct->FSMC_WriteTimingStruct->FSMC_DataLatency << 24) |
 411              		.loc 1 245 0
 412 0124 0143     		orrs	r1, r1, r0
 240:../STM32F10x_StdPeriph_Lib_V3.5.0/Libraries/STM32F10x_StdPeriph_Driver/src/stm32f10x_fsmc.c ****     FSMC_Bank1E->BWTR[FSMC_NORSRAMInitStruct->FSMC_Bank] = 
 413              		.loc 1 240 0
 414 0126 43F82210 		str	r1, [r3, r2, lsl #2]
 415 012a 06E0     		b	.L14
 416              	.L16:
 247:../STM32F10x_StdPeriph_Lib_V3.5.0/Libraries/STM32F10x_StdPeriph_Driver/src/stm32f10x_fsmc.c ****   }
 248:../STM32F10x_StdPeriph_Lib_V3.5.0/Libraries/STM32F10x_StdPeriph_Driver/src/stm32f10x_fsmc.c ****   else
 249:../STM32F10x_StdPeriph_Lib_V3.5.0/Libraries/STM32F10x_StdPeriph_Driver/src/stm32f10x_fsmc.c ****   {
 250:../STM32F10x_StdPeriph_Lib_V3.5.0/Libraries/STM32F10x_StdPeriph_Driver/src/stm32f10x_fsmc.c ****     FSMC_Bank1E->BWTR[FSMC_NORSRAMInitStruct->FSMC_Bank] = 0x0FFFFFFF;
 417              		.loc 1 250 0
 418 012c 054B     		ldr	r3, .L18
 419 012e 7A68     		ldr	r2, [r7, #4]
 420 0130 1268     		ldr	r2, [r2, #0]
 421 0132 6FF07041 		mvn	r1, #-268435456
 422 0136 43F82210 		str	r1, [r3, r2, lsl #2]
 423              	.L14:
 251:../STM32F10x_StdPeriph_Lib_V3.5.0/Libraries/STM32F10x_StdPeriph_Driver/src/stm32f10x_fsmc.c ****   }
 252:../STM32F10x_StdPeriph_Lib_V3.5.0/Libraries/STM32F10x_StdPeriph_Driver/src/stm32f10x_fsmc.c **** }
 424              		.loc 1 252 0
 425 013a 07F10C07 		add	r7, r7, #12
 426 013e BD46     		mov	sp, r7
 427 0140 80BC     		pop	{r7}
 428 0142 7047     		bx	lr
 429              	.L19:
 430              		.align	2
 431              	.L18:
 432 0144 040100A0 		.word	-1610612476
 433              		.cfi_endproc
 434              	.LFE32:
 436              		.section	.text.FSMC_NANDInit,"ax",%progbits
 437              		.align	2
 438              		.global	FSMC_NANDInit
 439              		.thumb
 440              		.thumb_func
 442              	FSMC_NANDInit:
 443              	.LFB33:
 253:../STM32F10x_StdPeriph_Lib_V3.5.0/Libraries/STM32F10x_StdPeriph_Driver/src/stm32f10x_fsmc.c **** 
 254:../STM32F10x_StdPeriph_Lib_V3.5.0/Libraries/STM32F10x_StdPeriph_Driver/src/stm32f10x_fsmc.c **** /**
 255:../STM32F10x_StdPeriph_Lib_V3.5.0/Libraries/STM32F10x_StdPeriph_Driver/src/stm32f10x_fsmc.c ****   * @brief  Initializes the FSMC NAND Banks according to the specified 
 256:../STM32F10x_StdPeriph_Lib_V3.5.0/Libraries/STM32F10x_StdPeriph_Driver/src/stm32f10x_fsmc.c ****   *         parameters in the FSMC_NANDInitStruct.
 257:../STM32F10x_StdPeriph_Lib_V3.5.0/Libraries/STM32F10x_StdPeriph_Driver/src/stm32f10x_fsmc.c ****   * @param  FSMC_NANDInitStruct : pointer to a FSMC_NANDInitTypeDef 
 258:../STM32F10x_StdPeriph_Lib_V3.5.0/Libraries/STM32F10x_StdPeriph_Driver/src/stm32f10x_fsmc.c ****   *         structure that contains the configuration information for the FSMC 
 259:../STM32F10x_StdPeriph_Lib_V3.5.0/Libraries/STM32F10x_StdPeriph_Driver/src/stm32f10x_fsmc.c ****   *         NAND specified Banks.                       
 260:../STM32F10x_StdPeriph_Lib_V3.5.0/Libraries/STM32F10x_StdPeriph_Driver/src/stm32f10x_fsmc.c ****   * @retval None
 261:../STM32F10x_StdPeriph_Lib_V3.5.0/Libraries/STM32F10x_StdPeriph_Driver/src/stm32f10x_fsmc.c ****   */
 262:../STM32F10x_StdPeriph_Lib_V3.5.0/Libraries/STM32F10x_StdPeriph_Driver/src/stm32f10x_fsmc.c **** void FSMC_NANDInit(FSMC_NANDInitTypeDef* FSMC_NANDInitStruct)
 263:../STM32F10x_StdPeriph_Lib_V3.5.0/Libraries/STM32F10x_StdPeriph_Driver/src/stm32f10x_fsmc.c **** {
 444              		.loc 1 263 0
 445              		.cfi_startproc
 446              		@ args = 0, pretend = 0, frame = 24
 447              		@ frame_needed = 1, uses_anonymous_args = 0
 448              		@ link register save eliminated.
 449 0000 80B4     		push	{r7}
 450              	.LCFI11:
 451              		.cfi_def_cfa_offset 4
 452              		.cfi_offset 7, -4
 453 0002 87B0     		sub	sp, sp, #28
 454              	.LCFI12:
 455              		.cfi_def_cfa_offset 32
 456 0004 00AF     		add	r7, sp, #0
 457              	.LCFI13:
 458              		.cfi_def_cfa_register 7
 459 0006 7860     		str	r0, [r7, #4]
 264:../STM32F10x_StdPeriph_Lib_V3.5.0/Libraries/STM32F10x_StdPeriph_Driver/src/stm32f10x_fsmc.c ****   uint32_t tmppcr = 0x00000000, tmppmem = 0x00000000, tmppatt = 0x00000000; 
 460              		.loc 1 264 0
 461 0008 4FF00003 		mov	r3, #0
 462 000c 7B61     		str	r3, [r7, #20]
 463 000e 4FF00003 		mov	r3, #0
 464 0012 3B61     		str	r3, [r7, #16]
 465 0014 4FF00003 		mov	r3, #0
 466 0018 FB60     		str	r3, [r7, #12]
 265:../STM32F10x_StdPeriph_Lib_V3.5.0/Libraries/STM32F10x_StdPeriph_Driver/src/stm32f10x_fsmc.c ****     
 266:../STM32F10x_StdPeriph_Lib_V3.5.0/Libraries/STM32F10x_StdPeriph_Driver/src/stm32f10x_fsmc.c ****   /* Check the parameters */
 267:../STM32F10x_StdPeriph_Lib_V3.5.0/Libraries/STM32F10x_StdPeriph_Driver/src/stm32f10x_fsmc.c ****   assert_param( IS_FSMC_NAND_BANK(FSMC_NANDInitStruct->FSMC_Bank));
 268:../STM32F10x_StdPeriph_Lib_V3.5.0/Libraries/STM32F10x_StdPeriph_Driver/src/stm32f10x_fsmc.c ****   assert_param( IS_FSMC_WAIT_FEATURE(FSMC_NANDInitStruct->FSMC_Waitfeature));
 269:../STM32F10x_StdPeriph_Lib_V3.5.0/Libraries/STM32F10x_StdPeriph_Driver/src/stm32f10x_fsmc.c ****   assert_param( IS_FSMC_MEMORY_WIDTH(FSMC_NANDInitStruct->FSMC_MemoryDataWidth));
 270:../STM32F10x_StdPeriph_Lib_V3.5.0/Libraries/STM32F10x_StdPeriph_Driver/src/stm32f10x_fsmc.c ****   assert_param( IS_FSMC_ECC_STATE(FSMC_NANDInitStruct->FSMC_ECC));
 271:../STM32F10x_StdPeriph_Lib_V3.5.0/Libraries/STM32F10x_StdPeriph_Driver/src/stm32f10x_fsmc.c ****   assert_param( IS_FSMC_ECCPAGE_SIZE(FSMC_NANDInitStruct->FSMC_ECCPageSize));
 272:../STM32F10x_StdPeriph_Lib_V3.5.0/Libraries/STM32F10x_StdPeriph_Driver/src/stm32f10x_fsmc.c ****   assert_param( IS_FSMC_TCLR_TIME(FSMC_NANDInitStruct->FSMC_TCLRSetupTime));
 273:../STM32F10x_StdPeriph_Lib_V3.5.0/Libraries/STM32F10x_StdPeriph_Driver/src/stm32f10x_fsmc.c ****   assert_param( IS_FSMC_TAR_TIME(FSMC_NANDInitStruct->FSMC_TARSetupTime));
 274:../STM32F10x_StdPeriph_Lib_V3.5.0/Libraries/STM32F10x_StdPeriph_Driver/src/stm32f10x_fsmc.c ****   assert_param(IS_FSMC_SETUP_TIME(FSMC_NANDInitStruct->FSMC_CommonSpaceTimingStruct->FSMC_SetupTime
 275:../STM32F10x_StdPeriph_Lib_V3.5.0/Libraries/STM32F10x_StdPeriph_Driver/src/stm32f10x_fsmc.c ****   assert_param(IS_FSMC_WAIT_TIME(FSMC_NANDInitStruct->FSMC_CommonSpaceTimingStruct->FSMC_WaitSetupT
 276:../STM32F10x_StdPeriph_Lib_V3.5.0/Libraries/STM32F10x_StdPeriph_Driver/src/stm32f10x_fsmc.c ****   assert_param(IS_FSMC_HOLD_TIME(FSMC_NANDInitStruct->FSMC_CommonSpaceTimingStruct->FSMC_HoldSetupT
 277:../STM32F10x_StdPeriph_Lib_V3.5.0/Libraries/STM32F10x_StdPeriph_Driver/src/stm32f10x_fsmc.c ****   assert_param(IS_FSMC_HIZ_TIME(FSMC_NANDInitStruct->FSMC_CommonSpaceTimingStruct->FSMC_HiZSetupTim
 278:../STM32F10x_StdPeriph_Lib_V3.5.0/Libraries/STM32F10x_StdPeriph_Driver/src/stm32f10x_fsmc.c ****   assert_param(IS_FSMC_SETUP_TIME(FSMC_NANDInitStruct->FSMC_AttributeSpaceTimingStruct->FSMC_SetupT
 279:../STM32F10x_StdPeriph_Lib_V3.5.0/Libraries/STM32F10x_StdPeriph_Driver/src/stm32f10x_fsmc.c ****   assert_param(IS_FSMC_WAIT_TIME(FSMC_NANDInitStruct->FSMC_AttributeSpaceTimingStruct->FSMC_WaitSet
 280:../STM32F10x_StdPeriph_Lib_V3.5.0/Libraries/STM32F10x_StdPeriph_Driver/src/stm32f10x_fsmc.c ****   assert_param(IS_FSMC_HOLD_TIME(FSMC_NANDInitStruct->FSMC_AttributeSpaceTimingStruct->FSMC_HoldSet
 281:../STM32F10x_StdPeriph_Lib_V3.5.0/Libraries/STM32F10x_StdPeriph_Driver/src/stm32f10x_fsmc.c ****   assert_param(IS_FSMC_HIZ_TIME(FSMC_NANDInitStruct->FSMC_AttributeSpaceTimingStruct->FSMC_HiZSetup
 282:../STM32F10x_StdPeriph_Lib_V3.5.0/Libraries/STM32F10x_StdPeriph_Driver/src/stm32f10x_fsmc.c ****   
 283:../STM32F10x_StdPeriph_Lib_V3.5.0/Libraries/STM32F10x_StdPeriph_Driver/src/stm32f10x_fsmc.c ****   /* Set the tmppcr value according to FSMC_NANDInitStruct parameters */
 284:../STM32F10x_StdPeriph_Lib_V3.5.0/Libraries/STM32F10x_StdPeriph_Driver/src/stm32f10x_fsmc.c ****   tmppcr = (uint32_t)FSMC_NANDInitStruct->FSMC_Waitfeature |
 467              		.loc 1 284 0
 468 001a 7B68     		ldr	r3, [r7, #4]
 469 001c 5A68     		ldr	r2, [r3, #4]
 285:../STM32F10x_StdPeriph_Lib_V3.5.0/Libraries/STM32F10x_StdPeriph_Driver/src/stm32f10x_fsmc.c ****             PCR_MemoryType_NAND |
 286:../STM32F10x_StdPeriph_Lib_V3.5.0/Libraries/STM32F10x_StdPeriph_Driver/src/stm32f10x_fsmc.c ****             FSMC_NANDInitStruct->FSMC_MemoryDataWidth |
 470              		.loc 1 286 0
 471 001e 7B68     		ldr	r3, [r7, #4]
 472 0020 9B68     		ldr	r3, [r3, #8]
 285:../STM32F10x_StdPeriph_Lib_V3.5.0/Libraries/STM32F10x_StdPeriph_Driver/src/stm32f10x_fsmc.c ****             PCR_MemoryType_NAND |
 473              		.loc 1 285 0
 474 0022 1A43     		orrs	r2, r2, r3
 287:../STM32F10x_StdPeriph_Lib_V3.5.0/Libraries/STM32F10x_StdPeriph_Driver/src/stm32f10x_fsmc.c ****             FSMC_NANDInitStruct->FSMC_ECC |
 475              		.loc 1 287 0
 476 0024 7B68     		ldr	r3, [r7, #4]
 477 0026 DB68     		ldr	r3, [r3, #12]
 286:../STM32F10x_StdPeriph_Lib_V3.5.0/Libraries/STM32F10x_StdPeriph_Driver/src/stm32f10x_fsmc.c ****             FSMC_NANDInitStruct->FSMC_MemoryDataWidth |
 478              		.loc 1 286 0
 479 0028 1A43     		orrs	r2, r2, r3
 288:../STM32F10x_StdPeriph_Lib_V3.5.0/Libraries/STM32F10x_StdPeriph_Driver/src/stm32f10x_fsmc.c ****             FSMC_NANDInitStruct->FSMC_ECCPageSize |
 480              		.loc 1 288 0
 481 002a 7B68     		ldr	r3, [r7, #4]
 482 002c 1B69     		ldr	r3, [r3, #16]
 287:../STM32F10x_StdPeriph_Lib_V3.5.0/Libraries/STM32F10x_StdPeriph_Driver/src/stm32f10x_fsmc.c ****             FSMC_NANDInitStruct->FSMC_ECC |
 483              		.loc 1 287 0
 484 002e 1A43     		orrs	r2, r2, r3
 289:../STM32F10x_StdPeriph_Lib_V3.5.0/Libraries/STM32F10x_StdPeriph_Driver/src/stm32f10x_fsmc.c ****             (FSMC_NANDInitStruct->FSMC_TCLRSetupTime << 9 )|
 485              		.loc 1 289 0
 486 0030 7B68     		ldr	r3, [r7, #4]
 487 0032 5B69     		ldr	r3, [r3, #20]
 488 0034 4FEA4323 		lsl	r3, r3, #9
 288:../STM32F10x_StdPeriph_Lib_V3.5.0/Libraries/STM32F10x_StdPeriph_Driver/src/stm32f10x_fsmc.c ****             FSMC_NANDInitStruct->FSMC_ECCPageSize |
 489              		.loc 1 288 0
 490 0038 1A43     		orrs	r2, r2, r3
 290:../STM32F10x_StdPeriph_Lib_V3.5.0/Libraries/STM32F10x_StdPeriph_Driver/src/stm32f10x_fsmc.c ****             (FSMC_NANDInitStruct->FSMC_TARSetupTime << 13);
 491              		.loc 1 290 0
 492 003a 7B68     		ldr	r3, [r7, #4]
 493 003c 9B69     		ldr	r3, [r3, #24]
 494 003e 4FEA4333 		lsl	r3, r3, #13
 289:../STM32F10x_StdPeriph_Lib_V3.5.0/Libraries/STM32F10x_StdPeriph_Driver/src/stm32f10x_fsmc.c ****             (FSMC_NANDInitStruct->FSMC_TCLRSetupTime << 9 )|
 495              		.loc 1 289 0
 496 0042 1343     		orrs	r3, r3, r2
 284:../STM32F10x_StdPeriph_Lib_V3.5.0/Libraries/STM32F10x_StdPeriph_Driver/src/stm32f10x_fsmc.c ****   tmppcr = (uint32_t)FSMC_NANDInitStruct->FSMC_Waitfeature |
 497              		.loc 1 284 0
 498 0044 43F00803 		orr	r3, r3, #8
 499 0048 7B61     		str	r3, [r7, #20]
 291:../STM32F10x_StdPeriph_Lib_V3.5.0/Libraries/STM32F10x_StdPeriph_Driver/src/stm32f10x_fsmc.c ****             
 292:../STM32F10x_StdPeriph_Lib_V3.5.0/Libraries/STM32F10x_StdPeriph_Driver/src/stm32f10x_fsmc.c ****   /* Set tmppmem value according to FSMC_CommonSpaceTimingStructure parameters */
 293:../STM32F10x_StdPeriph_Lib_V3.5.0/Libraries/STM32F10x_StdPeriph_Driver/src/stm32f10x_fsmc.c ****   tmppmem = (uint32_t)FSMC_NANDInitStruct->FSMC_CommonSpaceTimingStruct->FSMC_SetupTime |
 500              		.loc 1 293 0
 501 004a 7B68     		ldr	r3, [r7, #4]
 502 004c DB69     		ldr	r3, [r3, #28]
 503 004e 1A68     		ldr	r2, [r3, #0]
 294:../STM32F10x_StdPeriph_Lib_V3.5.0/Libraries/STM32F10x_StdPeriph_Driver/src/stm32f10x_fsmc.c ****             (FSMC_NANDInitStruct->FSMC_CommonSpaceTimingStruct->FSMC_WaitSetupTime << 8) |
 504              		.loc 1 294 0
 505 0050 7B68     		ldr	r3, [r7, #4]
 506 0052 DB69     		ldr	r3, [r3, #28]
 507 0054 5B68     		ldr	r3, [r3, #4]
 508 0056 4FEA0323 		lsl	r3, r3, #8
 293:../STM32F10x_StdPeriph_Lib_V3.5.0/Libraries/STM32F10x_StdPeriph_Driver/src/stm32f10x_fsmc.c ****   tmppmem = (uint32_t)FSMC_NANDInitStruct->FSMC_CommonSpaceTimingStruct->FSMC_SetupTime |
 509              		.loc 1 293 0
 510 005a 1A43     		orrs	r2, r2, r3
 295:../STM32F10x_StdPeriph_Lib_V3.5.0/Libraries/STM32F10x_StdPeriph_Driver/src/stm32f10x_fsmc.c ****             (FSMC_NANDInitStruct->FSMC_CommonSpaceTimingStruct->FSMC_HoldSetupTime << 16)|
 511              		.loc 1 295 0
 512 005c 7B68     		ldr	r3, [r7, #4]
 513 005e DB69     		ldr	r3, [r3, #28]
 514 0060 9B68     		ldr	r3, [r3, #8]
 515 0062 4FEA0343 		lsl	r3, r3, #16
 294:../STM32F10x_StdPeriph_Lib_V3.5.0/Libraries/STM32F10x_StdPeriph_Driver/src/stm32f10x_fsmc.c ****             (FSMC_NANDInitStruct->FSMC_CommonSpaceTimingStruct->FSMC_WaitSetupTime << 8) |
 516              		.loc 1 294 0
 517 0066 1A43     		orrs	r2, r2, r3
 296:../STM32F10x_StdPeriph_Lib_V3.5.0/Libraries/STM32F10x_StdPeriph_Driver/src/stm32f10x_fsmc.c ****             (FSMC_NANDInitStruct->FSMC_CommonSpaceTimingStruct->FSMC_HiZSetupTime << 24); 
 518              		.loc 1 296 0
 519 0068 7B68     		ldr	r3, [r7, #4]
 520 006a DB69     		ldr	r3, [r3, #28]
 521 006c DB68     		ldr	r3, [r3, #12]
 522 006e 4FEA0363 		lsl	r3, r3, #24
 293:../STM32F10x_StdPeriph_Lib_V3.5.0/Libraries/STM32F10x_StdPeriph_Driver/src/stm32f10x_fsmc.c ****   tmppmem = (uint32_t)FSMC_NANDInitStruct->FSMC_CommonSpaceTimingStruct->FSMC_SetupTime |
 523              		.loc 1 293 0
 524 0072 1343     		orrs	r3, r3, r2
 525 0074 3B61     		str	r3, [r7, #16]
 297:../STM32F10x_StdPeriph_Lib_V3.5.0/Libraries/STM32F10x_StdPeriph_Driver/src/stm32f10x_fsmc.c ****             
 298:../STM32F10x_StdPeriph_Lib_V3.5.0/Libraries/STM32F10x_StdPeriph_Driver/src/stm32f10x_fsmc.c ****   /* Set tmppatt value according to FSMC_AttributeSpaceTimingStructure parameters */
 299:../STM32F10x_StdPeriph_Lib_V3.5.0/Libraries/STM32F10x_StdPeriph_Driver/src/stm32f10x_fsmc.c ****   tmppatt = (uint32_t)FSMC_NANDInitStruct->FSMC_AttributeSpaceTimingStruct->FSMC_SetupTime |
 526              		.loc 1 299 0
 527 0076 7B68     		ldr	r3, [r7, #4]
 528 0078 1B6A     		ldr	r3, [r3, #32]
 529 007a 1A68     		ldr	r2, [r3, #0]
 300:../STM32F10x_StdPeriph_Lib_V3.5.0/Libraries/STM32F10x_StdPeriph_Driver/src/stm32f10x_fsmc.c ****             (FSMC_NANDInitStruct->FSMC_AttributeSpaceTimingStruct->FSMC_WaitSetupTime << 8) |
 530              		.loc 1 300 0
 531 007c 7B68     		ldr	r3, [r7, #4]
 532 007e 1B6A     		ldr	r3, [r3, #32]
 533 0080 5B68     		ldr	r3, [r3, #4]
 534 0082 4FEA0323 		lsl	r3, r3, #8
 299:../STM32F10x_StdPeriph_Lib_V3.5.0/Libraries/STM32F10x_StdPeriph_Driver/src/stm32f10x_fsmc.c ****   tmppatt = (uint32_t)FSMC_NANDInitStruct->FSMC_AttributeSpaceTimingStruct->FSMC_SetupTime |
 535              		.loc 1 299 0
 536 0086 1A43     		orrs	r2, r2, r3
 301:../STM32F10x_StdPeriph_Lib_V3.5.0/Libraries/STM32F10x_StdPeriph_Driver/src/stm32f10x_fsmc.c ****             (FSMC_NANDInitStruct->FSMC_AttributeSpaceTimingStruct->FSMC_HoldSetupTime << 16)|
 537              		.loc 1 301 0
 538 0088 7B68     		ldr	r3, [r7, #4]
 539 008a 1B6A     		ldr	r3, [r3, #32]
 540 008c 9B68     		ldr	r3, [r3, #8]
 541 008e 4FEA0343 		lsl	r3, r3, #16
 300:../STM32F10x_StdPeriph_Lib_V3.5.0/Libraries/STM32F10x_StdPeriph_Driver/src/stm32f10x_fsmc.c ****             (FSMC_NANDInitStruct->FSMC_AttributeSpaceTimingStruct->FSMC_WaitSetupTime << 8) |
 542              		.loc 1 300 0
 543 0092 1A43     		orrs	r2, r2, r3
 302:../STM32F10x_StdPeriph_Lib_V3.5.0/Libraries/STM32F10x_StdPeriph_Driver/src/stm32f10x_fsmc.c ****             (FSMC_NANDInitStruct->FSMC_AttributeSpaceTimingStruct->FSMC_HiZSetupTime << 24);
 544              		.loc 1 302 0
 545 0094 7B68     		ldr	r3, [r7, #4]
 546 0096 1B6A     		ldr	r3, [r3, #32]
 547 0098 DB68     		ldr	r3, [r3, #12]
 548 009a 4FEA0363 		lsl	r3, r3, #24
 299:../STM32F10x_StdPeriph_Lib_V3.5.0/Libraries/STM32F10x_StdPeriph_Driver/src/stm32f10x_fsmc.c ****   tmppatt = (uint32_t)FSMC_NANDInitStruct->FSMC_AttributeSpaceTimingStruct->FSMC_SetupTime |
 549              		.loc 1 299 0
 550 009e 1343     		orrs	r3, r3, r2
 551 00a0 FB60     		str	r3, [r7, #12]
 303:../STM32F10x_StdPeriph_Lib_V3.5.0/Libraries/STM32F10x_StdPeriph_Driver/src/stm32f10x_fsmc.c ****   
 304:../STM32F10x_StdPeriph_Lib_V3.5.0/Libraries/STM32F10x_StdPeriph_Driver/src/stm32f10x_fsmc.c ****   if(FSMC_NANDInitStruct->FSMC_Bank == FSMC_Bank2_NAND)
 552              		.loc 1 304 0
 553 00a2 7B68     		ldr	r3, [r7, #4]
 554 00a4 1B68     		ldr	r3, [r3, #0]
 555 00a6 102B     		cmp	r3, #16
 556 00a8 09D1     		bne	.L21
 305:../STM32F10x_StdPeriph_Lib_V3.5.0/Libraries/STM32F10x_StdPeriph_Driver/src/stm32f10x_fsmc.c ****   {
 306:../STM32F10x_StdPeriph_Lib_V3.5.0/Libraries/STM32F10x_StdPeriph_Driver/src/stm32f10x_fsmc.c ****     /* FSMC_Bank2_NAND registers configuration */
 307:../STM32F10x_StdPeriph_Lib_V3.5.0/Libraries/STM32F10x_StdPeriph_Driver/src/stm32f10x_fsmc.c ****     FSMC_Bank2->PCR2 = tmppcr;
 557              		.loc 1 307 0
 558 00aa 0C4B     		ldr	r3, .L23
 559 00ac 7A69     		ldr	r2, [r7, #20]
 560 00ae 1A60     		str	r2, [r3, #0]
 308:../STM32F10x_StdPeriph_Lib_V3.5.0/Libraries/STM32F10x_StdPeriph_Driver/src/stm32f10x_fsmc.c ****     FSMC_Bank2->PMEM2 = tmppmem;
 561              		.loc 1 308 0
 562 00b0 0A4B     		ldr	r3, .L23
 563 00b2 3A69     		ldr	r2, [r7, #16]
 564 00b4 9A60     		str	r2, [r3, #8]
 309:../STM32F10x_StdPeriph_Lib_V3.5.0/Libraries/STM32F10x_StdPeriph_Driver/src/stm32f10x_fsmc.c ****     FSMC_Bank2->PATT2 = tmppatt;
 565              		.loc 1 309 0
 566 00b6 094B     		ldr	r3, .L23
 567 00b8 FA68     		ldr	r2, [r7, #12]
 568 00ba DA60     		str	r2, [r3, #12]
 569 00bc 08E0     		b	.L20
 570              	.L21:
 310:../STM32F10x_StdPeriph_Lib_V3.5.0/Libraries/STM32F10x_StdPeriph_Driver/src/stm32f10x_fsmc.c ****   }
 311:../STM32F10x_StdPeriph_Lib_V3.5.0/Libraries/STM32F10x_StdPeriph_Driver/src/stm32f10x_fsmc.c ****   else
 312:../STM32F10x_StdPeriph_Lib_V3.5.0/Libraries/STM32F10x_StdPeriph_Driver/src/stm32f10x_fsmc.c ****   {
 313:../STM32F10x_StdPeriph_Lib_V3.5.0/Libraries/STM32F10x_StdPeriph_Driver/src/stm32f10x_fsmc.c ****     /* FSMC_Bank3_NAND registers configuration */
 314:../STM32F10x_StdPeriph_Lib_V3.5.0/Libraries/STM32F10x_StdPeriph_Driver/src/stm32f10x_fsmc.c ****     FSMC_Bank3->PCR3 = tmppcr;
 571              		.loc 1 314 0
 572 00be 084B     		ldr	r3, .L23+4
 573 00c0 7A69     		ldr	r2, [r7, #20]
 574 00c2 1A60     		str	r2, [r3, #0]
 315:../STM32F10x_StdPeriph_Lib_V3.5.0/Libraries/STM32F10x_StdPeriph_Driver/src/stm32f10x_fsmc.c ****     FSMC_Bank3->PMEM3 = tmppmem;
 575              		.loc 1 315 0
 576 00c4 064B     		ldr	r3, .L23+4
 577 00c6 3A69     		ldr	r2, [r7, #16]
 578 00c8 9A60     		str	r2, [r3, #8]
 316:../STM32F10x_StdPeriph_Lib_V3.5.0/Libraries/STM32F10x_StdPeriph_Driver/src/stm32f10x_fsmc.c ****     FSMC_Bank3->PATT3 = tmppatt;
 579              		.loc 1 316 0
 580 00ca 054B     		ldr	r3, .L23+4
 581 00cc FA68     		ldr	r2, [r7, #12]
 582 00ce DA60     		str	r2, [r3, #12]
 583              	.L20:
 317:../STM32F10x_StdPeriph_Lib_V3.5.0/Libraries/STM32F10x_StdPeriph_Driver/src/stm32f10x_fsmc.c ****   }
 318:../STM32F10x_StdPeriph_Lib_V3.5.0/Libraries/STM32F10x_StdPeriph_Driver/src/stm32f10x_fsmc.c **** }
 584              		.loc 1 318 0
 585 00d0 07F11C07 		add	r7, r7, #28
 586 00d4 BD46     		mov	sp, r7
 587 00d6 80BC     		pop	{r7}
 588 00d8 7047     		bx	lr
 589              	.L24:
 590 00da 00BF     		.align	2
 591              	.L23:
 592 00dc 600000A0 		.word	-1610612640
 593 00e0 800000A0 		.word	-1610612608
 594              		.cfi_endproc
 595              	.LFE33:
 597              		.section	.text.FSMC_PCCARDInit,"ax",%progbits
 598              		.align	2
 599              		.global	FSMC_PCCARDInit
 600              		.thumb
 601              		.thumb_func
 603              	FSMC_PCCARDInit:
 604              	.LFB34:
 319:../STM32F10x_StdPeriph_Lib_V3.5.0/Libraries/STM32F10x_StdPeriph_Driver/src/stm32f10x_fsmc.c **** 
 320:../STM32F10x_StdPeriph_Lib_V3.5.0/Libraries/STM32F10x_StdPeriph_Driver/src/stm32f10x_fsmc.c **** /**
 321:../STM32F10x_StdPeriph_Lib_V3.5.0/Libraries/STM32F10x_StdPeriph_Driver/src/stm32f10x_fsmc.c ****   * @brief  Initializes the FSMC PCCARD Bank according to the specified 
 322:../STM32F10x_StdPeriph_Lib_V3.5.0/Libraries/STM32F10x_StdPeriph_Driver/src/stm32f10x_fsmc.c ****   *         parameters in the FSMC_PCCARDInitStruct.
 323:../STM32F10x_StdPeriph_Lib_V3.5.0/Libraries/STM32F10x_StdPeriph_Driver/src/stm32f10x_fsmc.c ****   * @param  FSMC_PCCARDInitStruct : pointer to a FSMC_PCCARDInitTypeDef
 324:../STM32F10x_StdPeriph_Lib_V3.5.0/Libraries/STM32F10x_StdPeriph_Driver/src/stm32f10x_fsmc.c ****   *         structure that contains the configuration information for the FSMC 
 325:../STM32F10x_StdPeriph_Lib_V3.5.0/Libraries/STM32F10x_StdPeriph_Driver/src/stm32f10x_fsmc.c ****   *         PCCARD Bank.                       
 326:../STM32F10x_StdPeriph_Lib_V3.5.0/Libraries/STM32F10x_StdPeriph_Driver/src/stm32f10x_fsmc.c ****   * @retval None
 327:../STM32F10x_StdPeriph_Lib_V3.5.0/Libraries/STM32F10x_StdPeriph_Driver/src/stm32f10x_fsmc.c ****   */
 328:../STM32F10x_StdPeriph_Lib_V3.5.0/Libraries/STM32F10x_StdPeriph_Driver/src/stm32f10x_fsmc.c **** void FSMC_PCCARDInit(FSMC_PCCARDInitTypeDef* FSMC_PCCARDInitStruct)
 329:../STM32F10x_StdPeriph_Lib_V3.5.0/Libraries/STM32F10x_StdPeriph_Driver/src/stm32f10x_fsmc.c **** {
 605              		.loc 1 329 0
 606              		.cfi_startproc
 607              		@ args = 0, pretend = 0, frame = 8
 608              		@ frame_needed = 1, uses_anonymous_args = 0
 609              		@ link register save eliminated.
 610 0000 80B4     		push	{r7}
 611              	.LCFI14:
 612              		.cfi_def_cfa_offset 4
 613              		.cfi_offset 7, -4
 614 0002 83B0     		sub	sp, sp, #12
 615              	.LCFI15:
 616              		.cfi_def_cfa_offset 16
 617 0004 00AF     		add	r7, sp, #0
 618              	.LCFI16:
 619              		.cfi_def_cfa_register 7
 620 0006 7860     		str	r0, [r7, #4]
 330:../STM32F10x_StdPeriph_Lib_V3.5.0/Libraries/STM32F10x_StdPeriph_Driver/src/stm32f10x_fsmc.c ****   /* Check the parameters */
 331:../STM32F10x_StdPeriph_Lib_V3.5.0/Libraries/STM32F10x_StdPeriph_Driver/src/stm32f10x_fsmc.c ****   assert_param(IS_FSMC_WAIT_FEATURE(FSMC_PCCARDInitStruct->FSMC_Waitfeature));
 332:../STM32F10x_StdPeriph_Lib_V3.5.0/Libraries/STM32F10x_StdPeriph_Driver/src/stm32f10x_fsmc.c ****   assert_param(IS_FSMC_TCLR_TIME(FSMC_PCCARDInitStruct->FSMC_TCLRSetupTime));
 333:../STM32F10x_StdPeriph_Lib_V3.5.0/Libraries/STM32F10x_StdPeriph_Driver/src/stm32f10x_fsmc.c ****   assert_param(IS_FSMC_TAR_TIME(FSMC_PCCARDInitStruct->FSMC_TARSetupTime));
 334:../STM32F10x_StdPeriph_Lib_V3.5.0/Libraries/STM32F10x_StdPeriph_Driver/src/stm32f10x_fsmc.c ****  
 335:../STM32F10x_StdPeriph_Lib_V3.5.0/Libraries/STM32F10x_StdPeriph_Driver/src/stm32f10x_fsmc.c ****   assert_param(IS_FSMC_SETUP_TIME(FSMC_PCCARDInitStruct->FSMC_CommonSpaceTimingStruct->FSMC_SetupTi
 336:../STM32F10x_StdPeriph_Lib_V3.5.0/Libraries/STM32F10x_StdPeriph_Driver/src/stm32f10x_fsmc.c ****   assert_param(IS_FSMC_WAIT_TIME(FSMC_PCCARDInitStruct->FSMC_CommonSpaceTimingStruct->FSMC_WaitSetu
 337:../STM32F10x_StdPeriph_Lib_V3.5.0/Libraries/STM32F10x_StdPeriph_Driver/src/stm32f10x_fsmc.c ****   assert_param(IS_FSMC_HOLD_TIME(FSMC_PCCARDInitStruct->FSMC_CommonSpaceTimingStruct->FSMC_HoldSetu
 338:../STM32F10x_StdPeriph_Lib_V3.5.0/Libraries/STM32F10x_StdPeriph_Driver/src/stm32f10x_fsmc.c ****   assert_param(IS_FSMC_HIZ_TIME(FSMC_PCCARDInitStruct->FSMC_CommonSpaceTimingStruct->FSMC_HiZSetupT
 339:../STM32F10x_StdPeriph_Lib_V3.5.0/Libraries/STM32F10x_StdPeriph_Driver/src/stm32f10x_fsmc.c ****   
 340:../STM32F10x_StdPeriph_Lib_V3.5.0/Libraries/STM32F10x_StdPeriph_Driver/src/stm32f10x_fsmc.c ****   assert_param(IS_FSMC_SETUP_TIME(FSMC_PCCARDInitStruct->FSMC_AttributeSpaceTimingStruct->FSMC_Setu
 341:../STM32F10x_StdPeriph_Lib_V3.5.0/Libraries/STM32F10x_StdPeriph_Driver/src/stm32f10x_fsmc.c ****   assert_param(IS_FSMC_WAIT_TIME(FSMC_PCCARDInitStruct->FSMC_AttributeSpaceTimingStruct->FSMC_WaitS
 342:../STM32F10x_StdPeriph_Lib_V3.5.0/Libraries/STM32F10x_StdPeriph_Driver/src/stm32f10x_fsmc.c ****   assert_param(IS_FSMC_HOLD_TIME(FSMC_PCCARDInitStruct->FSMC_AttributeSpaceTimingStruct->FSMC_HoldS
 343:../STM32F10x_StdPeriph_Lib_V3.5.0/Libraries/STM32F10x_StdPeriph_Driver/src/stm32f10x_fsmc.c ****   assert_param(IS_FSMC_HIZ_TIME(FSMC_PCCARDInitStruct->FSMC_AttributeSpaceTimingStruct->FSMC_HiZSet
 344:../STM32F10x_StdPeriph_Lib_V3.5.0/Libraries/STM32F10x_StdPeriph_Driver/src/stm32f10x_fsmc.c ****   assert_param(IS_FSMC_SETUP_TIME(FSMC_PCCARDInitStruct->FSMC_IOSpaceTimingStruct->FSMC_SetupTime))
 345:../STM32F10x_StdPeriph_Lib_V3.5.0/Libraries/STM32F10x_StdPeriph_Driver/src/stm32f10x_fsmc.c ****   assert_param(IS_FSMC_WAIT_TIME(FSMC_PCCARDInitStruct->FSMC_IOSpaceTimingStruct->FSMC_WaitSetupTim
 346:../STM32F10x_StdPeriph_Lib_V3.5.0/Libraries/STM32F10x_StdPeriph_Driver/src/stm32f10x_fsmc.c ****   assert_param(IS_FSMC_HOLD_TIME(FSMC_PCCARDInitStruct->FSMC_IOSpaceTimingStruct->FSMC_HoldSetupTim
 347:../STM32F10x_StdPeriph_Lib_V3.5.0/Libraries/STM32F10x_StdPeriph_Driver/src/stm32f10x_fsmc.c ****   assert_param(IS_FSMC_HIZ_TIME(FSMC_PCCARDInitStruct->FSMC_IOSpaceTimingStruct->FSMC_HiZSetupTime)
 348:../STM32F10x_StdPeriph_Lib_V3.5.0/Libraries/STM32F10x_StdPeriph_Driver/src/stm32f10x_fsmc.c ****   
 349:../STM32F10x_StdPeriph_Lib_V3.5.0/Libraries/STM32F10x_StdPeriph_Driver/src/stm32f10x_fsmc.c ****   /* Set the PCR4 register value according to FSMC_PCCARDInitStruct parameters */
 350:../STM32F10x_StdPeriph_Lib_V3.5.0/Libraries/STM32F10x_StdPeriph_Driver/src/stm32f10x_fsmc.c ****   FSMC_Bank4->PCR4 = (uint32_t)FSMC_PCCARDInitStruct->FSMC_Waitfeature |
 621              		.loc 1 350 0
 622 0008 2C4B     		ldr	r3, .L26
 623 000a 7A68     		ldr	r2, [r7, #4]
 624 000c 1168     		ldr	r1, [r2, #0]
 351:../STM32F10x_StdPeriph_Lib_V3.5.0/Libraries/STM32F10x_StdPeriph_Driver/src/stm32f10x_fsmc.c ****                      FSMC_MemoryDataWidth_16b |  
 352:../STM32F10x_StdPeriph_Lib_V3.5.0/Libraries/STM32F10x_StdPeriph_Driver/src/stm32f10x_fsmc.c ****                      (FSMC_PCCARDInitStruct->FSMC_TCLRSetupTime << 9) |
 625              		.loc 1 352 0
 626 000e 7A68     		ldr	r2, [r7, #4]
 627 0010 5268     		ldr	r2, [r2, #4]
 628 0012 4FEA4222 		lsl	r2, r2, #9
 351:../STM32F10x_StdPeriph_Lib_V3.5.0/Libraries/STM32F10x_StdPeriph_Driver/src/stm32f10x_fsmc.c ****                      FSMC_MemoryDataWidth_16b |  
 629              		.loc 1 351 0
 630 0016 1143     		orrs	r1, r1, r2
 353:../STM32F10x_StdPeriph_Lib_V3.5.0/Libraries/STM32F10x_StdPeriph_Driver/src/stm32f10x_fsmc.c ****                      (FSMC_PCCARDInitStruct->FSMC_TARSetupTime << 13);
 631              		.loc 1 353 0
 632 0018 7A68     		ldr	r2, [r7, #4]
 633 001a 9268     		ldr	r2, [r2, #8]
 634 001c 4FEA4232 		lsl	r2, r2, #13
 352:../STM32F10x_StdPeriph_Lib_V3.5.0/Libraries/STM32F10x_StdPeriph_Driver/src/stm32f10x_fsmc.c ****                      (FSMC_PCCARDInitStruct->FSMC_TCLRSetupTime << 9) |
 635              		.loc 1 352 0
 636 0020 0A43     		orrs	r2, r2, r1
 637 0022 42F01002 		orr	r2, r2, #16
 350:../STM32F10x_StdPeriph_Lib_V3.5.0/Libraries/STM32F10x_StdPeriph_Driver/src/stm32f10x_fsmc.c ****   FSMC_Bank4->PCR4 = (uint32_t)FSMC_PCCARDInitStruct->FSMC_Waitfeature |
 638              		.loc 1 350 0
 639 0026 1A60     		str	r2, [r3, #0]
 354:../STM32F10x_StdPeriph_Lib_V3.5.0/Libraries/STM32F10x_StdPeriph_Driver/src/stm32f10x_fsmc.c ****             
 355:../STM32F10x_StdPeriph_Lib_V3.5.0/Libraries/STM32F10x_StdPeriph_Driver/src/stm32f10x_fsmc.c ****   /* Set PMEM4 register value according to FSMC_CommonSpaceTimingStructure parameters */
 356:../STM32F10x_StdPeriph_Lib_V3.5.0/Libraries/STM32F10x_StdPeriph_Driver/src/stm32f10x_fsmc.c ****   FSMC_Bank4->PMEM4 = (uint32_t)FSMC_PCCARDInitStruct->FSMC_CommonSpaceTimingStruct->FSMC_SetupTime
 640              		.loc 1 356 0
 641 0028 244B     		ldr	r3, .L26
 642 002a 7A68     		ldr	r2, [r7, #4]
 643 002c D268     		ldr	r2, [r2, #12]
 644 002e 1168     		ldr	r1, [r2, #0]
 357:../STM32F10x_StdPeriph_Lib_V3.5.0/Libraries/STM32F10x_StdPeriph_Driver/src/stm32f10x_fsmc.c ****                       (FSMC_PCCARDInitStruct->FSMC_CommonSpaceTimingStruct->FSMC_WaitSetupTime << 8
 645              		.loc 1 357 0
 646 0030 7A68     		ldr	r2, [r7, #4]
 647 0032 D268     		ldr	r2, [r2, #12]
 648 0034 5268     		ldr	r2, [r2, #4]
 649 0036 4FEA0222 		lsl	r2, r2, #8
 356:../STM32F10x_StdPeriph_Lib_V3.5.0/Libraries/STM32F10x_StdPeriph_Driver/src/stm32f10x_fsmc.c ****   FSMC_Bank4->PMEM4 = (uint32_t)FSMC_PCCARDInitStruct->FSMC_CommonSpaceTimingStruct->FSMC_SetupTime
 650              		.loc 1 356 0
 651 003a 1143     		orrs	r1, r1, r2
 358:../STM32F10x_StdPeriph_Lib_V3.5.0/Libraries/STM32F10x_StdPeriph_Driver/src/stm32f10x_fsmc.c ****                       (FSMC_PCCARDInitStruct->FSMC_CommonSpaceTimingStruct->FSMC_HoldSetupTime << 1
 652              		.loc 1 358 0
 653 003c 7A68     		ldr	r2, [r7, #4]
 654 003e D268     		ldr	r2, [r2, #12]
 655 0040 9268     		ldr	r2, [r2, #8]
 656 0042 4FEA0242 		lsl	r2, r2, #16
 357:../STM32F10x_StdPeriph_Lib_V3.5.0/Libraries/STM32F10x_StdPeriph_Driver/src/stm32f10x_fsmc.c ****                       (FSMC_PCCARDInitStruct->FSMC_CommonSpaceTimingStruct->FSMC_WaitSetupTime << 8
 657              		.loc 1 357 0
 658 0046 1143     		orrs	r1, r1, r2
 359:../STM32F10x_StdPeriph_Lib_V3.5.0/Libraries/STM32F10x_StdPeriph_Driver/src/stm32f10x_fsmc.c ****                       (FSMC_PCCARDInitStruct->FSMC_CommonSpaceTimingStruct->FSMC_HiZSetupTime << 24
 659              		.loc 1 359 0
 660 0048 7A68     		ldr	r2, [r7, #4]
 661 004a D268     		ldr	r2, [r2, #12]
 662 004c D268     		ldr	r2, [r2, #12]
 663 004e 4FEA0262 		lsl	r2, r2, #24
 358:../STM32F10x_StdPeriph_Lib_V3.5.0/Libraries/STM32F10x_StdPeriph_Driver/src/stm32f10x_fsmc.c ****                       (FSMC_PCCARDInitStruct->FSMC_CommonSpaceTimingStruct->FSMC_HoldSetupTime << 1
 664              		.loc 1 358 0
 665 0052 0A43     		orrs	r2, r2, r1
 356:../STM32F10x_StdPeriph_Lib_V3.5.0/Libraries/STM32F10x_StdPeriph_Driver/src/stm32f10x_fsmc.c ****   FSMC_Bank4->PMEM4 = (uint32_t)FSMC_PCCARDInitStruct->FSMC_CommonSpaceTimingStruct->FSMC_SetupTime
 666              		.loc 1 356 0
 667 0054 9A60     		str	r2, [r3, #8]
 360:../STM32F10x_StdPeriph_Lib_V3.5.0/Libraries/STM32F10x_StdPeriph_Driver/src/stm32f10x_fsmc.c ****             
 361:../STM32F10x_StdPeriph_Lib_V3.5.0/Libraries/STM32F10x_StdPeriph_Driver/src/stm32f10x_fsmc.c ****   /* Set PATT4 register value according to FSMC_AttributeSpaceTimingStructure parameters */
 362:../STM32F10x_StdPeriph_Lib_V3.5.0/Libraries/STM32F10x_StdPeriph_Driver/src/stm32f10x_fsmc.c ****   FSMC_Bank4->PATT4 = (uint32_t)FSMC_PCCARDInitStruct->FSMC_AttributeSpaceTimingStruct->FSMC_SetupT
 668              		.loc 1 362 0
 669 0056 194B     		ldr	r3, .L26
 670 0058 7A68     		ldr	r2, [r7, #4]
 671 005a 1269     		ldr	r2, [r2, #16]
 672 005c 1168     		ldr	r1, [r2, #0]
 363:../STM32F10x_StdPeriph_Lib_V3.5.0/Libraries/STM32F10x_StdPeriph_Driver/src/stm32f10x_fsmc.c ****                       (FSMC_PCCARDInitStruct->FSMC_AttributeSpaceTimingStruct->FSMC_WaitSetupTime <
 673              		.loc 1 363 0
 674 005e 7A68     		ldr	r2, [r7, #4]
 675 0060 1269     		ldr	r2, [r2, #16]
 676 0062 5268     		ldr	r2, [r2, #4]
 677 0064 4FEA0222 		lsl	r2, r2, #8
 362:../STM32F10x_StdPeriph_Lib_V3.5.0/Libraries/STM32F10x_StdPeriph_Driver/src/stm32f10x_fsmc.c ****   FSMC_Bank4->PATT4 = (uint32_t)FSMC_PCCARDInitStruct->FSMC_AttributeSpaceTimingStruct->FSMC_SetupT
 678              		.loc 1 362 0
 679 0068 1143     		orrs	r1, r1, r2
 364:../STM32F10x_StdPeriph_Lib_V3.5.0/Libraries/STM32F10x_StdPeriph_Driver/src/stm32f10x_fsmc.c ****                       (FSMC_PCCARDInitStruct->FSMC_AttributeSpaceTimingStruct->FSMC_HoldSetupTime <
 680              		.loc 1 364 0
 681 006a 7A68     		ldr	r2, [r7, #4]
 682 006c 1269     		ldr	r2, [r2, #16]
 683 006e 9268     		ldr	r2, [r2, #8]
 684 0070 4FEA0242 		lsl	r2, r2, #16
 363:../STM32F10x_StdPeriph_Lib_V3.5.0/Libraries/STM32F10x_StdPeriph_Driver/src/stm32f10x_fsmc.c ****                       (FSMC_PCCARDInitStruct->FSMC_AttributeSpaceTimingStruct->FSMC_WaitSetupTime <
 685              		.loc 1 363 0
 686 0074 1143     		orrs	r1, r1, r2
 365:../STM32F10x_StdPeriph_Lib_V3.5.0/Libraries/STM32F10x_StdPeriph_Driver/src/stm32f10x_fsmc.c ****                       (FSMC_PCCARDInitStruct->FSMC_AttributeSpaceTimingStruct->FSMC_HiZSetupTime <<
 687              		.loc 1 365 0
 688 0076 7A68     		ldr	r2, [r7, #4]
 689 0078 1269     		ldr	r2, [r2, #16]
 690 007a D268     		ldr	r2, [r2, #12]
 691 007c 4FEA0262 		lsl	r2, r2, #24
 364:../STM32F10x_StdPeriph_Lib_V3.5.0/Libraries/STM32F10x_StdPeriph_Driver/src/stm32f10x_fsmc.c ****                       (FSMC_PCCARDInitStruct->FSMC_AttributeSpaceTimingStruct->FSMC_HoldSetupTime <
 692              		.loc 1 364 0
 693 0080 0A43     		orrs	r2, r2, r1
 362:../STM32F10x_StdPeriph_Lib_V3.5.0/Libraries/STM32F10x_StdPeriph_Driver/src/stm32f10x_fsmc.c ****   FSMC_Bank4->PATT4 = (uint32_t)FSMC_PCCARDInitStruct->FSMC_AttributeSpaceTimingStruct->FSMC_SetupT
 694              		.loc 1 362 0
 695 0082 DA60     		str	r2, [r3, #12]
 366:../STM32F10x_StdPeriph_Lib_V3.5.0/Libraries/STM32F10x_StdPeriph_Driver/src/stm32f10x_fsmc.c ****             
 367:../STM32F10x_StdPeriph_Lib_V3.5.0/Libraries/STM32F10x_StdPeriph_Driver/src/stm32f10x_fsmc.c ****   /* Set PIO4 register value according to FSMC_IOSpaceTimingStructure parameters */
 368:../STM32F10x_StdPeriph_Lib_V3.5.0/Libraries/STM32F10x_StdPeriph_Driver/src/stm32f10x_fsmc.c ****   FSMC_Bank4->PIO4 = (uint32_t)FSMC_PCCARDInitStruct->FSMC_IOSpaceTimingStruct->FSMC_SetupTime |
 696              		.loc 1 368 0
 697 0084 0D4B     		ldr	r3, .L26
 698 0086 7A68     		ldr	r2, [r7, #4]
 699 0088 5269     		ldr	r2, [r2, #20]
 700 008a 1168     		ldr	r1, [r2, #0]
 369:../STM32F10x_StdPeriph_Lib_V3.5.0/Libraries/STM32F10x_StdPeriph_Driver/src/stm32f10x_fsmc.c ****                      (FSMC_PCCARDInitStruct->FSMC_IOSpaceTimingStruct->FSMC_WaitSetupTime << 8) |
 701              		.loc 1 369 0
 702 008c 7A68     		ldr	r2, [r7, #4]
 703 008e 5269     		ldr	r2, [r2, #20]
 704 0090 5268     		ldr	r2, [r2, #4]
 705 0092 4FEA0222 		lsl	r2, r2, #8
 368:../STM32F10x_StdPeriph_Lib_V3.5.0/Libraries/STM32F10x_StdPeriph_Driver/src/stm32f10x_fsmc.c ****   FSMC_Bank4->PIO4 = (uint32_t)FSMC_PCCARDInitStruct->FSMC_IOSpaceTimingStruct->FSMC_SetupTime |
 706              		.loc 1 368 0
 707 0096 1143     		orrs	r1, r1, r2
 370:../STM32F10x_StdPeriph_Lib_V3.5.0/Libraries/STM32F10x_StdPeriph_Driver/src/stm32f10x_fsmc.c ****                      (FSMC_PCCARDInitStruct->FSMC_IOSpaceTimingStruct->FSMC_HoldSetupTime << 16)|
 708              		.loc 1 370 0
 709 0098 7A68     		ldr	r2, [r7, #4]
 710 009a 5269     		ldr	r2, [r2, #20]
 711 009c 9268     		ldr	r2, [r2, #8]
 712 009e 4FEA0242 		lsl	r2, r2, #16
 369:../STM32F10x_StdPeriph_Lib_V3.5.0/Libraries/STM32F10x_StdPeriph_Driver/src/stm32f10x_fsmc.c ****                      (FSMC_PCCARDInitStruct->FSMC_IOSpaceTimingStruct->FSMC_WaitSetupTime << 8) |
 713              		.loc 1 369 0
 714 00a2 1143     		orrs	r1, r1, r2
 371:../STM32F10x_StdPeriph_Lib_V3.5.0/Libraries/STM32F10x_StdPeriph_Driver/src/stm32f10x_fsmc.c ****                      (FSMC_PCCARDInitStruct->FSMC_IOSpaceTimingStruct->FSMC_HiZSetupTime << 24);   
 715              		.loc 1 371 0
 716 00a4 7A68     		ldr	r2, [r7, #4]
 717 00a6 5269     		ldr	r2, [r2, #20]
 718 00a8 D268     		ldr	r2, [r2, #12]
 719 00aa 4FEA0262 		lsl	r2, r2, #24
 370:../STM32F10x_StdPeriph_Lib_V3.5.0/Libraries/STM32F10x_StdPeriph_Driver/src/stm32f10x_fsmc.c ****                      (FSMC_PCCARDInitStruct->FSMC_IOSpaceTimingStruct->FSMC_HoldSetupTime << 16)|
 720              		.loc 1 370 0
 721 00ae 0A43     		orrs	r2, r2, r1
 368:../STM32F10x_StdPeriph_Lib_V3.5.0/Libraries/STM32F10x_StdPeriph_Driver/src/stm32f10x_fsmc.c ****   FSMC_Bank4->PIO4 = (uint32_t)FSMC_PCCARDInitStruct->FSMC_IOSpaceTimingStruct->FSMC_SetupTime |
 722              		.loc 1 368 0
 723 00b0 1A61     		str	r2, [r3, #16]
 372:../STM32F10x_StdPeriph_Lib_V3.5.0/Libraries/STM32F10x_StdPeriph_Driver/src/stm32f10x_fsmc.c **** }
 724              		.loc 1 372 0
 725 00b2 07F10C07 		add	r7, r7, #12
 726 00b6 BD46     		mov	sp, r7
 727 00b8 80BC     		pop	{r7}
 728 00ba 7047     		bx	lr
 729              	.L27:
 730              		.align	2
 731              	.L26:
 732 00bc A00000A0 		.word	-1610612576
 733              		.cfi_endproc
 734              	.LFE34:
 736              		.section	.text.FSMC_NORSRAMStructInit,"ax",%progbits
 737              		.align	2
 738              		.global	FSMC_NORSRAMStructInit
 739              		.thumb
 740              		.thumb_func
 742              	FSMC_NORSRAMStructInit:
 743              	.LFB35:
 373:../STM32F10x_StdPeriph_Lib_V3.5.0/Libraries/STM32F10x_StdPeriph_Driver/src/stm32f10x_fsmc.c **** 
 374:../STM32F10x_StdPeriph_Lib_V3.5.0/Libraries/STM32F10x_StdPeriph_Driver/src/stm32f10x_fsmc.c **** /**
 375:../STM32F10x_StdPeriph_Lib_V3.5.0/Libraries/STM32F10x_StdPeriph_Driver/src/stm32f10x_fsmc.c ****   * @brief  Fills each FSMC_NORSRAMInitStruct member with its default value.
 376:../STM32F10x_StdPeriph_Lib_V3.5.0/Libraries/STM32F10x_StdPeriph_Driver/src/stm32f10x_fsmc.c ****   * @param  FSMC_NORSRAMInitStruct: pointer to a FSMC_NORSRAMInitTypeDef 
 377:../STM32F10x_StdPeriph_Lib_V3.5.0/Libraries/STM32F10x_StdPeriph_Driver/src/stm32f10x_fsmc.c ****   *         structure which will be initialized.
 378:../STM32F10x_StdPeriph_Lib_V3.5.0/Libraries/STM32F10x_StdPeriph_Driver/src/stm32f10x_fsmc.c ****   * @retval None
 379:../STM32F10x_StdPeriph_Lib_V3.5.0/Libraries/STM32F10x_StdPeriph_Driver/src/stm32f10x_fsmc.c ****   */
 380:../STM32F10x_StdPeriph_Lib_V3.5.0/Libraries/STM32F10x_StdPeriph_Driver/src/stm32f10x_fsmc.c **** void FSMC_NORSRAMStructInit(FSMC_NORSRAMInitTypeDef* FSMC_NORSRAMInitStruct)
 381:../STM32F10x_StdPeriph_Lib_V3.5.0/Libraries/STM32F10x_StdPeriph_Driver/src/stm32f10x_fsmc.c **** {  
 744              		.loc 1 381 0
 745              		.cfi_startproc
 746              		@ args = 0, pretend = 0, frame = 8
 747              		@ frame_needed = 1, uses_anonymous_args = 0
 748              		@ link register save eliminated.
 749 0000 80B4     		push	{r7}
 750              	.LCFI17:
 751              		.cfi_def_cfa_offset 4
 752              		.cfi_offset 7, -4
 753 0002 83B0     		sub	sp, sp, #12
 754              	.LCFI18:
 755              		.cfi_def_cfa_offset 16
 756 0004 00AF     		add	r7, sp, #0
 757              	.LCFI19:
 758              		.cfi_def_cfa_register 7
 759 0006 7860     		str	r0, [r7, #4]
 382:../STM32F10x_StdPeriph_Lib_V3.5.0/Libraries/STM32F10x_StdPeriph_Driver/src/stm32f10x_fsmc.c ****   /* Reset NOR/SRAM Init structure parameters values */
 383:../STM32F10x_StdPeriph_Lib_V3.5.0/Libraries/STM32F10x_StdPeriph_Driver/src/stm32f10x_fsmc.c ****   FSMC_NORSRAMInitStruct->FSMC_Bank = FSMC_Bank1_NORSRAM1;
 760              		.loc 1 383 0
 761 0008 7B68     		ldr	r3, [r7, #4]
 762 000a 4FF00002 		mov	r2, #0
 763 000e 1A60     		str	r2, [r3, #0]
 384:../STM32F10x_StdPeriph_Lib_V3.5.0/Libraries/STM32F10x_StdPeriph_Driver/src/stm32f10x_fsmc.c ****   FSMC_NORSRAMInitStruct->FSMC_DataAddressMux = FSMC_DataAddressMux_Enable;
 764              		.loc 1 384 0
 765 0010 7B68     		ldr	r3, [r7, #4]
 766 0012 4FF00202 		mov	r2, #2
 767 0016 5A60     		str	r2, [r3, #4]
 385:../STM32F10x_StdPeriph_Lib_V3.5.0/Libraries/STM32F10x_StdPeriph_Driver/src/stm32f10x_fsmc.c ****   FSMC_NORSRAMInitStruct->FSMC_MemoryType = FSMC_MemoryType_SRAM;
 768              		.loc 1 385 0
 769 0018 7B68     		ldr	r3, [r7, #4]
 770 001a 4FF00002 		mov	r2, #0
 771 001e 9A60     		str	r2, [r3, #8]
 386:../STM32F10x_StdPeriph_Lib_V3.5.0/Libraries/STM32F10x_StdPeriph_Driver/src/stm32f10x_fsmc.c ****   FSMC_NORSRAMInitStruct->FSMC_MemoryDataWidth = FSMC_MemoryDataWidth_8b;
 772              		.loc 1 386 0
 773 0020 7B68     		ldr	r3, [r7, #4]
 774 0022 4FF00002 		mov	r2, #0
 775 0026 DA60     		str	r2, [r3, #12]
 387:../STM32F10x_StdPeriph_Lib_V3.5.0/Libraries/STM32F10x_StdPeriph_Driver/src/stm32f10x_fsmc.c ****   FSMC_NORSRAMInitStruct->FSMC_BurstAccessMode = FSMC_BurstAccessMode_Disable;
 776              		.loc 1 387 0
 777 0028 7B68     		ldr	r3, [r7, #4]
 778 002a 4FF00002 		mov	r2, #0
 779 002e 1A61     		str	r2, [r3, #16]
 388:../STM32F10x_StdPeriph_Lib_V3.5.0/Libraries/STM32F10x_StdPeriph_Driver/src/stm32f10x_fsmc.c ****   FSMC_NORSRAMInitStruct->FSMC_AsynchronousWait = FSMC_AsynchronousWait_Disable;
 780              		.loc 1 388 0
 781 0030 7B68     		ldr	r3, [r7, #4]
 782 0032 4FF00002 		mov	r2, #0
 783 0036 5A61     		str	r2, [r3, #20]
 389:../STM32F10x_StdPeriph_Lib_V3.5.0/Libraries/STM32F10x_StdPeriph_Driver/src/stm32f10x_fsmc.c ****   FSMC_NORSRAMInitStruct->FSMC_WaitSignalPolarity = FSMC_WaitSignalPolarity_Low;
 784              		.loc 1 389 0
 785 0038 7B68     		ldr	r3, [r7, #4]
 786 003a 4FF00002 		mov	r2, #0
 787 003e 9A61     		str	r2, [r3, #24]
 390:../STM32F10x_StdPeriph_Lib_V3.5.0/Libraries/STM32F10x_StdPeriph_Driver/src/stm32f10x_fsmc.c ****   FSMC_NORSRAMInitStruct->FSMC_WrapMode = FSMC_WrapMode_Disable;
 788              		.loc 1 390 0
 789 0040 7B68     		ldr	r3, [r7, #4]
 790 0042 4FF00002 		mov	r2, #0
 791 0046 DA61     		str	r2, [r3, #28]
 391:../STM32F10x_StdPeriph_Lib_V3.5.0/Libraries/STM32F10x_StdPeriph_Driver/src/stm32f10x_fsmc.c ****   FSMC_NORSRAMInitStruct->FSMC_WaitSignalActive = FSMC_WaitSignalActive_BeforeWaitState;
 792              		.loc 1 391 0
 793 0048 7B68     		ldr	r3, [r7, #4]
 794 004a 4FF00002 		mov	r2, #0
 795 004e 1A62     		str	r2, [r3, #32]
 392:../STM32F10x_StdPeriph_Lib_V3.5.0/Libraries/STM32F10x_StdPeriph_Driver/src/stm32f10x_fsmc.c ****   FSMC_NORSRAMInitStruct->FSMC_WriteOperation = FSMC_WriteOperation_Enable;
 796              		.loc 1 392 0
 797 0050 7B68     		ldr	r3, [r7, #4]
 798 0052 4FF48052 		mov	r2, #4096
 799 0056 5A62     		str	r2, [r3, #36]
 393:../STM32F10x_StdPeriph_Lib_V3.5.0/Libraries/STM32F10x_StdPeriph_Driver/src/stm32f10x_fsmc.c ****   FSMC_NORSRAMInitStruct->FSMC_WaitSignal = FSMC_WaitSignal_Enable;
 800              		.loc 1 393 0
 801 0058 7B68     		ldr	r3, [r7, #4]
 802 005a 4FF40052 		mov	r2, #8192
 803 005e 9A62     		str	r2, [r3, #40]
 394:../STM32F10x_StdPeriph_Lib_V3.5.0/Libraries/STM32F10x_StdPeriph_Driver/src/stm32f10x_fsmc.c ****   FSMC_NORSRAMInitStruct->FSMC_ExtendedMode = FSMC_ExtendedMode_Disable;
 804              		.loc 1 394 0
 805 0060 7B68     		ldr	r3, [r7, #4]
 806 0062 4FF00002 		mov	r2, #0
 807 0066 DA62     		str	r2, [r3, #44]
 395:../STM32F10x_StdPeriph_Lib_V3.5.0/Libraries/STM32F10x_StdPeriph_Driver/src/stm32f10x_fsmc.c ****   FSMC_NORSRAMInitStruct->FSMC_WriteBurst = FSMC_WriteBurst_Disable;
 808              		.loc 1 395 0
 809 0068 7B68     		ldr	r3, [r7, #4]
 810 006a 4FF00002 		mov	r2, #0
 811 006e 1A63     		str	r2, [r3, #48]
 396:../STM32F10x_StdPeriph_Lib_V3.5.0/Libraries/STM32F10x_StdPeriph_Driver/src/stm32f10x_fsmc.c ****   FSMC_NORSRAMInitStruct->FSMC_ReadWriteTimingStruct->FSMC_AddressSetupTime = 0xF;
 812              		.loc 1 396 0
 813 0070 7B68     		ldr	r3, [r7, #4]
 814 0072 5B6B     		ldr	r3, [r3, #52]
 815 0074 4FF00F02 		mov	r2, #15
 816 0078 1A60     		str	r2, [r3, #0]
 397:../STM32F10x_StdPeriph_Lib_V3.5.0/Libraries/STM32F10x_StdPeriph_Driver/src/stm32f10x_fsmc.c ****   FSMC_NORSRAMInitStruct->FSMC_ReadWriteTimingStruct->FSMC_AddressHoldTime = 0xF;
 817              		.loc 1 397 0
 818 007a 7B68     		ldr	r3, [r7, #4]
 819 007c 5B6B     		ldr	r3, [r3, #52]
 820 007e 4FF00F02 		mov	r2, #15
 821 0082 5A60     		str	r2, [r3, #4]
 398:../STM32F10x_StdPeriph_Lib_V3.5.0/Libraries/STM32F10x_StdPeriph_Driver/src/stm32f10x_fsmc.c ****   FSMC_NORSRAMInitStruct->FSMC_ReadWriteTimingStruct->FSMC_DataSetupTime = 0xFF;
 822              		.loc 1 398 0
 823 0084 7B68     		ldr	r3, [r7, #4]
 824 0086 5B6B     		ldr	r3, [r3, #52]
 825 0088 4FF0FF02 		mov	r2, #255
 826 008c 9A60     		str	r2, [r3, #8]
 399:../STM32F10x_StdPeriph_Lib_V3.5.0/Libraries/STM32F10x_StdPeriph_Driver/src/stm32f10x_fsmc.c ****   FSMC_NORSRAMInitStruct->FSMC_ReadWriteTimingStruct->FSMC_BusTurnAroundDuration = 0xF;
 827              		.loc 1 399 0
 828 008e 7B68     		ldr	r3, [r7, #4]
 829 0090 5B6B     		ldr	r3, [r3, #52]
 830 0092 4FF00F02 		mov	r2, #15
 831 0096 DA60     		str	r2, [r3, #12]
 400:../STM32F10x_StdPeriph_Lib_V3.5.0/Libraries/STM32F10x_StdPeriph_Driver/src/stm32f10x_fsmc.c ****   FSMC_NORSRAMInitStruct->FSMC_ReadWriteTimingStruct->FSMC_CLKDivision = 0xF;
 832              		.loc 1 400 0
 833 0098 7B68     		ldr	r3, [r7, #4]
 834 009a 5B6B     		ldr	r3, [r3, #52]
 835 009c 4FF00F02 		mov	r2, #15
 836 00a0 1A61     		str	r2, [r3, #16]
 401:../STM32F10x_StdPeriph_Lib_V3.5.0/Libraries/STM32F10x_StdPeriph_Driver/src/stm32f10x_fsmc.c ****   FSMC_NORSRAMInitStruct->FSMC_ReadWriteTimingStruct->FSMC_DataLatency = 0xF;
 837              		.loc 1 401 0
 838 00a2 7B68     		ldr	r3, [r7, #4]
 839 00a4 5B6B     		ldr	r3, [r3, #52]
 840 00a6 4FF00F02 		mov	r2, #15
 841 00aa 5A61     		str	r2, [r3, #20]
 402:../STM32F10x_StdPeriph_Lib_V3.5.0/Libraries/STM32F10x_StdPeriph_Driver/src/stm32f10x_fsmc.c ****   FSMC_NORSRAMInitStruct->FSMC_ReadWriteTimingStruct->FSMC_AccessMode = FSMC_AccessMode_A; 
 842              		.loc 1 402 0
 843 00ac 7B68     		ldr	r3, [r7, #4]
 844 00ae 5B6B     		ldr	r3, [r3, #52]
 845 00b0 4FF00002 		mov	r2, #0
 846 00b4 9A61     		str	r2, [r3, #24]
 403:../STM32F10x_StdPeriph_Lib_V3.5.0/Libraries/STM32F10x_StdPeriph_Driver/src/stm32f10x_fsmc.c ****   FSMC_NORSRAMInitStruct->FSMC_WriteTimingStruct->FSMC_AddressSetupTime = 0xF;
 847              		.loc 1 403 0
 848 00b6 7B68     		ldr	r3, [r7, #4]
 849 00b8 9B6B     		ldr	r3, [r3, #56]
 850 00ba 4FF00F02 		mov	r2, #15
 851 00be 1A60     		str	r2, [r3, #0]
 404:../STM32F10x_StdPeriph_Lib_V3.5.0/Libraries/STM32F10x_StdPeriph_Driver/src/stm32f10x_fsmc.c ****   FSMC_NORSRAMInitStruct->FSMC_WriteTimingStruct->FSMC_AddressHoldTime = 0xF;
 852              		.loc 1 404 0
 853 00c0 7B68     		ldr	r3, [r7, #4]
 854 00c2 9B6B     		ldr	r3, [r3, #56]
 855 00c4 4FF00F02 		mov	r2, #15
 856 00c8 5A60     		str	r2, [r3, #4]
 405:../STM32F10x_StdPeriph_Lib_V3.5.0/Libraries/STM32F10x_StdPeriph_Driver/src/stm32f10x_fsmc.c ****   FSMC_NORSRAMInitStruct->FSMC_WriteTimingStruct->FSMC_DataSetupTime = 0xFF;
 857              		.loc 1 405 0
 858 00ca 7B68     		ldr	r3, [r7, #4]
 859 00cc 9B6B     		ldr	r3, [r3, #56]
 860 00ce 4FF0FF02 		mov	r2, #255
 861 00d2 9A60     		str	r2, [r3, #8]
 406:../STM32F10x_StdPeriph_Lib_V3.5.0/Libraries/STM32F10x_StdPeriph_Driver/src/stm32f10x_fsmc.c ****   FSMC_NORSRAMInitStruct->FSMC_WriteTimingStruct->FSMC_BusTurnAroundDuration = 0xF;
 862              		.loc 1 406 0
 863 00d4 7B68     		ldr	r3, [r7, #4]
 864 00d6 9B6B     		ldr	r3, [r3, #56]
 865 00d8 4FF00F02 		mov	r2, #15
 866 00dc DA60     		str	r2, [r3, #12]
 407:../STM32F10x_StdPeriph_Lib_V3.5.0/Libraries/STM32F10x_StdPeriph_Driver/src/stm32f10x_fsmc.c ****   FSMC_NORSRAMInitStruct->FSMC_WriteTimingStruct->FSMC_CLKDivision = 0xF;
 867              		.loc 1 407 0
 868 00de 7B68     		ldr	r3, [r7, #4]
 869 00e0 9B6B     		ldr	r3, [r3, #56]
 870 00e2 4FF00F02 		mov	r2, #15
 871 00e6 1A61     		str	r2, [r3, #16]
 408:../STM32F10x_StdPeriph_Lib_V3.5.0/Libraries/STM32F10x_StdPeriph_Driver/src/stm32f10x_fsmc.c ****   FSMC_NORSRAMInitStruct->FSMC_WriteTimingStruct->FSMC_DataLatency = 0xF;
 872              		.loc 1 408 0
 873 00e8 7B68     		ldr	r3, [r7, #4]
 874 00ea 9B6B     		ldr	r3, [r3, #56]
 875 00ec 4FF00F02 		mov	r2, #15
 876 00f0 5A61     		str	r2, [r3, #20]
 409:../STM32F10x_StdPeriph_Lib_V3.5.0/Libraries/STM32F10x_StdPeriph_Driver/src/stm32f10x_fsmc.c ****   FSMC_NORSRAMInitStruct->FSMC_WriteTimingStruct->FSMC_AccessMode = FSMC_AccessMode_A;
 877              		.loc 1 409 0
 878 00f2 7B68     		ldr	r3, [r7, #4]
 879 00f4 9B6B     		ldr	r3, [r3, #56]
 880 00f6 4FF00002 		mov	r2, #0
 881 00fa 9A61     		str	r2, [r3, #24]
 410:../STM32F10x_StdPeriph_Lib_V3.5.0/Libraries/STM32F10x_StdPeriph_Driver/src/stm32f10x_fsmc.c **** }
 882              		.loc 1 410 0
 883 00fc 07F10C07 		add	r7, r7, #12
 884 0100 BD46     		mov	sp, r7
 885 0102 80BC     		pop	{r7}
 886 0104 7047     		bx	lr
 887              		.cfi_endproc
 888              	.LFE35:
 890 0106 00BF     		.section	.text.FSMC_NANDStructInit,"ax",%progbits
 891              		.align	2
 892              		.global	FSMC_NANDStructInit
 893              		.thumb
 894              		.thumb_func
 896              	FSMC_NANDStructInit:
 897              	.LFB36:
 411:../STM32F10x_StdPeriph_Lib_V3.5.0/Libraries/STM32F10x_StdPeriph_Driver/src/stm32f10x_fsmc.c **** 
 412:../STM32F10x_StdPeriph_Lib_V3.5.0/Libraries/STM32F10x_StdPeriph_Driver/src/stm32f10x_fsmc.c **** /**
 413:../STM32F10x_StdPeriph_Lib_V3.5.0/Libraries/STM32F10x_StdPeriph_Driver/src/stm32f10x_fsmc.c ****   * @brief  Fills each FSMC_NANDInitStruct member with its default value.
 414:../STM32F10x_StdPeriph_Lib_V3.5.0/Libraries/STM32F10x_StdPeriph_Driver/src/stm32f10x_fsmc.c ****   * @param  FSMC_NANDInitStruct: pointer to a FSMC_NANDInitTypeDef 
 415:../STM32F10x_StdPeriph_Lib_V3.5.0/Libraries/STM32F10x_StdPeriph_Driver/src/stm32f10x_fsmc.c ****   *         structure which will be initialized.
 416:../STM32F10x_StdPeriph_Lib_V3.5.0/Libraries/STM32F10x_StdPeriph_Driver/src/stm32f10x_fsmc.c ****   * @retval None
 417:../STM32F10x_StdPeriph_Lib_V3.5.0/Libraries/STM32F10x_StdPeriph_Driver/src/stm32f10x_fsmc.c ****   */
 418:../STM32F10x_StdPeriph_Lib_V3.5.0/Libraries/STM32F10x_StdPeriph_Driver/src/stm32f10x_fsmc.c **** void FSMC_NANDStructInit(FSMC_NANDInitTypeDef* FSMC_NANDInitStruct)
 419:../STM32F10x_StdPeriph_Lib_V3.5.0/Libraries/STM32F10x_StdPeriph_Driver/src/stm32f10x_fsmc.c **** { 
 898              		.loc 1 419 0
 899              		.cfi_startproc
 900              		@ args = 0, pretend = 0, frame = 8
 901              		@ frame_needed = 1, uses_anonymous_args = 0
 902              		@ link register save eliminated.
 903 0000 80B4     		push	{r7}
 904              	.LCFI20:
 905              		.cfi_def_cfa_offset 4
 906              		.cfi_offset 7, -4
 907 0002 83B0     		sub	sp, sp, #12
 908              	.LCFI21:
 909              		.cfi_def_cfa_offset 16
 910 0004 00AF     		add	r7, sp, #0
 911              	.LCFI22:
 912              		.cfi_def_cfa_register 7
 913 0006 7860     		str	r0, [r7, #4]
 420:../STM32F10x_StdPeriph_Lib_V3.5.0/Libraries/STM32F10x_StdPeriph_Driver/src/stm32f10x_fsmc.c ****   /* Reset NAND Init structure parameters values */
 421:../STM32F10x_StdPeriph_Lib_V3.5.0/Libraries/STM32F10x_StdPeriph_Driver/src/stm32f10x_fsmc.c ****   FSMC_NANDInitStruct->FSMC_Bank = FSMC_Bank2_NAND;
 914              		.loc 1 421 0
 915 0008 7B68     		ldr	r3, [r7, #4]
 916 000a 4FF01002 		mov	r2, #16
 917 000e 1A60     		str	r2, [r3, #0]
 422:../STM32F10x_StdPeriph_Lib_V3.5.0/Libraries/STM32F10x_StdPeriph_Driver/src/stm32f10x_fsmc.c ****   FSMC_NANDInitStruct->FSMC_Waitfeature = FSMC_Waitfeature_Disable;
 918              		.loc 1 422 0
 919 0010 7B68     		ldr	r3, [r7, #4]
 920 0012 4FF00002 		mov	r2, #0
 921 0016 5A60     		str	r2, [r3, #4]
 423:../STM32F10x_StdPeriph_Lib_V3.5.0/Libraries/STM32F10x_StdPeriph_Driver/src/stm32f10x_fsmc.c ****   FSMC_NANDInitStruct->FSMC_MemoryDataWidth = FSMC_MemoryDataWidth_8b;
 922              		.loc 1 423 0
 923 0018 7B68     		ldr	r3, [r7, #4]
 924 001a 4FF00002 		mov	r2, #0
 925 001e 9A60     		str	r2, [r3, #8]
 424:../STM32F10x_StdPeriph_Lib_V3.5.0/Libraries/STM32F10x_StdPeriph_Driver/src/stm32f10x_fsmc.c ****   FSMC_NANDInitStruct->FSMC_ECC = FSMC_ECC_Disable;
 926              		.loc 1 424 0
 927 0020 7B68     		ldr	r3, [r7, #4]
 928 0022 4FF00002 		mov	r2, #0
 929 0026 DA60     		str	r2, [r3, #12]
 425:../STM32F10x_StdPeriph_Lib_V3.5.0/Libraries/STM32F10x_StdPeriph_Driver/src/stm32f10x_fsmc.c ****   FSMC_NANDInitStruct->FSMC_ECCPageSize = FSMC_ECCPageSize_256Bytes;
 930              		.loc 1 425 0
 931 0028 7B68     		ldr	r3, [r7, #4]
 932 002a 4FF00002 		mov	r2, #0
 933 002e 1A61     		str	r2, [r3, #16]
 426:../STM32F10x_StdPeriph_Lib_V3.5.0/Libraries/STM32F10x_StdPeriph_Driver/src/stm32f10x_fsmc.c ****   FSMC_NANDInitStruct->FSMC_TCLRSetupTime = 0x0;
 934              		.loc 1 426 0
 935 0030 7B68     		ldr	r3, [r7, #4]
 936 0032 4FF00002 		mov	r2, #0
 937 0036 5A61     		str	r2, [r3, #20]
 427:../STM32F10x_StdPeriph_Lib_V3.5.0/Libraries/STM32F10x_StdPeriph_Driver/src/stm32f10x_fsmc.c ****   FSMC_NANDInitStruct->FSMC_TARSetupTime = 0x0;
 938              		.loc 1 427 0
 939 0038 7B68     		ldr	r3, [r7, #4]
 940 003a 4FF00002 		mov	r2, #0
 941 003e 9A61     		str	r2, [r3, #24]
 428:../STM32F10x_StdPeriph_Lib_V3.5.0/Libraries/STM32F10x_StdPeriph_Driver/src/stm32f10x_fsmc.c ****   FSMC_NANDInitStruct->FSMC_CommonSpaceTimingStruct->FSMC_SetupTime = 0xFC;
 942              		.loc 1 428 0
 943 0040 7B68     		ldr	r3, [r7, #4]
 944 0042 DB69     		ldr	r3, [r3, #28]
 945 0044 4FF0FC02 		mov	r2, #252
 946 0048 1A60     		str	r2, [r3, #0]
 429:../STM32F10x_StdPeriph_Lib_V3.5.0/Libraries/STM32F10x_StdPeriph_Driver/src/stm32f10x_fsmc.c ****   FSMC_NANDInitStruct->FSMC_CommonSpaceTimingStruct->FSMC_WaitSetupTime = 0xFC;
 947              		.loc 1 429 0
 948 004a 7B68     		ldr	r3, [r7, #4]
 949 004c DB69     		ldr	r3, [r3, #28]
 950 004e 4FF0FC02 		mov	r2, #252
 951 0052 5A60     		str	r2, [r3, #4]
 430:../STM32F10x_StdPeriph_Lib_V3.5.0/Libraries/STM32F10x_StdPeriph_Driver/src/stm32f10x_fsmc.c ****   FSMC_NANDInitStruct->FSMC_CommonSpaceTimingStruct->FSMC_HoldSetupTime = 0xFC;
 952              		.loc 1 430 0
 953 0054 7B68     		ldr	r3, [r7, #4]
 954 0056 DB69     		ldr	r3, [r3, #28]
 955 0058 4FF0FC02 		mov	r2, #252
 956 005c 9A60     		str	r2, [r3, #8]
 431:../STM32F10x_StdPeriph_Lib_V3.5.0/Libraries/STM32F10x_StdPeriph_Driver/src/stm32f10x_fsmc.c ****   FSMC_NANDInitStruct->FSMC_CommonSpaceTimingStruct->FSMC_HiZSetupTime = 0xFC;
 957              		.loc 1 431 0
 958 005e 7B68     		ldr	r3, [r7, #4]
 959 0060 DB69     		ldr	r3, [r3, #28]
 960 0062 4FF0FC02 		mov	r2, #252
 961 0066 DA60     		str	r2, [r3, #12]
 432:../STM32F10x_StdPeriph_Lib_V3.5.0/Libraries/STM32F10x_StdPeriph_Driver/src/stm32f10x_fsmc.c ****   FSMC_NANDInitStruct->FSMC_AttributeSpaceTimingStruct->FSMC_SetupTime = 0xFC;
 962              		.loc 1 432 0
 963 0068 7B68     		ldr	r3, [r7, #4]
 964 006a 1B6A     		ldr	r3, [r3, #32]
 965 006c 4FF0FC02 		mov	r2, #252
 966 0070 1A60     		str	r2, [r3, #0]
 433:../STM32F10x_StdPeriph_Lib_V3.5.0/Libraries/STM32F10x_StdPeriph_Driver/src/stm32f10x_fsmc.c ****   FSMC_NANDInitStruct->FSMC_AttributeSpaceTimingStruct->FSMC_WaitSetupTime = 0xFC;
 967              		.loc 1 433 0
 968 0072 7B68     		ldr	r3, [r7, #4]
 969 0074 1B6A     		ldr	r3, [r3, #32]
 970 0076 4FF0FC02 		mov	r2, #252
 971 007a 5A60     		str	r2, [r3, #4]
 434:../STM32F10x_StdPeriph_Lib_V3.5.0/Libraries/STM32F10x_StdPeriph_Driver/src/stm32f10x_fsmc.c ****   FSMC_NANDInitStruct->FSMC_AttributeSpaceTimingStruct->FSMC_HoldSetupTime = 0xFC;
 972              		.loc 1 434 0
 973 007c 7B68     		ldr	r3, [r7, #4]
 974 007e 1B6A     		ldr	r3, [r3, #32]
 975 0080 4FF0FC02 		mov	r2, #252
 976 0084 9A60     		str	r2, [r3, #8]
 435:../STM32F10x_StdPeriph_Lib_V3.5.0/Libraries/STM32F10x_StdPeriph_Driver/src/stm32f10x_fsmc.c ****   FSMC_NANDInitStruct->FSMC_AttributeSpaceTimingStruct->FSMC_HiZSetupTime = 0xFC;	  
 977              		.loc 1 435 0
 978 0086 7B68     		ldr	r3, [r7, #4]
 979 0088 1B6A     		ldr	r3, [r3, #32]
 980 008a 4FF0FC02 		mov	r2, #252
 981 008e DA60     		str	r2, [r3, #12]
 436:../STM32F10x_StdPeriph_Lib_V3.5.0/Libraries/STM32F10x_StdPeriph_Driver/src/stm32f10x_fsmc.c **** }
 982              		.loc 1 436 0
 983 0090 07F10C07 		add	r7, r7, #12
 984 0094 BD46     		mov	sp, r7
 985 0096 80BC     		pop	{r7}
 986 0098 7047     		bx	lr
 987              		.cfi_endproc
 988              	.LFE36:
 990 009a 00BF     		.section	.text.FSMC_PCCARDStructInit,"ax",%progbits
 991              		.align	2
 992              		.global	FSMC_PCCARDStructInit
 993              		.thumb
 994              		.thumb_func
 996              	FSMC_PCCARDStructInit:
 997              	.LFB37:
 437:../STM32F10x_StdPeriph_Lib_V3.5.0/Libraries/STM32F10x_StdPeriph_Driver/src/stm32f10x_fsmc.c **** 
 438:../STM32F10x_StdPeriph_Lib_V3.5.0/Libraries/STM32F10x_StdPeriph_Driver/src/stm32f10x_fsmc.c **** /**
 439:../STM32F10x_StdPeriph_Lib_V3.5.0/Libraries/STM32F10x_StdPeriph_Driver/src/stm32f10x_fsmc.c ****   * @brief  Fills each FSMC_PCCARDInitStruct member with its default value.
 440:../STM32F10x_StdPeriph_Lib_V3.5.0/Libraries/STM32F10x_StdPeriph_Driver/src/stm32f10x_fsmc.c ****   * @param  FSMC_PCCARDInitStruct: pointer to a FSMC_PCCARDInitTypeDef 
 441:../STM32F10x_StdPeriph_Lib_V3.5.0/Libraries/STM32F10x_StdPeriph_Driver/src/stm32f10x_fsmc.c ****   *         structure which will be initialized.
 442:../STM32F10x_StdPeriph_Lib_V3.5.0/Libraries/STM32F10x_StdPeriph_Driver/src/stm32f10x_fsmc.c ****   * @retval None
 443:../STM32F10x_StdPeriph_Lib_V3.5.0/Libraries/STM32F10x_StdPeriph_Driver/src/stm32f10x_fsmc.c ****   */
 444:../STM32F10x_StdPeriph_Lib_V3.5.0/Libraries/STM32F10x_StdPeriph_Driver/src/stm32f10x_fsmc.c **** void FSMC_PCCARDStructInit(FSMC_PCCARDInitTypeDef* FSMC_PCCARDInitStruct)
 445:../STM32F10x_StdPeriph_Lib_V3.5.0/Libraries/STM32F10x_StdPeriph_Driver/src/stm32f10x_fsmc.c **** {
 998              		.loc 1 445 0
 999              		.cfi_startproc
 1000              		@ args = 0, pretend = 0, frame = 8
 1001              		@ frame_needed = 1, uses_anonymous_args = 0
 1002              		@ link register save eliminated.
 1003 0000 80B4     		push	{r7}
 1004              	.LCFI23:
 1005              		.cfi_def_cfa_offset 4
 1006              		.cfi_offset 7, -4
 1007 0002 83B0     		sub	sp, sp, #12
 1008              	.LCFI24:
 1009              		.cfi_def_cfa_offset 16
 1010 0004 00AF     		add	r7, sp, #0
 1011              	.LCFI25:
 1012              		.cfi_def_cfa_register 7
 1013 0006 7860     		str	r0, [r7, #4]
 446:../STM32F10x_StdPeriph_Lib_V3.5.0/Libraries/STM32F10x_StdPeriph_Driver/src/stm32f10x_fsmc.c ****   /* Reset PCCARD Init structure parameters values */
 447:../STM32F10x_StdPeriph_Lib_V3.5.0/Libraries/STM32F10x_StdPeriph_Driver/src/stm32f10x_fsmc.c ****   FSMC_PCCARDInitStruct->FSMC_Waitfeature = FSMC_Waitfeature_Disable;
 1014              		.loc 1 447 0
 1015 0008 7B68     		ldr	r3, [r7, #4]
 1016 000a 4FF00002 		mov	r2, #0
 1017 000e 1A60     		str	r2, [r3, #0]
 448:../STM32F10x_StdPeriph_Lib_V3.5.0/Libraries/STM32F10x_StdPeriph_Driver/src/stm32f10x_fsmc.c ****   FSMC_PCCARDInitStruct->FSMC_TCLRSetupTime = 0x0;
 1018              		.loc 1 448 0
 1019 0010 7B68     		ldr	r3, [r7, #4]
 1020 0012 4FF00002 		mov	r2, #0
 1021 0016 5A60     		str	r2, [r3, #4]
 449:../STM32F10x_StdPeriph_Lib_V3.5.0/Libraries/STM32F10x_StdPeriph_Driver/src/stm32f10x_fsmc.c ****   FSMC_PCCARDInitStruct->FSMC_TARSetupTime = 0x0;
 1022              		.loc 1 449 0
 1023 0018 7B68     		ldr	r3, [r7, #4]
 1024 001a 4FF00002 		mov	r2, #0
 1025 001e 9A60     		str	r2, [r3, #8]
 450:../STM32F10x_StdPeriph_Lib_V3.5.0/Libraries/STM32F10x_StdPeriph_Driver/src/stm32f10x_fsmc.c ****   FSMC_PCCARDInitStruct->FSMC_CommonSpaceTimingStruct->FSMC_SetupTime = 0xFC;
 1026              		.loc 1 450 0
 1027 0020 7B68     		ldr	r3, [r7, #4]
 1028 0022 DB68     		ldr	r3, [r3, #12]
 1029 0024 4FF0FC02 		mov	r2, #252
 1030 0028 1A60     		str	r2, [r3, #0]
 451:../STM32F10x_StdPeriph_Lib_V3.5.0/Libraries/STM32F10x_StdPeriph_Driver/src/stm32f10x_fsmc.c ****   FSMC_PCCARDInitStruct->FSMC_CommonSpaceTimingStruct->FSMC_WaitSetupTime = 0xFC;
 1031              		.loc 1 451 0
 1032 002a 7B68     		ldr	r3, [r7, #4]
 1033 002c DB68     		ldr	r3, [r3, #12]
 1034 002e 4FF0FC02 		mov	r2, #252
 1035 0032 5A60     		str	r2, [r3, #4]
 452:../STM32F10x_StdPeriph_Lib_V3.5.0/Libraries/STM32F10x_StdPeriph_Driver/src/stm32f10x_fsmc.c ****   FSMC_PCCARDInitStruct->FSMC_CommonSpaceTimingStruct->FSMC_HoldSetupTime = 0xFC;
 1036              		.loc 1 452 0
 1037 0034 7B68     		ldr	r3, [r7, #4]
 1038 0036 DB68     		ldr	r3, [r3, #12]
 1039 0038 4FF0FC02 		mov	r2, #252
 1040 003c 9A60     		str	r2, [r3, #8]
 453:../STM32F10x_StdPeriph_Lib_V3.5.0/Libraries/STM32F10x_StdPeriph_Driver/src/stm32f10x_fsmc.c ****   FSMC_PCCARDInitStruct->FSMC_CommonSpaceTimingStruct->FSMC_HiZSetupTime = 0xFC;
 1041              		.loc 1 453 0
 1042 003e 7B68     		ldr	r3, [r7, #4]
 1043 0040 DB68     		ldr	r3, [r3, #12]
 1044 0042 4FF0FC02 		mov	r2, #252
 1045 0046 DA60     		str	r2, [r3, #12]
 454:../STM32F10x_StdPeriph_Lib_V3.5.0/Libraries/STM32F10x_StdPeriph_Driver/src/stm32f10x_fsmc.c ****   FSMC_PCCARDInitStruct->FSMC_AttributeSpaceTimingStruct->FSMC_SetupTime = 0xFC;
 1046              		.loc 1 454 0
 1047 0048 7B68     		ldr	r3, [r7, #4]
 1048 004a 1B69     		ldr	r3, [r3, #16]
 1049 004c 4FF0FC02 		mov	r2, #252
 1050 0050 1A60     		str	r2, [r3, #0]
 455:../STM32F10x_StdPeriph_Lib_V3.5.0/Libraries/STM32F10x_StdPeriph_Driver/src/stm32f10x_fsmc.c ****   FSMC_PCCARDInitStruct->FSMC_AttributeSpaceTimingStruct->FSMC_WaitSetupTime = 0xFC;
 1051              		.loc 1 455 0
 1052 0052 7B68     		ldr	r3, [r7, #4]
 1053 0054 1B69     		ldr	r3, [r3, #16]
 1054 0056 4FF0FC02 		mov	r2, #252
 1055 005a 5A60     		str	r2, [r3, #4]
 456:../STM32F10x_StdPeriph_Lib_V3.5.0/Libraries/STM32F10x_StdPeriph_Driver/src/stm32f10x_fsmc.c ****   FSMC_PCCARDInitStruct->FSMC_AttributeSpaceTimingStruct->FSMC_HoldSetupTime = 0xFC;
 1056              		.loc 1 456 0
 1057 005c 7B68     		ldr	r3, [r7, #4]
 1058 005e 1B69     		ldr	r3, [r3, #16]
 1059 0060 4FF0FC02 		mov	r2, #252
 1060 0064 9A60     		str	r2, [r3, #8]
 457:../STM32F10x_StdPeriph_Lib_V3.5.0/Libraries/STM32F10x_StdPeriph_Driver/src/stm32f10x_fsmc.c ****   FSMC_PCCARDInitStruct->FSMC_AttributeSpaceTimingStruct->FSMC_HiZSetupTime = 0xFC;	
 1061              		.loc 1 457 0
 1062 0066 7B68     		ldr	r3, [r7, #4]
 1063 0068 1B69     		ldr	r3, [r3, #16]
 1064 006a 4FF0FC02 		mov	r2, #252
 1065 006e DA60     		str	r2, [r3, #12]
 458:../STM32F10x_StdPeriph_Lib_V3.5.0/Libraries/STM32F10x_StdPeriph_Driver/src/stm32f10x_fsmc.c ****   FSMC_PCCARDInitStruct->FSMC_IOSpaceTimingStruct->FSMC_SetupTime = 0xFC;
 1066              		.loc 1 458 0
 1067 0070 7B68     		ldr	r3, [r7, #4]
 1068 0072 5B69     		ldr	r3, [r3, #20]
 1069 0074 4FF0FC02 		mov	r2, #252
 1070 0078 1A60     		str	r2, [r3, #0]
 459:../STM32F10x_StdPeriph_Lib_V3.5.0/Libraries/STM32F10x_StdPeriph_Driver/src/stm32f10x_fsmc.c ****   FSMC_PCCARDInitStruct->FSMC_IOSpaceTimingStruct->FSMC_WaitSetupTime = 0xFC;
 1071              		.loc 1 459 0
 1072 007a 7B68     		ldr	r3, [r7, #4]
 1073 007c 5B69     		ldr	r3, [r3, #20]
 1074 007e 4FF0FC02 		mov	r2, #252
 1075 0082 5A60     		str	r2, [r3, #4]
 460:../STM32F10x_StdPeriph_Lib_V3.5.0/Libraries/STM32F10x_StdPeriph_Driver/src/stm32f10x_fsmc.c ****   FSMC_PCCARDInitStruct->FSMC_IOSpaceTimingStruct->FSMC_HoldSetupTime = 0xFC;
 1076              		.loc 1 460 0
 1077 0084 7B68     		ldr	r3, [r7, #4]
 1078 0086 5B69     		ldr	r3, [r3, #20]
 1079 0088 4FF0FC02 		mov	r2, #252
 1080 008c 9A60     		str	r2, [r3, #8]
 461:../STM32F10x_StdPeriph_Lib_V3.5.0/Libraries/STM32F10x_StdPeriph_Driver/src/stm32f10x_fsmc.c ****   FSMC_PCCARDInitStruct->FSMC_IOSpaceTimingStruct->FSMC_HiZSetupTime = 0xFC;
 1081              		.loc 1 461 0
 1082 008e 7B68     		ldr	r3, [r7, #4]
 1083 0090 5B69     		ldr	r3, [r3, #20]
 1084 0092 4FF0FC02 		mov	r2, #252
 1085 0096 DA60     		str	r2, [r3, #12]
 462:../STM32F10x_StdPeriph_Lib_V3.5.0/Libraries/STM32F10x_StdPeriph_Driver/src/stm32f10x_fsmc.c **** }
 1086              		.loc 1 462 0
 1087 0098 07F10C07 		add	r7, r7, #12
 1088 009c BD46     		mov	sp, r7
 1089 009e 80BC     		pop	{r7}
 1090 00a0 7047     		bx	lr
 1091              		.cfi_endproc
 1092              	.LFE37:
 1094 00a2 00BF     		.section	.text.FSMC_NORSRAMCmd,"ax",%progbits
 1095              		.align	2
 1096              		.global	FSMC_NORSRAMCmd
 1097              		.thumb
 1098              		.thumb_func
 1100              	FSMC_NORSRAMCmd:
 1101              	.LFB38:
 463:../STM32F10x_StdPeriph_Lib_V3.5.0/Libraries/STM32F10x_StdPeriph_Driver/src/stm32f10x_fsmc.c **** 
 464:../STM32F10x_StdPeriph_Lib_V3.5.0/Libraries/STM32F10x_StdPeriph_Driver/src/stm32f10x_fsmc.c **** /**
 465:../STM32F10x_StdPeriph_Lib_V3.5.0/Libraries/STM32F10x_StdPeriph_Driver/src/stm32f10x_fsmc.c ****   * @brief  Enables or disables the specified NOR/SRAM Memory Bank.
 466:../STM32F10x_StdPeriph_Lib_V3.5.0/Libraries/STM32F10x_StdPeriph_Driver/src/stm32f10x_fsmc.c ****   * @param  FSMC_Bank: specifies the FSMC Bank to be used
 467:../STM32F10x_StdPeriph_Lib_V3.5.0/Libraries/STM32F10x_StdPeriph_Driver/src/stm32f10x_fsmc.c ****   *   This parameter can be one of the following values:
 468:../STM32F10x_StdPeriph_Lib_V3.5.0/Libraries/STM32F10x_StdPeriph_Driver/src/stm32f10x_fsmc.c ****   *     @arg FSMC_Bank1_NORSRAM1: FSMC Bank1 NOR/SRAM1  
 469:../STM32F10x_StdPeriph_Lib_V3.5.0/Libraries/STM32F10x_StdPeriph_Driver/src/stm32f10x_fsmc.c ****   *     @arg FSMC_Bank1_NORSRAM2: FSMC Bank1 NOR/SRAM2 
 470:../STM32F10x_StdPeriph_Lib_V3.5.0/Libraries/STM32F10x_StdPeriph_Driver/src/stm32f10x_fsmc.c ****   *     @arg FSMC_Bank1_NORSRAM3: FSMC Bank1 NOR/SRAM3 
 471:../STM32F10x_StdPeriph_Lib_V3.5.0/Libraries/STM32F10x_StdPeriph_Driver/src/stm32f10x_fsmc.c ****   *     @arg FSMC_Bank1_NORSRAM4: FSMC Bank1 NOR/SRAM4 
 472:../STM32F10x_StdPeriph_Lib_V3.5.0/Libraries/STM32F10x_StdPeriph_Driver/src/stm32f10x_fsmc.c ****   * @param  NewState: new state of the FSMC_Bank. This parameter can be: ENABLE or DISABLE.
 473:../STM32F10x_StdPeriph_Lib_V3.5.0/Libraries/STM32F10x_StdPeriph_Driver/src/stm32f10x_fsmc.c ****   * @retval None
 474:../STM32F10x_StdPeriph_Lib_V3.5.0/Libraries/STM32F10x_StdPeriph_Driver/src/stm32f10x_fsmc.c ****   */
 475:../STM32F10x_StdPeriph_Lib_V3.5.0/Libraries/STM32F10x_StdPeriph_Driver/src/stm32f10x_fsmc.c **** void FSMC_NORSRAMCmd(uint32_t FSMC_Bank, FunctionalState NewState)
 476:../STM32F10x_StdPeriph_Lib_V3.5.0/Libraries/STM32F10x_StdPeriph_Driver/src/stm32f10x_fsmc.c **** {
 1102              		.loc 1 476 0
 1103              		.cfi_startproc
 1104              		@ args = 0, pretend = 0, frame = 8
 1105              		@ frame_needed = 1, uses_anonymous_args = 0
 1106              		@ link register save eliminated.
 1107 0000 80B4     		push	{r7}
 1108              	.LCFI26:
 1109              		.cfi_def_cfa_offset 4
 1110              		.cfi_offset 7, -4
 1111 0002 83B0     		sub	sp, sp, #12
 1112              	.LCFI27:
 1113              		.cfi_def_cfa_offset 16
 1114 0004 00AF     		add	r7, sp, #0
 1115              	.LCFI28:
 1116              		.cfi_def_cfa_register 7
 1117 0006 7860     		str	r0, [r7, #4]
 1118 0008 0B46     		mov	r3, r1
 1119 000a FB70     		strb	r3, [r7, #3]
 477:../STM32F10x_StdPeriph_Lib_V3.5.0/Libraries/STM32F10x_StdPeriph_Driver/src/stm32f10x_fsmc.c ****   assert_param(IS_FSMC_NORSRAM_BANK(FSMC_Bank));
 478:../STM32F10x_StdPeriph_Lib_V3.5.0/Libraries/STM32F10x_StdPeriph_Driver/src/stm32f10x_fsmc.c ****   assert_param(IS_FUNCTIONAL_STATE(NewState));
 479:../STM32F10x_StdPeriph_Lib_V3.5.0/Libraries/STM32F10x_StdPeriph_Driver/src/stm32f10x_fsmc.c ****   
 480:../STM32F10x_StdPeriph_Lib_V3.5.0/Libraries/STM32F10x_StdPeriph_Driver/src/stm32f10x_fsmc.c ****   if (NewState != DISABLE)
 1120              		.loc 1 480 0
 1121 000c FB78     		ldrb	r3, [r7, #3]	@ zero_extendqisi2
 1122 000e 002B     		cmp	r3, #0
 1123 0010 0CD0     		beq	.L32
 481:../STM32F10x_StdPeriph_Lib_V3.5.0/Libraries/STM32F10x_StdPeriph_Driver/src/stm32f10x_fsmc.c ****   {
 482:../STM32F10x_StdPeriph_Lib_V3.5.0/Libraries/STM32F10x_StdPeriph_Driver/src/stm32f10x_fsmc.c ****     /* Enable the selected NOR/SRAM Bank by setting the PBKEN bit in the BCRx register */
 483:../STM32F10x_StdPeriph_Lib_V3.5.0/Libraries/STM32F10x_StdPeriph_Driver/src/stm32f10x_fsmc.c ****     FSMC_Bank1->BTCR[FSMC_Bank] |= BCR_MBKEN_Set;
 1124              		.loc 1 483 0
 1125 0012 4FF02043 		mov	r3, #-1610612736
 1126 0016 4FF02042 		mov	r2, #-1610612736
 1127 001a 7968     		ldr	r1, [r7, #4]
 1128 001c 52F82120 		ldr	r2, [r2, r1, lsl #2]
 1129 0020 42F00101 		orr	r1, r2, #1
 1130 0024 7A68     		ldr	r2, [r7, #4]
 1131 0026 43F82210 		str	r1, [r3, r2, lsl #2]
 1132 002a 0BE0     		b	.L31
 1133              	.L32:
 484:../STM32F10x_StdPeriph_Lib_V3.5.0/Libraries/STM32F10x_StdPeriph_Driver/src/stm32f10x_fsmc.c ****   }
 485:../STM32F10x_StdPeriph_Lib_V3.5.0/Libraries/STM32F10x_StdPeriph_Driver/src/stm32f10x_fsmc.c ****   else
 486:../STM32F10x_StdPeriph_Lib_V3.5.0/Libraries/STM32F10x_StdPeriph_Driver/src/stm32f10x_fsmc.c ****   {
 487:../STM32F10x_StdPeriph_Lib_V3.5.0/Libraries/STM32F10x_StdPeriph_Driver/src/stm32f10x_fsmc.c ****     /* Disable the selected NOR/SRAM Bank by clearing the PBKEN bit in the BCRx register */
 488:../STM32F10x_StdPeriph_Lib_V3.5.0/Libraries/STM32F10x_StdPeriph_Driver/src/stm32f10x_fsmc.c ****     FSMC_Bank1->BTCR[FSMC_Bank] &= BCR_MBKEN_Reset;
 1134              		.loc 1 488 0
 1135 002c 4FF02042 		mov	r2, #-1610612736
 1136 0030 4FF02043 		mov	r3, #-1610612736
 1137 0034 7968     		ldr	r1, [r7, #4]
 1138 0036 53F82110 		ldr	r1, [r3, r1, lsl #2]
 1139 003a 054B     		ldr	r3, .L34
 1140 003c 0B40     		ands	r3, r3, r1
 1141 003e 7968     		ldr	r1, [r7, #4]
 1142 0040 42F82130 		str	r3, [r2, r1, lsl #2]
 1143              	.L31:
 489:../STM32F10x_StdPeriph_Lib_V3.5.0/Libraries/STM32F10x_StdPeriph_Driver/src/stm32f10x_fsmc.c ****   }
 490:../STM32F10x_StdPeriph_Lib_V3.5.0/Libraries/STM32F10x_StdPeriph_Driver/src/stm32f10x_fsmc.c **** }
 1144              		.loc 1 490 0
 1145 0044 07F10C07 		add	r7, r7, #12
 1146 0048 BD46     		mov	sp, r7
 1147 004a 80BC     		pop	{r7}
 1148 004c 7047     		bx	lr
 1149              	.L35:
 1150 004e 00BF     		.align	2
 1151              	.L34:
 1152 0050 FEFF0F00 		.word	1048574
 1153              		.cfi_endproc
 1154              	.LFE38:
 1156              		.section	.text.FSMC_NANDCmd,"ax",%progbits
 1157              		.align	2
 1158              		.global	FSMC_NANDCmd
 1159              		.thumb
 1160              		.thumb_func
 1162              	FSMC_NANDCmd:
 1163              	.LFB39:
 491:../STM32F10x_StdPeriph_Lib_V3.5.0/Libraries/STM32F10x_StdPeriph_Driver/src/stm32f10x_fsmc.c **** 
 492:../STM32F10x_StdPeriph_Lib_V3.5.0/Libraries/STM32F10x_StdPeriph_Driver/src/stm32f10x_fsmc.c **** /**
 493:../STM32F10x_StdPeriph_Lib_V3.5.0/Libraries/STM32F10x_StdPeriph_Driver/src/stm32f10x_fsmc.c ****   * @brief  Enables or disables the specified NAND Memory Bank.
 494:../STM32F10x_StdPeriph_Lib_V3.5.0/Libraries/STM32F10x_StdPeriph_Driver/src/stm32f10x_fsmc.c ****   * @param  FSMC_Bank: specifies the FSMC Bank to be used
 495:../STM32F10x_StdPeriph_Lib_V3.5.0/Libraries/STM32F10x_StdPeriph_Driver/src/stm32f10x_fsmc.c ****   *   This parameter can be one of the following values:
 496:../STM32F10x_StdPeriph_Lib_V3.5.0/Libraries/STM32F10x_StdPeriph_Driver/src/stm32f10x_fsmc.c ****   *     @arg FSMC_Bank2_NAND: FSMC Bank2 NAND 
 497:../STM32F10x_StdPeriph_Lib_V3.5.0/Libraries/STM32F10x_StdPeriph_Driver/src/stm32f10x_fsmc.c ****   *     @arg FSMC_Bank3_NAND: FSMC Bank3 NAND
 498:../STM32F10x_StdPeriph_Lib_V3.5.0/Libraries/STM32F10x_StdPeriph_Driver/src/stm32f10x_fsmc.c ****   * @param  NewState: new state of the FSMC_Bank. This parameter can be: ENABLE or DISABLE.
 499:../STM32F10x_StdPeriph_Lib_V3.5.0/Libraries/STM32F10x_StdPeriph_Driver/src/stm32f10x_fsmc.c ****   * @retval None
 500:../STM32F10x_StdPeriph_Lib_V3.5.0/Libraries/STM32F10x_StdPeriph_Driver/src/stm32f10x_fsmc.c ****   */
 501:../STM32F10x_StdPeriph_Lib_V3.5.0/Libraries/STM32F10x_StdPeriph_Driver/src/stm32f10x_fsmc.c **** void FSMC_NANDCmd(uint32_t FSMC_Bank, FunctionalState NewState)
 502:../STM32F10x_StdPeriph_Lib_V3.5.0/Libraries/STM32F10x_StdPeriph_Driver/src/stm32f10x_fsmc.c **** {
 1164              		.loc 1 502 0
 1165              		.cfi_startproc
 1166              		@ args = 0, pretend = 0, frame = 8
 1167              		@ frame_needed = 1, uses_anonymous_args = 0
 1168              		@ link register save eliminated.
 1169 0000 80B4     		push	{r7}
 1170              	.LCFI29:
 1171              		.cfi_def_cfa_offset 4
 1172              		.cfi_offset 7, -4
 1173 0002 83B0     		sub	sp, sp, #12
 1174              	.LCFI30:
 1175              		.cfi_def_cfa_offset 16
 1176 0004 00AF     		add	r7, sp, #0
 1177              	.LCFI31:
 1178              		.cfi_def_cfa_register 7
 1179 0006 7860     		str	r0, [r7, #4]
 1180 0008 0B46     		mov	r3, r1
 1181 000a FB70     		strb	r3, [r7, #3]
 503:../STM32F10x_StdPeriph_Lib_V3.5.0/Libraries/STM32F10x_StdPeriph_Driver/src/stm32f10x_fsmc.c ****   assert_param(IS_FSMC_NAND_BANK(FSMC_Bank));
 504:../STM32F10x_StdPeriph_Lib_V3.5.0/Libraries/STM32F10x_StdPeriph_Driver/src/stm32f10x_fsmc.c ****   assert_param(IS_FUNCTIONAL_STATE(NewState));
 505:../STM32F10x_StdPeriph_Lib_V3.5.0/Libraries/STM32F10x_StdPeriph_Driver/src/stm32f10x_fsmc.c ****   
 506:../STM32F10x_StdPeriph_Lib_V3.5.0/Libraries/STM32F10x_StdPeriph_Driver/src/stm32f10x_fsmc.c ****   if (NewState != DISABLE)
 1182              		.loc 1 506 0
 1183 000c FB78     		ldrb	r3, [r7, #3]	@ zero_extendqisi2
 1184 000e 002B     		cmp	r3, #0
 1185 0010 10D0     		beq	.L37
 507:../STM32F10x_StdPeriph_Lib_V3.5.0/Libraries/STM32F10x_StdPeriph_Driver/src/stm32f10x_fsmc.c ****   {
 508:../STM32F10x_StdPeriph_Lib_V3.5.0/Libraries/STM32F10x_StdPeriph_Driver/src/stm32f10x_fsmc.c ****     /* Enable the selected NAND Bank by setting the PBKEN bit in the PCRx register */
 509:../STM32F10x_StdPeriph_Lib_V3.5.0/Libraries/STM32F10x_StdPeriph_Driver/src/stm32f10x_fsmc.c ****     if(FSMC_Bank == FSMC_Bank2_NAND)
 1186              		.loc 1 509 0
 1187 0012 7B68     		ldr	r3, [r7, #4]
 1188 0014 102B     		cmp	r3, #16
 1189 0016 06D1     		bne	.L38
 510:../STM32F10x_StdPeriph_Lib_V3.5.0/Libraries/STM32F10x_StdPeriph_Driver/src/stm32f10x_fsmc.c ****     {
 511:../STM32F10x_StdPeriph_Lib_V3.5.0/Libraries/STM32F10x_StdPeriph_Driver/src/stm32f10x_fsmc.c ****       FSMC_Bank2->PCR2 |= PCR_PBKEN_Set;
 1190              		.loc 1 511 0
 1191 0018 114B     		ldr	r3, .L41
 1192 001a 114A     		ldr	r2, .L41
 1193 001c 1268     		ldr	r2, [r2, #0]
 1194 001e 42F00402 		orr	r2, r2, #4
 1195 0022 1A60     		str	r2, [r3, #0]
 1196 0024 16E0     		b	.L36
 1197              	.L38:
 512:../STM32F10x_StdPeriph_Lib_V3.5.0/Libraries/STM32F10x_StdPeriph_Driver/src/stm32f10x_fsmc.c ****     }
 513:../STM32F10x_StdPeriph_Lib_V3.5.0/Libraries/STM32F10x_StdPeriph_Driver/src/stm32f10x_fsmc.c ****     else
 514:../STM32F10x_StdPeriph_Lib_V3.5.0/Libraries/STM32F10x_StdPeriph_Driver/src/stm32f10x_fsmc.c ****     {
 515:../STM32F10x_StdPeriph_Lib_V3.5.0/Libraries/STM32F10x_StdPeriph_Driver/src/stm32f10x_fsmc.c ****       FSMC_Bank3->PCR3 |= PCR_PBKEN_Set;
 1198              		.loc 1 515 0
 1199 0026 0F4B     		ldr	r3, .L41+4
 1200 0028 0E4A     		ldr	r2, .L41+4
 1201 002a 1268     		ldr	r2, [r2, #0]
 1202 002c 42F00402 		orr	r2, r2, #4
 1203 0030 1A60     		str	r2, [r3, #0]
 1204 0032 0FE0     		b	.L36
 1205              	.L37:
 516:../STM32F10x_StdPeriph_Lib_V3.5.0/Libraries/STM32F10x_StdPeriph_Driver/src/stm32f10x_fsmc.c ****     }
 517:../STM32F10x_StdPeriph_Lib_V3.5.0/Libraries/STM32F10x_StdPeriph_Driver/src/stm32f10x_fsmc.c ****   }
 518:../STM32F10x_StdPeriph_Lib_V3.5.0/Libraries/STM32F10x_StdPeriph_Driver/src/stm32f10x_fsmc.c ****   else
 519:../STM32F10x_StdPeriph_Lib_V3.5.0/Libraries/STM32F10x_StdPeriph_Driver/src/stm32f10x_fsmc.c ****   {
 520:../STM32F10x_StdPeriph_Lib_V3.5.0/Libraries/STM32F10x_StdPeriph_Driver/src/stm32f10x_fsmc.c ****     /* Disable the selected NAND Bank by clearing the PBKEN bit in the PCRx register */
 521:../STM32F10x_StdPeriph_Lib_V3.5.0/Libraries/STM32F10x_StdPeriph_Driver/src/stm32f10x_fsmc.c ****     if(FSMC_Bank == FSMC_Bank2_NAND)
 1206              		.loc 1 521 0
 1207 0034 7B68     		ldr	r3, [r7, #4]
 1208 0036 102B     		cmp	r3, #16
 1209 0038 06D1     		bne	.L40
 522:../STM32F10x_StdPeriph_Lib_V3.5.0/Libraries/STM32F10x_StdPeriph_Driver/src/stm32f10x_fsmc.c ****     {
 523:../STM32F10x_StdPeriph_Lib_V3.5.0/Libraries/STM32F10x_StdPeriph_Driver/src/stm32f10x_fsmc.c ****       FSMC_Bank2->PCR2 &= PCR_PBKEN_Reset;
 1210              		.loc 1 523 0
 1211 003a 094A     		ldr	r2, .L41
 1212 003c 084B     		ldr	r3, .L41
 1213 003e 1968     		ldr	r1, [r3, #0]
 1214 0040 094B     		ldr	r3, .L41+8
 1215 0042 0B40     		ands	r3, r3, r1
 1216 0044 1360     		str	r3, [r2, #0]
 1217 0046 05E0     		b	.L36
 1218              	.L40:
 524:../STM32F10x_StdPeriph_Lib_V3.5.0/Libraries/STM32F10x_StdPeriph_Driver/src/stm32f10x_fsmc.c ****     }
 525:../STM32F10x_StdPeriph_Lib_V3.5.0/Libraries/STM32F10x_StdPeriph_Driver/src/stm32f10x_fsmc.c ****     else
 526:../STM32F10x_StdPeriph_Lib_V3.5.0/Libraries/STM32F10x_StdPeriph_Driver/src/stm32f10x_fsmc.c ****     {
 527:../STM32F10x_StdPeriph_Lib_V3.5.0/Libraries/STM32F10x_StdPeriph_Driver/src/stm32f10x_fsmc.c ****       FSMC_Bank3->PCR3 &= PCR_PBKEN_Reset;
 1219              		.loc 1 527 0
 1220 0048 064A     		ldr	r2, .L41+4
 1221 004a 064B     		ldr	r3, .L41+4
 1222 004c 1968     		ldr	r1, [r3, #0]
 1223 004e 064B     		ldr	r3, .L41+8
 1224 0050 0B40     		ands	r3, r3, r1
 1225 0052 1360     		str	r3, [r2, #0]
 1226              	.L36:
 528:../STM32F10x_StdPeriph_Lib_V3.5.0/Libraries/STM32F10x_StdPeriph_Driver/src/stm32f10x_fsmc.c ****     }
 529:../STM32F10x_StdPeriph_Lib_V3.5.0/Libraries/STM32F10x_StdPeriph_Driver/src/stm32f10x_fsmc.c ****   }
 530:../STM32F10x_StdPeriph_Lib_V3.5.0/Libraries/STM32F10x_StdPeriph_Driver/src/stm32f10x_fsmc.c **** }
 1227              		.loc 1 530 0
 1228 0054 07F10C07 		add	r7, r7, #12
 1229 0058 BD46     		mov	sp, r7
 1230 005a 80BC     		pop	{r7}
 1231 005c 7047     		bx	lr
 1232              	.L42:
 1233 005e 00BF     		.align	2
 1234              	.L41:
 1235 0060 600000A0 		.word	-1610612640
 1236 0064 800000A0 		.word	-1610612608
 1237 0068 FBFF0F00 		.word	1048571
 1238              		.cfi_endproc
 1239              	.LFE39:
 1241              		.section	.text.FSMC_PCCARDCmd,"ax",%progbits
 1242              		.align	2
 1243              		.global	FSMC_PCCARDCmd
 1244              		.thumb
 1245              		.thumb_func
 1247              	FSMC_PCCARDCmd:
 1248              	.LFB40:
 531:../STM32F10x_StdPeriph_Lib_V3.5.0/Libraries/STM32F10x_StdPeriph_Driver/src/stm32f10x_fsmc.c **** 
 532:../STM32F10x_StdPeriph_Lib_V3.5.0/Libraries/STM32F10x_StdPeriph_Driver/src/stm32f10x_fsmc.c **** /**
 533:../STM32F10x_StdPeriph_Lib_V3.5.0/Libraries/STM32F10x_StdPeriph_Driver/src/stm32f10x_fsmc.c ****   * @brief  Enables or disables the PCCARD Memory Bank.
 534:../STM32F10x_StdPeriph_Lib_V3.5.0/Libraries/STM32F10x_StdPeriph_Driver/src/stm32f10x_fsmc.c ****   * @param  NewState: new state of the PCCARD Memory Bank.  
 535:../STM32F10x_StdPeriph_Lib_V3.5.0/Libraries/STM32F10x_StdPeriph_Driver/src/stm32f10x_fsmc.c ****   *   This parameter can be: ENABLE or DISABLE.
 536:../STM32F10x_StdPeriph_Lib_V3.5.0/Libraries/STM32F10x_StdPeriph_Driver/src/stm32f10x_fsmc.c ****   * @retval None
 537:../STM32F10x_StdPeriph_Lib_V3.5.0/Libraries/STM32F10x_StdPeriph_Driver/src/stm32f10x_fsmc.c ****   */
 538:../STM32F10x_StdPeriph_Lib_V3.5.0/Libraries/STM32F10x_StdPeriph_Driver/src/stm32f10x_fsmc.c **** void FSMC_PCCARDCmd(FunctionalState NewState)
 539:../STM32F10x_StdPeriph_Lib_V3.5.0/Libraries/STM32F10x_StdPeriph_Driver/src/stm32f10x_fsmc.c **** {
 1249              		.loc 1 539 0
 1250              		.cfi_startproc
 1251              		@ args = 0, pretend = 0, frame = 8
 1252              		@ frame_needed = 1, uses_anonymous_args = 0
 1253              		@ link register save eliminated.
 1254 0000 80B4     		push	{r7}
 1255              	.LCFI32:
 1256              		.cfi_def_cfa_offset 4
 1257              		.cfi_offset 7, -4
 1258 0002 83B0     		sub	sp, sp, #12
 1259              	.LCFI33:
 1260              		.cfi_def_cfa_offset 16
 1261 0004 00AF     		add	r7, sp, #0
 1262              	.LCFI34:
 1263              		.cfi_def_cfa_register 7
 1264 0006 0346     		mov	r3, r0
 1265 0008 FB71     		strb	r3, [r7, #7]
 540:../STM32F10x_StdPeriph_Lib_V3.5.0/Libraries/STM32F10x_StdPeriph_Driver/src/stm32f10x_fsmc.c ****   assert_param(IS_FUNCTIONAL_STATE(NewState));
 541:../STM32F10x_StdPeriph_Lib_V3.5.0/Libraries/STM32F10x_StdPeriph_Driver/src/stm32f10x_fsmc.c ****   
 542:../STM32F10x_StdPeriph_Lib_V3.5.0/Libraries/STM32F10x_StdPeriph_Driver/src/stm32f10x_fsmc.c ****   if (NewState != DISABLE)
 1266              		.loc 1 542 0
 1267 000a FB79     		ldrb	r3, [r7, #7]	@ zero_extendqisi2
 1268 000c 002B     		cmp	r3, #0
 1269 000e 06D0     		beq	.L44
 543:../STM32F10x_StdPeriph_Lib_V3.5.0/Libraries/STM32F10x_StdPeriph_Driver/src/stm32f10x_fsmc.c ****   {
 544:../STM32F10x_StdPeriph_Lib_V3.5.0/Libraries/STM32F10x_StdPeriph_Driver/src/stm32f10x_fsmc.c ****     /* Enable the PCCARD Bank by setting the PBKEN bit in the PCR4 register */
 545:../STM32F10x_StdPeriph_Lib_V3.5.0/Libraries/STM32F10x_StdPeriph_Driver/src/stm32f10x_fsmc.c ****     FSMC_Bank4->PCR4 |= PCR_PBKEN_Set;
 1270              		.loc 1 545 0
 1271 0010 084B     		ldr	r3, .L46
 1272 0012 084A     		ldr	r2, .L46
 1273 0014 1268     		ldr	r2, [r2, #0]
 1274 0016 42F00402 		orr	r2, r2, #4
 1275 001a 1A60     		str	r2, [r3, #0]
 1276 001c 05E0     		b	.L43
 1277              	.L44:
 546:../STM32F10x_StdPeriph_Lib_V3.5.0/Libraries/STM32F10x_StdPeriph_Driver/src/stm32f10x_fsmc.c ****   }
 547:../STM32F10x_StdPeriph_Lib_V3.5.0/Libraries/STM32F10x_StdPeriph_Driver/src/stm32f10x_fsmc.c ****   else
 548:../STM32F10x_StdPeriph_Lib_V3.5.0/Libraries/STM32F10x_StdPeriph_Driver/src/stm32f10x_fsmc.c ****   {
 549:../STM32F10x_StdPeriph_Lib_V3.5.0/Libraries/STM32F10x_StdPeriph_Driver/src/stm32f10x_fsmc.c ****     /* Disable the PCCARD Bank by clearing the PBKEN bit in the PCR4 register */
 550:../STM32F10x_StdPeriph_Lib_V3.5.0/Libraries/STM32F10x_StdPeriph_Driver/src/stm32f10x_fsmc.c ****     FSMC_Bank4->PCR4 &= PCR_PBKEN_Reset;
 1278              		.loc 1 550 0
 1279 001e 054A     		ldr	r2, .L46
 1280 0020 044B     		ldr	r3, .L46
 1281 0022 1968     		ldr	r1, [r3, #0]
 1282 0024 044B     		ldr	r3, .L46+4
 1283 0026 0B40     		ands	r3, r3, r1
 1284 0028 1360     		str	r3, [r2, #0]
 1285              	.L43:
 551:../STM32F10x_StdPeriph_Lib_V3.5.0/Libraries/STM32F10x_StdPeriph_Driver/src/stm32f10x_fsmc.c ****   }
 552:../STM32F10x_StdPeriph_Lib_V3.5.0/Libraries/STM32F10x_StdPeriph_Driver/src/stm32f10x_fsmc.c **** }
 1286              		.loc 1 552 0
 1287 002a 07F10C07 		add	r7, r7, #12
 1288 002e BD46     		mov	sp, r7
 1289 0030 80BC     		pop	{r7}
 1290 0032 7047     		bx	lr
 1291              	.L47:
 1292              		.align	2
 1293              	.L46:
 1294 0034 A00000A0 		.word	-1610612576
 1295 0038 FBFF0F00 		.word	1048571
 1296              		.cfi_endproc
 1297              	.LFE40:
 1299              		.section	.text.FSMC_NANDECCCmd,"ax",%progbits
 1300              		.align	2
 1301              		.global	FSMC_NANDECCCmd
 1302              		.thumb
 1303              		.thumb_func
 1305              	FSMC_NANDECCCmd:
 1306              	.LFB41:
 553:../STM32F10x_StdPeriph_Lib_V3.5.0/Libraries/STM32F10x_StdPeriph_Driver/src/stm32f10x_fsmc.c **** 
 554:../STM32F10x_StdPeriph_Lib_V3.5.0/Libraries/STM32F10x_StdPeriph_Driver/src/stm32f10x_fsmc.c **** /**
 555:../STM32F10x_StdPeriph_Lib_V3.5.0/Libraries/STM32F10x_StdPeriph_Driver/src/stm32f10x_fsmc.c ****   * @brief  Enables or disables the FSMC NAND ECC feature.
 556:../STM32F10x_StdPeriph_Lib_V3.5.0/Libraries/STM32F10x_StdPeriph_Driver/src/stm32f10x_fsmc.c ****   * @param  FSMC_Bank: specifies the FSMC Bank to be used
 557:../STM32F10x_StdPeriph_Lib_V3.5.0/Libraries/STM32F10x_StdPeriph_Driver/src/stm32f10x_fsmc.c ****   *   This parameter can be one of the following values:
 558:../STM32F10x_StdPeriph_Lib_V3.5.0/Libraries/STM32F10x_StdPeriph_Driver/src/stm32f10x_fsmc.c ****   *     @arg FSMC_Bank2_NAND: FSMC Bank2 NAND 
 559:../STM32F10x_StdPeriph_Lib_V3.5.0/Libraries/STM32F10x_StdPeriph_Driver/src/stm32f10x_fsmc.c ****   *     @arg FSMC_Bank3_NAND: FSMC Bank3 NAND
 560:../STM32F10x_StdPeriph_Lib_V3.5.0/Libraries/STM32F10x_StdPeriph_Driver/src/stm32f10x_fsmc.c ****   * @param  NewState: new state of the FSMC NAND ECC feature.  
 561:../STM32F10x_StdPeriph_Lib_V3.5.0/Libraries/STM32F10x_StdPeriph_Driver/src/stm32f10x_fsmc.c ****   *   This parameter can be: ENABLE or DISABLE.
 562:../STM32F10x_StdPeriph_Lib_V3.5.0/Libraries/STM32F10x_StdPeriph_Driver/src/stm32f10x_fsmc.c ****   * @retval None
 563:../STM32F10x_StdPeriph_Lib_V3.5.0/Libraries/STM32F10x_StdPeriph_Driver/src/stm32f10x_fsmc.c ****   */
 564:../STM32F10x_StdPeriph_Lib_V3.5.0/Libraries/STM32F10x_StdPeriph_Driver/src/stm32f10x_fsmc.c **** void FSMC_NANDECCCmd(uint32_t FSMC_Bank, FunctionalState NewState)
 565:../STM32F10x_StdPeriph_Lib_V3.5.0/Libraries/STM32F10x_StdPeriph_Driver/src/stm32f10x_fsmc.c **** {
 1307              		.loc 1 565 0
 1308              		.cfi_startproc
 1309              		@ args = 0, pretend = 0, frame = 8
 1310              		@ frame_needed = 1, uses_anonymous_args = 0
 1311              		@ link register save eliminated.
 1312 0000 80B4     		push	{r7}
 1313              	.LCFI35:
 1314              		.cfi_def_cfa_offset 4
 1315              		.cfi_offset 7, -4
 1316 0002 83B0     		sub	sp, sp, #12
 1317              	.LCFI36:
 1318              		.cfi_def_cfa_offset 16
 1319 0004 00AF     		add	r7, sp, #0
 1320              	.LCFI37:
 1321              		.cfi_def_cfa_register 7
 1322 0006 7860     		str	r0, [r7, #4]
 1323 0008 0B46     		mov	r3, r1
 1324 000a FB70     		strb	r3, [r7, #3]
 566:../STM32F10x_StdPeriph_Lib_V3.5.0/Libraries/STM32F10x_StdPeriph_Driver/src/stm32f10x_fsmc.c ****   assert_param(IS_FSMC_NAND_BANK(FSMC_Bank));
 567:../STM32F10x_StdPeriph_Lib_V3.5.0/Libraries/STM32F10x_StdPeriph_Driver/src/stm32f10x_fsmc.c ****   assert_param(IS_FUNCTIONAL_STATE(NewState));
 568:../STM32F10x_StdPeriph_Lib_V3.5.0/Libraries/STM32F10x_StdPeriph_Driver/src/stm32f10x_fsmc.c ****   
 569:../STM32F10x_StdPeriph_Lib_V3.5.0/Libraries/STM32F10x_StdPeriph_Driver/src/stm32f10x_fsmc.c ****   if (NewState != DISABLE)
 1325              		.loc 1 569 0
 1326 000c FB78     		ldrb	r3, [r7, #3]	@ zero_extendqisi2
 1327 000e 002B     		cmp	r3, #0
 1328 0010 10D0     		beq	.L49
 570:../STM32F10x_StdPeriph_Lib_V3.5.0/Libraries/STM32F10x_StdPeriph_Driver/src/stm32f10x_fsmc.c ****   {
 571:../STM32F10x_StdPeriph_Lib_V3.5.0/Libraries/STM32F10x_StdPeriph_Driver/src/stm32f10x_fsmc.c ****     /* Enable the selected NAND Bank ECC function by setting the ECCEN bit in the PCRx register */
 572:../STM32F10x_StdPeriph_Lib_V3.5.0/Libraries/STM32F10x_StdPeriph_Driver/src/stm32f10x_fsmc.c ****     if(FSMC_Bank == FSMC_Bank2_NAND)
 1329              		.loc 1 572 0
 1330 0012 7B68     		ldr	r3, [r7, #4]
 1331 0014 102B     		cmp	r3, #16
 1332 0016 06D1     		bne	.L50
 573:../STM32F10x_StdPeriph_Lib_V3.5.0/Libraries/STM32F10x_StdPeriph_Driver/src/stm32f10x_fsmc.c ****     {
 574:../STM32F10x_StdPeriph_Lib_V3.5.0/Libraries/STM32F10x_StdPeriph_Driver/src/stm32f10x_fsmc.c ****       FSMC_Bank2->PCR2 |= PCR_ECCEN_Set;
 1333              		.loc 1 574 0
 1334 0018 114B     		ldr	r3, .L53
 1335 001a 114A     		ldr	r2, .L53
 1336 001c 1268     		ldr	r2, [r2, #0]
 1337 001e 42F04002 		orr	r2, r2, #64
 1338 0022 1A60     		str	r2, [r3, #0]
 1339 0024 16E0     		b	.L48
 1340              	.L50:
 575:../STM32F10x_StdPeriph_Lib_V3.5.0/Libraries/STM32F10x_StdPeriph_Driver/src/stm32f10x_fsmc.c ****     }
 576:../STM32F10x_StdPeriph_Lib_V3.5.0/Libraries/STM32F10x_StdPeriph_Driver/src/stm32f10x_fsmc.c ****     else
 577:../STM32F10x_StdPeriph_Lib_V3.5.0/Libraries/STM32F10x_StdPeriph_Driver/src/stm32f10x_fsmc.c ****     {
 578:../STM32F10x_StdPeriph_Lib_V3.5.0/Libraries/STM32F10x_StdPeriph_Driver/src/stm32f10x_fsmc.c ****       FSMC_Bank3->PCR3 |= PCR_ECCEN_Set;
 1341              		.loc 1 578 0
 1342 0026 0F4B     		ldr	r3, .L53+4
 1343 0028 0E4A     		ldr	r2, .L53+4
 1344 002a 1268     		ldr	r2, [r2, #0]
 1345 002c 42F04002 		orr	r2, r2, #64
 1346 0030 1A60     		str	r2, [r3, #0]
 1347 0032 0FE0     		b	.L48
 1348              	.L49:
 579:../STM32F10x_StdPeriph_Lib_V3.5.0/Libraries/STM32F10x_StdPeriph_Driver/src/stm32f10x_fsmc.c ****     }
 580:../STM32F10x_StdPeriph_Lib_V3.5.0/Libraries/STM32F10x_StdPeriph_Driver/src/stm32f10x_fsmc.c ****   }
 581:../STM32F10x_StdPeriph_Lib_V3.5.0/Libraries/STM32F10x_StdPeriph_Driver/src/stm32f10x_fsmc.c ****   else
 582:../STM32F10x_StdPeriph_Lib_V3.5.0/Libraries/STM32F10x_StdPeriph_Driver/src/stm32f10x_fsmc.c ****   {
 583:../STM32F10x_StdPeriph_Lib_V3.5.0/Libraries/STM32F10x_StdPeriph_Driver/src/stm32f10x_fsmc.c ****     /* Disable the selected NAND Bank ECC function by clearing the ECCEN bit in the PCRx register *
 584:../STM32F10x_StdPeriph_Lib_V3.5.0/Libraries/STM32F10x_StdPeriph_Driver/src/stm32f10x_fsmc.c ****     if(FSMC_Bank == FSMC_Bank2_NAND)
 1349              		.loc 1 584 0
 1350 0034 7B68     		ldr	r3, [r7, #4]
 1351 0036 102B     		cmp	r3, #16
 1352 0038 06D1     		bne	.L52
 585:../STM32F10x_StdPeriph_Lib_V3.5.0/Libraries/STM32F10x_StdPeriph_Driver/src/stm32f10x_fsmc.c ****     {
 586:../STM32F10x_StdPeriph_Lib_V3.5.0/Libraries/STM32F10x_StdPeriph_Driver/src/stm32f10x_fsmc.c ****       FSMC_Bank2->PCR2 &= PCR_ECCEN_Reset;
 1353              		.loc 1 586 0
 1354 003a 094A     		ldr	r2, .L53
 1355 003c 084B     		ldr	r3, .L53
 1356 003e 1968     		ldr	r1, [r3, #0]
 1357 0040 094B     		ldr	r3, .L53+8
 1358 0042 0B40     		ands	r3, r3, r1
 1359 0044 1360     		str	r3, [r2, #0]
 1360 0046 05E0     		b	.L48
 1361              	.L52:
 587:../STM32F10x_StdPeriph_Lib_V3.5.0/Libraries/STM32F10x_StdPeriph_Driver/src/stm32f10x_fsmc.c ****     }
 588:../STM32F10x_StdPeriph_Lib_V3.5.0/Libraries/STM32F10x_StdPeriph_Driver/src/stm32f10x_fsmc.c ****     else
 589:../STM32F10x_StdPeriph_Lib_V3.5.0/Libraries/STM32F10x_StdPeriph_Driver/src/stm32f10x_fsmc.c ****     {
 590:../STM32F10x_StdPeriph_Lib_V3.5.0/Libraries/STM32F10x_StdPeriph_Driver/src/stm32f10x_fsmc.c ****       FSMC_Bank3->PCR3 &= PCR_ECCEN_Reset;
 1362              		.loc 1 590 0
 1363 0048 064A     		ldr	r2, .L53+4
 1364 004a 064B     		ldr	r3, .L53+4
 1365 004c 1968     		ldr	r1, [r3, #0]
 1366 004e 064B     		ldr	r3, .L53+8
 1367 0050 0B40     		ands	r3, r3, r1
 1368 0052 1360     		str	r3, [r2, #0]
 1369              	.L48:
 591:../STM32F10x_StdPeriph_Lib_V3.5.0/Libraries/STM32F10x_StdPeriph_Driver/src/stm32f10x_fsmc.c ****     }
 592:../STM32F10x_StdPeriph_Lib_V3.5.0/Libraries/STM32F10x_StdPeriph_Driver/src/stm32f10x_fsmc.c ****   }
 593:../STM32F10x_StdPeriph_Lib_V3.5.0/Libraries/STM32F10x_StdPeriph_Driver/src/stm32f10x_fsmc.c **** }
 1370              		.loc 1 593 0
 1371 0054 07F10C07 		add	r7, r7, #12
 1372 0058 BD46     		mov	sp, r7
 1373 005a 80BC     		pop	{r7}
 1374 005c 7047     		bx	lr
 1375              	.L54:
 1376 005e 00BF     		.align	2
 1377              	.L53:
 1378 0060 600000A0 		.word	-1610612640
 1379 0064 800000A0 		.word	-1610612608
 1380 0068 BFFF0F00 		.word	1048511
 1381              		.cfi_endproc
 1382              	.LFE41:
 1384              		.section	.text.FSMC_GetECC,"ax",%progbits
 1385              		.align	2
 1386              		.global	FSMC_GetECC
 1387              		.thumb
 1388              		.thumb_func
 1390              	FSMC_GetECC:
 1391              	.LFB42:
 594:../STM32F10x_StdPeriph_Lib_V3.5.0/Libraries/STM32F10x_StdPeriph_Driver/src/stm32f10x_fsmc.c **** 
 595:../STM32F10x_StdPeriph_Lib_V3.5.0/Libraries/STM32F10x_StdPeriph_Driver/src/stm32f10x_fsmc.c **** /**
 596:../STM32F10x_StdPeriph_Lib_V3.5.0/Libraries/STM32F10x_StdPeriph_Driver/src/stm32f10x_fsmc.c ****   * @brief  Returns the error correction code register value.
 597:../STM32F10x_StdPeriph_Lib_V3.5.0/Libraries/STM32F10x_StdPeriph_Driver/src/stm32f10x_fsmc.c ****   * @param  FSMC_Bank: specifies the FSMC Bank to be used
 598:../STM32F10x_StdPeriph_Lib_V3.5.0/Libraries/STM32F10x_StdPeriph_Driver/src/stm32f10x_fsmc.c ****   *   This parameter can be one of the following values:
 599:../STM32F10x_StdPeriph_Lib_V3.5.0/Libraries/STM32F10x_StdPeriph_Driver/src/stm32f10x_fsmc.c ****   *     @arg FSMC_Bank2_NAND: FSMC Bank2 NAND 
 600:../STM32F10x_StdPeriph_Lib_V3.5.0/Libraries/STM32F10x_StdPeriph_Driver/src/stm32f10x_fsmc.c ****   *     @arg FSMC_Bank3_NAND: FSMC Bank3 NAND
 601:../STM32F10x_StdPeriph_Lib_V3.5.0/Libraries/STM32F10x_StdPeriph_Driver/src/stm32f10x_fsmc.c ****   * @retval The Error Correction Code (ECC) value.
 602:../STM32F10x_StdPeriph_Lib_V3.5.0/Libraries/STM32F10x_StdPeriph_Driver/src/stm32f10x_fsmc.c ****   */
 603:../STM32F10x_StdPeriph_Lib_V3.5.0/Libraries/STM32F10x_StdPeriph_Driver/src/stm32f10x_fsmc.c **** uint32_t FSMC_GetECC(uint32_t FSMC_Bank)
 604:../STM32F10x_StdPeriph_Lib_V3.5.0/Libraries/STM32F10x_StdPeriph_Driver/src/stm32f10x_fsmc.c **** {
 1392              		.loc 1 604 0
 1393              		.cfi_startproc
 1394              		@ args = 0, pretend = 0, frame = 16
 1395              		@ frame_needed = 1, uses_anonymous_args = 0
 1396              		@ link register save eliminated.
 1397 0000 80B4     		push	{r7}
 1398              	.LCFI38:
 1399              		.cfi_def_cfa_offset 4
 1400              		.cfi_offset 7, -4
 1401 0002 85B0     		sub	sp, sp, #20
 1402              	.LCFI39:
 1403              		.cfi_def_cfa_offset 24
 1404 0004 00AF     		add	r7, sp, #0
 1405              	.LCFI40:
 1406              		.cfi_def_cfa_register 7
 1407 0006 7860     		str	r0, [r7, #4]
 605:../STM32F10x_StdPeriph_Lib_V3.5.0/Libraries/STM32F10x_StdPeriph_Driver/src/stm32f10x_fsmc.c ****   uint32_t eccval = 0x00000000;
 1408              		.loc 1 605 0
 1409 0008 4FF00003 		mov	r3, #0
 1410 000c FB60     		str	r3, [r7, #12]
 606:../STM32F10x_StdPeriph_Lib_V3.5.0/Libraries/STM32F10x_StdPeriph_Driver/src/stm32f10x_fsmc.c ****   
 607:../STM32F10x_StdPeriph_Lib_V3.5.0/Libraries/STM32F10x_StdPeriph_Driver/src/stm32f10x_fsmc.c ****   if(FSMC_Bank == FSMC_Bank2_NAND)
 1411              		.loc 1 607 0
 1412 000e 7B68     		ldr	r3, [r7, #4]
 1413 0010 102B     		cmp	r3, #16
 1414 0012 03D1     		bne	.L56
 608:../STM32F10x_StdPeriph_Lib_V3.5.0/Libraries/STM32F10x_StdPeriph_Driver/src/stm32f10x_fsmc.c ****   {
 609:../STM32F10x_StdPeriph_Lib_V3.5.0/Libraries/STM32F10x_StdPeriph_Driver/src/stm32f10x_fsmc.c ****     /* Get the ECCR2 register value */
 610:../STM32F10x_StdPeriph_Lib_V3.5.0/Libraries/STM32F10x_StdPeriph_Driver/src/stm32f10x_fsmc.c ****     eccval = FSMC_Bank2->ECCR2;
 1415              		.loc 1 610 0
 1416 0014 064B     		ldr	r3, .L59
 1417 0016 5B69     		ldr	r3, [r3, #20]
 1418 0018 FB60     		str	r3, [r7, #12]
 1419 001a 02E0     		b	.L57
 1420              	.L56:
 611:../STM32F10x_StdPeriph_Lib_V3.5.0/Libraries/STM32F10x_StdPeriph_Driver/src/stm32f10x_fsmc.c ****   }
 612:../STM32F10x_StdPeriph_Lib_V3.5.0/Libraries/STM32F10x_StdPeriph_Driver/src/stm32f10x_fsmc.c ****   else
 613:../STM32F10x_StdPeriph_Lib_V3.5.0/Libraries/STM32F10x_StdPeriph_Driver/src/stm32f10x_fsmc.c ****   {
 614:../STM32F10x_StdPeriph_Lib_V3.5.0/Libraries/STM32F10x_StdPeriph_Driver/src/stm32f10x_fsmc.c ****     /* Get the ECCR3 register value */
 615:../STM32F10x_StdPeriph_Lib_V3.5.0/Libraries/STM32F10x_StdPeriph_Driver/src/stm32f10x_fsmc.c ****     eccval = FSMC_Bank3->ECCR3;
 1421              		.loc 1 615 0
 1422 001c 054B     		ldr	r3, .L59+4
 1423 001e 5B69     		ldr	r3, [r3, #20]
 1424 0020 FB60     		str	r3, [r7, #12]
 1425              	.L57:
 616:../STM32F10x_StdPeriph_Lib_V3.5.0/Libraries/STM32F10x_StdPeriph_Driver/src/stm32f10x_fsmc.c ****   }
 617:../STM32F10x_StdPeriph_Lib_V3.5.0/Libraries/STM32F10x_StdPeriph_Driver/src/stm32f10x_fsmc.c ****   /* Return the error correction code value */
 618:../STM32F10x_StdPeriph_Lib_V3.5.0/Libraries/STM32F10x_StdPeriph_Driver/src/stm32f10x_fsmc.c ****   return(eccval);
 1426              		.loc 1 618 0
 1427 0022 FB68     		ldr	r3, [r7, #12]
 619:../STM32F10x_StdPeriph_Lib_V3.5.0/Libraries/STM32F10x_StdPeriph_Driver/src/stm32f10x_fsmc.c **** }
 1428              		.loc 1 619 0
 1429 0024 1846     		mov	r0, r3
 1430 0026 07F11407 		add	r7, r7, #20
 1431 002a BD46     		mov	sp, r7
 1432 002c 80BC     		pop	{r7}
 1433 002e 7047     		bx	lr
 1434              	.L60:
 1435              		.align	2
 1436              	.L59:
 1437 0030 600000A0 		.word	-1610612640
 1438 0034 800000A0 		.word	-1610612608
 1439              		.cfi_endproc
 1440              	.LFE42:
 1442              		.section	.text.FSMC_ITConfig,"ax",%progbits
 1443              		.align	2
 1444              		.global	FSMC_ITConfig
 1445              		.thumb
 1446              		.thumb_func
 1448              	FSMC_ITConfig:
 1449              	.LFB43:
 620:../STM32F10x_StdPeriph_Lib_V3.5.0/Libraries/STM32F10x_StdPeriph_Driver/src/stm32f10x_fsmc.c **** 
 621:../STM32F10x_StdPeriph_Lib_V3.5.0/Libraries/STM32F10x_StdPeriph_Driver/src/stm32f10x_fsmc.c **** /**
 622:../STM32F10x_StdPeriph_Lib_V3.5.0/Libraries/STM32F10x_StdPeriph_Driver/src/stm32f10x_fsmc.c ****   * @brief  Enables or disables the specified FSMC interrupts.
 623:../STM32F10x_StdPeriph_Lib_V3.5.0/Libraries/STM32F10x_StdPeriph_Driver/src/stm32f10x_fsmc.c ****   * @param  FSMC_Bank: specifies the FSMC Bank to be used
 624:../STM32F10x_StdPeriph_Lib_V3.5.0/Libraries/STM32F10x_StdPeriph_Driver/src/stm32f10x_fsmc.c ****   *   This parameter can be one of the following values:
 625:../STM32F10x_StdPeriph_Lib_V3.5.0/Libraries/STM32F10x_StdPeriph_Driver/src/stm32f10x_fsmc.c ****   *     @arg FSMC_Bank2_NAND: FSMC Bank2 NAND 
 626:../STM32F10x_StdPeriph_Lib_V3.5.0/Libraries/STM32F10x_StdPeriph_Driver/src/stm32f10x_fsmc.c ****   *     @arg FSMC_Bank3_NAND: FSMC Bank3 NAND
 627:../STM32F10x_StdPeriph_Lib_V3.5.0/Libraries/STM32F10x_StdPeriph_Driver/src/stm32f10x_fsmc.c ****   *     @arg FSMC_Bank4_PCCARD: FSMC Bank4 PCCARD
 628:../STM32F10x_StdPeriph_Lib_V3.5.0/Libraries/STM32F10x_StdPeriph_Driver/src/stm32f10x_fsmc.c ****   * @param  FSMC_IT: specifies the FSMC interrupt sources to be enabled or disabled.
 629:../STM32F10x_StdPeriph_Lib_V3.5.0/Libraries/STM32F10x_StdPeriph_Driver/src/stm32f10x_fsmc.c ****   *   This parameter can be any combination of the following values:
 630:../STM32F10x_StdPeriph_Lib_V3.5.0/Libraries/STM32F10x_StdPeriph_Driver/src/stm32f10x_fsmc.c ****   *     @arg FSMC_IT_RisingEdge: Rising edge detection interrupt. 
 631:../STM32F10x_StdPeriph_Lib_V3.5.0/Libraries/STM32F10x_StdPeriph_Driver/src/stm32f10x_fsmc.c ****   *     @arg FSMC_IT_Level: Level edge detection interrupt.
 632:../STM32F10x_StdPeriph_Lib_V3.5.0/Libraries/STM32F10x_StdPeriph_Driver/src/stm32f10x_fsmc.c ****   *     @arg FSMC_IT_FallingEdge: Falling edge detection interrupt.
 633:../STM32F10x_StdPeriph_Lib_V3.5.0/Libraries/STM32F10x_StdPeriph_Driver/src/stm32f10x_fsmc.c ****   * @param  NewState: new state of the specified FSMC interrupts.
 634:../STM32F10x_StdPeriph_Lib_V3.5.0/Libraries/STM32F10x_StdPeriph_Driver/src/stm32f10x_fsmc.c ****   *   This parameter can be: ENABLE or DISABLE.
 635:../STM32F10x_StdPeriph_Lib_V3.5.0/Libraries/STM32F10x_StdPeriph_Driver/src/stm32f10x_fsmc.c ****   * @retval None
 636:../STM32F10x_StdPeriph_Lib_V3.5.0/Libraries/STM32F10x_StdPeriph_Driver/src/stm32f10x_fsmc.c ****   */
 637:../STM32F10x_StdPeriph_Lib_V3.5.0/Libraries/STM32F10x_StdPeriph_Driver/src/stm32f10x_fsmc.c **** void FSMC_ITConfig(uint32_t FSMC_Bank, uint32_t FSMC_IT, FunctionalState NewState)
 638:../STM32F10x_StdPeriph_Lib_V3.5.0/Libraries/STM32F10x_StdPeriph_Driver/src/stm32f10x_fsmc.c **** {
 1450              		.loc 1 638 0
 1451              		.cfi_startproc
 1452              		@ args = 0, pretend = 0, frame = 16
 1453              		@ frame_needed = 1, uses_anonymous_args = 0
 1454              		@ link register save eliminated.
 1455 0000 80B4     		push	{r7}
 1456              	.LCFI41:
 1457              		.cfi_def_cfa_offset 4
 1458              		.cfi_offset 7, -4
 1459 0002 85B0     		sub	sp, sp, #20
 1460              	.LCFI42:
 1461              		.cfi_def_cfa_offset 24
 1462 0004 00AF     		add	r7, sp, #0
 1463              	.LCFI43:
 1464              		.cfi_def_cfa_register 7
 1465 0006 F860     		str	r0, [r7, #12]
 1466 0008 B960     		str	r1, [r7, #8]
 1467 000a 1346     		mov	r3, r2
 1468 000c FB71     		strb	r3, [r7, #7]
 639:../STM32F10x_StdPeriph_Lib_V3.5.0/Libraries/STM32F10x_StdPeriph_Driver/src/stm32f10x_fsmc.c ****   assert_param(IS_FSMC_IT_BANK(FSMC_Bank));
 640:../STM32F10x_StdPeriph_Lib_V3.5.0/Libraries/STM32F10x_StdPeriph_Driver/src/stm32f10x_fsmc.c ****   assert_param(IS_FSMC_IT(FSMC_IT));	
 641:../STM32F10x_StdPeriph_Lib_V3.5.0/Libraries/STM32F10x_StdPeriph_Driver/src/stm32f10x_fsmc.c ****   assert_param(IS_FUNCTIONAL_STATE(NewState));
 642:../STM32F10x_StdPeriph_Lib_V3.5.0/Libraries/STM32F10x_StdPeriph_Driver/src/stm32f10x_fsmc.c ****   
 643:../STM32F10x_StdPeriph_Lib_V3.5.0/Libraries/STM32F10x_StdPeriph_Driver/src/stm32f10x_fsmc.c ****   if (NewState != DISABLE)
 1469              		.loc 1 643 0
 1470 000e FB79     		ldrb	r3, [r7, #7]	@ zero_extendqisi2
 1471 0010 002B     		cmp	r3, #0
 1472 0012 1BD0     		beq	.L62
 644:../STM32F10x_StdPeriph_Lib_V3.5.0/Libraries/STM32F10x_StdPeriph_Driver/src/stm32f10x_fsmc.c ****   {
 645:../STM32F10x_StdPeriph_Lib_V3.5.0/Libraries/STM32F10x_StdPeriph_Driver/src/stm32f10x_fsmc.c ****     /* Enable the selected FSMC_Bank2 interrupts */
 646:../STM32F10x_StdPeriph_Lib_V3.5.0/Libraries/STM32F10x_StdPeriph_Driver/src/stm32f10x_fsmc.c ****     if(FSMC_Bank == FSMC_Bank2_NAND)
 1473              		.loc 1 646 0
 1474 0014 FB68     		ldr	r3, [r7, #12]
 1475 0016 102B     		cmp	r3, #16
 1476 0018 06D1     		bne	.L63
 647:../STM32F10x_StdPeriph_Lib_V3.5.0/Libraries/STM32F10x_StdPeriph_Driver/src/stm32f10x_fsmc.c ****     {
 648:../STM32F10x_StdPeriph_Lib_V3.5.0/Libraries/STM32F10x_StdPeriph_Driver/src/stm32f10x_fsmc.c ****       FSMC_Bank2->SR2 |= FSMC_IT;
 1477              		.loc 1 648 0
 1478 001a 1F4B     		ldr	r3, .L68
 1479 001c 1E4A     		ldr	r2, .L68
 1480 001e 5168     		ldr	r1, [r2, #4]
 1481 0020 BA68     		ldr	r2, [r7, #8]
 1482 0022 0A43     		orrs	r2, r2, r1
 1483 0024 5A60     		str	r2, [r3, #4]
 1484 0026 32E0     		b	.L61
 1485              	.L63:
 649:../STM32F10x_StdPeriph_Lib_V3.5.0/Libraries/STM32F10x_StdPeriph_Driver/src/stm32f10x_fsmc.c ****     }
 650:../STM32F10x_StdPeriph_Lib_V3.5.0/Libraries/STM32F10x_StdPeriph_Driver/src/stm32f10x_fsmc.c ****     /* Enable the selected FSMC_Bank3 interrupts */
 651:../STM32F10x_StdPeriph_Lib_V3.5.0/Libraries/STM32F10x_StdPeriph_Driver/src/stm32f10x_fsmc.c ****     else if (FSMC_Bank == FSMC_Bank3_NAND)
 1486              		.loc 1 651 0
 1487 0028 FB68     		ldr	r3, [r7, #12]
 1488 002a B3F5807F 		cmp	r3, #256
 1489 002e 06D1     		bne	.L65
 652:../STM32F10x_StdPeriph_Lib_V3.5.0/Libraries/STM32F10x_StdPeriph_Driver/src/stm32f10x_fsmc.c ****     {
 653:../STM32F10x_StdPeriph_Lib_V3.5.0/Libraries/STM32F10x_StdPeriph_Driver/src/stm32f10x_fsmc.c ****       FSMC_Bank3->SR3 |= FSMC_IT;
 1490              		.loc 1 653 0
 1491 0030 1A4B     		ldr	r3, .L68+4
 1492 0032 1A4A     		ldr	r2, .L68+4
 1493 0034 5168     		ldr	r1, [r2, #4]
 1494 0036 BA68     		ldr	r2, [r7, #8]
 1495 0038 0A43     		orrs	r2, r2, r1
 1496 003a 5A60     		str	r2, [r3, #4]
 1497 003c 27E0     		b	.L61
 1498              	.L65:
 654:../STM32F10x_StdPeriph_Lib_V3.5.0/Libraries/STM32F10x_StdPeriph_Driver/src/stm32f10x_fsmc.c ****     }
 655:../STM32F10x_StdPeriph_Lib_V3.5.0/Libraries/STM32F10x_StdPeriph_Driver/src/stm32f10x_fsmc.c ****     /* Enable the selected FSMC_Bank4 interrupts */
 656:../STM32F10x_StdPeriph_Lib_V3.5.0/Libraries/STM32F10x_StdPeriph_Driver/src/stm32f10x_fsmc.c ****     else
 657:../STM32F10x_StdPeriph_Lib_V3.5.0/Libraries/STM32F10x_StdPeriph_Driver/src/stm32f10x_fsmc.c ****     {
 658:../STM32F10x_StdPeriph_Lib_V3.5.0/Libraries/STM32F10x_StdPeriph_Driver/src/stm32f10x_fsmc.c ****       FSMC_Bank4->SR4 |= FSMC_IT;    
 1499              		.loc 1 658 0
 1500 003e 184B     		ldr	r3, .L68+8
 1501 0040 174A     		ldr	r2, .L68+8
 1502 0042 5168     		ldr	r1, [r2, #4]
 1503 0044 BA68     		ldr	r2, [r7, #8]
 1504 0046 0A43     		orrs	r2, r2, r1
 1505 0048 5A60     		str	r2, [r3, #4]
 1506 004a 20E0     		b	.L61
 1507              	.L62:
 659:../STM32F10x_StdPeriph_Lib_V3.5.0/Libraries/STM32F10x_StdPeriph_Driver/src/stm32f10x_fsmc.c ****     }
 660:../STM32F10x_StdPeriph_Lib_V3.5.0/Libraries/STM32F10x_StdPeriph_Driver/src/stm32f10x_fsmc.c ****   }
 661:../STM32F10x_StdPeriph_Lib_V3.5.0/Libraries/STM32F10x_StdPeriph_Driver/src/stm32f10x_fsmc.c ****   else
 662:../STM32F10x_StdPeriph_Lib_V3.5.0/Libraries/STM32F10x_StdPeriph_Driver/src/stm32f10x_fsmc.c ****   {
 663:../STM32F10x_StdPeriph_Lib_V3.5.0/Libraries/STM32F10x_StdPeriph_Driver/src/stm32f10x_fsmc.c ****     /* Disable the selected FSMC_Bank2 interrupts */
 664:../STM32F10x_StdPeriph_Lib_V3.5.0/Libraries/STM32F10x_StdPeriph_Driver/src/stm32f10x_fsmc.c ****     if(FSMC_Bank == FSMC_Bank2_NAND)
 1508              		.loc 1 664 0
 1509 004c FB68     		ldr	r3, [r7, #12]
 1510 004e 102B     		cmp	r3, #16
 1511 0050 08D1     		bne	.L66
 665:../STM32F10x_StdPeriph_Lib_V3.5.0/Libraries/STM32F10x_StdPeriph_Driver/src/stm32f10x_fsmc.c ****     {
 666:../STM32F10x_StdPeriph_Lib_V3.5.0/Libraries/STM32F10x_StdPeriph_Driver/src/stm32f10x_fsmc.c ****       
 667:../STM32F10x_StdPeriph_Lib_V3.5.0/Libraries/STM32F10x_StdPeriph_Driver/src/stm32f10x_fsmc.c ****       FSMC_Bank2->SR2 &= (uint32_t)~FSMC_IT;
 1512              		.loc 1 667 0
 1513 0052 114B     		ldr	r3, .L68
 1514 0054 104A     		ldr	r2, .L68
 1515 0056 5168     		ldr	r1, [r2, #4]
 1516 0058 BA68     		ldr	r2, [r7, #8]
 1517 005a 6FEA0202 		mvn	r2, r2
 1518 005e 0A40     		ands	r2, r2, r1
 1519 0060 5A60     		str	r2, [r3, #4]
 1520 0062 14E0     		b	.L61
 1521              	.L66:
 668:../STM32F10x_StdPeriph_Lib_V3.5.0/Libraries/STM32F10x_StdPeriph_Driver/src/stm32f10x_fsmc.c ****     }
 669:../STM32F10x_StdPeriph_Lib_V3.5.0/Libraries/STM32F10x_StdPeriph_Driver/src/stm32f10x_fsmc.c ****     /* Disable the selected FSMC_Bank3 interrupts */
 670:../STM32F10x_StdPeriph_Lib_V3.5.0/Libraries/STM32F10x_StdPeriph_Driver/src/stm32f10x_fsmc.c ****     else if (FSMC_Bank == FSMC_Bank3_NAND)
 1522              		.loc 1 670 0
 1523 0064 FB68     		ldr	r3, [r7, #12]
 1524 0066 B3F5807F 		cmp	r3, #256
 1525 006a 08D1     		bne	.L67
 671:../STM32F10x_StdPeriph_Lib_V3.5.0/Libraries/STM32F10x_StdPeriph_Driver/src/stm32f10x_fsmc.c ****     {
 672:../STM32F10x_StdPeriph_Lib_V3.5.0/Libraries/STM32F10x_StdPeriph_Driver/src/stm32f10x_fsmc.c ****       FSMC_Bank3->SR3 &= (uint32_t)~FSMC_IT;
 1526              		.loc 1 672 0
 1527 006c 0B4B     		ldr	r3, .L68+4
 1528 006e 0B4A     		ldr	r2, .L68+4
 1529 0070 5168     		ldr	r1, [r2, #4]
 1530 0072 BA68     		ldr	r2, [r7, #8]
 1531 0074 6FEA0202 		mvn	r2, r2
 1532 0078 0A40     		ands	r2, r2, r1
 1533 007a 5A60     		str	r2, [r3, #4]
 1534 007c 07E0     		b	.L61
 1535              	.L67:
 673:../STM32F10x_StdPeriph_Lib_V3.5.0/Libraries/STM32F10x_StdPeriph_Driver/src/stm32f10x_fsmc.c ****     }
 674:../STM32F10x_StdPeriph_Lib_V3.5.0/Libraries/STM32F10x_StdPeriph_Driver/src/stm32f10x_fsmc.c ****     /* Disable the selected FSMC_Bank4 interrupts */
 675:../STM32F10x_StdPeriph_Lib_V3.5.0/Libraries/STM32F10x_StdPeriph_Driver/src/stm32f10x_fsmc.c ****     else
 676:../STM32F10x_StdPeriph_Lib_V3.5.0/Libraries/STM32F10x_StdPeriph_Driver/src/stm32f10x_fsmc.c ****     {
 677:../STM32F10x_StdPeriph_Lib_V3.5.0/Libraries/STM32F10x_StdPeriph_Driver/src/stm32f10x_fsmc.c ****       FSMC_Bank4->SR4 &= (uint32_t)~FSMC_IT;    
 1536              		.loc 1 677 0
 1537 007e 084B     		ldr	r3, .L68+8
 1538 0080 074A     		ldr	r2, .L68+8
 1539 0082 5168     		ldr	r1, [r2, #4]
 1540 0084 BA68     		ldr	r2, [r7, #8]
 1541 0086 6FEA0202 		mvn	r2, r2
 1542 008a 0A40     		ands	r2, r2, r1
 1543 008c 5A60     		str	r2, [r3, #4]
 1544              	.L61:
 678:../STM32F10x_StdPeriph_Lib_V3.5.0/Libraries/STM32F10x_StdPeriph_Driver/src/stm32f10x_fsmc.c ****     }
 679:../STM32F10x_StdPeriph_Lib_V3.5.0/Libraries/STM32F10x_StdPeriph_Driver/src/stm32f10x_fsmc.c ****   }
 680:../STM32F10x_StdPeriph_Lib_V3.5.0/Libraries/STM32F10x_StdPeriph_Driver/src/stm32f10x_fsmc.c **** }
 1545              		.loc 1 680 0
 1546 008e 07F11407 		add	r7, r7, #20
 1547 0092 BD46     		mov	sp, r7
 1548 0094 80BC     		pop	{r7}
 1549 0096 7047     		bx	lr
 1550              	.L69:
 1551              		.align	2
 1552              	.L68:
 1553 0098 600000A0 		.word	-1610612640
 1554 009c 800000A0 		.word	-1610612608
 1555 00a0 A00000A0 		.word	-1610612576
 1556              		.cfi_endproc
 1557              	.LFE43:
 1559              		.section	.text.FSMC_GetFlagStatus,"ax",%progbits
 1560              		.align	2
 1561              		.global	FSMC_GetFlagStatus
 1562              		.thumb
 1563              		.thumb_func
 1565              	FSMC_GetFlagStatus:
 1566              	.LFB44:
 681:../STM32F10x_StdPeriph_Lib_V3.5.0/Libraries/STM32F10x_StdPeriph_Driver/src/stm32f10x_fsmc.c **** 
 682:../STM32F10x_StdPeriph_Lib_V3.5.0/Libraries/STM32F10x_StdPeriph_Driver/src/stm32f10x_fsmc.c **** /**
 683:../STM32F10x_StdPeriph_Lib_V3.5.0/Libraries/STM32F10x_StdPeriph_Driver/src/stm32f10x_fsmc.c ****   * @brief  Checks whether the specified FSMC flag is set or not.
 684:../STM32F10x_StdPeriph_Lib_V3.5.0/Libraries/STM32F10x_StdPeriph_Driver/src/stm32f10x_fsmc.c ****   * @param  FSMC_Bank: specifies the FSMC Bank to be used
 685:../STM32F10x_StdPeriph_Lib_V3.5.0/Libraries/STM32F10x_StdPeriph_Driver/src/stm32f10x_fsmc.c ****   *   This parameter can be one of the following values:
 686:../STM32F10x_StdPeriph_Lib_V3.5.0/Libraries/STM32F10x_StdPeriph_Driver/src/stm32f10x_fsmc.c ****   *     @arg FSMC_Bank2_NAND: FSMC Bank2 NAND 
 687:../STM32F10x_StdPeriph_Lib_V3.5.0/Libraries/STM32F10x_StdPeriph_Driver/src/stm32f10x_fsmc.c ****   *     @arg FSMC_Bank3_NAND: FSMC Bank3 NAND
 688:../STM32F10x_StdPeriph_Lib_V3.5.0/Libraries/STM32F10x_StdPeriph_Driver/src/stm32f10x_fsmc.c ****   *     @arg FSMC_Bank4_PCCARD: FSMC Bank4 PCCARD
 689:../STM32F10x_StdPeriph_Lib_V3.5.0/Libraries/STM32F10x_StdPeriph_Driver/src/stm32f10x_fsmc.c ****   * @param  FSMC_FLAG: specifies the flag to check.
 690:../STM32F10x_StdPeriph_Lib_V3.5.0/Libraries/STM32F10x_StdPeriph_Driver/src/stm32f10x_fsmc.c ****   *   This parameter can be one of the following values:
 691:../STM32F10x_StdPeriph_Lib_V3.5.0/Libraries/STM32F10x_StdPeriph_Driver/src/stm32f10x_fsmc.c ****   *     @arg FSMC_FLAG_RisingEdge: Rising egde detection Flag.
 692:../STM32F10x_StdPeriph_Lib_V3.5.0/Libraries/STM32F10x_StdPeriph_Driver/src/stm32f10x_fsmc.c ****   *     @arg FSMC_FLAG_Level: Level detection Flag.
 693:../STM32F10x_StdPeriph_Lib_V3.5.0/Libraries/STM32F10x_StdPeriph_Driver/src/stm32f10x_fsmc.c ****   *     @arg FSMC_FLAG_FallingEdge: Falling egde detection Flag.
 694:../STM32F10x_StdPeriph_Lib_V3.5.0/Libraries/STM32F10x_StdPeriph_Driver/src/stm32f10x_fsmc.c ****   *     @arg FSMC_FLAG_FEMPT: Fifo empty Flag. 
 695:../STM32F10x_StdPeriph_Lib_V3.5.0/Libraries/STM32F10x_StdPeriph_Driver/src/stm32f10x_fsmc.c ****   * @retval The new state of FSMC_FLAG (SET or RESET).
 696:../STM32F10x_StdPeriph_Lib_V3.5.0/Libraries/STM32F10x_StdPeriph_Driver/src/stm32f10x_fsmc.c ****   */
 697:../STM32F10x_StdPeriph_Lib_V3.5.0/Libraries/STM32F10x_StdPeriph_Driver/src/stm32f10x_fsmc.c **** FlagStatus FSMC_GetFlagStatus(uint32_t FSMC_Bank, uint32_t FSMC_FLAG)
 698:../STM32F10x_StdPeriph_Lib_V3.5.0/Libraries/STM32F10x_StdPeriph_Driver/src/stm32f10x_fsmc.c **** {
 1567              		.loc 1 698 0
 1568              		.cfi_startproc
 1569              		@ args = 0, pretend = 0, frame = 16
 1570              		@ frame_needed = 1, uses_anonymous_args = 0
 1571              		@ link register save eliminated.
 1572 0000 80B4     		push	{r7}
 1573              	.LCFI44:
 1574              		.cfi_def_cfa_offset 4
 1575              		.cfi_offset 7, -4
 1576 0002 85B0     		sub	sp, sp, #20
 1577              	.LCFI45:
 1578              		.cfi_def_cfa_offset 24
 1579 0004 00AF     		add	r7, sp, #0
 1580              	.LCFI46:
 1581              		.cfi_def_cfa_register 7
 1582 0006 7860     		str	r0, [r7, #4]
 1583 0008 3960     		str	r1, [r7, #0]
 699:../STM32F10x_StdPeriph_Lib_V3.5.0/Libraries/STM32F10x_StdPeriph_Driver/src/stm32f10x_fsmc.c ****   FlagStatus bitstatus = RESET;
 1584              		.loc 1 699 0
 1585 000a 4FF00003 		mov	r3, #0
 1586 000e FB73     		strb	r3, [r7, #15]
 700:../STM32F10x_StdPeriph_Lib_V3.5.0/Libraries/STM32F10x_StdPeriph_Driver/src/stm32f10x_fsmc.c ****   uint32_t tmpsr = 0x00000000;
 1587              		.loc 1 700 0
 1588 0010 4FF00003 		mov	r3, #0
 1589 0014 BB60     		str	r3, [r7, #8]
 701:../STM32F10x_StdPeriph_Lib_V3.5.0/Libraries/STM32F10x_StdPeriph_Driver/src/stm32f10x_fsmc.c ****   
 702:../STM32F10x_StdPeriph_Lib_V3.5.0/Libraries/STM32F10x_StdPeriph_Driver/src/stm32f10x_fsmc.c ****   /* Check the parameters */
 703:../STM32F10x_StdPeriph_Lib_V3.5.0/Libraries/STM32F10x_StdPeriph_Driver/src/stm32f10x_fsmc.c ****   assert_param(IS_FSMC_GETFLAG_BANK(FSMC_Bank));
 704:../STM32F10x_StdPeriph_Lib_V3.5.0/Libraries/STM32F10x_StdPeriph_Driver/src/stm32f10x_fsmc.c ****   assert_param(IS_FSMC_GET_FLAG(FSMC_FLAG));
 705:../STM32F10x_StdPeriph_Lib_V3.5.0/Libraries/STM32F10x_StdPeriph_Driver/src/stm32f10x_fsmc.c ****   
 706:../STM32F10x_StdPeriph_Lib_V3.5.0/Libraries/STM32F10x_StdPeriph_Driver/src/stm32f10x_fsmc.c ****   if(FSMC_Bank == FSMC_Bank2_NAND)
 1590              		.loc 1 706 0
 1591 0016 7B68     		ldr	r3, [r7, #4]
 1592 0018 102B     		cmp	r3, #16
 1593 001a 03D1     		bne	.L71
 707:../STM32F10x_StdPeriph_Lib_V3.5.0/Libraries/STM32F10x_StdPeriph_Driver/src/stm32f10x_fsmc.c ****   {
 708:../STM32F10x_StdPeriph_Lib_V3.5.0/Libraries/STM32F10x_StdPeriph_Driver/src/stm32f10x_fsmc.c ****     tmpsr = FSMC_Bank2->SR2;
 1594              		.loc 1 708 0
 1595 001c 104B     		ldr	r3, .L77
 1596 001e 5B68     		ldr	r3, [r3, #4]
 1597 0020 BB60     		str	r3, [r7, #8]
 1598 0022 0AE0     		b	.L72
 1599              	.L71:
 709:../STM32F10x_StdPeriph_Lib_V3.5.0/Libraries/STM32F10x_StdPeriph_Driver/src/stm32f10x_fsmc.c ****   }  
 710:../STM32F10x_StdPeriph_Lib_V3.5.0/Libraries/STM32F10x_StdPeriph_Driver/src/stm32f10x_fsmc.c ****   else if(FSMC_Bank == FSMC_Bank3_NAND)
 1600              		.loc 1 710 0
 1601 0024 7B68     		ldr	r3, [r7, #4]
 1602 0026 B3F5807F 		cmp	r3, #256
 1603 002a 03D1     		bne	.L73
 711:../STM32F10x_StdPeriph_Lib_V3.5.0/Libraries/STM32F10x_StdPeriph_Driver/src/stm32f10x_fsmc.c ****   {
 712:../STM32F10x_StdPeriph_Lib_V3.5.0/Libraries/STM32F10x_StdPeriph_Driver/src/stm32f10x_fsmc.c ****     tmpsr = FSMC_Bank3->SR3;
 1604              		.loc 1 712 0
 1605 002c 0D4B     		ldr	r3, .L77+4
 1606 002e 5B68     		ldr	r3, [r3, #4]
 1607 0030 BB60     		str	r3, [r7, #8]
 1608 0032 02E0     		b	.L72
 1609              	.L73:
 713:../STM32F10x_StdPeriph_Lib_V3.5.0/Libraries/STM32F10x_StdPeriph_Driver/src/stm32f10x_fsmc.c ****   }
 714:../STM32F10x_StdPeriph_Lib_V3.5.0/Libraries/STM32F10x_StdPeriph_Driver/src/stm32f10x_fsmc.c ****   /* FSMC_Bank4_PCCARD*/
 715:../STM32F10x_StdPeriph_Lib_V3.5.0/Libraries/STM32F10x_StdPeriph_Driver/src/stm32f10x_fsmc.c ****   else
 716:../STM32F10x_StdPeriph_Lib_V3.5.0/Libraries/STM32F10x_StdPeriph_Driver/src/stm32f10x_fsmc.c ****   {
 717:../STM32F10x_StdPeriph_Lib_V3.5.0/Libraries/STM32F10x_StdPeriph_Driver/src/stm32f10x_fsmc.c ****     tmpsr = FSMC_Bank4->SR4;
 1610              		.loc 1 717 0
 1611 0034 0C4B     		ldr	r3, .L77+8
 1612 0036 5B68     		ldr	r3, [r3, #4]
 1613 0038 BB60     		str	r3, [r7, #8]
 1614              	.L72:
 718:../STM32F10x_StdPeriph_Lib_V3.5.0/Libraries/STM32F10x_StdPeriph_Driver/src/stm32f10x_fsmc.c ****   } 
 719:../STM32F10x_StdPeriph_Lib_V3.5.0/Libraries/STM32F10x_StdPeriph_Driver/src/stm32f10x_fsmc.c ****   
 720:../STM32F10x_StdPeriph_Lib_V3.5.0/Libraries/STM32F10x_StdPeriph_Driver/src/stm32f10x_fsmc.c ****   /* Get the flag status */
 721:../STM32F10x_StdPeriph_Lib_V3.5.0/Libraries/STM32F10x_StdPeriph_Driver/src/stm32f10x_fsmc.c ****   if ((tmpsr & FSMC_FLAG) != (uint16_t)RESET )
 1615              		.loc 1 721 0
 1616 003a BA68     		ldr	r2, [r7, #8]
 1617 003c 3B68     		ldr	r3, [r7, #0]
 1618 003e 1340     		ands	r3, r3, r2
 1619 0040 002B     		cmp	r3, #0
 1620 0042 03D0     		beq	.L74
 722:../STM32F10x_StdPeriph_Lib_V3.5.0/Libraries/STM32F10x_StdPeriph_Driver/src/stm32f10x_fsmc.c ****   {
 723:../STM32F10x_StdPeriph_Lib_V3.5.0/Libraries/STM32F10x_StdPeriph_Driver/src/stm32f10x_fsmc.c ****     bitstatus = SET;
 1621              		.loc 1 723 0
 1622 0044 4FF00103 		mov	r3, #1
 1623 0048 FB73     		strb	r3, [r7, #15]
 1624 004a 02E0     		b	.L75
 1625              	.L74:
 724:../STM32F10x_StdPeriph_Lib_V3.5.0/Libraries/STM32F10x_StdPeriph_Driver/src/stm32f10x_fsmc.c ****   }
 725:../STM32F10x_StdPeriph_Lib_V3.5.0/Libraries/STM32F10x_StdPeriph_Driver/src/stm32f10x_fsmc.c ****   else
 726:../STM32F10x_StdPeriph_Lib_V3.5.0/Libraries/STM32F10x_StdPeriph_Driver/src/stm32f10x_fsmc.c ****   {
 727:../STM32F10x_StdPeriph_Lib_V3.5.0/Libraries/STM32F10x_StdPeriph_Driver/src/stm32f10x_fsmc.c ****     bitstatus = RESET;
 1626              		.loc 1 727 0
 1627 004c 4FF00003 		mov	r3, #0
 1628 0050 FB73     		strb	r3, [r7, #15]
 1629              	.L75:
 728:../STM32F10x_StdPeriph_Lib_V3.5.0/Libraries/STM32F10x_StdPeriph_Driver/src/stm32f10x_fsmc.c ****   }
 729:../STM32F10x_StdPeriph_Lib_V3.5.0/Libraries/STM32F10x_StdPeriph_Driver/src/stm32f10x_fsmc.c ****   /* Return the flag status */
 730:../STM32F10x_StdPeriph_Lib_V3.5.0/Libraries/STM32F10x_StdPeriph_Driver/src/stm32f10x_fsmc.c ****   return bitstatus;
 1630              		.loc 1 730 0
 1631 0052 FB7B     		ldrb	r3, [r7, #15]	@ zero_extendqisi2
 731:../STM32F10x_StdPeriph_Lib_V3.5.0/Libraries/STM32F10x_StdPeriph_Driver/src/stm32f10x_fsmc.c **** }
 1632              		.loc 1 731 0
 1633 0054 1846     		mov	r0, r3
 1634 0056 07F11407 		add	r7, r7, #20
 1635 005a BD46     		mov	sp, r7
 1636 005c 80BC     		pop	{r7}
 1637 005e 7047     		bx	lr
 1638              	.L78:
 1639              		.align	2
 1640              	.L77:
 1641 0060 600000A0 		.word	-1610612640
 1642 0064 800000A0 		.word	-1610612608
 1643 0068 A00000A0 		.word	-1610612576
 1644              		.cfi_endproc
 1645              	.LFE44:
 1647              		.section	.text.FSMC_ClearFlag,"ax",%progbits
 1648              		.align	2
 1649              		.global	FSMC_ClearFlag
 1650              		.thumb
 1651              		.thumb_func
 1653              	FSMC_ClearFlag:
 1654              	.LFB45:
 732:../STM32F10x_StdPeriph_Lib_V3.5.0/Libraries/STM32F10x_StdPeriph_Driver/src/stm32f10x_fsmc.c **** 
 733:../STM32F10x_StdPeriph_Lib_V3.5.0/Libraries/STM32F10x_StdPeriph_Driver/src/stm32f10x_fsmc.c **** /**
 734:../STM32F10x_StdPeriph_Lib_V3.5.0/Libraries/STM32F10x_StdPeriph_Driver/src/stm32f10x_fsmc.c ****   * @brief  Clears the FSMC's pending flags.
 735:../STM32F10x_StdPeriph_Lib_V3.5.0/Libraries/STM32F10x_StdPeriph_Driver/src/stm32f10x_fsmc.c ****   * @param  FSMC_Bank: specifies the FSMC Bank to be used
 736:../STM32F10x_StdPeriph_Lib_V3.5.0/Libraries/STM32F10x_StdPeriph_Driver/src/stm32f10x_fsmc.c ****   *   This parameter can be one of the following values:
 737:../STM32F10x_StdPeriph_Lib_V3.5.0/Libraries/STM32F10x_StdPeriph_Driver/src/stm32f10x_fsmc.c ****   *     @arg FSMC_Bank2_NAND: FSMC Bank2 NAND 
 738:../STM32F10x_StdPeriph_Lib_V3.5.0/Libraries/STM32F10x_StdPeriph_Driver/src/stm32f10x_fsmc.c ****   *     @arg FSMC_Bank3_NAND: FSMC Bank3 NAND
 739:../STM32F10x_StdPeriph_Lib_V3.5.0/Libraries/STM32F10x_StdPeriph_Driver/src/stm32f10x_fsmc.c ****   *     @arg FSMC_Bank4_PCCARD: FSMC Bank4 PCCARD
 740:../STM32F10x_StdPeriph_Lib_V3.5.0/Libraries/STM32F10x_StdPeriph_Driver/src/stm32f10x_fsmc.c ****   * @param  FSMC_FLAG: specifies the flag to clear.
 741:../STM32F10x_StdPeriph_Lib_V3.5.0/Libraries/STM32F10x_StdPeriph_Driver/src/stm32f10x_fsmc.c ****   *   This parameter can be any combination of the following values:
 742:../STM32F10x_StdPeriph_Lib_V3.5.0/Libraries/STM32F10x_StdPeriph_Driver/src/stm32f10x_fsmc.c ****   *     @arg FSMC_FLAG_RisingEdge: Rising egde detection Flag.
 743:../STM32F10x_StdPeriph_Lib_V3.5.0/Libraries/STM32F10x_StdPeriph_Driver/src/stm32f10x_fsmc.c ****   *     @arg FSMC_FLAG_Level: Level detection Flag.
 744:../STM32F10x_StdPeriph_Lib_V3.5.0/Libraries/STM32F10x_StdPeriph_Driver/src/stm32f10x_fsmc.c ****   *     @arg FSMC_FLAG_FallingEdge: Falling egde detection Flag.
 745:../STM32F10x_StdPeriph_Lib_V3.5.0/Libraries/STM32F10x_StdPeriph_Driver/src/stm32f10x_fsmc.c ****   * @retval None
 746:../STM32F10x_StdPeriph_Lib_V3.5.0/Libraries/STM32F10x_StdPeriph_Driver/src/stm32f10x_fsmc.c ****   */
 747:../STM32F10x_StdPeriph_Lib_V3.5.0/Libraries/STM32F10x_StdPeriph_Driver/src/stm32f10x_fsmc.c **** void FSMC_ClearFlag(uint32_t FSMC_Bank, uint32_t FSMC_FLAG)
 748:../STM32F10x_StdPeriph_Lib_V3.5.0/Libraries/STM32F10x_StdPeriph_Driver/src/stm32f10x_fsmc.c **** {
 1655              		.loc 1 748 0
 1656              		.cfi_startproc
 1657              		@ args = 0, pretend = 0, frame = 8
 1658              		@ frame_needed = 1, uses_anonymous_args = 0
 1659              		@ link register save eliminated.
 1660 0000 80B4     		push	{r7}
 1661              	.LCFI47:
 1662              		.cfi_def_cfa_offset 4
 1663              		.cfi_offset 7, -4
 1664 0002 83B0     		sub	sp, sp, #12
 1665              	.LCFI48:
 1666              		.cfi_def_cfa_offset 16
 1667 0004 00AF     		add	r7, sp, #0
 1668              	.LCFI49:
 1669              		.cfi_def_cfa_register 7
 1670 0006 7860     		str	r0, [r7, #4]
 1671 0008 3960     		str	r1, [r7, #0]
 749:../STM32F10x_StdPeriph_Lib_V3.5.0/Libraries/STM32F10x_StdPeriph_Driver/src/stm32f10x_fsmc.c ****  /* Check the parameters */
 750:../STM32F10x_StdPeriph_Lib_V3.5.0/Libraries/STM32F10x_StdPeriph_Driver/src/stm32f10x_fsmc.c ****   assert_param(IS_FSMC_GETFLAG_BANK(FSMC_Bank));
 751:../STM32F10x_StdPeriph_Lib_V3.5.0/Libraries/STM32F10x_StdPeriph_Driver/src/stm32f10x_fsmc.c ****   assert_param(IS_FSMC_CLEAR_FLAG(FSMC_FLAG)) ;
 752:../STM32F10x_StdPeriph_Lib_V3.5.0/Libraries/STM32F10x_StdPeriph_Driver/src/stm32f10x_fsmc.c ****     
 753:../STM32F10x_StdPeriph_Lib_V3.5.0/Libraries/STM32F10x_StdPeriph_Driver/src/stm32f10x_fsmc.c ****   if(FSMC_Bank == FSMC_Bank2_NAND)
 1672              		.loc 1 753 0
 1673 000a 7B68     		ldr	r3, [r7, #4]
 1674 000c 102B     		cmp	r3, #16
 1675 000e 08D1     		bne	.L80
 754:../STM32F10x_StdPeriph_Lib_V3.5.0/Libraries/STM32F10x_StdPeriph_Driver/src/stm32f10x_fsmc.c ****   {
 755:../STM32F10x_StdPeriph_Lib_V3.5.0/Libraries/STM32F10x_StdPeriph_Driver/src/stm32f10x_fsmc.c ****     FSMC_Bank2->SR2 &= ~FSMC_FLAG; 
 1676              		.loc 1 755 0
 1677 0010 114B     		ldr	r3, .L83
 1678 0012 114A     		ldr	r2, .L83
 1679 0014 5168     		ldr	r1, [r2, #4]
 1680 0016 3A68     		ldr	r2, [r7, #0]
 1681 0018 6FEA0202 		mvn	r2, r2
 1682 001c 0A40     		ands	r2, r2, r1
 1683 001e 5A60     		str	r2, [r3, #4]
 1684 0020 14E0     		b	.L79
 1685              	.L80:
 756:../STM32F10x_StdPeriph_Lib_V3.5.0/Libraries/STM32F10x_StdPeriph_Driver/src/stm32f10x_fsmc.c ****   }  
 757:../STM32F10x_StdPeriph_Lib_V3.5.0/Libraries/STM32F10x_StdPeriph_Driver/src/stm32f10x_fsmc.c ****   else if(FSMC_Bank == FSMC_Bank3_NAND)
 1686              		.loc 1 757 0
 1687 0022 7B68     		ldr	r3, [r7, #4]
 1688 0024 B3F5807F 		cmp	r3, #256
 1689 0028 08D1     		bne	.L82
 758:../STM32F10x_StdPeriph_Lib_V3.5.0/Libraries/STM32F10x_StdPeriph_Driver/src/stm32f10x_fsmc.c ****   {
 759:../STM32F10x_StdPeriph_Lib_V3.5.0/Libraries/STM32F10x_StdPeriph_Driver/src/stm32f10x_fsmc.c ****     FSMC_Bank3->SR3 &= ~FSMC_FLAG;
 1690              		.loc 1 759 0
 1691 002a 0C4B     		ldr	r3, .L83+4
 1692 002c 0B4A     		ldr	r2, .L83+4
 1693 002e 5168     		ldr	r1, [r2, #4]
 1694 0030 3A68     		ldr	r2, [r7, #0]
 1695 0032 6FEA0202 		mvn	r2, r2
 1696 0036 0A40     		ands	r2, r2, r1
 1697 0038 5A60     		str	r2, [r3, #4]
 1698 003a 07E0     		b	.L79
 1699              	.L82:
 760:../STM32F10x_StdPeriph_Lib_V3.5.0/Libraries/STM32F10x_StdPeriph_Driver/src/stm32f10x_fsmc.c ****   }
 761:../STM32F10x_StdPeriph_Lib_V3.5.0/Libraries/STM32F10x_StdPeriph_Driver/src/stm32f10x_fsmc.c ****   /* FSMC_Bank4_PCCARD*/
 762:../STM32F10x_StdPeriph_Lib_V3.5.0/Libraries/STM32F10x_StdPeriph_Driver/src/stm32f10x_fsmc.c ****   else
 763:../STM32F10x_StdPeriph_Lib_V3.5.0/Libraries/STM32F10x_StdPeriph_Driver/src/stm32f10x_fsmc.c ****   {
 764:../STM32F10x_StdPeriph_Lib_V3.5.0/Libraries/STM32F10x_StdPeriph_Driver/src/stm32f10x_fsmc.c ****     FSMC_Bank4->SR4 &= ~FSMC_FLAG;
 1700              		.loc 1 764 0
 1701 003c 084B     		ldr	r3, .L83+8
 1702 003e 084A     		ldr	r2, .L83+8
 1703 0040 5168     		ldr	r1, [r2, #4]
 1704 0042 3A68     		ldr	r2, [r7, #0]
 1705 0044 6FEA0202 		mvn	r2, r2
 1706 0048 0A40     		ands	r2, r2, r1
 1707 004a 5A60     		str	r2, [r3, #4]
 1708              	.L79:
 765:../STM32F10x_StdPeriph_Lib_V3.5.0/Libraries/STM32F10x_StdPeriph_Driver/src/stm32f10x_fsmc.c ****   }
 766:../STM32F10x_StdPeriph_Lib_V3.5.0/Libraries/STM32F10x_StdPeriph_Driver/src/stm32f10x_fsmc.c **** }
 1709              		.loc 1 766 0
 1710 004c 07F10C07 		add	r7, r7, #12
 1711 0050 BD46     		mov	sp, r7
 1712 0052 80BC     		pop	{r7}
 1713 0054 7047     		bx	lr
 1714              	.L84:
 1715 0056 00BF     		.align	2
 1716              	.L83:
 1717 0058 600000A0 		.word	-1610612640
 1718 005c 800000A0 		.word	-1610612608
 1719 0060 A00000A0 		.word	-1610612576
 1720              		.cfi_endproc
 1721              	.LFE45:
 1723              		.section	.text.FSMC_GetITStatus,"ax",%progbits
 1724              		.align	2
 1725              		.global	FSMC_GetITStatus
 1726              		.thumb
 1727              		.thumb_func
 1729              	FSMC_GetITStatus:
 1730              	.LFB46:
 767:../STM32F10x_StdPeriph_Lib_V3.5.0/Libraries/STM32F10x_StdPeriph_Driver/src/stm32f10x_fsmc.c **** 
 768:../STM32F10x_StdPeriph_Lib_V3.5.0/Libraries/STM32F10x_StdPeriph_Driver/src/stm32f10x_fsmc.c **** /**
 769:../STM32F10x_StdPeriph_Lib_V3.5.0/Libraries/STM32F10x_StdPeriph_Driver/src/stm32f10x_fsmc.c ****   * @brief  Checks whether the specified FSMC interrupt has occurred or not.
 770:../STM32F10x_StdPeriph_Lib_V3.5.0/Libraries/STM32F10x_StdPeriph_Driver/src/stm32f10x_fsmc.c ****   * @param  FSMC_Bank: specifies the FSMC Bank to be used
 771:../STM32F10x_StdPeriph_Lib_V3.5.0/Libraries/STM32F10x_StdPeriph_Driver/src/stm32f10x_fsmc.c ****   *   This parameter can be one of the following values:
 772:../STM32F10x_StdPeriph_Lib_V3.5.0/Libraries/STM32F10x_StdPeriph_Driver/src/stm32f10x_fsmc.c ****   *     @arg FSMC_Bank2_NAND: FSMC Bank2 NAND 
 773:../STM32F10x_StdPeriph_Lib_V3.5.0/Libraries/STM32F10x_StdPeriph_Driver/src/stm32f10x_fsmc.c ****   *     @arg FSMC_Bank3_NAND: FSMC Bank3 NAND
 774:../STM32F10x_StdPeriph_Lib_V3.5.0/Libraries/STM32F10x_StdPeriph_Driver/src/stm32f10x_fsmc.c ****   *     @arg FSMC_Bank4_PCCARD: FSMC Bank4 PCCARD
 775:../STM32F10x_StdPeriph_Lib_V3.5.0/Libraries/STM32F10x_StdPeriph_Driver/src/stm32f10x_fsmc.c ****   * @param  FSMC_IT: specifies the FSMC interrupt source to check.
 776:../STM32F10x_StdPeriph_Lib_V3.5.0/Libraries/STM32F10x_StdPeriph_Driver/src/stm32f10x_fsmc.c ****   *   This parameter can be one of the following values:
 777:../STM32F10x_StdPeriph_Lib_V3.5.0/Libraries/STM32F10x_StdPeriph_Driver/src/stm32f10x_fsmc.c ****   *     @arg FSMC_IT_RisingEdge: Rising edge detection interrupt. 
 778:../STM32F10x_StdPeriph_Lib_V3.5.0/Libraries/STM32F10x_StdPeriph_Driver/src/stm32f10x_fsmc.c ****   *     @arg FSMC_IT_Level: Level edge detection interrupt.
 779:../STM32F10x_StdPeriph_Lib_V3.5.0/Libraries/STM32F10x_StdPeriph_Driver/src/stm32f10x_fsmc.c ****   *     @arg FSMC_IT_FallingEdge: Falling edge detection interrupt. 
 780:../STM32F10x_StdPeriph_Lib_V3.5.0/Libraries/STM32F10x_StdPeriph_Driver/src/stm32f10x_fsmc.c ****   * @retval The new state of FSMC_IT (SET or RESET).
 781:../STM32F10x_StdPeriph_Lib_V3.5.0/Libraries/STM32F10x_StdPeriph_Driver/src/stm32f10x_fsmc.c ****   */
 782:../STM32F10x_StdPeriph_Lib_V3.5.0/Libraries/STM32F10x_StdPeriph_Driver/src/stm32f10x_fsmc.c **** ITStatus FSMC_GetITStatus(uint32_t FSMC_Bank, uint32_t FSMC_IT)
 783:../STM32F10x_StdPeriph_Lib_V3.5.0/Libraries/STM32F10x_StdPeriph_Driver/src/stm32f10x_fsmc.c **** {
 1731              		.loc 1 783 0
 1732              		.cfi_startproc
 1733              		@ args = 0, pretend = 0, frame = 24
 1734              		@ frame_needed = 1, uses_anonymous_args = 0
 1735              		@ link register save eliminated.
 1736 0000 80B4     		push	{r7}
 1737              	.LCFI50:
 1738              		.cfi_def_cfa_offset 4
 1739              		.cfi_offset 7, -4
 1740 0002 87B0     		sub	sp, sp, #28
 1741              	.LCFI51:
 1742              		.cfi_def_cfa_offset 32
 1743 0004 00AF     		add	r7, sp, #0
 1744              	.LCFI52:
 1745              		.cfi_def_cfa_register 7
 1746 0006 7860     		str	r0, [r7, #4]
 1747 0008 3960     		str	r1, [r7, #0]
 784:../STM32F10x_StdPeriph_Lib_V3.5.0/Libraries/STM32F10x_StdPeriph_Driver/src/stm32f10x_fsmc.c ****   ITStatus bitstatus = RESET;
 1748              		.loc 1 784 0
 1749 000a 4FF00003 		mov	r3, #0
 1750 000e FB75     		strb	r3, [r7, #23]
 785:../STM32F10x_StdPeriph_Lib_V3.5.0/Libraries/STM32F10x_StdPeriph_Driver/src/stm32f10x_fsmc.c ****   uint32_t tmpsr = 0x0, itstatus = 0x0, itenable = 0x0; 
 1751              		.loc 1 785 0
 1752 0010 4FF00003 		mov	r3, #0
 1753 0014 3B61     		str	r3, [r7, #16]
 1754 0016 4FF00003 		mov	r3, #0
 1755 001a FB60     		str	r3, [r7, #12]
 1756 001c 4FF00003 		mov	r3, #0
 1757 0020 BB60     		str	r3, [r7, #8]
 786:../STM32F10x_StdPeriph_Lib_V3.5.0/Libraries/STM32F10x_StdPeriph_Driver/src/stm32f10x_fsmc.c ****   
 787:../STM32F10x_StdPeriph_Lib_V3.5.0/Libraries/STM32F10x_StdPeriph_Driver/src/stm32f10x_fsmc.c ****   /* Check the parameters */
 788:../STM32F10x_StdPeriph_Lib_V3.5.0/Libraries/STM32F10x_StdPeriph_Driver/src/stm32f10x_fsmc.c ****   assert_param(IS_FSMC_IT_BANK(FSMC_Bank));
 789:../STM32F10x_StdPeriph_Lib_V3.5.0/Libraries/STM32F10x_StdPeriph_Driver/src/stm32f10x_fsmc.c ****   assert_param(IS_FSMC_GET_IT(FSMC_IT));
 790:../STM32F10x_StdPeriph_Lib_V3.5.0/Libraries/STM32F10x_StdPeriph_Driver/src/stm32f10x_fsmc.c ****   
 791:../STM32F10x_StdPeriph_Lib_V3.5.0/Libraries/STM32F10x_StdPeriph_Driver/src/stm32f10x_fsmc.c ****   if(FSMC_Bank == FSMC_Bank2_NAND)
 1758              		.loc 1 791 0
 1759 0022 7B68     		ldr	r3, [r7, #4]
 1760 0024 102B     		cmp	r3, #16
 1761 0026 03D1     		bne	.L86
 792:../STM32F10x_StdPeriph_Lib_V3.5.0/Libraries/STM32F10x_StdPeriph_Driver/src/stm32f10x_fsmc.c ****   {
 793:../STM32F10x_StdPeriph_Lib_V3.5.0/Libraries/STM32F10x_StdPeriph_Driver/src/stm32f10x_fsmc.c ****     tmpsr = FSMC_Bank2->SR2;
 1762              		.loc 1 793 0
 1763 0028 164B     		ldr	r3, .L92
 1764 002a 5B68     		ldr	r3, [r3, #4]
 1765 002c 3B61     		str	r3, [r7, #16]
 1766 002e 0AE0     		b	.L87
 1767              	.L86:
 794:../STM32F10x_StdPeriph_Lib_V3.5.0/Libraries/STM32F10x_StdPeriph_Driver/src/stm32f10x_fsmc.c ****   }  
 795:../STM32F10x_StdPeriph_Lib_V3.5.0/Libraries/STM32F10x_StdPeriph_Driver/src/stm32f10x_fsmc.c ****   else if(FSMC_Bank == FSMC_Bank3_NAND)
 1768              		.loc 1 795 0
 1769 0030 7B68     		ldr	r3, [r7, #4]
 1770 0032 B3F5807F 		cmp	r3, #256
 1771 0036 03D1     		bne	.L88
 796:../STM32F10x_StdPeriph_Lib_V3.5.0/Libraries/STM32F10x_StdPeriph_Driver/src/stm32f10x_fsmc.c ****   {
 797:../STM32F10x_StdPeriph_Lib_V3.5.0/Libraries/STM32F10x_StdPeriph_Driver/src/stm32f10x_fsmc.c ****     tmpsr = FSMC_Bank3->SR3;
 1772              		.loc 1 797 0
 1773 0038 134B     		ldr	r3, .L92+4
 1774 003a 5B68     		ldr	r3, [r3, #4]
 1775 003c 3B61     		str	r3, [r7, #16]
 1776 003e 02E0     		b	.L87
 1777              	.L88:
 798:../STM32F10x_StdPeriph_Lib_V3.5.0/Libraries/STM32F10x_StdPeriph_Driver/src/stm32f10x_fsmc.c ****   }
 799:../STM32F10x_StdPeriph_Lib_V3.5.0/Libraries/STM32F10x_StdPeriph_Driver/src/stm32f10x_fsmc.c ****   /* FSMC_Bank4_PCCARD*/
 800:../STM32F10x_StdPeriph_Lib_V3.5.0/Libraries/STM32F10x_StdPeriph_Driver/src/stm32f10x_fsmc.c ****   else
 801:../STM32F10x_StdPeriph_Lib_V3.5.0/Libraries/STM32F10x_StdPeriph_Driver/src/stm32f10x_fsmc.c ****   {
 802:../STM32F10x_StdPeriph_Lib_V3.5.0/Libraries/STM32F10x_StdPeriph_Driver/src/stm32f10x_fsmc.c ****     tmpsr = FSMC_Bank4->SR4;
 1778              		.loc 1 802 0
 1779 0040 124B     		ldr	r3, .L92+8
 1780 0042 5B68     		ldr	r3, [r3, #4]
 1781 0044 3B61     		str	r3, [r7, #16]
 1782              	.L87:
 803:../STM32F10x_StdPeriph_Lib_V3.5.0/Libraries/STM32F10x_StdPeriph_Driver/src/stm32f10x_fsmc.c ****   } 
 804:../STM32F10x_StdPeriph_Lib_V3.5.0/Libraries/STM32F10x_StdPeriph_Driver/src/stm32f10x_fsmc.c ****   
 805:../STM32F10x_StdPeriph_Lib_V3.5.0/Libraries/STM32F10x_StdPeriph_Driver/src/stm32f10x_fsmc.c ****   itstatus = tmpsr & FSMC_IT;
 1783              		.loc 1 805 0
 1784 0046 3A69     		ldr	r2, [r7, #16]
 1785 0048 3B68     		ldr	r3, [r7, #0]
 1786 004a 1340     		ands	r3, r3, r2
 1787 004c FB60     		str	r3, [r7, #12]
 806:../STM32F10x_StdPeriph_Lib_V3.5.0/Libraries/STM32F10x_StdPeriph_Driver/src/stm32f10x_fsmc.c ****   
 807:../STM32F10x_StdPeriph_Lib_V3.5.0/Libraries/STM32F10x_StdPeriph_Driver/src/stm32f10x_fsmc.c ****   itenable = tmpsr & (FSMC_IT >> 3);
 1788              		.loc 1 807 0
 1789 004e 3B68     		ldr	r3, [r7, #0]
 1790 0050 4FEAD302 		lsr	r2, r3, #3
 1791 0054 3B69     		ldr	r3, [r7, #16]
 1792 0056 1340     		ands	r3, r3, r2
 1793 0058 BB60     		str	r3, [r7, #8]
 808:../STM32F10x_StdPeriph_Lib_V3.5.0/Libraries/STM32F10x_StdPeriph_Driver/src/stm32f10x_fsmc.c ****   if ((itstatus != (uint32_t)RESET)  && (itenable != (uint32_t)RESET))
 1794              		.loc 1 808 0
 1795 005a FB68     		ldr	r3, [r7, #12]
 1796 005c 002B     		cmp	r3, #0
 1797 005e 06D0     		beq	.L89
 1798              		.loc 1 808 0 is_stmt 0 discriminator 1
 1799 0060 BB68     		ldr	r3, [r7, #8]
 1800 0062 002B     		cmp	r3, #0
 1801 0064 03D0     		beq	.L89
 809:../STM32F10x_StdPeriph_Lib_V3.5.0/Libraries/STM32F10x_StdPeriph_Driver/src/stm32f10x_fsmc.c ****   {
 810:../STM32F10x_StdPeriph_Lib_V3.5.0/Libraries/STM32F10x_StdPeriph_Driver/src/stm32f10x_fsmc.c ****     bitstatus = SET;
 1802              		.loc 1 810 0 is_stmt 1
 1803 0066 4FF00103 		mov	r3, #1
 1804 006a FB75     		strb	r3, [r7, #23]
 1805 006c 02E0     		b	.L90
 1806              	.L89:
 811:../STM32F10x_StdPeriph_Lib_V3.5.0/Libraries/STM32F10x_StdPeriph_Driver/src/stm32f10x_fsmc.c ****   }
 812:../STM32F10x_StdPeriph_Lib_V3.5.0/Libraries/STM32F10x_StdPeriph_Driver/src/stm32f10x_fsmc.c ****   else
 813:../STM32F10x_StdPeriph_Lib_V3.5.0/Libraries/STM32F10x_StdPeriph_Driver/src/stm32f10x_fsmc.c ****   {
 814:../STM32F10x_StdPeriph_Lib_V3.5.0/Libraries/STM32F10x_StdPeriph_Driver/src/stm32f10x_fsmc.c ****     bitstatus = RESET;
 1807              		.loc 1 814 0
 1808 006e 4FF00003 		mov	r3, #0
 1809 0072 FB75     		strb	r3, [r7, #23]
 1810              	.L90:
 815:../STM32F10x_StdPeriph_Lib_V3.5.0/Libraries/STM32F10x_StdPeriph_Driver/src/stm32f10x_fsmc.c ****   }
 816:../STM32F10x_StdPeriph_Lib_V3.5.0/Libraries/STM32F10x_StdPeriph_Driver/src/stm32f10x_fsmc.c ****   return bitstatus; 
 1811              		.loc 1 816 0
 1812 0074 FB7D     		ldrb	r3, [r7, #23]	@ zero_extendqisi2
 817:../STM32F10x_StdPeriph_Lib_V3.5.0/Libraries/STM32F10x_StdPeriph_Driver/src/stm32f10x_fsmc.c **** }
 1813              		.loc 1 817 0
 1814 0076 1846     		mov	r0, r3
 1815 0078 07F11C07 		add	r7, r7, #28
 1816 007c BD46     		mov	sp, r7
 1817 007e 80BC     		pop	{r7}
 1818 0080 7047     		bx	lr
 1819              	.L93:
 1820 0082 00BF     		.align	2
 1821              	.L92:
 1822 0084 600000A0 		.word	-1610612640
 1823 0088 800000A0 		.word	-1610612608
 1824 008c A00000A0 		.word	-1610612576
 1825              		.cfi_endproc
 1826              	.LFE46:
 1828              		.section	.text.FSMC_ClearITPendingBit,"ax",%progbits
 1829              		.align	2
 1830              		.global	FSMC_ClearITPendingBit
 1831              		.thumb
 1832              		.thumb_func
 1834              	FSMC_ClearITPendingBit:
 1835              	.LFB47:
 818:../STM32F10x_StdPeriph_Lib_V3.5.0/Libraries/STM32F10x_StdPeriph_Driver/src/stm32f10x_fsmc.c **** 
 819:../STM32F10x_StdPeriph_Lib_V3.5.0/Libraries/STM32F10x_StdPeriph_Driver/src/stm32f10x_fsmc.c **** /**
 820:../STM32F10x_StdPeriph_Lib_V3.5.0/Libraries/STM32F10x_StdPeriph_Driver/src/stm32f10x_fsmc.c ****   * @brief  Clears the FSMC's interrupt pending bits.
 821:../STM32F10x_StdPeriph_Lib_V3.5.0/Libraries/STM32F10x_StdPeriph_Driver/src/stm32f10x_fsmc.c ****   * @param  FSMC_Bank: specifies the FSMC Bank to be used
 822:../STM32F10x_StdPeriph_Lib_V3.5.0/Libraries/STM32F10x_StdPeriph_Driver/src/stm32f10x_fsmc.c ****   *   This parameter can be one of the following values:
 823:../STM32F10x_StdPeriph_Lib_V3.5.0/Libraries/STM32F10x_StdPeriph_Driver/src/stm32f10x_fsmc.c ****   *     @arg FSMC_Bank2_NAND: FSMC Bank2 NAND 
 824:../STM32F10x_StdPeriph_Lib_V3.5.0/Libraries/STM32F10x_StdPeriph_Driver/src/stm32f10x_fsmc.c ****   *     @arg FSMC_Bank3_NAND: FSMC Bank3 NAND
 825:../STM32F10x_StdPeriph_Lib_V3.5.0/Libraries/STM32F10x_StdPeriph_Driver/src/stm32f10x_fsmc.c ****   *     @arg FSMC_Bank4_PCCARD: FSMC Bank4 PCCARD
 826:../STM32F10x_StdPeriph_Lib_V3.5.0/Libraries/STM32F10x_StdPeriph_Driver/src/stm32f10x_fsmc.c ****   * @param  FSMC_IT: specifies the interrupt pending bit to clear.
 827:../STM32F10x_StdPeriph_Lib_V3.5.0/Libraries/STM32F10x_StdPeriph_Driver/src/stm32f10x_fsmc.c ****   *   This parameter can be any combination of the following values:
 828:../STM32F10x_StdPeriph_Lib_V3.5.0/Libraries/STM32F10x_StdPeriph_Driver/src/stm32f10x_fsmc.c ****   *     @arg FSMC_IT_RisingEdge: Rising edge detection interrupt. 
 829:../STM32F10x_StdPeriph_Lib_V3.5.0/Libraries/STM32F10x_StdPeriph_Driver/src/stm32f10x_fsmc.c ****   *     @arg FSMC_IT_Level: Level edge detection interrupt.
 830:../STM32F10x_StdPeriph_Lib_V3.5.0/Libraries/STM32F10x_StdPeriph_Driver/src/stm32f10x_fsmc.c ****   *     @arg FSMC_IT_FallingEdge: Falling edge detection interrupt.
 831:../STM32F10x_StdPeriph_Lib_V3.5.0/Libraries/STM32F10x_StdPeriph_Driver/src/stm32f10x_fsmc.c ****   * @retval None
 832:../STM32F10x_StdPeriph_Lib_V3.5.0/Libraries/STM32F10x_StdPeriph_Driver/src/stm32f10x_fsmc.c ****   */
 833:../STM32F10x_StdPeriph_Lib_V3.5.0/Libraries/STM32F10x_StdPeriph_Driver/src/stm32f10x_fsmc.c **** void FSMC_ClearITPendingBit(uint32_t FSMC_Bank, uint32_t FSMC_IT)
 834:../STM32F10x_StdPeriph_Lib_V3.5.0/Libraries/STM32F10x_StdPeriph_Driver/src/stm32f10x_fsmc.c **** {
 1836              		.loc 1 834 0
 1837              		.cfi_startproc
 1838              		@ args = 0, pretend = 0, frame = 8
 1839              		@ frame_needed = 1, uses_anonymous_args = 0
 1840              		@ link register save eliminated.
 1841 0000 80B4     		push	{r7}
 1842              	.LCFI53:
 1843              		.cfi_def_cfa_offset 4
 1844              		.cfi_offset 7, -4
 1845 0002 83B0     		sub	sp, sp, #12
 1846              	.LCFI54:
 1847              		.cfi_def_cfa_offset 16
 1848 0004 00AF     		add	r7, sp, #0
 1849              	.LCFI55:
 1850              		.cfi_def_cfa_register 7
 1851 0006 7860     		str	r0, [r7, #4]
 1852 0008 3960     		str	r1, [r7, #0]
 835:../STM32F10x_StdPeriph_Lib_V3.5.0/Libraries/STM32F10x_StdPeriph_Driver/src/stm32f10x_fsmc.c ****   /* Check the parameters */
 836:../STM32F10x_StdPeriph_Lib_V3.5.0/Libraries/STM32F10x_StdPeriph_Driver/src/stm32f10x_fsmc.c ****   assert_param(IS_FSMC_IT_BANK(FSMC_Bank));
 837:../STM32F10x_StdPeriph_Lib_V3.5.0/Libraries/STM32F10x_StdPeriph_Driver/src/stm32f10x_fsmc.c ****   assert_param(IS_FSMC_IT(FSMC_IT));
 838:../STM32F10x_StdPeriph_Lib_V3.5.0/Libraries/STM32F10x_StdPeriph_Driver/src/stm32f10x_fsmc.c ****     
 839:../STM32F10x_StdPeriph_Lib_V3.5.0/Libraries/STM32F10x_StdPeriph_Driver/src/stm32f10x_fsmc.c ****   if(FSMC_Bank == FSMC_Bank2_NAND)
 1853              		.loc 1 839 0
 1854 000a 7B68     		ldr	r3, [r7, #4]
 1855 000c 102B     		cmp	r3, #16
 1856 000e 0AD1     		bne	.L95
 840:../STM32F10x_StdPeriph_Lib_V3.5.0/Libraries/STM32F10x_StdPeriph_Driver/src/stm32f10x_fsmc.c ****   {
 841:../STM32F10x_StdPeriph_Lib_V3.5.0/Libraries/STM32F10x_StdPeriph_Driver/src/stm32f10x_fsmc.c ****     FSMC_Bank2->SR2 &= ~(FSMC_IT >> 3); 
 1857              		.loc 1 841 0
 1858 0010 144B     		ldr	r3, .L98
 1859 0012 144A     		ldr	r2, .L98
 1860 0014 5168     		ldr	r1, [r2, #4]
 1861 0016 3A68     		ldr	r2, [r7, #0]
 1862 0018 4FEAD202 		lsr	r2, r2, #3
 1863 001c 6FEA0202 		mvn	r2, r2
 1864 0020 0A40     		ands	r2, r2, r1
 1865 0022 5A60     		str	r2, [r3, #4]
 1866 0024 18E0     		b	.L94
 1867              	.L95:
 842:../STM32F10x_StdPeriph_Lib_V3.5.0/Libraries/STM32F10x_StdPeriph_Driver/src/stm32f10x_fsmc.c ****   }  
 843:../STM32F10x_StdPeriph_Lib_V3.5.0/Libraries/STM32F10x_StdPeriph_Driver/src/stm32f10x_fsmc.c ****   else if(FSMC_Bank == FSMC_Bank3_NAND)
 1868              		.loc 1 843 0
 1869 0026 7B68     		ldr	r3, [r7, #4]
 1870 0028 B3F5807F 		cmp	r3, #256
 1871 002c 0AD1     		bne	.L97
 844:../STM32F10x_StdPeriph_Lib_V3.5.0/Libraries/STM32F10x_StdPeriph_Driver/src/stm32f10x_fsmc.c ****   {
 845:../STM32F10x_StdPeriph_Lib_V3.5.0/Libraries/STM32F10x_StdPeriph_Driver/src/stm32f10x_fsmc.c ****     FSMC_Bank3->SR3 &= ~(FSMC_IT >> 3);
 1872              		.loc 1 845 0
 1873 002e 0E4B     		ldr	r3, .L98+4
 1874 0030 0D4A     		ldr	r2, .L98+4
 1875 0032 5168     		ldr	r1, [r2, #4]
 1876 0034 3A68     		ldr	r2, [r7, #0]
 1877 0036 4FEAD202 		lsr	r2, r2, #3
 1878 003a 6FEA0202 		mvn	r2, r2
 1879 003e 0A40     		ands	r2, r2, r1
 1880 0040 5A60     		str	r2, [r3, #4]
 1881 0042 09E0     		b	.L94
 1882              	.L97:
 846:../STM32F10x_StdPeriph_Lib_V3.5.0/Libraries/STM32F10x_StdPeriph_Driver/src/stm32f10x_fsmc.c ****   }
 847:../STM32F10x_StdPeriph_Lib_V3.5.0/Libraries/STM32F10x_StdPeriph_Driver/src/stm32f10x_fsmc.c ****   /* FSMC_Bank4_PCCARD*/
 848:../STM32F10x_StdPeriph_Lib_V3.5.0/Libraries/STM32F10x_StdPeriph_Driver/src/stm32f10x_fsmc.c ****   else
 849:../STM32F10x_StdPeriph_Lib_V3.5.0/Libraries/STM32F10x_StdPeriph_Driver/src/stm32f10x_fsmc.c ****   {
 850:../STM32F10x_StdPeriph_Lib_V3.5.0/Libraries/STM32F10x_StdPeriph_Driver/src/stm32f10x_fsmc.c ****     FSMC_Bank4->SR4 &= ~(FSMC_IT >> 3);
 1883              		.loc 1 850 0
 1884 0044 094B     		ldr	r3, .L98+8
 1885 0046 094A     		ldr	r2, .L98+8
 1886 0048 5168     		ldr	r1, [r2, #4]
 1887 004a 3A68     		ldr	r2, [r7, #0]
 1888 004c 4FEAD202 		lsr	r2, r2, #3
 1889 0050 6FEA0202 		mvn	r2, r2
 1890 0054 0A40     		ands	r2, r2, r1
 1891 0056 5A60     		str	r2, [r3, #4]
 1892              	.L94:
 851:../STM32F10x_StdPeriph_Lib_V3.5.0/Libraries/STM32F10x_StdPeriph_Driver/src/stm32f10x_fsmc.c ****   }
 852:../STM32F10x_StdPeriph_Lib_V3.5.0/Libraries/STM32F10x_StdPeriph_Driver/src/stm32f10x_fsmc.c **** }
 1893              		.loc 1 852 0
 1894 0058 07F10C07 		add	r7, r7, #12
 1895 005c BD46     		mov	sp, r7
 1896 005e 80BC     		pop	{r7}
 1897 0060 7047     		bx	lr
 1898              	.L99:
 1899 0062 00BF     		.align	2
 1900              	.L98:
 1901 0064 600000A0 		.word	-1610612640
 1902 0068 800000A0 		.word	-1610612608
 1903 006c A00000A0 		.word	-1610612576
 1904              		.cfi_endproc
 1905              	.LFE47:
 1907              		.text
 1908              	.Letext0:
 1909              		.file 2 "/home/dragon/CodeSourcery/Sourcery_CodeBench_Lite_for_ARM_EABI/bin/../lib/gcc/arm-none-ea
 1910              		.file 3 "/home/dragon/workspace/STM32F103C8T6_LibV3.5/STM32F10x_StdPeriph_Lib_V3.5.0/Libraries/CMS
 1911              		.file 4 "/home/dragon/workspace/STM32F103C8T6_LibV3.5/STM32F10x_StdPeriph_Lib_V3.5.0/Libraries/STM
 1912              		.file 5 "/home/dragon/workspace/STM32F103C8T6_LibV3.5/STM32F10x_StdPeriph_Lib_V3.5.0/Libraries/CMS