
STM32F103C8T6_LibV3.5.elf:     file format elf32-littlearm

Sections:
Idx Name          Size      VMA       LMA       File off  Algn
  0 .isr_vector   0000010c  08000000  08000000  00008000  2**0
                  CONTENTS, ALLOC, LOAD, READONLY, DATA
  1 .text         00000440  0800010c  0800010c  0000810c  2**2
                  CONTENTS, ALLOC, LOAD, READONLY, CODE
  2 .init_array   00000004  0800054c  0800054c  0000854c  2**2
                  CONTENTS, ALLOC, LOAD, DATA
  3 .fini_array   00000004  08000550  08000550  00008550  2**2
                  CONTENTS, ALLOC, LOAD, DATA
  4 .bss          00000020  20000000  20000000  00010000  2**2
                  ALLOC
  5 ._user_heap_stack 00000100  20000020  20000020  00010000  2**0
                  ALLOC
  6 .ARM.attributes 00000027  00000000  00000000  00008554  2**0
                  CONTENTS, READONLY
  7 .comment      00000030  00000000  00000000  0000857b  2**0
                  CONTENTS, READONLY
  8 .debug_frame  0000002c  00000000  00000000  000085ac  2**2
                  CONTENTS, READONLY, DEBUGGING

Disassembly of section .text:

0800010c <deregister_tm_clones>:
 800010c:	b508      	push	{r3, lr}
 800010e:	f240 0000 	movw	r0, #0
 8000112:	4b07      	ldr	r3, [pc, #28]	; (8000130 <deregister_tm_clones+0x24>)
 8000114:	f2c2 0000 	movt	r0, #8192	; 0x2000
 8000118:	1a1b      	subs	r3, r3, r0
 800011a:	2b06      	cmp	r3, #6
 800011c:	d800      	bhi.n	8000120 <deregister_tm_clones+0x14>
 800011e:	bd08      	pop	{r3, pc}
 8000120:	f240 0300 	movw	r3, #0
 8000124:	f2c0 0300 	movt	r3, #0
 8000128:	2b00      	cmp	r3, #0
 800012a:	d0f8      	beq.n	800011e <deregister_tm_clones+0x12>
 800012c:	4798      	blx	r3
 800012e:	e7f6      	b.n	800011e <deregister_tm_clones+0x12>
 8000130:	20000003 	.word	0x20000003

08000134 <register_tm_clones>:
 8000134:	b508      	push	{r3, lr}
 8000136:	f240 0000 	movw	r0, #0
 800013a:	f240 0300 	movw	r3, #0
 800013e:	f2c2 0000 	movt	r0, #8192	; 0x2000
 8000142:	f2c2 0300 	movt	r3, #8192	; 0x2000
 8000146:	1a1b      	subs	r3, r3, r0
 8000148:	109b      	asrs	r3, r3, #2
 800014a:	eb03 73d3 	add.w	r3, r3, r3, lsr #31
 800014e:	1059      	asrs	r1, r3, #1
 8000150:	d100      	bne.n	8000154 <register_tm_clones+0x20>
 8000152:	bd08      	pop	{r3, pc}
 8000154:	f240 0200 	movw	r2, #0
 8000158:	f2c0 0200 	movt	r2, #0
 800015c:	2a00      	cmp	r2, #0
 800015e:	d0f8      	beq.n	8000152 <register_tm_clones+0x1e>
 8000160:	4790      	blx	r2
 8000162:	e7f6      	b.n	8000152 <register_tm_clones+0x1e>

08000164 <__do_global_dtors_aux>:
 8000164:	b510      	push	{r4, lr}
 8000166:	f240 0400 	movw	r4, #0
 800016a:	f2c2 0400 	movt	r4, #8192	; 0x2000
 800016e:	7823      	ldrb	r3, [r4, #0]
 8000170:	b973      	cbnz	r3, 8000190 <__do_global_dtors_aux+0x2c>
 8000172:	f7ff ffcb 	bl	800010c <deregister_tm_clones>
 8000176:	f240 0300 	movw	r3, #0
 800017a:	f2c0 0300 	movt	r3, #0
 800017e:	b12b      	cbz	r3, 800018c <__do_global_dtors_aux+0x28>
 8000180:	f240 5034 	movw	r0, #1332	; 0x534
 8000184:	f6c0 0000 	movt	r0, #2048	; 0x800
 8000188:	f3af 8000 	nop.w
 800018c:	2301      	movs	r3, #1
 800018e:	7023      	strb	r3, [r4, #0]
 8000190:	bd10      	pop	{r4, pc}
 8000192:	bf00      	nop

08000194 <frame_dummy>:
 8000194:	b508      	push	{r3, lr}
 8000196:	f240 0300 	movw	r3, #0
 800019a:	f2c0 0300 	movt	r3, #0
 800019e:	b14b      	cbz	r3, 80001b4 <frame_dummy+0x20>
 80001a0:	f240 5034 	movw	r0, #1332	; 0x534
 80001a4:	f240 0104 	movw	r1, #4
 80001a8:	f6c0 0000 	movt	r0, #2048	; 0x800
 80001ac:	f2c2 0100 	movt	r1, #8192	; 0x2000
 80001b0:	f3af 8000 	nop.w
 80001b4:	f240 0000 	movw	r0, #0
 80001b8:	f2c2 0000 	movt	r0, #8192	; 0x2000
 80001bc:	6803      	ldr	r3, [r0, #0]
 80001be:	b12b      	cbz	r3, 80001cc <frame_dummy+0x38>
 80001c0:	f240 0300 	movw	r3, #0
 80001c4:	f2c0 0300 	movt	r3, #0
 80001c8:	b103      	cbz	r3, 80001cc <frame_dummy+0x38>
 80001ca:	4798      	blx	r3
 80001cc:	e8bd 4008 	ldmia.w	sp!, {r3, lr}
 80001d0:	f7ff bfb0 	b.w	8000134 <register_tm_clones>

080001d4 <__libc_init_array>:
 80001d4:	b570      	push	{r4, r5, r6, lr}
 80001d6:	f240 564c 	movw	r6, #1356	; 0x54c
 80001da:	f240 554c 	movw	r5, #1356	; 0x54c
 80001de:	f6c0 0600 	movt	r6, #2048	; 0x800
 80001e2:	f6c0 0500 	movt	r5, #2048	; 0x800
 80001e6:	1b76      	subs	r6, r6, r5
 80001e8:	10b6      	asrs	r6, r6, #2
 80001ea:	d007      	beq.n	80001fc <__libc_init_array+0x28>
 80001ec:	3d04      	subs	r5, #4
 80001ee:	2400      	movs	r4, #0
 80001f0:	f855 3f04 	ldr.w	r3, [r5, #4]!
 80001f4:	3401      	adds	r4, #1
 80001f6:	4798      	blx	r3
 80001f8:	42a6      	cmp	r6, r4
 80001fa:	d1f9      	bne.n	80001f0 <__libc_init_array+0x1c>
 80001fc:	f240 5650 	movw	r6, #1360	; 0x550
 8000200:	f240 554c 	movw	r5, #1356	; 0x54c
 8000204:	f6c0 0600 	movt	r6, #2048	; 0x800
 8000208:	f6c0 0500 	movt	r5, #2048	; 0x800
 800020c:	1b76      	subs	r6, r6, r5
 800020e:	f000 f991 	bl	8000534 <_init>
 8000212:	10b6      	asrs	r6, r6, #2
 8000214:	d008      	beq.n	8000228 <__libc_init_array+0x54>
 8000216:	3d04      	subs	r5, #4
 8000218:	2400      	movs	r4, #0
 800021a:	f855 3f04 	ldr.w	r3, [r5, #4]!
 800021e:	3401      	adds	r4, #1
 8000220:	4798      	blx	r3
 8000222:	42a6      	cmp	r6, r4
 8000224:	d1f9      	bne.n	800021a <__libc_init_array+0x46>
 8000226:	bd70      	pop	{r4, r5, r6, pc}
 8000228:	bd70      	pop	{r4, r5, r6, pc}
 800022a:	bf00      	nop

0800022c <delay>:
 800022c:	b082      	sub	sp, #8
 800022e:	9001      	str	r0, [sp, #4]
 8000230:	9b01      	ldr	r3, [sp, #4]
 8000232:	1e5a      	subs	r2, r3, #1
 8000234:	9201      	str	r2, [sp, #4]
 8000236:	2b00      	cmp	r3, #0
 8000238:	d1fa      	bne.n	8000230 <delay+0x4>
 800023a:	b002      	add	sp, #8
 800023c:	4770      	bx	lr
	...

08000240 <main>:
 8000240:	b508      	push	{r3, lr}
 8000242:	2008      	movs	r0, #8
 8000244:	2101      	movs	r1, #1
 8000246:	f000 f93f 	bl	80004c8 <RCC_APB2PeriphClockCmd>
 800024a:	492c      	ldr	r1, [pc, #176]	; (80002fc <main+0xbc>)
 800024c:	f641 4303 	movw	r3, #7171	; 0x1c03
 8000250:	800b      	strh	r3, [r1, #0]
 8000252:	2303      	movs	r3, #3
 8000254:	708b      	strb	r3, [r1, #2]
 8000256:	482a      	ldr	r0, [pc, #168]	; (8000300 <main+0xc0>)
 8000258:	2314      	movs	r3, #20
 800025a:	70cb      	strb	r3, [r1, #3]
 800025c:	f000 f8dc 	bl	8000418 <GPIO_Init>
 8000260:	2101      	movs	r1, #1
 8000262:	4827      	ldr	r0, [pc, #156]	; (8000300 <main+0xc0>)
 8000264:	f000 f92e 	bl	80004c4 <GPIO_ResetBits>
 8000268:	4826      	ldr	r0, [pc, #152]	; (8000304 <main+0xc4>)
 800026a:	f7ff ffdf 	bl	800022c <delay>
 800026e:	2101      	movs	r1, #1
 8000270:	4823      	ldr	r0, [pc, #140]	; (8000300 <main+0xc0>)
 8000272:	f000 f925 	bl	80004c0 <GPIO_SetBits>
 8000276:	4823      	ldr	r0, [pc, #140]	; (8000304 <main+0xc4>)
 8000278:	f7ff ffd8 	bl	800022c <delay>
 800027c:	2102      	movs	r1, #2
 800027e:	4820      	ldr	r0, [pc, #128]	; (8000300 <main+0xc0>)
 8000280:	f000 f920 	bl	80004c4 <GPIO_ResetBits>
 8000284:	481f      	ldr	r0, [pc, #124]	; (8000304 <main+0xc4>)
 8000286:	f7ff ffd1 	bl	800022c <delay>
 800028a:	2102      	movs	r1, #2
 800028c:	481c      	ldr	r0, [pc, #112]	; (8000300 <main+0xc0>)
 800028e:	f000 f917 	bl	80004c0 <GPIO_SetBits>
 8000292:	481c      	ldr	r0, [pc, #112]	; (8000304 <main+0xc4>)
 8000294:	f7ff ffca 	bl	800022c <delay>
 8000298:	f44f 6180 	mov.w	r1, #1024	; 0x400
 800029c:	4818      	ldr	r0, [pc, #96]	; (8000300 <main+0xc0>)
 800029e:	f000 f911 	bl	80004c4 <GPIO_ResetBits>
 80002a2:	4818      	ldr	r0, [pc, #96]	; (8000304 <main+0xc4>)
 80002a4:	f7ff ffc2 	bl	800022c <delay>
 80002a8:	f44f 6180 	mov.w	r1, #1024	; 0x400
 80002ac:	4814      	ldr	r0, [pc, #80]	; (8000300 <main+0xc0>)
 80002ae:	f000 f907 	bl	80004c0 <GPIO_SetBits>
 80002b2:	4814      	ldr	r0, [pc, #80]	; (8000304 <main+0xc4>)
 80002b4:	f7ff ffba 	bl	800022c <delay>
 80002b8:	f44f 6100 	mov.w	r1, #2048	; 0x800
 80002bc:	4810      	ldr	r0, [pc, #64]	; (8000300 <main+0xc0>)
 80002be:	f000 f901 	bl	80004c4 <GPIO_ResetBits>
 80002c2:	4810      	ldr	r0, [pc, #64]	; (8000304 <main+0xc4>)
 80002c4:	f7ff ffb2 	bl	800022c <delay>
 80002c8:	f44f 6100 	mov.w	r1, #2048	; 0x800
 80002cc:	480c      	ldr	r0, [pc, #48]	; (8000300 <main+0xc0>)
 80002ce:	f000 f8f7 	bl	80004c0 <GPIO_SetBits>
 80002d2:	480c      	ldr	r0, [pc, #48]	; (8000304 <main+0xc4>)
 80002d4:	f7ff ffaa 	bl	800022c <delay>
 80002d8:	f44f 5180 	mov.w	r1, #4096	; 0x1000
 80002dc:	4808      	ldr	r0, [pc, #32]	; (8000300 <main+0xc0>)
 80002de:	f000 f8f1 	bl	80004c4 <GPIO_ResetBits>
 80002e2:	4808      	ldr	r0, [pc, #32]	; (8000304 <main+0xc4>)
 80002e4:	f7ff ffa2 	bl	800022c <delay>
 80002e8:	4805      	ldr	r0, [pc, #20]	; (8000300 <main+0xc0>)
 80002ea:	f44f 5180 	mov.w	r1, #4096	; 0x1000
 80002ee:	f000 f8e7 	bl	80004c0 <GPIO_SetBits>
 80002f2:	4804      	ldr	r0, [pc, #16]	; (8000304 <main+0xc4>)
 80002f4:	f7ff ff9a 	bl	800022c <delay>
 80002f8:	e7b2      	b.n	8000260 <main+0x20>
 80002fa:	bf00      	nop
 80002fc:	2000001c 	.word	0x2000001c
 8000300:	40010c00 	.word	0x40010c00
 8000304:	0006ffff 	.word	0x0006ffff

08000308 <NMI_Handler>:
 8000308:	4770      	bx	lr

0800030a <HardFault_Handler>:
 800030a:	e7fe      	b.n	800030a <HardFault_Handler>

0800030c <MemManage_Handler>:
 800030c:	e7fe      	b.n	800030c <MemManage_Handler>

0800030e <BusFault_Handler>:
 800030e:	e7fe      	b.n	800030e <BusFault_Handler>

08000310 <UsageFault_Handler>:
 8000310:	e7fe      	b.n	8000310 <UsageFault_Handler>

08000312 <SVC_Handler>:
 8000312:	4770      	bx	lr

08000314 <DebugMon_Handler>:
 8000314:	4770      	bx	lr

08000316 <PendSV_Handler>:
 8000316:	4770      	bx	lr

08000318 <SysTick_Handler>:
 8000318:	4770      	bx	lr
	...

0800031c <SystemInit>:
 800031c:	4b3a      	ldr	r3, [pc, #232]	; (8000408 <SystemInit+0xec>)
 800031e:	b082      	sub	sp, #8
 8000320:	681a      	ldr	r2, [r3, #0]
 8000322:	f042 0201 	orr.w	r2, r2, #1
 8000326:	601a      	str	r2, [r3, #0]
 8000328:	6859      	ldr	r1, [r3, #4]
 800032a:	4a38      	ldr	r2, [pc, #224]	; (800040c <SystemInit+0xf0>)
 800032c:	400a      	ands	r2, r1
 800032e:	605a      	str	r2, [r3, #4]
 8000330:	681a      	ldr	r2, [r3, #0]
 8000332:	f022 7284 	bic.w	r2, r2, #17301504	; 0x1080000
 8000336:	f422 3280 	bic.w	r2, r2, #65536	; 0x10000
 800033a:	601a      	str	r2, [r3, #0]
 800033c:	681a      	ldr	r2, [r3, #0]
 800033e:	f422 2280 	bic.w	r2, r2, #262144	; 0x40000
 8000342:	601a      	str	r2, [r3, #0]
 8000344:	685a      	ldr	r2, [r3, #4]
 8000346:	f422 02fe 	bic.w	r2, r2, #8323072	; 0x7f0000
 800034a:	605a      	str	r2, [r3, #4]
 800034c:	f44f 021f 	mov.w	r2, #10420224	; 0x9f0000
 8000350:	609a      	str	r2, [r3, #8]
 8000352:	2200      	movs	r2, #0
 8000354:	9200      	str	r2, [sp, #0]
 8000356:	9201      	str	r2, [sp, #4]
 8000358:	681a      	ldr	r2, [r3, #0]
 800035a:	f442 3280 	orr.w	r2, r2, #65536	; 0x10000
 800035e:	601a      	str	r2, [r3, #0]
 8000360:	681a      	ldr	r2, [r3, #0]
 8000362:	f402 3200 	and.w	r2, r2, #131072	; 0x20000
 8000366:	9201      	str	r2, [sp, #4]
 8000368:	9a00      	ldr	r2, [sp, #0]
 800036a:	3201      	adds	r2, #1
 800036c:	9200      	str	r2, [sp, #0]
 800036e:	9a01      	ldr	r2, [sp, #4]
 8000370:	b91a      	cbnz	r2, 800037a <SystemInit+0x5e>
 8000372:	9a00      	ldr	r2, [sp, #0]
 8000374:	f5b2 6fa0 	cmp.w	r2, #1280	; 0x500
 8000378:	d1f2      	bne.n	8000360 <SystemInit+0x44>
 800037a:	4b23      	ldr	r3, [pc, #140]	; (8000408 <SystemInit+0xec>)
 800037c:	681b      	ldr	r3, [r3, #0]
 800037e:	f413 3300 	ands.w	r3, r3, #131072	; 0x20000
 8000382:	bf18      	it	ne
 8000384:	2301      	movne	r3, #1
 8000386:	9301      	str	r3, [sp, #4]
 8000388:	9b01      	ldr	r3, [sp, #4]
 800038a:	2b01      	cmp	r3, #1
 800038c:	d004      	beq.n	8000398 <SystemInit+0x7c>
 800038e:	4b20      	ldr	r3, [pc, #128]	; (8000410 <SystemInit+0xf4>)
 8000390:	f04f 6200 	mov.w	r2, #134217728	; 0x8000000
 8000394:	609a      	str	r2, [r3, #8]
 8000396:	e034      	b.n	8000402 <SystemInit+0xe6>
 8000398:	4b1e      	ldr	r3, [pc, #120]	; (8000414 <SystemInit+0xf8>)
 800039a:	681a      	ldr	r2, [r3, #0]
 800039c:	f042 0210 	orr.w	r2, r2, #16
 80003a0:	601a      	str	r2, [r3, #0]
 80003a2:	681a      	ldr	r2, [r3, #0]
 80003a4:	f022 0203 	bic.w	r2, r2, #3
 80003a8:	601a      	str	r2, [r3, #0]
 80003aa:	681a      	ldr	r2, [r3, #0]
 80003ac:	f042 0202 	orr.w	r2, r2, #2
 80003b0:	601a      	str	r2, [r3, #0]
 80003b2:	f5a3 5380 	sub.w	r3, r3, #4096	; 0x1000
 80003b6:	685a      	ldr	r2, [r3, #4]
 80003b8:	605a      	str	r2, [r3, #4]
 80003ba:	685a      	ldr	r2, [r3, #4]
 80003bc:	605a      	str	r2, [r3, #4]
 80003be:	685a      	ldr	r2, [r3, #4]
 80003c0:	f442 6280 	orr.w	r2, r2, #1024	; 0x400
 80003c4:	605a      	str	r2, [r3, #4]
 80003c6:	685a      	ldr	r2, [r3, #4]
 80003c8:	f422 127c 	bic.w	r2, r2, #4128768	; 0x3f0000
 80003cc:	605a      	str	r2, [r3, #4]
 80003ce:	685a      	ldr	r2, [r3, #4]
 80003d0:	f442 12e8 	orr.w	r2, r2, #1900544	; 0x1d0000
 80003d4:	605a      	str	r2, [r3, #4]
 80003d6:	681a      	ldr	r2, [r3, #0]
 80003d8:	f042 7280 	orr.w	r2, r2, #16777216	; 0x1000000
 80003dc:	601a      	str	r2, [r3, #0]
 80003de:	6819      	ldr	r1, [r3, #0]
 80003e0:	4a09      	ldr	r2, [pc, #36]	; (8000408 <SystemInit+0xec>)
 80003e2:	0189      	lsls	r1, r1, #6
 80003e4:	d5fb      	bpl.n	80003de <SystemInit+0xc2>
 80003e6:	6853      	ldr	r3, [r2, #4]
 80003e8:	f023 0303 	bic.w	r3, r3, #3
 80003ec:	6053      	str	r3, [r2, #4]
 80003ee:	6853      	ldr	r3, [r2, #4]
 80003f0:	f043 0302 	orr.w	r3, r3, #2
 80003f4:	6053      	str	r3, [r2, #4]
 80003f6:	6853      	ldr	r3, [r2, #4]
 80003f8:	f003 030c 	and.w	r3, r3, #12
 80003fc:	2b08      	cmp	r3, #8
 80003fe:	d1fa      	bne.n	80003f6 <SystemInit+0xda>
 8000400:	e7c5      	b.n	800038e <SystemInit+0x72>
 8000402:	b002      	add	sp, #8
 8000404:	4770      	bx	lr
 8000406:	bf00      	nop
 8000408:	40021000 	.word	0x40021000
 800040c:	f8ff0000 	.word	0xf8ff0000
 8000410:	e000ed00 	.word	0xe000ed00
 8000414:	40022000 	.word	0x40022000

08000418 <GPIO_Init>:
 8000418:	78cb      	ldrb	r3, [r1, #3]
 800041a:	e92d 43f0 	stmdb	sp!, {r4, r5, r6, r7, r8, r9, lr}
 800041e:	06da      	lsls	r2, r3, #27
 8000420:	bf48      	it	mi
 8000422:	788a      	ldrbmi	r2, [r1, #2]
 8000424:	8809      	ldrh	r1, [r1, #0]
 8000426:	f003 050f 	and.w	r5, r3, #15
 800042a:	bf48      	it	mi
 800042c:	4315      	orrmi	r5, r2
 800042e:	f011 0fff 	tst.w	r1, #255	; 0xff
 8000432:	d01f      	beq.n	8000474 <GPIO_Init+0x5c>
 8000434:	6804      	ldr	r4, [r0, #0]
 8000436:	2200      	movs	r2, #0
 8000438:	f04f 0c01 	mov.w	ip, #1
 800043c:	f04f 080f 	mov.w	r8, #15
 8000440:	fa0c f702 	lsl.w	r7, ip, r2
 8000444:	ea07 0601 	and.w	r6, r7, r1
 8000448:	42be      	cmp	r6, r7
 800044a:	d10f      	bne.n	800046c <GPIO_Init+0x54>
 800044c:	0097      	lsls	r7, r2, #2
 800044e:	fa08 f907 	lsl.w	r9, r8, r7
 8000452:	fa05 f707 	lsl.w	r7, r5, r7
 8000456:	ea24 0409 	bic.w	r4, r4, r9
 800045a:	2b28      	cmp	r3, #40	; 0x28
 800045c:	ea44 0407 	orr.w	r4, r4, r7
 8000460:	d101      	bne.n	8000466 <GPIO_Init+0x4e>
 8000462:	6146      	str	r6, [r0, #20]
 8000464:	e002      	b.n	800046c <GPIO_Init+0x54>
 8000466:	2b48      	cmp	r3, #72	; 0x48
 8000468:	bf08      	it	eq
 800046a:	6106      	streq	r6, [r0, #16]
 800046c:	3201      	adds	r2, #1
 800046e:	2a08      	cmp	r2, #8
 8000470:	d1e6      	bne.n	8000440 <GPIO_Init+0x28>
 8000472:	6004      	str	r4, [r0, #0]
 8000474:	29ff      	cmp	r1, #255	; 0xff
 8000476:	d921      	bls.n	80004bc <GPIO_Init+0xa4>
 8000478:	6844      	ldr	r4, [r0, #4]
 800047a:	2200      	movs	r2, #0
 800047c:	f04f 0c01 	mov.w	ip, #1
 8000480:	f04f 080f 	mov.w	r8, #15
 8000484:	f102 0708 	add.w	r7, r2, #8
 8000488:	fa0c f707 	lsl.w	r7, ip, r7
 800048c:	ea07 0601 	and.w	r6, r7, r1
 8000490:	42be      	cmp	r6, r7
 8000492:	d10f      	bne.n	80004b4 <GPIO_Init+0x9c>
 8000494:	0097      	lsls	r7, r2, #2
 8000496:	fa08 f907 	lsl.w	r9, r8, r7
 800049a:	fa05 f707 	lsl.w	r7, r5, r7
 800049e:	ea24 0409 	bic.w	r4, r4, r9
 80004a2:	2b28      	cmp	r3, #40	; 0x28
 80004a4:	ea44 0407 	orr.w	r4, r4, r7
 80004a8:	d101      	bne.n	80004ae <GPIO_Init+0x96>
 80004aa:	6146      	str	r6, [r0, #20]
 80004ac:	e002      	b.n	80004b4 <GPIO_Init+0x9c>
 80004ae:	2b48      	cmp	r3, #72	; 0x48
 80004b0:	bf08      	it	eq
 80004b2:	6106      	streq	r6, [r0, #16]
 80004b4:	3201      	adds	r2, #1
 80004b6:	2a08      	cmp	r2, #8
 80004b8:	d1e4      	bne.n	8000484 <GPIO_Init+0x6c>
 80004ba:	6044      	str	r4, [r0, #4]
 80004bc:	e8bd 83f0 	ldmia.w	sp!, {r4, r5, r6, r7, r8, r9, pc}

080004c0 <GPIO_SetBits>:
 80004c0:	6101      	str	r1, [r0, #16]
 80004c2:	4770      	bx	lr

080004c4 <GPIO_ResetBits>:
 80004c4:	6141      	str	r1, [r0, #20]
 80004c6:	4770      	bx	lr

080004c8 <RCC_APB2PeriphClockCmd>:
 80004c8:	4b04      	ldr	r3, [pc, #16]	; (80004dc <RCC_APB2PeriphClockCmd+0x14>)
 80004ca:	699a      	ldr	r2, [r3, #24]
 80004cc:	b109      	cbz	r1, 80004d2 <RCC_APB2PeriphClockCmd+0xa>
 80004ce:	4310      	orrs	r0, r2
 80004d0:	e001      	b.n	80004d6 <RCC_APB2PeriphClockCmd+0xe>
 80004d2:	ea22 0000 	bic.w	r0, r2, r0
 80004d6:	6198      	str	r0, [r3, #24]
 80004d8:	4770      	bx	lr
 80004da:	bf00      	nop
 80004dc:	40021000 	.word	0x40021000

080004e0 <Reset_Handler>:
 80004e0:	2100      	movs	r1, #0
 80004e2:	f000 b804 	b.w	80004ee <LoopCopyDataInit>

080004e6 <CopyDataInit>:
 80004e6:	4b0d      	ldr	r3, [pc, #52]	; (800051c <LoopFillZerobss+0x16>)
 80004e8:	585b      	ldr	r3, [r3, r1]
 80004ea:	5043      	str	r3, [r0, r1]
 80004ec:	3104      	adds	r1, #4

080004ee <LoopCopyDataInit>:
 80004ee:	480c      	ldr	r0, [pc, #48]	; (8000520 <LoopFillZerobss+0x1a>)
 80004f0:	4b0c      	ldr	r3, [pc, #48]	; (8000524 <LoopFillZerobss+0x1e>)
 80004f2:	1842      	adds	r2, r0, r1
 80004f4:	429a      	cmp	r2, r3
 80004f6:	f4ff aff6 	bcc.w	80004e6 <CopyDataInit>
 80004fa:	4a0b      	ldr	r2, [pc, #44]	; (8000528 <LoopFillZerobss+0x22>)
 80004fc:	f000 b803 	b.w	8000506 <LoopFillZerobss>

08000500 <FillZerobss>:
 8000500:	2300      	movs	r3, #0
 8000502:	f842 3b04 	str.w	r3, [r2], #4

08000506 <LoopFillZerobss>:
 8000506:	4b09      	ldr	r3, [pc, #36]	; (800052c <LoopFillZerobss+0x26>)
 8000508:	429a      	cmp	r2, r3
 800050a:	f4ff aff9 	bcc.w	8000500 <FillZerobss>
 800050e:	f7ff ff05 	bl	800031c <SystemInit>
 8000512:	f7ff fe5f 	bl	80001d4 <__libc_init_array>
 8000516:	f7ff fe93 	bl	8000240 <main>
 800051a:	4770      	bx	lr
 800051c:	08000554 	.word	0x08000554
 8000520:	20000000 	.word	0x20000000
 8000524:	20000000 	.word	0x20000000
 8000528:	20000000 	.word	0x20000000
 800052c:	20000020 	.word	0x20000020

08000530 <ADC1_2_IRQHandler>:
 8000530:	f7ff bffe 	b.w	8000530 <ADC1_2_IRQHandler>

08000534 <_init>:
 8000534:	b5f8      	push	{r3, r4, r5, r6, r7, lr}
 8000536:	bf00      	nop
 8000538:	bcf8      	pop	{r3, r4, r5, r6, r7}
 800053a:	bc08      	pop	{r3}
 800053c:	469e      	mov	lr, r3
 800053e:	4770      	bx	lr

08000540 <_fini>:
 8000540:	b5f8      	push	{r3, r4, r5, r6, r7, lr}
 8000542:	bf00      	nop
 8000544:	bcf8      	pop	{r3, r4, r5, r6, r7}
 8000546:	bc08      	pop	{r3}
 8000548:	469e      	mov	lr, r3
 800054a:	4770      	bx	lr
